; Listing generated by Microsoft (R) Optimizing Compiler Version 19.14.26433.0 

include listing.inc

INCLUDELIB OLDNAMES

PUBLIC	??_C@_0BF@FMNCKNFP@FeatherFall?5Examples?$AA@	; `string'
PUBLIC	??_C@_0BB@HIFDMJDM@Clear?5Color?5Test?$AA@	; `string'
PUBLIC	??_C@_07NIHFOFBK@Buffers?$AA@			; `string'
PUBLIC	??_C@_08FLHNKADJ@Textures?$AA@			; `string'
PUBLIC	??_C@_0BA@ELHODOCL@Simple?5Renderer?$AA@	; `string'
PUBLIC	??_C@_0P@JEPKLLKC@Batch?5Renderer?$AA@		; `string'
PUBLIC	??_C@_0M@BPMKEGOM@Layer?5Scene?$AA@		; `string'
PUBLIC	??_C@_0BB@GJJACBDL@Flocking?5?$CIBoids?$CJ?$AA@	; `string'
PUBLIC	??_C@_0P@FGIJLCEO@Mandelbrot?5Set?$AA@		; `string'
PUBLIC	??_C@_0BG@BIFNHANB@Simple?5Compute?5Shader?$AA@	; `string'
PUBLIC	??_C@_09JDDCPHDA@Main?5Menu?$AA@		; `string'
PUBLIC	??_C@_03HEPJOIKG@?$DM?9?9?$AA@			; `string'
PUBLIC	??_C@_0BI@CMEGFEBC@Profiler?5?$CIRELEASE?5Mode?$CJ?$AA@ ; `string'
PUBLIC	??_C@_0CN@EIPBEGMP@Application?5average?5?$CF?43f?5ms?1fram@ ; `string'
PUBLIC	??_C@_0BD@OLBABOEK@vector?$DMT?$DO?5too?5long?$AA@ ; `string'
PUBLIC	??_R0?AV?$_Func_base@PEAVScene@1Application@@$$V@std@@@8 ; std::_Func_base<Application::Scene::Scene *> `RTTI Type Descriptor'
PUBLIC	??_R2?$_Func_base@PEAVScene@1Application@@$$V@std@@8 ; std::_Func_base<Application::Scene::Scene *>::`RTTI Base Class Array'
PUBLIC	??_R3?$_Func_base@PEAVScene@1Application@@$$V@std@@8 ; std::_Func_base<Application::Scene::Scene *>::`RTTI Class Hierarchy Descriptor'
PUBLIC	??_R1A@?0A@EA@?$_Func_base@PEAVScene@1Application@@$$V@std@@8 ; std::_Func_base<Application::Scene::Scene *>::`RTTI Base Class Descriptor at (0,-1,0,64)'
EXTRN	__imp__invalid_parameter_noinfo_noreturn:PROC
EXTRN	??_7type_info@@6B@:BYTE				; type_info::`vftable'
EXTRN	__imp___std_terminate:PROC
EXTRN	??3@YAXPEAX_K@Z:PROC				; operator delete
EXTRN	__imp_?_Xlength_error@std@@YAXPEBD@Z:PROC
EXTRN	??2@YAPEAX_K@Z:PROC				; operator new
EXTRN	__security_check_cookie:PROC
EXTRN	__imp___CxxFrameHandler3:PROC
;	COMDAT ??_R3?$_Func_impl_no_alloc@V<lambda_2c3ab7f48cee5f9b56075868f97e05b2>@@PEAVScene@2Application@@$$V@std@@8
rdata$r	SEGMENT
??_R3?$_Func_impl_no_alloc@V<lambda_2c3ab7f48cee5f9b56075868f97e05b2>@@PEAVScene@2Application@@$$V@std@@8 DD 00H ; std::_Func_impl_no_alloc<<lambda_2c3ab7f48cee5f9b56075868f97e05b2>,Application::Scene::Scene *>::`RTTI Class Hierarchy Descriptor'
	DD	00H
	DD	02H
	DD	imagerel ??_R2?$_Func_impl_no_alloc@V<lambda_2c3ab7f48cee5f9b56075868f97e05b2>@@PEAVScene@2Application@@$$V@std@@8
rdata$r	ENDS
;	COMDAT ??_R3?$_Func_impl_no_alloc@V<lambda_411dc79f4b3a863ac6e5ae55809472f9>@@PEAVScene@2Application@@$$V@std@@8
rdata$r	SEGMENT
??_R3?$_Func_impl_no_alloc@V<lambda_411dc79f4b3a863ac6e5ae55809472f9>@@PEAVScene@2Application@@$$V@std@@8 DD 00H ; std::_Func_impl_no_alloc<<lambda_411dc79f4b3a863ac6e5ae55809472f9>,Application::Scene::Scene *>::`RTTI Class Hierarchy Descriptor'
	DD	00H
	DD	02H
	DD	imagerel ??_R2?$_Func_impl_no_alloc@V<lambda_411dc79f4b3a863ac6e5ae55809472f9>@@PEAVScene@2Application@@$$V@std@@8
rdata$r	ENDS
;	COMDAT ??_7?$_Func_impl_no_alloc@V<lambda_6e33341e90591d57c68d6076b03224d9>@@PEAVScene@2Application@@$$V@std@@6B@
CONST	SEGMENT
??_7?$_Func_impl_no_alloc@V<lambda_6e33341e90591d57c68d6076b03224d9>@@PEAVScene@2Application@@$$V@std@@6B@ DQ FLAT:??_R4?$_Func_impl_no_alloc@V<lambda_6e33341e90591d57c68d6076b03224d9>@@PEAVScene@2Application@@$$V@std@@6B@ ; std::_Func_impl_no_alloc<<lambda_6e33341e90591d57c68d6076b03224d9>,Application::Scene::Scene *>::`vftable'
	DQ	FLAT:?_Copy@?$_Func_impl_no_alloc@V<lambda_6e33341e90591d57c68d6076b03224d9>@@PEAVScene@2Application@@$$V@std@@EEBAPEAV?$_Func_base@PEAVScene@1Application@@$$V@2@PEAX@Z
	DQ	FLAT:?_Move@?$_Func_impl_no_alloc@V<lambda_6e33341e90591d57c68d6076b03224d9>@@PEAVScene@2Application@@$$V@std@@EEAAPEAV?$_Func_base@PEAVScene@1Application@@$$V@2@PEAX@Z
	DQ	FLAT:?_Do_call@?$_Func_impl_no_alloc@V<lambda_6e33341e90591d57c68d6076b03224d9>@@PEAVScene@2Application@@$$V@std@@EEAAPEAVScene@3Application@@XZ
	DQ	FLAT:?_Target_type@?$_Func_impl_no_alloc@V<lambda_6e33341e90591d57c68d6076b03224d9>@@PEAVScene@2Application@@$$V@std@@EEBAAEBVtype_info@@XZ
	DQ	FLAT:?_Delete_this@?$_Func_impl_no_alloc@V<lambda_6e33341e90591d57c68d6076b03224d9>@@PEAVScene@2Application@@$$V@std@@EEAAX_N@Z
	DQ	FLAT:?_Get@?$_Func_impl_no_alloc@V<lambda_6e33341e90591d57c68d6076b03224d9>@@PEAVScene@2Application@@$$V@std@@EEBAPEBXXZ
CONST	ENDS
;	COMDAT ??_R4?$_Func_impl_no_alloc@V<lambda_9e62dcf887c94db0be73ed49d4be45d7>@@PEAVScene@2Application@@$$V@std@@6B@
rdata$r	SEGMENT
??_R4?$_Func_impl_no_alloc@V<lambda_9e62dcf887c94db0be73ed49d4be45d7>@@PEAVScene@2Application@@$$V@std@@6B@ DD 01H ; std::_Func_impl_no_alloc<<lambda_9e62dcf887c94db0be73ed49d4be45d7>,Application::Scene::Scene *>::`RTTI Complete Object Locator'
	DD	00H
	DD	00H
	DD	imagerel ??_R0?AV?$_Func_impl_no_alloc@V<lambda_9e62dcf887c94db0be73ed49d4be45d7>@@PEAVScene@2Application@@$$V@std@@@8
	DD	imagerel ??_R3?$_Func_impl_no_alloc@V<lambda_9e62dcf887c94db0be73ed49d4be45d7>@@PEAVScene@2Application@@$$V@std@@8
	DD	imagerel ??_R4?$_Func_impl_no_alloc@V<lambda_9e62dcf887c94db0be73ed49d4be45d7>@@PEAVScene@2Application@@$$V@std@@6B@
rdata$r	ENDS
;	COMDAT ??_R3?$_Func_impl_no_alloc@V<lambda_f04c6ff6a0f44a3600e7c5996fdf93c3>@@PEAVScene@2Application@@$$V@std@@8
rdata$r	SEGMENT
??_R3?$_Func_impl_no_alloc@V<lambda_f04c6ff6a0f44a3600e7c5996fdf93c3>@@PEAVScene@2Application@@$$V@std@@8 DD 00H ; std::_Func_impl_no_alloc<<lambda_f04c6ff6a0f44a3600e7c5996fdf93c3>,Application::Scene::Scene *>::`RTTI Class Hierarchy Descriptor'
	DD	00H
	DD	02H
	DD	imagerel ??_R2?$_Func_impl_no_alloc@V<lambda_f04c6ff6a0f44a3600e7c5996fdf93c3>@@PEAVScene@2Application@@$$V@std@@8
rdata$r	ENDS
;	COMDAT ??_7?$_Func_impl_no_alloc@V<lambda_8a87a946287cf0625355d2c413df9209>@@PEAVScene@2Application@@$$V@std@@6B@
CONST	SEGMENT
??_7?$_Func_impl_no_alloc@V<lambda_8a87a946287cf0625355d2c413df9209>@@PEAVScene@2Application@@$$V@std@@6B@ DQ FLAT:??_R4?$_Func_impl_no_alloc@V<lambda_8a87a946287cf0625355d2c413df9209>@@PEAVScene@2Application@@$$V@std@@6B@ ; std::_Func_impl_no_alloc<<lambda_8a87a946287cf0625355d2c413df9209>,Application::Scene::Scene *>::`vftable'
	DQ	FLAT:?_Copy@?$_Func_impl_no_alloc@V<lambda_8a87a946287cf0625355d2c413df9209>@@PEAVScene@2Application@@$$V@std@@EEBAPEAV?$_Func_base@PEAVScene@1Application@@$$V@2@PEAX@Z
	DQ	FLAT:?_Move@?$_Func_impl_no_alloc@V<lambda_8a87a946287cf0625355d2c413df9209>@@PEAVScene@2Application@@$$V@std@@EEAAPEAV?$_Func_base@PEAVScene@1Application@@$$V@2@PEAX@Z
	DQ	FLAT:?_Do_call@?$_Func_impl_no_alloc@V<lambda_8a87a946287cf0625355d2c413df9209>@@PEAVScene@2Application@@$$V@std@@EEAAPEAVScene@3Application@@XZ
	DQ	FLAT:?_Target_type@?$_Func_impl_no_alloc@V<lambda_8a87a946287cf0625355d2c413df9209>@@PEAVScene@2Application@@$$V@std@@EEBAAEBVtype_info@@XZ
	DQ	FLAT:?_Delete_this@?$_Func_impl_no_alloc@V<lambda_8a87a946287cf0625355d2c413df9209>@@PEAVScene@2Application@@$$V@std@@EEAAX_N@Z
	DQ	FLAT:?_Get@?$_Func_impl_no_alloc@V<lambda_8a87a946287cf0625355d2c413df9209>@@PEAVScene@2Application@@$$V@std@@EEBAPEBXXZ
CONST	ENDS
;	COMDAT ??_R0?AV?$_Func_impl_no_alloc@V<lambda_9e62dcf887c94db0be73ed49d4be45d7>@@PEAVScene@2Application@@$$V@std@@@8
data$r	SEGMENT
??_R0?AV?$_Func_impl_no_alloc@V<lambda_9e62dcf887c94db0be73ed49d4be45d7>@@PEAVScene@2Application@@$$V@std@@@8 DQ FLAT:??_7type_info@@6B@ ; std::_Func_impl_no_alloc<<lambda_9e62dcf887c94db0be73ed49d4be45d7>,Application::Scene::Scene *> `RTTI Type Descriptor'
	DQ	0000000000000000H
	DB	'.?AV?$_Func_impl_no_alloc@V<lambda_9e62dcf887c94db0be73e'
	DB	'd49d4be45d7>@@PEAVScene@2Application@@$$V@std@@', 00H
data$r	ENDS
;	COMDAT ??_R2?$_Func_impl_no_alloc@V<lambda_1f639e86dd05cae58c2a45cb24025185>@@PEAVScene@2Application@@$$V@std@@8
rdata$r	SEGMENT
??_R2?$_Func_impl_no_alloc@V<lambda_1f639e86dd05cae58c2a45cb24025185>@@PEAVScene@2Application@@$$V@std@@8 DD imagerel ??_R1A@?0A@EA@?$_Func_impl_no_alloc@V<lambda_1f639e86dd05cae58c2a45cb24025185>@@PEAVScene@2Application@@$$V@std@@8 ; std::_Func_impl_no_alloc<<lambda_1f639e86dd05cae58c2a45cb24025185>,Application::Scene::Scene *>::`RTTI Base Class Array'
	DD	imagerel ??_R1A@?0A@EA@?$_Func_base@PEAVScene@1Application@@$$V@std@@8
	ORG $+3
rdata$r	ENDS
;	COMDAT ??_R4?$_Func_impl_no_alloc@V<lambda_f8034f4d3434a17004a65f045c28f944>@@PEAVScene@2Application@@$$V@std@@6B@
rdata$r	SEGMENT
??_R4?$_Func_impl_no_alloc@V<lambda_f8034f4d3434a17004a65f045c28f944>@@PEAVScene@2Application@@$$V@std@@6B@ DD 01H ; std::_Func_impl_no_alloc<<lambda_f8034f4d3434a17004a65f045c28f944>,Application::Scene::Scene *>::`RTTI Complete Object Locator'
	DD	00H
	DD	00H
	DD	imagerel ??_R0?AV?$_Func_impl_no_alloc@V<lambda_f8034f4d3434a17004a65f045c28f944>@@PEAVScene@2Application@@$$V@std@@@8
	DD	imagerel ??_R3?$_Func_impl_no_alloc@V<lambda_f8034f4d3434a17004a65f045c28f944>@@PEAVScene@2Application@@$$V@std@@8
	DD	imagerel ??_R4?$_Func_impl_no_alloc@V<lambda_f8034f4d3434a17004a65f045c28f944>@@PEAVScene@2Application@@$$V@std@@6B@
rdata$r	ENDS
;	COMDAT ??_7?$_Func_impl_no_alloc@V<lambda_f8034f4d3434a17004a65f045c28f944>@@PEAVScene@2Application@@$$V@std@@6B@
CONST	SEGMENT
??_7?$_Func_impl_no_alloc@V<lambda_f8034f4d3434a17004a65f045c28f944>@@PEAVScene@2Application@@$$V@std@@6B@ DQ FLAT:??_R4?$_Func_impl_no_alloc@V<lambda_f8034f4d3434a17004a65f045c28f944>@@PEAVScene@2Application@@$$V@std@@6B@ ; std::_Func_impl_no_alloc<<lambda_f8034f4d3434a17004a65f045c28f944>,Application::Scene::Scene *>::`vftable'
	DQ	FLAT:?_Copy@?$_Func_impl_no_alloc@V<lambda_f8034f4d3434a17004a65f045c28f944>@@PEAVScene@2Application@@$$V@std@@EEBAPEAV?$_Func_base@PEAVScene@1Application@@$$V@2@PEAX@Z
	DQ	FLAT:?_Move@?$_Func_impl_no_alloc@V<lambda_f8034f4d3434a17004a65f045c28f944>@@PEAVScene@2Application@@$$V@std@@EEAAPEAV?$_Func_base@PEAVScene@1Application@@$$V@2@PEAX@Z
	DQ	FLAT:?_Do_call@?$_Func_impl_no_alloc@V<lambda_f8034f4d3434a17004a65f045c28f944>@@PEAVScene@2Application@@$$V@std@@EEAAPEAVScene@3Application@@XZ
	DQ	FLAT:?_Target_type@?$_Func_impl_no_alloc@V<lambda_f8034f4d3434a17004a65f045c28f944>@@PEAVScene@2Application@@$$V@std@@EEBAAEBVtype_info@@XZ
	DQ	FLAT:?_Delete_this@?$_Func_impl_no_alloc@V<lambda_f8034f4d3434a17004a65f045c28f944>@@PEAVScene@2Application@@$$V@std@@EEAAX_N@Z
	DQ	FLAT:?_Get@?$_Func_impl_no_alloc@V<lambda_f8034f4d3434a17004a65f045c28f944>@@PEAVScene@2Application@@$$V@std@@EEBAPEBXXZ
CONST	ENDS
;	COMDAT ??_R0?AV?$_Func_impl_no_alloc@V<lambda_8a87a946287cf0625355d2c413df9209>@@PEAVScene@2Application@@$$V@std@@@8
data$r	SEGMENT
??_R0?AV?$_Func_impl_no_alloc@V<lambda_8a87a946287cf0625355d2c413df9209>@@PEAVScene@2Application@@$$V@std@@@8 DQ FLAT:??_7type_info@@6B@ ; std::_Func_impl_no_alloc<<lambda_8a87a946287cf0625355d2c413df9209>,Application::Scene::Scene *> `RTTI Type Descriptor'
	DQ	0000000000000000H
	DB	'.?AV?$_Func_impl_no_alloc@V<lambda_8a87a946287cf0625355d'
	DB	'2c413df9209>@@PEAVScene@2Application@@$$V@std@@', 00H
data$r	ENDS
;	COMDAT ??_R2?$_Func_impl_no_alloc@V<lambda_6e33341e90591d57c68d6076b03224d9>@@PEAVScene@2Application@@$$V@std@@8
rdata$r	SEGMENT
??_R2?$_Func_impl_no_alloc@V<lambda_6e33341e90591d57c68d6076b03224d9>@@PEAVScene@2Application@@$$V@std@@8 DD imagerel ??_R1A@?0A@EA@?$_Func_impl_no_alloc@V<lambda_6e33341e90591d57c68d6076b03224d9>@@PEAVScene@2Application@@$$V@std@@8 ; std::_Func_impl_no_alloc<<lambda_6e33341e90591d57c68d6076b03224d9>,Application::Scene::Scene *>::`RTTI Base Class Array'
	DD	imagerel ??_R1A@?0A@EA@?$_Func_base@PEAVScene@1Application@@$$V@std@@8
	ORG $+3
rdata$r	ENDS
;	COMDAT ??_7?$_Func_impl_no_alloc@V<lambda_411dc79f4b3a863ac6e5ae55809472f9>@@PEAVScene@2Application@@$$V@std@@6B@
CONST	SEGMENT
??_7?$_Func_impl_no_alloc@V<lambda_411dc79f4b3a863ac6e5ae55809472f9>@@PEAVScene@2Application@@$$V@std@@6B@ DQ FLAT:??_R4?$_Func_impl_no_alloc@V<lambda_411dc79f4b3a863ac6e5ae55809472f9>@@PEAVScene@2Application@@$$V@std@@6B@ ; std::_Func_impl_no_alloc<<lambda_411dc79f4b3a863ac6e5ae55809472f9>,Application::Scene::Scene *>::`vftable'
	DQ	FLAT:?_Copy@?$_Func_impl_no_alloc@V<lambda_411dc79f4b3a863ac6e5ae55809472f9>@@PEAVScene@2Application@@$$V@std@@EEBAPEAV?$_Func_base@PEAVScene@1Application@@$$V@2@PEAX@Z
	DQ	FLAT:?_Move@?$_Func_impl_no_alloc@V<lambda_411dc79f4b3a863ac6e5ae55809472f9>@@PEAVScene@2Application@@$$V@std@@EEAAPEAV?$_Func_base@PEAVScene@1Application@@$$V@2@PEAX@Z
	DQ	FLAT:?_Do_call@?$_Func_impl_no_alloc@V<lambda_411dc79f4b3a863ac6e5ae55809472f9>@@PEAVScene@2Application@@$$V@std@@EEAAPEAVScene@3Application@@XZ
	DQ	FLAT:?_Target_type@?$_Func_impl_no_alloc@V<lambda_411dc79f4b3a863ac6e5ae55809472f9>@@PEAVScene@2Application@@$$V@std@@EEBAAEBVtype_info@@XZ
	DQ	FLAT:?_Delete_this@?$_Func_impl_no_alloc@V<lambda_411dc79f4b3a863ac6e5ae55809472f9>@@PEAVScene@2Application@@$$V@std@@EEAAX_N@Z
	DQ	FLAT:?_Get@?$_Func_impl_no_alloc@V<lambda_411dc79f4b3a863ac6e5ae55809472f9>@@PEAVScene@2Application@@$$V@std@@EEBAPEBXXZ
CONST	ENDS
;	COMDAT ??_R2?$_Func_impl_no_alloc@V<lambda_411dc79f4b3a863ac6e5ae55809472f9>@@PEAVScene@2Application@@$$V@std@@8
rdata$r	SEGMENT
??_R2?$_Func_impl_no_alloc@V<lambda_411dc79f4b3a863ac6e5ae55809472f9>@@PEAVScene@2Application@@$$V@std@@8 DD imagerel ??_R1A@?0A@EA@?$_Func_impl_no_alloc@V<lambda_411dc79f4b3a863ac6e5ae55809472f9>@@PEAVScene@2Application@@$$V@std@@8 ; std::_Func_impl_no_alloc<<lambda_411dc79f4b3a863ac6e5ae55809472f9>,Application::Scene::Scene *>::`RTTI Base Class Array'
	DD	imagerel ??_R1A@?0A@EA@?$_Func_base@PEAVScene@1Application@@$$V@std@@8
	ORG $+3
rdata$r	ENDS
;	COMDAT ??_R0?AV<lambda_f8034f4d3434a17004a65f045c28f944>@@@8
data$r	SEGMENT
??_R0?AV<lambda_f8034f4d3434a17004a65f045c28f944>@@@8 DQ FLAT:??_7type_info@@6B@ ; <lambda_f8034f4d3434a17004a65f045c28f944> `RTTI Type Descriptor'
	DQ	0000000000000000H
	DB	'.?AV<lambda_f8034f4d3434a17004a65f045c28f944>@@', 00H
data$r	ENDS
;	COMDAT ??_R0?AV?$_Func_impl_no_alloc@V<lambda_f04c6ff6a0f44a3600e7c5996fdf93c3>@@PEAVScene@2Application@@$$V@std@@@8
data$r	SEGMENT
??_R0?AV?$_Func_impl_no_alloc@V<lambda_f04c6ff6a0f44a3600e7c5996fdf93c3>@@PEAVScene@2Application@@$$V@std@@@8 DQ FLAT:??_7type_info@@6B@ ; std::_Func_impl_no_alloc<<lambda_f04c6ff6a0f44a3600e7c5996fdf93c3>,Application::Scene::Scene *> `RTTI Type Descriptor'
	DQ	0000000000000000H
	DB	'.?AV?$_Func_impl_no_alloc@V<lambda_f04c6ff6a0f44a3600e7c'
	DB	'5996fdf93c3>@@PEAVScene@2Application@@$$V@std@@', 00H
data$r	ENDS
;	COMDAT ??_R4?$_Func_impl_no_alloc@V<lambda_1f639e86dd05cae58c2a45cb24025185>@@PEAVScene@2Application@@$$V@std@@6B@
rdata$r	SEGMENT
??_R4?$_Func_impl_no_alloc@V<lambda_1f639e86dd05cae58c2a45cb24025185>@@PEAVScene@2Application@@$$V@std@@6B@ DD 01H ; std::_Func_impl_no_alloc<<lambda_1f639e86dd05cae58c2a45cb24025185>,Application::Scene::Scene *>::`RTTI Complete Object Locator'
	DD	00H
	DD	00H
	DD	imagerel ??_R0?AV?$_Func_impl_no_alloc@V<lambda_1f639e86dd05cae58c2a45cb24025185>@@PEAVScene@2Application@@$$V@std@@@8
	DD	imagerel ??_R3?$_Func_impl_no_alloc@V<lambda_1f639e86dd05cae58c2a45cb24025185>@@PEAVScene@2Application@@$$V@std@@8
	DD	imagerel ??_R4?$_Func_impl_no_alloc@V<lambda_1f639e86dd05cae58c2a45cb24025185>@@PEAVScene@2Application@@$$V@std@@6B@
rdata$r	ENDS
;	COMDAT ??_R0?AV<lambda_8a87a946287cf0625355d2c413df9209>@@@8
data$r	SEGMENT
??_R0?AV<lambda_8a87a946287cf0625355d2c413df9209>@@@8 DQ FLAT:??_7type_info@@6B@ ; <lambda_8a87a946287cf0625355d2c413df9209> `RTTI Type Descriptor'
	DQ	0000000000000000H
	DB	'.?AV<lambda_8a87a946287cf0625355d2c413df9209>@@', 00H
data$r	ENDS
;	COMDAT ??_R1A@?0A@EA@?$_Func_impl_no_alloc@V<lambda_9e62dcf887c94db0be73ed49d4be45d7>@@PEAVScene@2Application@@$$V@std@@8
rdata$r	SEGMENT
??_R1A@?0A@EA@?$_Func_impl_no_alloc@V<lambda_9e62dcf887c94db0be73ed49d4be45d7>@@PEAVScene@2Application@@$$V@std@@8 DD imagerel ??_R0?AV?$_Func_impl_no_alloc@V<lambda_9e62dcf887c94db0be73ed49d4be45d7>@@PEAVScene@2Application@@$$V@std@@@8 ; std::_Func_impl_no_alloc<<lambda_9e62dcf887c94db0be73ed49d4be45d7>,Application::Scene::Scene *>::`RTTI Base Class Descriptor at (0,-1,0,64)'
	DD	01H
	DD	00H
	DD	0ffffffffH
	DD	00H
	DD	040H
	DD	imagerel ??_R3?$_Func_impl_no_alloc@V<lambda_9e62dcf887c94db0be73ed49d4be45d7>@@PEAVScene@2Application@@$$V@std@@8
rdata$r	ENDS
;	COMDAT ??_R1A@?0A@EA@?$_Func_base@PEAVScene@1Application@@$$V@std@@8
rdata$r	SEGMENT
??_R1A@?0A@EA@?$_Func_base@PEAVScene@1Application@@$$V@std@@8 DD imagerel ??_R0?AV?$_Func_base@PEAVScene@1Application@@$$V@std@@@8 ; std::_Func_base<Application::Scene::Scene *>::`RTTI Base Class Descriptor at (0,-1,0,64)'
	DD	00H
	DD	00H
	DD	0ffffffffH
	DD	00H
	DD	040H
	DD	imagerel ??_R3?$_Func_base@PEAVScene@1Application@@$$V@std@@8
rdata$r	ENDS
;	COMDAT ??_R1A@?0A@EA@?$_Func_impl_no_alloc@V<lambda_2c3ab7f48cee5f9b56075868f97e05b2>@@PEAVScene@2Application@@$$V@std@@8
rdata$r	SEGMENT
??_R1A@?0A@EA@?$_Func_impl_no_alloc@V<lambda_2c3ab7f48cee5f9b56075868f97e05b2>@@PEAVScene@2Application@@$$V@std@@8 DD imagerel ??_R0?AV?$_Func_impl_no_alloc@V<lambda_2c3ab7f48cee5f9b56075868f97e05b2>@@PEAVScene@2Application@@$$V@std@@@8 ; std::_Func_impl_no_alloc<<lambda_2c3ab7f48cee5f9b56075868f97e05b2>,Application::Scene::Scene *>::`RTTI Base Class Descriptor at (0,-1,0,64)'
	DD	01H
	DD	00H
	DD	0ffffffffH
	DD	00H
	DD	040H
	DD	imagerel ??_R3?$_Func_impl_no_alloc@V<lambda_2c3ab7f48cee5f9b56075868f97e05b2>@@PEAVScene@2Application@@$$V@std@@8
rdata$r	ENDS
;	COMDAT ??_R3?$_Func_base@PEAVScene@1Application@@$$V@std@@8
rdata$r	SEGMENT
??_R3?$_Func_base@PEAVScene@1Application@@$$V@std@@8 DD 00H ; std::_Func_base<Application::Scene::Scene *>::`RTTI Class Hierarchy Descriptor'
	DD	00H
	DD	01H
	DD	imagerel ??_R2?$_Func_base@PEAVScene@1Application@@$$V@std@@8
rdata$r	ENDS
;	COMDAT ??_R1A@?0A@EA@?$_Func_impl_no_alloc@V<lambda_8a87a946287cf0625355d2c413df9209>@@PEAVScene@2Application@@$$V@std@@8
rdata$r	SEGMENT
??_R1A@?0A@EA@?$_Func_impl_no_alloc@V<lambda_8a87a946287cf0625355d2c413df9209>@@PEAVScene@2Application@@$$V@std@@8 DD imagerel ??_R0?AV?$_Func_impl_no_alloc@V<lambda_8a87a946287cf0625355d2c413df9209>@@PEAVScene@2Application@@$$V@std@@@8 ; std::_Func_impl_no_alloc<<lambda_8a87a946287cf0625355d2c413df9209>,Application::Scene::Scene *>::`RTTI Base Class Descriptor at (0,-1,0,64)'
	DD	01H
	DD	00H
	DD	0ffffffffH
	DD	00H
	DD	040H
	DD	imagerel ??_R3?$_Func_impl_no_alloc@V<lambda_8a87a946287cf0625355d2c413df9209>@@PEAVScene@2Application@@$$V@std@@8
rdata$r	ENDS
;	COMDAT ??_R2?$_Func_base@PEAVScene@1Application@@$$V@std@@8
rdata$r	SEGMENT
??_R2?$_Func_base@PEAVScene@1Application@@$$V@std@@8 DD imagerel ??_R1A@?0A@EA@?$_Func_base@PEAVScene@1Application@@$$V@std@@8 ; std::_Func_base<Application::Scene::Scene *>::`RTTI Base Class Array'
	ORG $+3
rdata$r	ENDS
;	COMDAT ??_R0?AV?$_Func_impl_no_alloc@V<lambda_2c3ab7f48cee5f9b56075868f97e05b2>@@PEAVScene@2Application@@$$V@std@@@8
data$r	SEGMENT
??_R0?AV?$_Func_impl_no_alloc@V<lambda_2c3ab7f48cee5f9b56075868f97e05b2>@@PEAVScene@2Application@@$$V@std@@@8 DQ FLAT:??_7type_info@@6B@ ; std::_Func_impl_no_alloc<<lambda_2c3ab7f48cee5f9b56075868f97e05b2>,Application::Scene::Scene *> `RTTI Type Descriptor'
	DQ	0000000000000000H
	DB	'.?AV?$_Func_impl_no_alloc@V<lambda_2c3ab7f48cee5f9b56075'
	DB	'868f97e05b2>@@PEAVScene@2Application@@$$V@std@@', 00H
data$r	ENDS
;	COMDAT ??_R1A@?0A@EA@?$_Func_impl_no_alloc@V<lambda_411dc79f4b3a863ac6e5ae55809472f9>@@PEAVScene@2Application@@$$V@std@@8
rdata$r	SEGMENT
??_R1A@?0A@EA@?$_Func_impl_no_alloc@V<lambda_411dc79f4b3a863ac6e5ae55809472f9>@@PEAVScene@2Application@@$$V@std@@8 DD imagerel ??_R0?AV?$_Func_impl_no_alloc@V<lambda_411dc79f4b3a863ac6e5ae55809472f9>@@PEAVScene@2Application@@$$V@std@@@8 ; std::_Func_impl_no_alloc<<lambda_411dc79f4b3a863ac6e5ae55809472f9>,Application::Scene::Scene *>::`RTTI Base Class Descriptor at (0,-1,0,64)'
	DD	01H
	DD	00H
	DD	0ffffffffH
	DD	00H
	DD	040H
	DD	imagerel ??_R3?$_Func_impl_no_alloc@V<lambda_411dc79f4b3a863ac6e5ae55809472f9>@@PEAVScene@2Application@@$$V@std@@8
rdata$r	ENDS
;	COMDAT ??_R1A@?0A@EA@?$_Func_impl_no_alloc@V<lambda_6e33341e90591d57c68d6076b03224d9>@@PEAVScene@2Application@@$$V@std@@8
rdata$r	SEGMENT
??_R1A@?0A@EA@?$_Func_impl_no_alloc@V<lambda_6e33341e90591d57c68d6076b03224d9>@@PEAVScene@2Application@@$$V@std@@8 DD imagerel ??_R0?AV?$_Func_impl_no_alloc@V<lambda_6e33341e90591d57c68d6076b03224d9>@@PEAVScene@2Application@@$$V@std@@@8 ; std::_Func_impl_no_alloc<<lambda_6e33341e90591d57c68d6076b03224d9>,Application::Scene::Scene *>::`RTTI Base Class Descriptor at (0,-1,0,64)'
	DD	01H
	DD	00H
	DD	0ffffffffH
	DD	00H
	DD	040H
	DD	imagerel ??_R3?$_Func_impl_no_alloc@V<lambda_6e33341e90591d57c68d6076b03224d9>@@PEAVScene@2Application@@$$V@std@@8
rdata$r	ENDS
;	COMDAT ??_7?$_Func_impl_no_alloc@V<lambda_9e62dcf887c94db0be73ed49d4be45d7>@@PEAVScene@2Application@@$$V@std@@6B@
CONST	SEGMENT
??_7?$_Func_impl_no_alloc@V<lambda_9e62dcf887c94db0be73ed49d4be45d7>@@PEAVScene@2Application@@$$V@std@@6B@ DQ FLAT:??_R4?$_Func_impl_no_alloc@V<lambda_9e62dcf887c94db0be73ed49d4be45d7>@@PEAVScene@2Application@@$$V@std@@6B@ ; std::_Func_impl_no_alloc<<lambda_9e62dcf887c94db0be73ed49d4be45d7>,Application::Scene::Scene *>::`vftable'
	DQ	FLAT:?_Copy@?$_Func_impl_no_alloc@V<lambda_9e62dcf887c94db0be73ed49d4be45d7>@@PEAVScene@2Application@@$$V@std@@EEBAPEAV?$_Func_base@PEAVScene@1Application@@$$V@2@PEAX@Z
	DQ	FLAT:?_Move@?$_Func_impl_no_alloc@V<lambda_9e62dcf887c94db0be73ed49d4be45d7>@@PEAVScene@2Application@@$$V@std@@EEAAPEAV?$_Func_base@PEAVScene@1Application@@$$V@2@PEAX@Z
	DQ	FLAT:?_Do_call@?$_Func_impl_no_alloc@V<lambda_9e62dcf887c94db0be73ed49d4be45d7>@@PEAVScene@2Application@@$$V@std@@EEAAPEAVScene@3Application@@XZ
	DQ	FLAT:?_Target_type@?$_Func_impl_no_alloc@V<lambda_9e62dcf887c94db0be73ed49d4be45d7>@@PEAVScene@2Application@@$$V@std@@EEBAAEBVtype_info@@XZ
	DQ	FLAT:?_Delete_this@?$_Func_impl_no_alloc@V<lambda_9e62dcf887c94db0be73ed49d4be45d7>@@PEAVScene@2Application@@$$V@std@@EEAAX_N@Z
	DQ	FLAT:?_Get@?$_Func_impl_no_alloc@V<lambda_9e62dcf887c94db0be73ed49d4be45d7>@@PEAVScene@2Application@@$$V@std@@EEBAPEBXXZ
CONST	ENDS
;	COMDAT ??_R3?$_Func_impl_no_alloc@V<lambda_d0f437802599b72fdddcf24900d600a3>@@PEAVScene@2Application@@$$V@std@@8
rdata$r	SEGMENT
??_R3?$_Func_impl_no_alloc@V<lambda_d0f437802599b72fdddcf24900d600a3>@@PEAVScene@2Application@@$$V@std@@8 DD 00H ; std::_Func_impl_no_alloc<<lambda_d0f437802599b72fdddcf24900d600a3>,Application::Scene::Scene *>::`RTTI Class Hierarchy Descriptor'
	DD	00H
	DD	02H
	DD	imagerel ??_R2?$_Func_impl_no_alloc@V<lambda_d0f437802599b72fdddcf24900d600a3>@@PEAVScene@2Application@@$$V@std@@8
rdata$r	ENDS
;	COMDAT ??_R1A@?0A@EA@?$_Func_impl_no_alloc@V<lambda_f8034f4d3434a17004a65f045c28f944>@@PEAVScene@2Application@@$$V@std@@8
rdata$r	SEGMENT
??_R1A@?0A@EA@?$_Func_impl_no_alloc@V<lambda_f8034f4d3434a17004a65f045c28f944>@@PEAVScene@2Application@@$$V@std@@8 DD imagerel ??_R0?AV?$_Func_impl_no_alloc@V<lambda_f8034f4d3434a17004a65f045c28f944>@@PEAVScene@2Application@@$$V@std@@@8 ; std::_Func_impl_no_alloc<<lambda_f8034f4d3434a17004a65f045c28f944>,Application::Scene::Scene *>::`RTTI Base Class Descriptor at (0,-1,0,64)'
	DD	01H
	DD	00H
	DD	0ffffffffH
	DD	00H
	DD	040H
	DD	imagerel ??_R3?$_Func_impl_no_alloc@V<lambda_f8034f4d3434a17004a65f045c28f944>@@PEAVScene@2Application@@$$V@std@@8
rdata$r	ENDS
;	COMDAT ??_R0?AV<lambda_f04c6ff6a0f44a3600e7c5996fdf93c3>@@@8
data$r	SEGMENT
??_R0?AV<lambda_f04c6ff6a0f44a3600e7c5996fdf93c3>@@@8 DQ FLAT:??_7type_info@@6B@ ; <lambda_f04c6ff6a0f44a3600e7c5996fdf93c3> `RTTI Type Descriptor'
	DQ	0000000000000000H
	DB	'.?AV<lambda_f04c6ff6a0f44a3600e7c5996fdf93c3>@@', 00H
data$r	ENDS
;	COMDAT ??_R0?AV?$_Func_impl_no_alloc@V<lambda_411dc79f4b3a863ac6e5ae55809472f9>@@PEAVScene@2Application@@$$V@std@@@8
data$r	SEGMENT
??_R0?AV?$_Func_impl_no_alloc@V<lambda_411dc79f4b3a863ac6e5ae55809472f9>@@PEAVScene@2Application@@$$V@std@@@8 DQ FLAT:??_7type_info@@6B@ ; std::_Func_impl_no_alloc<<lambda_411dc79f4b3a863ac6e5ae55809472f9>,Application::Scene::Scene *> `RTTI Type Descriptor'
	DQ	0000000000000000H
	DB	'.?AV?$_Func_impl_no_alloc@V<lambda_411dc79f4b3a863ac6e5a'
	DB	'e55809472f9>@@PEAVScene@2Application@@$$V@std@@', 00H
data$r	ENDS
;	COMDAT ??_R0?AV<lambda_9e62dcf887c94db0be73ed49d4be45d7>@@@8
data$r	SEGMENT
??_R0?AV<lambda_9e62dcf887c94db0be73ed49d4be45d7>@@@8 DQ FLAT:??_7type_info@@6B@ ; <lambda_9e62dcf887c94db0be73ed49d4be45d7> `RTTI Type Descriptor'
	DQ	0000000000000000H
	DB	'.?AV<lambda_9e62dcf887c94db0be73ed49d4be45d7>@@', 00H
data$r	ENDS
;	COMDAT ??_R4?$_Func_impl_no_alloc@V<lambda_6e33341e90591d57c68d6076b03224d9>@@PEAVScene@2Application@@$$V@std@@6B@
rdata$r	SEGMENT
??_R4?$_Func_impl_no_alloc@V<lambda_6e33341e90591d57c68d6076b03224d9>@@PEAVScene@2Application@@$$V@std@@6B@ DD 01H ; std::_Func_impl_no_alloc<<lambda_6e33341e90591d57c68d6076b03224d9>,Application::Scene::Scene *>::`RTTI Complete Object Locator'
	DD	00H
	DD	00H
	DD	imagerel ??_R0?AV?$_Func_impl_no_alloc@V<lambda_6e33341e90591d57c68d6076b03224d9>@@PEAVScene@2Application@@$$V@std@@@8
	DD	imagerel ??_R3?$_Func_impl_no_alloc@V<lambda_6e33341e90591d57c68d6076b03224d9>@@PEAVScene@2Application@@$$V@std@@8
	DD	imagerel ??_R4?$_Func_impl_no_alloc@V<lambda_6e33341e90591d57c68d6076b03224d9>@@PEAVScene@2Application@@$$V@std@@6B@
rdata$r	ENDS
;	COMDAT ??_R0?AV<lambda_2c3ab7f48cee5f9b56075868f97e05b2>@@@8
data$r	SEGMENT
??_R0?AV<lambda_2c3ab7f48cee5f9b56075868f97e05b2>@@@8 DQ FLAT:??_7type_info@@6B@ ; <lambda_2c3ab7f48cee5f9b56075868f97e05b2> `RTTI Type Descriptor'
	DQ	0000000000000000H
	DB	'.?AV<lambda_2c3ab7f48cee5f9b56075868f97e05b2>@@', 00H
data$r	ENDS
;	COMDAT ??_R4?$_Func_impl_no_alloc@V<lambda_f04c6ff6a0f44a3600e7c5996fdf93c3>@@PEAVScene@2Application@@$$V@std@@6B@
rdata$r	SEGMENT
??_R4?$_Func_impl_no_alloc@V<lambda_f04c6ff6a0f44a3600e7c5996fdf93c3>@@PEAVScene@2Application@@$$V@std@@6B@ DD 01H ; std::_Func_impl_no_alloc<<lambda_f04c6ff6a0f44a3600e7c5996fdf93c3>,Application::Scene::Scene *>::`RTTI Complete Object Locator'
	DD	00H
	DD	00H
	DD	imagerel ??_R0?AV?$_Func_impl_no_alloc@V<lambda_f04c6ff6a0f44a3600e7c5996fdf93c3>@@PEAVScene@2Application@@$$V@std@@@8
	DD	imagerel ??_R3?$_Func_impl_no_alloc@V<lambda_f04c6ff6a0f44a3600e7c5996fdf93c3>@@PEAVScene@2Application@@$$V@std@@8
	DD	imagerel ??_R4?$_Func_impl_no_alloc@V<lambda_f04c6ff6a0f44a3600e7c5996fdf93c3>@@PEAVScene@2Application@@$$V@std@@6B@
rdata$r	ENDS
;	COMDAT ??_R4?$_Func_impl_no_alloc@V<lambda_411dc79f4b3a863ac6e5ae55809472f9>@@PEAVScene@2Application@@$$V@std@@6B@
rdata$r	SEGMENT
??_R4?$_Func_impl_no_alloc@V<lambda_411dc79f4b3a863ac6e5ae55809472f9>@@PEAVScene@2Application@@$$V@std@@6B@ DD 01H ; std::_Func_impl_no_alloc<<lambda_411dc79f4b3a863ac6e5ae55809472f9>,Application::Scene::Scene *>::`RTTI Complete Object Locator'
	DD	00H
	DD	00H
	DD	imagerel ??_R0?AV?$_Func_impl_no_alloc@V<lambda_411dc79f4b3a863ac6e5ae55809472f9>@@PEAVScene@2Application@@$$V@std@@@8
	DD	imagerel ??_R3?$_Func_impl_no_alloc@V<lambda_411dc79f4b3a863ac6e5ae55809472f9>@@PEAVScene@2Application@@$$V@std@@8
	DD	imagerel ??_R4?$_Func_impl_no_alloc@V<lambda_411dc79f4b3a863ac6e5ae55809472f9>@@PEAVScene@2Application@@$$V@std@@6B@
rdata$r	ENDS
;	COMDAT ??_R3?$_Func_impl_no_alloc@V<lambda_6e33341e90591d57c68d6076b03224d9>@@PEAVScene@2Application@@$$V@std@@8
rdata$r	SEGMENT
??_R3?$_Func_impl_no_alloc@V<lambda_6e33341e90591d57c68d6076b03224d9>@@PEAVScene@2Application@@$$V@std@@8 DD 00H ; std::_Func_impl_no_alloc<<lambda_6e33341e90591d57c68d6076b03224d9>,Application::Scene::Scene *>::`RTTI Class Hierarchy Descriptor'
	DD	00H
	DD	02H
	DD	imagerel ??_R2?$_Func_impl_no_alloc@V<lambda_6e33341e90591d57c68d6076b03224d9>@@PEAVScene@2Application@@$$V@std@@8
rdata$r	ENDS
;	COMDAT ??_R0?AV<lambda_1f639e86dd05cae58c2a45cb24025185>@@@8
data$r	SEGMENT
??_R0?AV<lambda_1f639e86dd05cae58c2a45cb24025185>@@@8 DQ FLAT:??_7type_info@@6B@ ; <lambda_1f639e86dd05cae58c2a45cb24025185> `RTTI Type Descriptor'
	DQ	0000000000000000H
	DB	'.?AV<lambda_1f639e86dd05cae58c2a45cb24025185>@@', 00H
data$r	ENDS
;	COMDAT ??_R3?$_Func_impl_no_alloc@V<lambda_f8034f4d3434a17004a65f045c28f944>@@PEAVScene@2Application@@$$V@std@@8
rdata$r	SEGMENT
??_R3?$_Func_impl_no_alloc@V<lambda_f8034f4d3434a17004a65f045c28f944>@@PEAVScene@2Application@@$$V@std@@8 DD 00H ; std::_Func_impl_no_alloc<<lambda_f8034f4d3434a17004a65f045c28f944>,Application::Scene::Scene *>::`RTTI Class Hierarchy Descriptor'
	DD	00H
	DD	02H
	DD	imagerel ??_R2?$_Func_impl_no_alloc@V<lambda_f8034f4d3434a17004a65f045c28f944>@@PEAVScene@2Application@@$$V@std@@8
rdata$r	ENDS
;	COMDAT ??_R4?$_Func_impl_no_alloc@V<lambda_2c3ab7f48cee5f9b56075868f97e05b2>@@PEAVScene@2Application@@$$V@std@@6B@
rdata$r	SEGMENT
??_R4?$_Func_impl_no_alloc@V<lambda_2c3ab7f48cee5f9b56075868f97e05b2>@@PEAVScene@2Application@@$$V@std@@6B@ DD 01H ; std::_Func_impl_no_alloc<<lambda_2c3ab7f48cee5f9b56075868f97e05b2>,Application::Scene::Scene *>::`RTTI Complete Object Locator'
	DD	00H
	DD	00H
	DD	imagerel ??_R0?AV?$_Func_impl_no_alloc@V<lambda_2c3ab7f48cee5f9b56075868f97e05b2>@@PEAVScene@2Application@@$$V@std@@@8
	DD	imagerel ??_R3?$_Func_impl_no_alloc@V<lambda_2c3ab7f48cee5f9b56075868f97e05b2>@@PEAVScene@2Application@@$$V@std@@8
	DD	imagerel ??_R4?$_Func_impl_no_alloc@V<lambda_2c3ab7f48cee5f9b56075868f97e05b2>@@PEAVScene@2Application@@$$V@std@@6B@
rdata$r	ENDS
;	COMDAT ??_R0?AV?$_Func_impl_no_alloc@V<lambda_f8034f4d3434a17004a65f045c28f944>@@PEAVScene@2Application@@$$V@std@@@8
data$r	SEGMENT
??_R0?AV?$_Func_impl_no_alloc@V<lambda_f8034f4d3434a17004a65f045c28f944>@@PEAVScene@2Application@@$$V@std@@@8 DQ FLAT:??_7type_info@@6B@ ; std::_Func_impl_no_alloc<<lambda_f8034f4d3434a17004a65f045c28f944>,Application::Scene::Scene *> `RTTI Type Descriptor'
	DQ	0000000000000000H
	DB	'.?AV?$_Func_impl_no_alloc@V<lambda_f8034f4d3434a17004a65'
	DB	'f045c28f944>@@PEAVScene@2Application@@$$V@std@@', 00H
data$r	ENDS
;	COMDAT ??_R2?$_Func_impl_no_alloc@V<lambda_2c3ab7f48cee5f9b56075868f97e05b2>@@PEAVScene@2Application@@$$V@std@@8
rdata$r	SEGMENT
??_R2?$_Func_impl_no_alloc@V<lambda_2c3ab7f48cee5f9b56075868f97e05b2>@@PEAVScene@2Application@@$$V@std@@8 DD imagerel ??_R1A@?0A@EA@?$_Func_impl_no_alloc@V<lambda_2c3ab7f48cee5f9b56075868f97e05b2>@@PEAVScene@2Application@@$$V@std@@8 ; std::_Func_impl_no_alloc<<lambda_2c3ab7f48cee5f9b56075868f97e05b2>,Application::Scene::Scene *>::`RTTI Base Class Array'
	DD	imagerel ??_R1A@?0A@EA@?$_Func_base@PEAVScene@1Application@@$$V@std@@8
	ORG $+3
rdata$r	ENDS
;	COMDAT ??_R0?AV?$_Func_impl_no_alloc@V<lambda_1f639e86dd05cae58c2a45cb24025185>@@PEAVScene@2Application@@$$V@std@@@8
data$r	SEGMENT
??_R0?AV?$_Func_impl_no_alloc@V<lambda_1f639e86dd05cae58c2a45cb24025185>@@PEAVScene@2Application@@$$V@std@@@8 DQ FLAT:??_7type_info@@6B@ ; std::_Func_impl_no_alloc<<lambda_1f639e86dd05cae58c2a45cb24025185>,Application::Scene::Scene *> `RTTI Type Descriptor'
	DQ	0000000000000000H
	DB	'.?AV?$_Func_impl_no_alloc@V<lambda_1f639e86dd05cae58c2a4'
	DB	'5cb24025185>@@PEAVScene@2Application@@$$V@std@@', 00H
data$r	ENDS
;	COMDAT ??_R2?$_Func_impl_no_alloc@V<lambda_d0f437802599b72fdddcf24900d600a3>@@PEAVScene@2Application@@$$V@std@@8
rdata$r	SEGMENT
??_R2?$_Func_impl_no_alloc@V<lambda_d0f437802599b72fdddcf24900d600a3>@@PEAVScene@2Application@@$$V@std@@8 DD imagerel ??_R1A@?0A@EA@?$_Func_impl_no_alloc@V<lambda_d0f437802599b72fdddcf24900d600a3>@@PEAVScene@2Application@@$$V@std@@8 ; std::_Func_impl_no_alloc<<lambda_d0f437802599b72fdddcf24900d600a3>,Application::Scene::Scene *>::`RTTI Base Class Array'
	DD	imagerel ??_R1A@?0A@EA@?$_Func_base@PEAVScene@1Application@@$$V@std@@8
	ORG $+3
rdata$r	ENDS
;	COMDAT ??_R3?$_Func_impl_no_alloc@V<lambda_9e62dcf887c94db0be73ed49d4be45d7>@@PEAVScene@2Application@@$$V@std@@8
rdata$r	SEGMENT
??_R3?$_Func_impl_no_alloc@V<lambda_9e62dcf887c94db0be73ed49d4be45d7>@@PEAVScene@2Application@@$$V@std@@8 DD 00H ; std::_Func_impl_no_alloc<<lambda_9e62dcf887c94db0be73ed49d4be45d7>,Application::Scene::Scene *>::`RTTI Class Hierarchy Descriptor'
	DD	00H
	DD	02H
	DD	imagerel ??_R2?$_Func_impl_no_alloc@V<lambda_9e62dcf887c94db0be73ed49d4be45d7>@@PEAVScene@2Application@@$$V@std@@8
rdata$r	ENDS
;	COMDAT ??_R0?AV?$_Func_impl_no_alloc@V<lambda_d0f437802599b72fdddcf24900d600a3>@@PEAVScene@2Application@@$$V@std@@@8
data$r	SEGMENT
??_R0?AV?$_Func_impl_no_alloc@V<lambda_d0f437802599b72fdddcf24900d600a3>@@PEAVScene@2Application@@$$V@std@@@8 DQ FLAT:??_7type_info@@6B@ ; std::_Func_impl_no_alloc<<lambda_d0f437802599b72fdddcf24900d600a3>,Application::Scene::Scene *> `RTTI Type Descriptor'
	DQ	0000000000000000H
	DB	'.?AV?$_Func_impl_no_alloc@V<lambda_d0f437802599b72fdddcf'
	DB	'24900d600a3>@@PEAVScene@2Application@@$$V@std@@', 00H
data$r	ENDS
;	COMDAT ??_R0?AV<lambda_411dc79f4b3a863ac6e5ae55809472f9>@@@8
data$r	SEGMENT
??_R0?AV<lambda_411dc79f4b3a863ac6e5ae55809472f9>@@@8 DQ FLAT:??_7type_info@@6B@ ; <lambda_411dc79f4b3a863ac6e5ae55809472f9> `RTTI Type Descriptor'
	DQ	0000000000000000H
	DB	'.?AV<lambda_411dc79f4b3a863ac6e5ae55809472f9>@@', 00H
data$r	ENDS
;	COMDAT ??_R1A@?0A@EA@?$_Func_impl_no_alloc@V<lambda_1f639e86dd05cae58c2a45cb24025185>@@PEAVScene@2Application@@$$V@std@@8
rdata$r	SEGMENT
??_R1A@?0A@EA@?$_Func_impl_no_alloc@V<lambda_1f639e86dd05cae58c2a45cb24025185>@@PEAVScene@2Application@@$$V@std@@8 DD imagerel ??_R0?AV?$_Func_impl_no_alloc@V<lambda_1f639e86dd05cae58c2a45cb24025185>@@PEAVScene@2Application@@$$V@std@@@8 ; std::_Func_impl_no_alloc<<lambda_1f639e86dd05cae58c2a45cb24025185>,Application::Scene::Scene *>::`RTTI Base Class Descriptor at (0,-1,0,64)'
	DD	01H
	DD	00H
	DD	0ffffffffH
	DD	00H
	DD	040H
	DD	imagerel ??_R3?$_Func_impl_no_alloc@V<lambda_1f639e86dd05cae58c2a45cb24025185>@@PEAVScene@2Application@@$$V@std@@8
rdata$r	ENDS
;	COMDAT ??_R0?AV<lambda_6e33341e90591d57c68d6076b03224d9>@@@8
data$r	SEGMENT
??_R0?AV<lambda_6e33341e90591d57c68d6076b03224d9>@@@8 DQ FLAT:??_7type_info@@6B@ ; <lambda_6e33341e90591d57c68d6076b03224d9> `RTTI Type Descriptor'
	DQ	0000000000000000H
	DB	'.?AV<lambda_6e33341e90591d57c68d6076b03224d9>@@', 00H
data$r	ENDS
;	COMDAT ??_7?$_Func_impl_no_alloc@V<lambda_1f639e86dd05cae58c2a45cb24025185>@@PEAVScene@2Application@@$$V@std@@6B@
CONST	SEGMENT
??_7?$_Func_impl_no_alloc@V<lambda_1f639e86dd05cae58c2a45cb24025185>@@PEAVScene@2Application@@$$V@std@@6B@ DQ FLAT:??_R4?$_Func_impl_no_alloc@V<lambda_1f639e86dd05cae58c2a45cb24025185>@@PEAVScene@2Application@@$$V@std@@6B@ ; std::_Func_impl_no_alloc<<lambda_1f639e86dd05cae58c2a45cb24025185>,Application::Scene::Scene *>::`vftable'
	DQ	FLAT:?_Copy@?$_Func_impl_no_alloc@V<lambda_1f639e86dd05cae58c2a45cb24025185>@@PEAVScene@2Application@@$$V@std@@EEBAPEAV?$_Func_base@PEAVScene@1Application@@$$V@2@PEAX@Z
	DQ	FLAT:?_Move@?$_Func_impl_no_alloc@V<lambda_1f639e86dd05cae58c2a45cb24025185>@@PEAVScene@2Application@@$$V@std@@EEAAPEAV?$_Func_base@PEAVScene@1Application@@$$V@2@PEAX@Z
	DQ	FLAT:?_Do_call@?$_Func_impl_no_alloc@V<lambda_1f639e86dd05cae58c2a45cb24025185>@@PEAVScene@2Application@@$$V@std@@EEAAPEAVScene@3Application@@XZ
	DQ	FLAT:?_Target_type@?$_Func_impl_no_alloc@V<lambda_1f639e86dd05cae58c2a45cb24025185>@@PEAVScene@2Application@@$$V@std@@EEBAAEBVtype_info@@XZ
	DQ	FLAT:?_Delete_this@?$_Func_impl_no_alloc@V<lambda_1f639e86dd05cae58c2a45cb24025185>@@PEAVScene@2Application@@$$V@std@@EEAAX_N@Z
	DQ	FLAT:?_Get@?$_Func_impl_no_alloc@V<lambda_1f639e86dd05cae58c2a45cb24025185>@@PEAVScene@2Application@@$$V@std@@EEBAPEBXXZ
CONST	ENDS
;	COMDAT ??_R2?$_Func_impl_no_alloc@V<lambda_f8034f4d3434a17004a65f045c28f944>@@PEAVScene@2Application@@$$V@std@@8
rdata$r	SEGMENT
??_R2?$_Func_impl_no_alloc@V<lambda_f8034f4d3434a17004a65f045c28f944>@@PEAVScene@2Application@@$$V@std@@8 DD imagerel ??_R1A@?0A@EA@?$_Func_impl_no_alloc@V<lambda_f8034f4d3434a17004a65f045c28f944>@@PEAVScene@2Application@@$$V@std@@8 ; std::_Func_impl_no_alloc<<lambda_f8034f4d3434a17004a65f045c28f944>,Application::Scene::Scene *>::`RTTI Base Class Array'
	DD	imagerel ??_R1A@?0A@EA@?$_Func_base@PEAVScene@1Application@@$$V@std@@8
	ORG $+3
rdata$r	ENDS
;	COMDAT ??_R1A@?0A@EA@?$_Func_impl_no_alloc@V<lambda_f04c6ff6a0f44a3600e7c5996fdf93c3>@@PEAVScene@2Application@@$$V@std@@8
rdata$r	SEGMENT
??_R1A@?0A@EA@?$_Func_impl_no_alloc@V<lambda_f04c6ff6a0f44a3600e7c5996fdf93c3>@@PEAVScene@2Application@@$$V@std@@8 DD imagerel ??_R0?AV?$_Func_impl_no_alloc@V<lambda_f04c6ff6a0f44a3600e7c5996fdf93c3>@@PEAVScene@2Application@@$$V@std@@@8 ; std::_Func_impl_no_alloc<<lambda_f04c6ff6a0f44a3600e7c5996fdf93c3>,Application::Scene::Scene *>::`RTTI Base Class Descriptor at (0,-1,0,64)'
	DD	01H
	DD	00H
	DD	0ffffffffH
	DD	00H
	DD	040H
	DD	imagerel ??_R3?$_Func_impl_no_alloc@V<lambda_f04c6ff6a0f44a3600e7c5996fdf93c3>@@PEAVScene@2Application@@$$V@std@@8
rdata$r	ENDS
;	COMDAT ??_R0?AV?$_Func_base@PEAVScene@1Application@@$$V@std@@@8
data$r	SEGMENT
??_R0?AV?$_Func_base@PEAVScene@1Application@@$$V@std@@@8 DQ FLAT:??_7type_info@@6B@ ; std::_Func_base<Application::Scene::Scene *> `RTTI Type Descriptor'
	DQ	0000000000000000H
	DB	'.?AV?$_Func_base@PEAVScene@1Application@@$$V@std@@', 00H
data$r	ENDS
;	COMDAT ??_7?$_Func_impl_no_alloc@V<lambda_2c3ab7f48cee5f9b56075868f97e05b2>@@PEAVScene@2Application@@$$V@std@@6B@
CONST	SEGMENT
??_7?$_Func_impl_no_alloc@V<lambda_2c3ab7f48cee5f9b56075868f97e05b2>@@PEAVScene@2Application@@$$V@std@@6B@ DQ FLAT:??_R4?$_Func_impl_no_alloc@V<lambda_2c3ab7f48cee5f9b56075868f97e05b2>@@PEAVScene@2Application@@$$V@std@@6B@ ; std::_Func_impl_no_alloc<<lambda_2c3ab7f48cee5f9b56075868f97e05b2>,Application::Scene::Scene *>::`vftable'
	DQ	FLAT:?_Copy@?$_Func_impl_no_alloc@V<lambda_2c3ab7f48cee5f9b56075868f97e05b2>@@PEAVScene@2Application@@$$V@std@@EEBAPEAV?$_Func_base@PEAVScene@1Application@@$$V@2@PEAX@Z
	DQ	FLAT:?_Move@?$_Func_impl_no_alloc@V<lambda_2c3ab7f48cee5f9b56075868f97e05b2>@@PEAVScene@2Application@@$$V@std@@EEAAPEAV?$_Func_base@PEAVScene@1Application@@$$V@2@PEAX@Z
	DQ	FLAT:?_Do_call@?$_Func_impl_no_alloc@V<lambda_2c3ab7f48cee5f9b56075868f97e05b2>@@PEAVScene@2Application@@$$V@std@@EEAAPEAVScene@3Application@@XZ
	DQ	FLAT:?_Target_type@?$_Func_impl_no_alloc@V<lambda_2c3ab7f48cee5f9b56075868f97e05b2>@@PEAVScene@2Application@@$$V@std@@EEBAAEBVtype_info@@XZ
	DQ	FLAT:?_Delete_this@?$_Func_impl_no_alloc@V<lambda_2c3ab7f48cee5f9b56075868f97e05b2>@@PEAVScene@2Application@@$$V@std@@EEAAX_N@Z
	DQ	FLAT:?_Get@?$_Func_impl_no_alloc@V<lambda_2c3ab7f48cee5f9b56075868f97e05b2>@@PEAVScene@2Application@@$$V@std@@EEBAPEBXXZ
CONST	ENDS
;	COMDAT ??_R2?$_Func_impl_no_alloc@V<lambda_8a87a946287cf0625355d2c413df9209>@@PEAVScene@2Application@@$$V@std@@8
rdata$r	SEGMENT
??_R2?$_Func_impl_no_alloc@V<lambda_8a87a946287cf0625355d2c413df9209>@@PEAVScene@2Application@@$$V@std@@8 DD imagerel ??_R1A@?0A@EA@?$_Func_impl_no_alloc@V<lambda_8a87a946287cf0625355d2c413df9209>@@PEAVScene@2Application@@$$V@std@@8 ; std::_Func_impl_no_alloc<<lambda_8a87a946287cf0625355d2c413df9209>,Application::Scene::Scene *>::`RTTI Base Class Array'
	DD	imagerel ??_R1A@?0A@EA@?$_Func_base@PEAVScene@1Application@@$$V@std@@8
	ORG $+3
rdata$r	ENDS
;	COMDAT ??_R3?$_Func_impl_no_alloc@V<lambda_8a87a946287cf0625355d2c413df9209>@@PEAVScene@2Application@@$$V@std@@8
rdata$r	SEGMENT
??_R3?$_Func_impl_no_alloc@V<lambda_8a87a946287cf0625355d2c413df9209>@@PEAVScene@2Application@@$$V@std@@8 DD 00H ; std::_Func_impl_no_alloc<<lambda_8a87a946287cf0625355d2c413df9209>,Application::Scene::Scene *>::`RTTI Class Hierarchy Descriptor'
	DD	00H
	DD	02H
	DD	imagerel ??_R2?$_Func_impl_no_alloc@V<lambda_8a87a946287cf0625355d2c413df9209>@@PEAVScene@2Application@@$$V@std@@8
rdata$r	ENDS
;	COMDAT ??_7?$_Func_impl_no_alloc@V<lambda_f04c6ff6a0f44a3600e7c5996fdf93c3>@@PEAVScene@2Application@@$$V@std@@6B@
CONST	SEGMENT
??_7?$_Func_impl_no_alloc@V<lambda_f04c6ff6a0f44a3600e7c5996fdf93c3>@@PEAVScene@2Application@@$$V@std@@6B@ DQ FLAT:??_R4?$_Func_impl_no_alloc@V<lambda_f04c6ff6a0f44a3600e7c5996fdf93c3>@@PEAVScene@2Application@@$$V@std@@6B@ ; std::_Func_impl_no_alloc<<lambda_f04c6ff6a0f44a3600e7c5996fdf93c3>,Application::Scene::Scene *>::`vftable'
	DQ	FLAT:?_Copy@?$_Func_impl_no_alloc@V<lambda_f04c6ff6a0f44a3600e7c5996fdf93c3>@@PEAVScene@2Application@@$$V@std@@EEBAPEAV?$_Func_base@PEAVScene@1Application@@$$V@2@PEAX@Z
	DQ	FLAT:?_Move@?$_Func_impl_no_alloc@V<lambda_f04c6ff6a0f44a3600e7c5996fdf93c3>@@PEAVScene@2Application@@$$V@std@@EEAAPEAV?$_Func_base@PEAVScene@1Application@@$$V@2@PEAX@Z
	DQ	FLAT:?_Do_call@?$_Func_impl_no_alloc@V<lambda_f04c6ff6a0f44a3600e7c5996fdf93c3>@@PEAVScene@2Application@@$$V@std@@EEAAPEAVScene@3Application@@XZ
	DQ	FLAT:?_Target_type@?$_Func_impl_no_alloc@V<lambda_f04c6ff6a0f44a3600e7c5996fdf93c3>@@PEAVScene@2Application@@$$V@std@@EEBAAEBVtype_info@@XZ
	DQ	FLAT:?_Delete_this@?$_Func_impl_no_alloc@V<lambda_f04c6ff6a0f44a3600e7c5996fdf93c3>@@PEAVScene@2Application@@$$V@std@@EEAAX_N@Z
	DQ	FLAT:?_Get@?$_Func_impl_no_alloc@V<lambda_f04c6ff6a0f44a3600e7c5996fdf93c3>@@PEAVScene@2Application@@$$V@std@@EEBAPEBXXZ
CONST	ENDS
;	COMDAT ??_R0?AV<lambda_d0f437802599b72fdddcf24900d600a3>@@@8
data$r	SEGMENT
??_R0?AV<lambda_d0f437802599b72fdddcf24900d600a3>@@@8 DQ FLAT:??_7type_info@@6B@ ; <lambda_d0f437802599b72fdddcf24900d600a3> `RTTI Type Descriptor'
	DQ	0000000000000000H
	DB	'.?AV<lambda_d0f437802599b72fdddcf24900d600a3>@@', 00H
data$r	ENDS
;	COMDAT ??_7?$_Func_impl_no_alloc@V<lambda_d0f437802599b72fdddcf24900d600a3>@@PEAVScene@2Application@@$$V@std@@6B@
CONST	SEGMENT
??_7?$_Func_impl_no_alloc@V<lambda_d0f437802599b72fdddcf24900d600a3>@@PEAVScene@2Application@@$$V@std@@6B@ DQ FLAT:??_R4?$_Func_impl_no_alloc@V<lambda_d0f437802599b72fdddcf24900d600a3>@@PEAVScene@2Application@@$$V@std@@6B@ ; std::_Func_impl_no_alloc<<lambda_d0f437802599b72fdddcf24900d600a3>,Application::Scene::Scene *>::`vftable'
	DQ	FLAT:?_Copy@?$_Func_impl_no_alloc@V<lambda_d0f437802599b72fdddcf24900d600a3>@@PEAVScene@2Application@@$$V@std@@EEBAPEAV?$_Func_base@PEAVScene@1Application@@$$V@2@PEAX@Z
	DQ	FLAT:?_Move@?$_Func_impl_no_alloc@V<lambda_d0f437802599b72fdddcf24900d600a3>@@PEAVScene@2Application@@$$V@std@@EEAAPEAV?$_Func_base@PEAVScene@1Application@@$$V@2@PEAX@Z
	DQ	FLAT:?_Do_call@?$_Func_impl_no_alloc@V<lambda_d0f437802599b72fdddcf24900d600a3>@@PEAVScene@2Application@@$$V@std@@EEAAPEAVScene@3Application@@XZ
	DQ	FLAT:?_Target_type@?$_Func_impl_no_alloc@V<lambda_d0f437802599b72fdddcf24900d600a3>@@PEAVScene@2Application@@$$V@std@@EEBAAEBVtype_info@@XZ
	DQ	FLAT:?_Delete_this@?$_Func_impl_no_alloc@V<lambda_d0f437802599b72fdddcf24900d600a3>@@PEAVScene@2Application@@$$V@std@@EEAAX_N@Z
	DQ	FLAT:?_Get@?$_Func_impl_no_alloc@V<lambda_d0f437802599b72fdddcf24900d600a3>@@PEAVScene@2Application@@$$V@std@@EEBAPEBXXZ
CONST	ENDS
;	COMDAT ??_R2?$_Func_impl_no_alloc@V<lambda_f04c6ff6a0f44a3600e7c5996fdf93c3>@@PEAVScene@2Application@@$$V@std@@8
rdata$r	SEGMENT
??_R2?$_Func_impl_no_alloc@V<lambda_f04c6ff6a0f44a3600e7c5996fdf93c3>@@PEAVScene@2Application@@$$V@std@@8 DD imagerel ??_R1A@?0A@EA@?$_Func_impl_no_alloc@V<lambda_f04c6ff6a0f44a3600e7c5996fdf93c3>@@PEAVScene@2Application@@$$V@std@@8 ; std::_Func_impl_no_alloc<<lambda_f04c6ff6a0f44a3600e7c5996fdf93c3>,Application::Scene::Scene *>::`RTTI Base Class Array'
	DD	imagerel ??_R1A@?0A@EA@?$_Func_base@PEAVScene@1Application@@$$V@std@@8
	ORG $+3
rdata$r	ENDS
;	COMDAT ??_R0?AV?$_Func_impl_no_alloc@V<lambda_6e33341e90591d57c68d6076b03224d9>@@PEAVScene@2Application@@$$V@std@@@8
data$r	SEGMENT
??_R0?AV?$_Func_impl_no_alloc@V<lambda_6e33341e90591d57c68d6076b03224d9>@@PEAVScene@2Application@@$$V@std@@@8 DQ FLAT:??_7type_info@@6B@ ; std::_Func_impl_no_alloc<<lambda_6e33341e90591d57c68d6076b03224d9>,Application::Scene::Scene *> `RTTI Type Descriptor'
	DQ	0000000000000000H
	DB	'.?AV?$_Func_impl_no_alloc@V<lambda_6e33341e90591d57c68d6'
	DB	'076b03224d9>@@PEAVScene@2Application@@$$V@std@@', 00H
data$r	ENDS
;	COMDAT ??_R3?$_Func_impl_no_alloc@V<lambda_1f639e86dd05cae58c2a45cb24025185>@@PEAVScene@2Application@@$$V@std@@8
rdata$r	SEGMENT
??_R3?$_Func_impl_no_alloc@V<lambda_1f639e86dd05cae58c2a45cb24025185>@@PEAVScene@2Application@@$$V@std@@8 DD 00H ; std::_Func_impl_no_alloc<<lambda_1f639e86dd05cae58c2a45cb24025185>,Application::Scene::Scene *>::`RTTI Class Hierarchy Descriptor'
	DD	00H
	DD	02H
	DD	imagerel ??_R2?$_Func_impl_no_alloc@V<lambda_1f639e86dd05cae58c2a45cb24025185>@@PEAVScene@2Application@@$$V@std@@8
rdata$r	ENDS
;	COMDAT ??_R1A@?0A@EA@?$_Func_impl_no_alloc@V<lambda_d0f437802599b72fdddcf24900d600a3>@@PEAVScene@2Application@@$$V@std@@8
rdata$r	SEGMENT
??_R1A@?0A@EA@?$_Func_impl_no_alloc@V<lambda_d0f437802599b72fdddcf24900d600a3>@@PEAVScene@2Application@@$$V@std@@8 DD imagerel ??_R0?AV?$_Func_impl_no_alloc@V<lambda_d0f437802599b72fdddcf24900d600a3>@@PEAVScene@2Application@@$$V@std@@@8 ; std::_Func_impl_no_alloc<<lambda_d0f437802599b72fdddcf24900d600a3>,Application::Scene::Scene *>::`RTTI Base Class Descriptor at (0,-1,0,64)'
	DD	01H
	DD	00H
	DD	0ffffffffH
	DD	00H
	DD	040H
	DD	imagerel ??_R3?$_Func_impl_no_alloc@V<lambda_d0f437802599b72fdddcf24900d600a3>@@PEAVScene@2Application@@$$V@std@@8
rdata$r	ENDS
;	COMDAT ??_R4?$_Func_impl_no_alloc@V<lambda_8a87a946287cf0625355d2c413df9209>@@PEAVScene@2Application@@$$V@std@@6B@
rdata$r	SEGMENT
??_R4?$_Func_impl_no_alloc@V<lambda_8a87a946287cf0625355d2c413df9209>@@PEAVScene@2Application@@$$V@std@@6B@ DD 01H ; std::_Func_impl_no_alloc<<lambda_8a87a946287cf0625355d2c413df9209>,Application::Scene::Scene *>::`RTTI Complete Object Locator'
	DD	00H
	DD	00H
	DD	imagerel ??_R0?AV?$_Func_impl_no_alloc@V<lambda_8a87a946287cf0625355d2c413df9209>@@PEAVScene@2Application@@$$V@std@@@8
	DD	imagerel ??_R3?$_Func_impl_no_alloc@V<lambda_8a87a946287cf0625355d2c413df9209>@@PEAVScene@2Application@@$$V@std@@8
	DD	imagerel ??_R4?$_Func_impl_no_alloc@V<lambda_8a87a946287cf0625355d2c413df9209>@@PEAVScene@2Application@@$$V@std@@6B@
rdata$r	ENDS
;	COMDAT ??_R2?$_Func_impl_no_alloc@V<lambda_9e62dcf887c94db0be73ed49d4be45d7>@@PEAVScene@2Application@@$$V@std@@8
rdata$r	SEGMENT
??_R2?$_Func_impl_no_alloc@V<lambda_9e62dcf887c94db0be73ed49d4be45d7>@@PEAVScene@2Application@@$$V@std@@8 DD imagerel ??_R1A@?0A@EA@?$_Func_impl_no_alloc@V<lambda_9e62dcf887c94db0be73ed49d4be45d7>@@PEAVScene@2Application@@$$V@std@@8 ; std::_Func_impl_no_alloc<<lambda_9e62dcf887c94db0be73ed49d4be45d7>,Application::Scene::Scene *>::`RTTI Base Class Array'
	DD	imagerel ??_R1A@?0A@EA@?$_Func_base@PEAVScene@1Application@@$$V@std@@8
	ORG $+3
rdata$r	ENDS
;	COMDAT ??_R4?$_Func_impl_no_alloc@V<lambda_d0f437802599b72fdddcf24900d600a3>@@PEAVScene@2Application@@$$V@std@@6B@
rdata$r	SEGMENT
??_R4?$_Func_impl_no_alloc@V<lambda_d0f437802599b72fdddcf24900d600a3>@@PEAVScene@2Application@@$$V@std@@6B@ DD 01H ; std::_Func_impl_no_alloc<<lambda_d0f437802599b72fdddcf24900d600a3>,Application::Scene::Scene *>::`RTTI Complete Object Locator'
	DD	00H
	DD	00H
	DD	imagerel ??_R0?AV?$_Func_impl_no_alloc@V<lambda_d0f437802599b72fdddcf24900d600a3>@@PEAVScene@2Application@@$$V@std@@@8
	DD	imagerel ??_R3?$_Func_impl_no_alloc@V<lambda_d0f437802599b72fdddcf24900d600a3>@@PEAVScene@2Application@@$$V@std@@8
	DD	imagerel ??_R4?$_Func_impl_no_alloc@V<lambda_d0f437802599b72fdddcf24900d600a3>@@PEAVScene@2Application@@$$V@std@@6B@
rdata$r	ENDS
;	COMDAT ??_C@_0BD@OLBABOEK@vector?$DMT?$DO?5too?5long?$AA@
CONST	SEGMENT
??_C@_0BD@OLBABOEK@vector?$DMT?$DO?5too?5long?$AA@ DB 'vector<T> too long'
	DB	00H						; `string'
CONST	ENDS
;	COMDAT ??_C@_0CN@EIPBEGMP@Application?5average?5?$CF?43f?5ms?1fram@
CONST	SEGMENT
??_C@_0CN@EIPBEGMP@Application?5average?5?$CF?43f?5ms?1fram@ DB 'Applicat'
	DB	'ion average %.3f ms/frame (%.1f FPS)', 00H	; `string'
CONST	ENDS
;	COMDAT ??_C@_0BI@CMEGFEBC@Profiler?5?$CIRELEASE?5Mode?$CJ?$AA@
CONST	SEGMENT
??_C@_0BI@CMEGFEBC@Profiler?5?$CIRELEASE?5Mode?$CJ?$AA@ DB 'Profiler (REL'
	DB	'EASE Mode)', 00H				; `string'
CONST	ENDS
;	COMDAT ??_C@_03HEPJOIKG@?$DM?9?9?$AA@
CONST	SEGMENT
??_C@_03HEPJOIKG@?$DM?9?9?$AA@ DB '<--', 00H		; `string'
CONST	ENDS
;	COMDAT ??_C@_09JDDCPHDA@Main?5Menu?$AA@
CONST	SEGMENT
??_C@_09JDDCPHDA@Main?5Menu?$AA@ DB 'Main Menu', 00H	; `string'
CONST	ENDS
;	COMDAT ??_C@_0BG@BIFNHANB@Simple?5Compute?5Shader?$AA@
CONST	SEGMENT
??_C@_0BG@BIFNHANB@Simple?5Compute?5Shader?$AA@ DB 'Simple Compute Shader'
	DB	00H						; `string'
CONST	ENDS
;	COMDAT ??_C@_0P@FGIJLCEO@Mandelbrot?5Set?$AA@
CONST	SEGMENT
??_C@_0P@FGIJLCEO@Mandelbrot?5Set?$AA@ DB 'Mandelbrot Set', 00H ; `string'
CONST	ENDS
;	COMDAT ??_C@_0BB@GJJACBDL@Flocking?5?$CIBoids?$CJ?$AA@
CONST	SEGMENT
??_C@_0BB@GJJACBDL@Flocking?5?$CIBoids?$CJ?$AA@ DB 'Flocking (Boids)', 00H ; `string'
CONST	ENDS
;	COMDAT ??_C@_0M@BPMKEGOM@Layer?5Scene?$AA@
CONST	SEGMENT
??_C@_0M@BPMKEGOM@Layer?5Scene?$AA@ DB 'Layer Scene', 00H ; `string'
CONST	ENDS
;	COMDAT ??_C@_0P@JEPKLLKC@Batch?5Renderer?$AA@
CONST	SEGMENT
??_C@_0P@JEPKLLKC@Batch?5Renderer?$AA@ DB 'Batch Renderer', 00H ; `string'
CONST	ENDS
;	COMDAT ??_C@_0BA@ELHODOCL@Simple?5Renderer?$AA@
CONST	SEGMENT
??_C@_0BA@ELHODOCL@Simple?5Renderer?$AA@ DB 'Simple Renderer', 00H ; `string'
CONST	ENDS
;	COMDAT ??_C@_08FLHNKADJ@Textures?$AA@
CONST	SEGMENT
??_C@_08FLHNKADJ@Textures?$AA@ DB 'Textures', 00H	; `string'
CONST	ENDS
;	COMDAT ??_C@_07NIHFOFBK@Buffers?$AA@
CONST	SEGMENT
??_C@_07NIHFOFBK@Buffers?$AA@ DB 'Buffers', 00H		; `string'
CONST	ENDS
;	COMDAT ??_C@_0BB@HIFDMJDM@Clear?5Color?5Test?$AA@
CONST	SEGMENT
??_C@_0BB@HIFDMJDM@Clear?5Color?5Test?$AA@ DB 'Clear Color Test', 00H ; `string'
CONST	ENDS
;	COMDAT ??_C@_0BF@FMNCKNFP@FeatherFall?5Examples?$AA@
CONST	SEGMENT
??_C@_0BF@FMNCKNFP@FeatherFall?5Examples?$AA@ DB 'FeatherFall Examples', 00H ; `string'
CONST	ENDS
PUBLIC	?_Reset_copy@?$_Func_class@PEAVScene@1Application@@$$V@std@@IEAAXAEBV12@@Z ; std::_Func_class<Application::Scene::Scene *>::_Reset_copy
PUBLIC	??0?$function@$$A6APEAVScene@1Application@@XZ@std@@QEAA@AEBV01@@Z ; std::function<Application::Scene::Scene * __cdecl(void)>::function<Application::Scene::Scene * __cdecl(void)>
PUBLIC	??0?$pair@PEBDV?$function@$$A6APEAVScene@1Application@@XZ@std@@@std@@QEAA@AEBU01@@Z ; std::pair<char const *,std::function<Application::Scene::Scene * __cdecl(void)> >::pair<char const *,std::function<Application::Scene::Scene * __cdecl(void)> >
PUBLIC	??$construct@U?$pair@PEBDV?$function@$$A6APEAVScene@1Application@@XZ@std@@@std@@AEAU12@@?$_Default_allocator_traits@V?$allocator@U?$pair@PEBDV?$function@$$A6APEAVScene@1Application@@XZ@std@@@std@@@std@@@std@@SAXAEAV?$allocator@U?$pair@PEBDV?$function@$$A6APEAVScene@1Application@@XZ@std@@@std@@@1@QEAU?$pair@PEBDV?$function@$$A6APEAVScene@1Application@@XZ@std@@@1@AEAU31@@Z ; std::_Default_allocator_traits<std::allocator<std::pair<char const *,std::function<Application::Scene::Scene * __cdecl(void)> > > >::construct<std::pair<char const *,std::function<Application::Scene::Scene * __cdecl(void)> >,std::pair<char const *,std::function<Application::Scene::Scene * __cdecl(void)> > &>
PUBLIC	??$forward@AEAU?$pair@PEBDV?$function@$$A6APEAVScene@1Application@@XZ@std@@@std@@@std@@YAAEAU?$pair@PEBDV?$function@$$A6APEAVScene@1Application@@XZ@std@@@0@AEAU10@@Z ; std::forward<std::pair<char const *,std::function<Application::Scene::Scene * __cdecl(void)> > &>
PUBLIC	??0?$_Func_base@PEAVScene@1Application@@$$V@std@@QEAA@XZ ; std::_Func_base<Application::Scene::Scene *>::_Func_base<Application::Scene::Scene *>
PUBLIC	??_G?$pair@PEBDV?$function@$$A6APEAVScene@1Application@@XZ@std@@@std@@QEAAPEAXI@Z ; std::pair<char const *,std::function<Application::Scene::Scene * __cdecl(void)> >::`scalar deleting destructor'
PUBLIC	??$_Deallocate@$07$0A@@std@@YAXPEAX_K@Z		; std::_Deallocate<8,0>
PUBLIC	??$_Emplace_back@AEAU?$pair@PEBDV?$function@$$A6APEAVScene@1Application@@XZ@std@@@std@@@?$_Uninitialized_backout_al@PEAU?$pair@PEBDV?$function@$$A6APEAVScene@1Application@@XZ@std@@@std@@V?$allocator@U?$pair@PEBDV?$function@$$A6APEAVScene@1Application@@XZ@std@@@std@@@2@@std@@QEAAXAEAU?$pair@PEBDV?$function@$$A6APEAVScene@1Application@@XZ@std@@@1@@Z ; std::_Uninitialized_backout_al<std::pair<char const *,std::function<Application::Scene::Scene * __cdecl(void)> > *,std::allocator<std::pair<char const *,std::function<Application::Scene::Scene * __cdecl(void)> > > >::_Emplace_back<std::pair<char const *,std::function<Application::Scene::Scene * __cdecl(void)> > &>
PUBLIC	??$_Emplace_back@U?$pair@PEBDV?$function@$$A6APEAVScene@1Application@@XZ@std@@@std@@@?$_Uninitialized_backout_al@PEAU?$pair@PEBDV?$function@$$A6APEAVScene@1Application@@XZ@std@@@std@@V?$allocator@U?$pair@PEBDV?$function@$$A6APEAVScene@1Application@@XZ@std@@@std@@@2@@std@@QEAAX$$QEAU?$pair@PEBDV?$function@$$A6APEAVScene@1Application@@XZ@std@@@1@@Z ; std::_Uninitialized_backout_al<std::pair<char const *,std::function<Application::Scene::Scene * __cdecl(void)> > *,std::allocator<std::pair<char const *,std::function<Application::Scene::Scene * __cdecl(void)> > > >::_Emplace_back<std::pair<char const *,std::function<Application::Scene::Scene * __cdecl(void)> > >
PUBLIC	??$destroy@U?$pair@PEBDV?$function@$$A6APEAVScene@1Application@@XZ@std@@@std@@@?$_Default_allocator_traits@V?$allocator@U?$pair@PEBDV?$function@$$A6APEAVScene@1Application@@XZ@std@@@std@@@std@@@std@@SAXAEAV?$allocator@U?$pair@PEBDV?$function@$$A6APEAVScene@1Application@@XZ@std@@@std@@@1@QEAU?$pair@PEBDV?$function@$$A6APEAVScene@1Application@@XZ@std@@@1@@Z ; std::_Default_allocator_traits<std::allocator<std::pair<char const *,std::function<Application::Scene::Scene * __cdecl(void)> > > >::destroy<std::pair<char const *,std::function<Application::Scene::Scene * __cdecl(void)> > >
PUBLIC	??0?$_Uninitialized_backout_al@PEAU?$pair@PEBDV?$function@$$A6APEAVScene@1Application@@XZ@std@@@std@@V?$allocator@U?$pair@PEBDV?$function@$$A6APEAVScene@1Application@@XZ@std@@@std@@@2@@std@@QEAA@PEAU?$pair@PEBDV?$function@$$A6APEAVScene@1Application@@XZ@std@@@1@AEAV?$allocator@U?$pair@PEBDV?$function@$$A6APEAVScene@1Application@@XZ@std@@@std@@@1@@Z ; std::_Uninitialized_backout_al<std::pair<char const *,std::function<Application::Scene::Scene * __cdecl(void)> > *,std::allocator<std::pair<char const *,std::function<Application::Scene::Scene * __cdecl(void)> > > >::_Uninitialized_backout_al<std::pair<char const *,std::function<Application::Scene::Scene * __cdecl(void)> > *,std::allocator<std::pair<char const *,std::function<Application::Scene::Scene * __cdecl(void)> > > >
PUBLIC	??1?$_Uninitialized_backout_al@PEAU?$pair@PEBDV?$function@$$A6APEAVScene@1Application@@XZ@std@@@std@@V?$allocator@U?$pair@PEBDV?$function@$$A6APEAVScene@1Application@@XZ@std@@@std@@@2@@std@@QEAA@XZ ; std::_Uninitialized_backout_al<std::pair<char const *,std::function<Application::Scene::Scene * __cdecl(void)> > *,std::allocator<std::pair<char const *,std::function<Application::Scene::Scene * __cdecl(void)> > > >::~_Uninitialized_backout_al<std::pair<char const *,std::function<Application::Scene::Scene * __cdecl(void)> > *,std::allocator<std::pair<char const *,std::function<Application::Scene::Scene * __cdecl(void)> > > >
PUBLIC	?_Release@?$_Uninitialized_backout_al@PEAU?$pair@PEBDV?$function@$$A6APEAVScene@1Application@@XZ@std@@@std@@V?$allocator@U?$pair@PEBDV?$function@$$A6APEAVScene@1Application@@XZ@std@@@std@@@2@@std@@QEAAPEAU?$pair@PEBDV?$function@$$A6APEAVScene@1Application@@XZ@std@@@2@XZ ; std::_Uninitialized_backout_al<std::pair<char const *,std::function<Application::Scene::Scene * __cdecl(void)> > *,std::allocator<std::pair<char const *,std::function<Application::Scene::Scene * __cdecl(void)> > > >::_Release
PUBLIC	?__autoclassinit2@?$_Uninitialized_backout_al@PEAU?$pair@PEBDV?$function@$$A6APEAVScene@1Application@@XZ@std@@@std@@V?$allocator@U?$pair@PEBDV?$function@$$A6APEAVScene@1Application@@XZ@std@@@std@@@2@@std@@QEAAX_K@Z ; std::_Uninitialized_backout_al<std::pair<char const *,std::function<Application::Scene::Scene * __cdecl(void)> > *,std::allocator<std::pair<char const *,std::function<Application::Scene::Scene * __cdecl(void)> > > >::__autoclassinit2
PUBLIC	??$_Uninitialized_copy_al_unchecked@PEAU?$pair@PEBDV?$function@$$A6APEAVScene@1Application@@XZ@std@@@std@@PEAU12@V?$allocator@U?$pair@PEBDV?$function@$$A6APEAVScene@1Application@@XZ@std@@@std@@@2@@std@@YAPEAU?$pair@PEBDV?$function@$$A6APEAVScene@1Application@@XZ@std@@@0@PEAU10@QEAU10@1AEAV?$allocator@U?$pair@PEBDV?$function@$$A6APEAVScene@1Application@@XZ@std@@@std@@@0@U_General_ptr_iterator_tag@0@U_Unused_parameter@0@@Z ; std::_Uninitialized_copy_al_unchecked<std::pair<char const *,std::function<Application::Scene::Scene * __cdecl(void)> > *,std::pair<char const *,std::function<Application::Scene::Scene * __cdecl(void)> > *,std::allocator<std::pair<char const *,std::function<Application::Scene::Scene * __cdecl(void)> > > >
PUBLIC	??$_Ptr_copy_cat@U?$pair@PEBDV?$function@$$A6APEAVScene@1Application@@XZ@std@@@std@@U12@@std@@YA?AU_General_ptr_iterator_tag@0@AEBQEAU?$pair@PEBDV?$function@$$A6APEAVScene@1Application@@XZ@std@@@0@0@Z ; std::_Ptr_copy_cat<std::pair<char const *,std::function<Application::Scene::Scene * __cdecl(void)> >,std::pair<char const *,std::function<Application::Scene::Scene * __cdecl(void)> > >
PUBLIC	??$_Rechecked@PEAU?$pair@PEBDV?$function@$$A6APEAVScene@1Application@@XZ@std@@@std@@PEAU12@@std@@YAAEAPEAU?$pair@PEBDV?$function@$$A6APEAVScene@1Application@@XZ@std@@@0@AEAPEAU10@QEAU10@@Z ; std::_Rechecked<std::pair<char const *,std::function<Application::Scene::Scene * __cdecl(void)> > *,std::pair<char const *,std::function<Application::Scene::Scene * __cdecl(void)> > *>
PUBLIC	??$_Uninitialized_move_al_unchecked@PEAU?$pair@PEBDV?$function@$$A6APEAVScene@1Application@@XZ@std@@@std@@PEAU12@V?$allocator@U?$pair@PEBDV?$function@$$A6APEAVScene@1Application@@XZ@std@@@std@@@2@@std@@YAPEAU?$pair@PEBDV?$function@$$A6APEAVScene@1Application@@XZ@std@@@0@PEAU10@QEAU10@1AEAV?$allocator@U?$pair@PEBDV?$function@$$A6APEAVScene@1Application@@XZ@std@@@std@@@0@U_General_ptr_iterator_tag@0@U_Unused_parameter@0@@Z ; std::_Uninitialized_move_al_unchecked<std::pair<char const *,std::function<Application::Scene::Scene * __cdecl(void)> > *,std::pair<char const *,std::function<Application::Scene::Scene * __cdecl(void)> > *,std::allocator<std::pair<char const *,std::function<Application::Scene::Scene * __cdecl(void)> > > >
PUBLIC	??$_Ptr_move_cat@U?$pair@PEBDV?$function@$$A6APEAVScene@1Application@@XZ@std@@@std@@U12@@std@@YA?AU_General_ptr_iterator_tag@0@AEBQEAU?$pair@PEBDV?$function@$$A6APEAVScene@1Application@@XZ@std@@@0@0@Z ; std::_Ptr_move_cat<std::pair<char const *,std::function<Application::Scene::Scene * __cdecl(void)> >,std::pair<char const *,std::function<Application::Scene::Scene * __cdecl(void)> > >
PUBLIC	??$_Unchecked@PEAU?$pair@PEBDV?$function@$$A6APEAVScene@1Application@@XZ@std@@@std@@@std@@YAPEAU?$pair@PEBDV?$function@$$A6APEAVScene@1Application@@XZ@std@@@0@PEAU10@@Z ; std::_Unchecked<std::pair<char const *,std::function<Application::Scene::Scene * __cdecl(void)> > *>
PUBLIC	??$_Destroy_range1@V?$allocator@U?$pair@PEBDV?$function@$$A6APEAVScene@1Application@@XZ@std@@@std@@@std@@@std@@YAXPEAU?$pair@PEBDV?$function@$$A6APEAVScene@1Application@@XZ@std@@@0@0AEAV?$allocator@U?$pair@PEBDV?$function@$$A6APEAVScene@1Application@@XZ@std@@@std@@@0@U?$integral_constant@_N$0A@@0@@Z ; std::_Destroy_range1<std::allocator<std::pair<char const *,std::function<Application::Scene::Scene * __cdecl(void)> > > >
PUBLIC	??$_Uninitialized_copy@PEAU?$pair@PEBDV?$function@$$A6APEAVScene@1Application@@XZ@std@@@std@@PEAU12@V?$allocator@U?$pair@PEBDV?$function@$$A6APEAVScene@1Application@@XZ@std@@@std@@@2@@std@@YAPEAU?$pair@PEBDV?$function@$$A6APEAVScene@1Application@@XZ@std@@@0@QEAU10@0PEAU10@AEAV?$allocator@U?$pair@PEBDV?$function@$$A6APEAVScene@1Application@@XZ@std@@@std@@@0@@Z ; std::_Uninitialized_copy<std::pair<char const *,std::function<Application::Scene::Scene * __cdecl(void)> > *,std::pair<char const *,std::function<Application::Scene::Scene * __cdecl(void)> > *,std::allocator<std::pair<char const *,std::function<Application::Scene::Scene * __cdecl(void)> > > >
PUBLIC	??$move@AEAV?$function@$$A6APEAVScene@1Application@@XZ@std@@@std@@YA$$QEAV?$function@$$A6APEAVScene@1Application@@XZ@0@AEAV10@@Z ; std::move<std::function<Application::Scene::Scene * __cdecl(void)> &>
PUBLIC	??$_Get_size_of_n@$0EI@@std@@YA_K_K@Z		; std::_Get_size_of_n<72>
PUBLIC	??$_Uninitialized_move@PEAU?$pair@PEBDV?$function@$$A6APEAVScene@1Application@@XZ@std@@@std@@PEAU12@V?$allocator@U?$pair@PEBDV?$function@$$A6APEAVScene@1Application@@XZ@std@@@std@@@2@@std@@YAPEAU?$pair@PEBDV?$function@$$A6APEAVScene@1Application@@XZ@std@@@0@QEAU10@0PEAU10@AEAV?$allocator@U?$pair@PEBDV?$function@$$A6APEAVScene@1Application@@XZ@std@@@std@@@0@@Z ; std::_Uninitialized_move<std::pair<char const *,std::function<Application::Scene::Scene * __cdecl(void)> > *,std::pair<char const *,std::function<Application::Scene::Scene * __cdecl(void)> > *,std::allocator<std::pair<char const *,std::function<Application::Scene::Scene * __cdecl(void)> > > >
PUBLIC	??$_Destroy_range@V?$allocator@U?$pair@PEBDV?$function@$$A6APEAVScene@1Application@@XZ@std@@@std@@@std@@@std@@YAXPEAU?$pair@PEBDV?$function@$$A6APEAVScene@1Application@@XZ@std@@@0@0AEAV?$allocator@U?$pair@PEBDV?$function@$$A6APEAVScene@1Application@@XZ@std@@@std@@@0@@Z ; std::_Destroy_range<std::allocator<std::pair<char const *,std::function<Application::Scene::Scene * __cdecl(void)> > > >
PUBLIC	??$?0U?$integral_constant@_N$00@std@@@_Unused_parameter@std@@QEAA@$$QEAU?$integral_constant@_N$00@1@@Z ; std::_Unused_parameter::_Unused_parameter<std::integral_constant<bool,1> >
PUBLIC	??$forward@PEBD@std@@YA$$QEAPEBDAEAPEBD@Z	; std::forward<char const *>
PUBLIC	??$forward@AEAPEBD@std@@YAAEAPEBDAEAPEBD@Z	; std::forward<char const * &>
PUBLIC	?_Get_first@?$_Compressed_pair@V?$allocator@U?$pair@PEBDV?$function@$$A6APEAVScene@1Application@@XZ@std@@@std@@@std@@V?$_Vector_val@U?$_Simple_types@U?$pair@PEBDV?$function@$$A6APEAVScene@1Application@@XZ@std@@@std@@@std@@@2@$00@std@@QEBAAEBV?$allocator@U?$pair@PEBDV?$function@$$A6APEAVScene@1Application@@XZ@std@@@std@@@2@XZ ; std::_Compressed_pair<std::allocator<std::pair<char const *,std::function<Application::Scene::Scene * __cdecl(void)> > >,std::_Vector_val<std::_Simple_types<std::pair<char const *,std::function<Application::Scene::Scene * __cdecl(void)> > > >,1>::_Get_first
PUBLIC	?_Getspace@?$_Func_class@PEAVScene@1Application@@$$V@std@@AEAAPEAXXZ ; std::_Func_class<Application::Scene::Scene *>::_Getspace
PUBLIC	?capacity@?$vector@U?$pair@PEBDV?$function@$$A6APEAVScene@1Application@@XZ@std@@@std@@V?$allocator@U?$pair@PEBDV?$function@$$A6APEAVScene@1Application@@XZ@std@@@std@@@2@@std@@QEBA_KXZ ; std::vector<std::pair<char const *,std::function<Application::Scene::Scene * __cdecl(void)> >,std::allocator<std::pair<char const *,std::function<Application::Scene::Scene * __cdecl(void)> > > >::capacity
PUBLIC	?_Umove_if_noexcept1@?$vector@U?$pair@PEBDV?$function@$$A6APEAVScene@1Application@@XZ@std@@@std@@V?$allocator@U?$pair@PEBDV?$function@$$A6APEAVScene@1Application@@XZ@std@@@std@@@2@@std@@AEAAXPEAU?$pair@PEBDV?$function@$$A6APEAVScene@1Application@@XZ@std@@@2@00U?$integral_constant@_N$0A@@2@@Z ; std::vector<std::pair<char const *,std::function<Application::Scene::Scene * __cdecl(void)> >,std::allocator<std::pair<char const *,std::function<Application::Scene::Scene * __cdecl(void)> > > >::_Umove_if_noexcept1
PUBLIC	?_Orphan_all@?$_Vector_alloc@U?$_Vec_base_types@U?$pair@PEBDV?$function@$$A6APEAVScene@1Application@@XZ@std@@@std@@V?$allocator@U?$pair@PEBDV?$function@$$A6APEAVScene@1Application@@XZ@std@@@std@@@2@@std@@@std@@QEAAXXZ ; std::_Vector_alloc<std::_Vec_base_types<std::pair<char const *,std::function<Application::Scene::Scene * __cdecl(void)> >,std::allocator<std::pair<char const *,std::function<Application::Scene::Scene * __cdecl(void)> > > > >::_Orphan_all
PUBLIC	?_Getal@?$_Vector_alloc@U?$_Vec_base_types@U?$pair@PEBDV?$function@$$A6APEAVScene@1Application@@XZ@std@@@std@@V?$allocator@U?$pair@PEBDV?$function@$$A6APEAVScene@1Application@@XZ@std@@@std@@@2@@std@@@std@@QEBAAEBV?$allocator@U?$pair@PEBDV?$function@$$A6APEAVScene@1Application@@XZ@std@@@std@@@2@XZ ; std::_Vector_alloc<std::_Vec_base_types<std::pair<char const *,std::function<Application::Scene::Scene * __cdecl(void)> >,std::allocator<std::pair<char const *,std::function<Application::Scene::Scene * __cdecl(void)> > > > >::_Getal
PUBLIC	?_Myfirst@?$_Vector_alloc@U?$_Vec_base_types@U?$pair@PEBDV?$function@$$A6APEAVScene@1Application@@XZ@std@@@std@@V?$allocator@U?$pair@PEBDV?$function@$$A6APEAVScene@1Application@@XZ@std@@@std@@@2@@std@@@std@@QEBAAEBQEAU?$pair@PEBDV?$function@$$A6APEAVScene@1Application@@XZ@std@@@2@XZ ; std::_Vector_alloc<std::_Vec_base_types<std::pair<char const *,std::function<Application::Scene::Scene * __cdecl(void)> >,std::allocator<std::pair<char const *,std::function<Application::Scene::Scene * __cdecl(void)> > > > >::_Myfirst
PUBLIC	?_Myend@?$_Vector_alloc@U?$_Vec_base_types@U?$pair@PEBDV?$function@$$A6APEAVScene@1Application@@XZ@std@@@std@@V?$allocator@U?$pair@PEBDV?$function@$$A6APEAVScene@1Application@@XZ@std@@@std@@@2@@std@@@std@@QEAAAEAPEAU?$pair@PEBDV?$function@$$A6APEAVScene@1Application@@XZ@std@@@2@XZ ; std::_Vector_alloc<std::_Vec_base_types<std::pair<char const *,std::function<Application::Scene::Scene * __cdecl(void)> >,std::allocator<std::pair<char const *,std::function<Application::Scene::Scene * __cdecl(void)> > > > >::_Myend
PUBLIC	?max_size@?$_Default_allocator_traits@V?$allocator@U?$pair@PEBDV?$function@$$A6APEAVScene@1Application@@XZ@std@@@std@@@std@@@std@@SA_KAEBV?$allocator@U?$pair@PEBDV?$function@$$A6APEAVScene@1Application@@XZ@std@@@std@@@2@@Z ; std::_Default_allocator_traits<std::allocator<std::pair<char const *,std::function<Application::Scene::Scene * __cdecl(void)> > > >::max_size
PUBLIC	??0?$_Func_class@PEAVScene@1Application@@$$V@std@@QEAA@XZ ; std::_Func_class<Application::Scene::Scene *>::_Func_class<Application::Scene::Scene *>
PUBLIC	?_Reset_move@?$_Func_class@PEAVScene@1Application@@$$V@std@@IEAAX$$QEAV12@@Z ; std::_Func_class<Application::Scene::Scene *>::_Reset_move
PUBLIC	??0?$function@$$A6APEAVScene@1Application@@XZ@std@@QEAA@$$QEAV01@@Z ; std::function<Application::Scene::Scene * __cdecl(void)>::function<Application::Scene::Scene * __cdecl(void)>
PUBLIC	?deallocate@?$allocator@U?$pair@PEBDV?$function@$$A6APEAVScene@1Application@@XZ@std@@@std@@@std@@QEAAXQEAU?$pair@PEBDV?$function@$$A6APEAVScene@1Application@@XZ@std@@@2@_K@Z ; std::allocator<std::pair<char const *,std::function<Application::Scene::Scene * __cdecl(void)> > >::deallocate
PUBLIC	?allocate@?$allocator@U?$pair@PEBDV?$function@$$A6APEAVScene@1Application@@XZ@std@@@std@@@std@@QEAAPEAU?$pair@PEBDV?$function@$$A6APEAVScene@1Application@@XZ@std@@@2@_K@Z ; std::allocator<std::pair<char const *,std::function<Application::Scene::Scene * __cdecl(void)> > >::allocate
PUBLIC	?size@?$vector@U?$pair@PEBDV?$function@$$A6APEAVScene@1Application@@XZ@std@@@std@@V?$allocator@U?$pair@PEBDV?$function@$$A6APEAVScene@1Application@@XZ@std@@@std@@@2@@std@@QEBA_KXZ ; std::vector<std::pair<char const *,std::function<Application::Scene::Scene * __cdecl(void)> >,std::allocator<std::pair<char const *,std::function<Application::Scene::Scene * __cdecl(void)> > > >::size
PUBLIC	?max_size@?$vector@U?$pair@PEBDV?$function@$$A6APEAVScene@1Application@@XZ@std@@@std@@V?$allocator@U?$pair@PEBDV?$function@$$A6APEAVScene@1Application@@XZ@std@@@std@@@2@@std@@QEBA_KXZ ; std::vector<std::pair<char const *,std::function<Application::Scene::Scene * __cdecl(void)> >,std::allocator<std::pair<char const *,std::function<Application::Scene::Scene * __cdecl(void)> > > >::max_size
PUBLIC	?_Umove@?$vector@U?$pair@PEBDV?$function@$$A6APEAVScene@1Application@@XZ@std@@@std@@V?$allocator@U?$pair@PEBDV?$function@$$A6APEAVScene@1Application@@XZ@std@@@std@@@2@@std@@AEAAPEAU?$pair@PEBDV?$function@$$A6APEAVScene@1Application@@XZ@std@@@2@PEAU32@00@Z ; std::vector<std::pair<char const *,std::function<Application::Scene::Scene * __cdecl(void)> >,std::allocator<std::pair<char const *,std::function<Application::Scene::Scene * __cdecl(void)> > > >::_Umove
PUBLIC	?_Umove_if_noexcept@?$vector@U?$pair@PEBDV?$function@$$A6APEAVScene@1Application@@XZ@std@@@std@@V?$allocator@U?$pair@PEBDV?$function@$$A6APEAVScene@1Application@@XZ@std@@@std@@@2@@std@@AEAAXPEAU?$pair@PEBDV?$function@$$A6APEAVScene@1Application@@XZ@std@@@2@00@Z ; std::vector<std::pair<char const *,std::function<Application::Scene::Scene * __cdecl(void)> >,std::allocator<std::pair<char const *,std::function<Application::Scene::Scene * __cdecl(void)> > > >::_Umove_if_noexcept
PUBLIC	?_Destroy@?$vector@U?$pair@PEBDV?$function@$$A6APEAVScene@1Application@@XZ@std@@@std@@V?$allocator@U?$pair@PEBDV?$function@$$A6APEAVScene@1Application@@XZ@std@@@std@@@2@@std@@AEAAXPEAU?$pair@PEBDV?$function@$$A6APEAVScene@1Application@@XZ@std@@@2@0@Z ; std::vector<std::pair<char const *,std::function<Application::Scene::Scene * __cdecl(void)> >,std::allocator<std::pair<char const *,std::function<Application::Scene::Scene * __cdecl(void)> > > >::_Destroy
PUBLIC	?_Calculate_growth@?$vector@U?$pair@PEBDV?$function@$$A6APEAVScene@1Application@@XZ@std@@@std@@V?$allocator@U?$pair@PEBDV?$function@$$A6APEAVScene@1Application@@XZ@std@@@std@@@2@@std@@AEBA_K_K@Z ; std::vector<std::pair<char const *,std::function<Application::Scene::Scene * __cdecl(void)> >,std::allocator<std::pair<char const *,std::function<Application::Scene::Scene * __cdecl(void)> > > >::_Calculate_growth
PUBLIC	?_Change_array@?$vector@U?$pair@PEBDV?$function@$$A6APEAVScene@1Application@@XZ@std@@@std@@V?$allocator@U?$pair@PEBDV?$function@$$A6APEAVScene@1Application@@XZ@std@@@std@@@2@@std@@AEAAXQEAU?$pair@PEBDV?$function@$$A6APEAVScene@1Application@@XZ@std@@@2@_K1@Z ; std::vector<std::pair<char const *,std::function<Application::Scene::Scene * __cdecl(void)> >,std::allocator<std::pair<char const *,std::function<Application::Scene::Scene * __cdecl(void)> > > >::_Change_array
PUBLIC	?_Xlength@?$vector@U?$pair@PEBDV?$function@$$A6APEAVScene@1Application@@XZ@std@@@std@@V?$allocator@U?$pair@PEBDV?$function@$$A6APEAVScene@1Application@@XZ@std@@@std@@@2@@std@@CAXXZ ; std::vector<std::pair<char const *,std::function<Application::Scene::Scene * __cdecl(void)> >,std::allocator<std::pair<char const *,std::function<Application::Scene::Scene * __cdecl(void)> > > >::_Xlength
PUBLIC	?_Myfirst@?$_Vector_alloc@U?$_Vec_base_types@U?$pair@PEBDV?$function@$$A6APEAVScene@1Application@@XZ@std@@@std@@V?$allocator@U?$pair@PEBDV?$function@$$A6APEAVScene@1Application@@XZ@std@@@std@@@2@@std@@@std@@QEAAAEAPEAU?$pair@PEBDV?$function@$$A6APEAVScene@1Application@@XZ@std@@@2@XZ ; std::_Vector_alloc<std::_Vec_base_types<std::pair<char const *,std::function<Application::Scene::Scene * __cdecl(void)> >,std::allocator<std::pair<char const *,std::function<Application::Scene::Scene * __cdecl(void)> > > > >::_Myfirst
PUBLIC	??0?$pair@PEBDV?$function@$$A6APEAVScene@1Application@@XZ@std@@@std@@QEAA@$$QEAU01@@Z ; std::pair<char const *,std::function<Application::Scene::Scene * __cdecl(void)> >::pair<char const *,std::function<Application::Scene::Scene * __cdecl(void)> >
PUBLIC	??$_Emplace_reallocate@U?$pair@PEBDV?$function@$$A6APEAVScene@1Application@@XZ@std@@@std@@@?$vector@U?$pair@PEBDV?$function@$$A6APEAVScene@1Application@@XZ@std@@@std@@V?$allocator@U?$pair@PEBDV?$function@$$A6APEAVScene@1Application@@XZ@std@@@std@@@2@@std@@QEAAPEAU?$pair@PEBDV?$function@$$A6APEAVScene@1Application@@XZ@std@@@1@QEAU21@$$QEAU21@@Z ; std::vector<std::pair<char const *,std::function<Application::Scene::Scene * __cdecl(void)> >,std::allocator<std::pair<char const *,std::function<Application::Scene::Scene * __cdecl(void)> > > >::_Emplace_reallocate<std::pair<char const *,std::function<Application::Scene::Scene * __cdecl(void)> > >
PUBLIC	??$construct@U?$pair@PEBDV?$function@$$A6APEAVScene@1Application@@XZ@std@@@std@@U12@@?$_Default_allocator_traits@V?$allocator@U?$pair@PEBDV?$function@$$A6APEAVScene@1Application@@XZ@std@@@std@@@std@@@std@@SAXAEAV?$allocator@U?$pair@PEBDV?$function@$$A6APEAVScene@1Application@@XZ@std@@@std@@@1@QEAU?$pair@PEBDV?$function@$$A6APEAVScene@1Application@@XZ@std@@@1@$$QEAU31@@Z ; std::_Default_allocator_traits<std::allocator<std::pair<char const *,std::function<Application::Scene::Scene * __cdecl(void)> > > >::construct<std::pair<char const *,std::function<Application::Scene::Scene * __cdecl(void)> >,std::pair<char const *,std::function<Application::Scene::Scene * __cdecl(void)> > >
PUBLIC	??$_Unfancy@U?$pair@PEBDV?$function@$$A6APEAVScene@1Application@@XZ@std@@@std@@@std@@YAPEAU?$pair@PEBDV?$function@$$A6APEAVScene@1Application@@XZ@std@@@0@PEAU10@@Z ; std::_Unfancy<std::pair<char const *,std::function<Application::Scene::Scene * __cdecl(void)> > >
PUBLIC	??$forward@U?$pair@PEBDV?$function@$$A6APEAVScene@1Application@@XZ@std@@@std@@@std@@YA$$QEAU?$pair@PEBDV?$function@$$A6APEAVScene@1Application@@XZ@std@@@0@AEAU10@@Z ; std::forward<std::pair<char const *,std::function<Application::Scene::Scene * __cdecl(void)> > >
PUBLIC	??$move@AEAU?$pair@PEBDV?$function@$$A6APEAVScene@1Application@@XZ@std@@@std@@@std@@YA$$QEAU?$pair@PEBDV?$function@$$A6APEAVScene@1Application@@XZ@std@@@0@AEAU10@@Z ; std::move<std::pair<char const *,std::function<Application::Scene::Scene * __cdecl(void)> > &>
PUBLIC	??$_Allocate_manually_vector_aligned@U_Default_allocate_traits@std@@@std@@YAPEAX_K@Z ; std::_Allocate_manually_vector_aligned<std::_Default_allocate_traits>
PUBLIC	?_Get_second@?$_Compressed_pair@V?$allocator@U?$pair@PEBDV?$function@$$A6APEAVScene@1Application@@XZ@std@@@std@@@std@@V?$_Vector_val@U?$_Simple_types@U?$pair@PEBDV?$function@$$A6APEAVScene@1Application@@XZ@std@@@std@@@std@@@2@$00@std@@QEBAAEBV?$_Vector_val@U?$_Simple_types@U?$pair@PEBDV?$function@$$A6APEAVScene@1Application@@XZ@std@@@std@@@std@@@2@XZ ; std::_Compressed_pair<std::allocator<std::pair<char const *,std::function<Application::Scene::Scene * __cdecl(void)> > >,std::_Vector_val<std::_Simple_types<std::pair<char const *,std::function<Application::Scene::Scene * __cdecl(void)> > > >,1>::_Get_second
PUBLIC	?_Get_data@?$_Vector_alloc@U?$_Vec_base_types@U?$pair@PEBDV?$function@$$A6APEAVScene@1Application@@XZ@std@@@std@@V?$allocator@U?$pair@PEBDV?$function@$$A6APEAVScene@1Application@@XZ@std@@@std@@@2@@std@@@std@@QEBAAEBV?$_Vector_val@U?$_Simple_types@U?$pair@PEBDV?$function@$$A6APEAVScene@1Application@@XZ@std@@@std@@@std@@@2@XZ ; std::_Vector_alloc<std::_Vec_base_types<std::pair<char const *,std::function<Application::Scene::Scene * __cdecl(void)> >,std::allocator<std::pair<char const *,std::function<Application::Scene::Scene * __cdecl(void)> > > > >::_Get_data
PUBLIC	?_Get_second@?$_Compressed_pair@V?$allocator@U?$pair@PEBDV?$function@$$A6APEAVScene@1Application@@XZ@std@@@std@@@std@@V?$_Vector_val@U?$_Simple_types@U?$pair@PEBDV?$function@$$A6APEAVScene@1Application@@XZ@std@@@std@@@std@@@2@$00@std@@QEAAAEAV?$_Vector_val@U?$_Simple_types@U?$pair@PEBDV?$function@$$A6APEAVScene@1Application@@XZ@std@@@std@@@std@@@2@XZ ; std::_Compressed_pair<std::allocator<std::pair<char const *,std::function<Application::Scene::Scene * __cdecl(void)> > >,std::_Vector_val<std::_Simple_types<std::pair<char const *,std::function<Application::Scene::Scene * __cdecl(void)> > > >,1>::_Get_second
PUBLIC	?_Getspace@?$_Func_class@PEAVScene@1Application@@$$V@std@@AEBAPEBXXZ ; std::_Func_class<Application::Scene::Scene *>::_Getspace
PUBLIC	?_Get_data@?$_Vector_alloc@U?$_Vec_base_types@U?$pair@PEBDV?$function@$$A6APEAVScene@1Application@@XZ@std@@@std@@V?$allocator@U?$pair@PEBDV?$function@$$A6APEAVScene@1Application@@XZ@std@@@std@@@2@@std@@@std@@QEAAAEAV?$_Vector_val@U?$_Simple_types@U?$pair@PEBDV?$function@$$A6APEAVScene@1Application@@XZ@std@@@std@@@std@@@2@XZ ; std::_Vector_alloc<std::_Vec_base_types<std::pair<char const *,std::function<Application::Scene::Scene * __cdecl(void)> >,std::allocator<std::pair<char const *,std::function<Application::Scene::Scene * __cdecl(void)> > > > >::_Get_data
PUBLIC	?_Mylast@?$_Vector_alloc@U?$_Vec_base_types@U?$pair@PEBDV?$function@$$A6APEAVScene@1Application@@XZ@std@@@std@@V?$allocator@U?$pair@PEBDV?$function@$$A6APEAVScene@1Application@@XZ@std@@@std@@@2@@std@@@std@@QEBAAEBQEAU?$pair@PEBDV?$function@$$A6APEAVScene@1Application@@XZ@std@@@2@XZ ; std::_Vector_alloc<std::_Vec_base_types<std::pair<char const *,std::function<Application::Scene::Scene * __cdecl(void)> >,std::allocator<std::pair<char const *,std::function<Application::Scene::Scene * __cdecl(void)> > > > >::_Mylast
PUBLIC	?_Myend@?$_Vector_alloc@U?$_Vec_base_types@U?$pair@PEBDV?$function@$$A6APEAVScene@1Application@@XZ@std@@@std@@V?$allocator@U?$pair@PEBDV?$function@$$A6APEAVScene@1Application@@XZ@std@@@std@@@2@@std@@@std@@QEBAAEBQEAU?$pair@PEBDV?$function@$$A6APEAVScene@1Application@@XZ@std@@@2@XZ ; std::_Vector_alloc<std::_Vec_base_types<std::pair<char const *,std::function<Application::Scene::Scene * __cdecl(void)> >,std::allocator<std::pair<char const *,std::function<Application::Scene::Scene * __cdecl(void)> > > > >::_Myend
PUBLIC	?_Get_first@?$_Compressed_pair@V?$allocator@U?$pair@PEBDV?$function@$$A6APEAVScene@1Application@@XZ@std@@@std@@@std@@V?$_Vector_val@U?$_Simple_types@U?$pair@PEBDV?$function@$$A6APEAVScene@1Application@@XZ@std@@@std@@@std@@@2@$00@std@@QEAAAEAV?$allocator@U?$pair@PEBDV?$function@$$A6APEAVScene@1Application@@XZ@std@@@std@@@2@XZ ; std::_Compressed_pair<std::allocator<std::pair<char const *,std::function<Application::Scene::Scene * __cdecl(void)> > >,std::_Vector_val<std::_Simple_types<std::pair<char const *,std::function<Application::Scene::Scene * __cdecl(void)> > > >,1>::_Get_first
PUBLIC	?_Empty@?$_Func_class@PEAVScene@1Application@@$$V@std@@IEBA_NXZ ; std::_Func_class<Application::Scene::Scene *>::_Empty
PUBLIC	?_Local@?$_Func_class@PEAVScene@1Application@@$$V@std@@AEBA_NXZ ; std::_Func_class<Application::Scene::Scene *>::_Local
PUBLIC	?_Getimpl@?$_Func_class@PEAVScene@1Application@@$$V@std@@AEBAPEAV?$_Func_base@PEAVScene@1Application@@$$V@2@XZ ; std::_Func_class<Application::Scene::Scene *>::_Getimpl
PUBLIC	?_Set@?$_Func_class@PEAVScene@1Application@@$$V@std@@AEAAXPEAV?$_Func_base@PEAVScene@1Application@@$$V@2@@Z ; std::_Func_class<Application::Scene::Scene *>::_Set
PUBLIC	?_Has_unused_capacity@?$vector@U?$pair@PEBDV?$function@$$A6APEAVScene@1Application@@XZ@std@@@std@@V?$allocator@U?$pair@PEBDV?$function@$$A6APEAVScene@1Application@@XZ@std@@@std@@@2@@std@@AEBA_NXZ ; std::vector<std::pair<char const *,std::function<Application::Scene::Scene * __cdecl(void)> >,std::allocator<std::pair<char const *,std::function<Application::Scene::Scene * __cdecl(void)> > > >::_Has_unused_capacity
PUBLIC	?_Orphan_range@?$vector@U?$pair@PEBDV?$function@$$A6APEAVScene@1Application@@XZ@std@@@std@@V?$allocator@U?$pair@PEBDV?$function@$$A6APEAVScene@1Application@@XZ@std@@@std@@@2@@std@@AEBAXPEAU?$pair@PEBDV?$function@$$A6APEAVScene@1Application@@XZ@std@@@2@0@Z ; std::vector<std::pair<char const *,std::function<Application::Scene::Scene * __cdecl(void)> >,std::allocator<std::pair<char const *,std::function<Application::Scene::Scene * __cdecl(void)> > > >::_Orphan_range
PUBLIC	?_Getal@?$_Vector_alloc@U?$_Vec_base_types@U?$pair@PEBDV?$function@$$A6APEAVScene@1Application@@XZ@std@@@std@@V?$allocator@U?$pair@PEBDV?$function@$$A6APEAVScene@1Application@@XZ@std@@@std@@@2@@std@@@std@@QEAAAEAV?$allocator@U?$pair@PEBDV?$function@$$A6APEAVScene@1Application@@XZ@std@@@std@@@2@XZ ; std::_Vector_alloc<std::_Vec_base_types<std::pair<char const *,std::function<Application::Scene::Scene * __cdecl(void)> >,std::allocator<std::pair<char const *,std::function<Application::Scene::Scene * __cdecl(void)> > > > >::_Getal
PUBLIC	?_Mylast@?$_Vector_alloc@U?$_Vec_base_types@U?$pair@PEBDV?$function@$$A6APEAVScene@1Application@@XZ@std@@@std@@V?$allocator@U?$pair@PEBDV?$function@$$A6APEAVScene@1Application@@XZ@std@@@std@@@2@@std@@@std@@QEAAAEAPEAU?$pair@PEBDV?$function@$$A6APEAVScene@1Application@@XZ@std@@@2@XZ ; std::_Vector_alloc<std::_Vec_base_types<std::pair<char const *,std::function<Application::Scene::Scene * __cdecl(void)> >,std::allocator<std::pair<char const *,std::function<Application::Scene::Scene * __cdecl(void)> > > > >::_Mylast
PUBLIC	?_Tidy@?$_Func_class@PEAVScene@1Application@@$$V@std@@IEAAXXZ ; std::_Func_class<Application::Scene::Scene *>::_Tidy
PUBLIC	??$_Emplace_back_with_unused_capacity@U?$pair@PEBDV?$function@$$A6APEAVScene@1Application@@XZ@std@@@std@@@?$vector@U?$pair@PEBDV?$function@$$A6APEAVScene@1Application@@XZ@std@@@std@@V?$allocator@U?$pair@PEBDV?$function@$$A6APEAVScene@1Application@@XZ@std@@@std@@@2@@std@@AEAAX$$QEAU?$pair@PEBDV?$function@$$A6APEAVScene@1Application@@XZ@std@@@1@@Z ; std::vector<std::pair<char const *,std::function<Application::Scene::Scene * __cdecl(void)> >,std::allocator<std::pair<char const *,std::function<Application::Scene::Scene * __cdecl(void)> > > >::_Emplace_back_with_unused_capacity<std::pair<char const *,std::function<Application::Scene::Scene * __cdecl(void)> > >
PUBLIC	??$emplace_back@U?$pair@PEBDV?$function@$$A6APEAVScene@1Application@@XZ@std@@@std@@@?$vector@U?$pair@PEBDV?$function@$$A6APEAVScene@1Application@@XZ@std@@@std@@V?$allocator@U?$pair@PEBDV?$function@$$A6APEAVScene@1Application@@XZ@std@@@std@@@2@@std@@QEAAX$$QEAU?$pair@PEBDV?$function@$$A6APEAVScene@1Application@@XZ@std@@@1@@Z ; std::vector<std::pair<char const *,std::function<Application::Scene::Scene * __cdecl(void)> >,std::allocator<std::pair<char const *,std::function<Application::Scene::Scene * __cdecl(void)> > > >::emplace_back<std::pair<char const *,std::function<Application::Scene::Scene * __cdecl(void)> > >
PUBLIC	?push_back@?$vector@U?$pair@PEBDV?$function@$$A6APEAVScene@1Application@@XZ@std@@@std@@V?$allocator@U?$pair@PEBDV?$function@$$A6APEAVScene@1Application@@XZ@std@@@std@@@2@@std@@QEAAX$$QEAU?$pair@PEBDV?$function@$$A6APEAVScene@1Application@@XZ@std@@@2@@Z ; std::vector<std::pair<char const *,std::function<Application::Scene::Scene * __cdecl(void)> >,std::allocator<std::pair<char const *,std::function<Application::Scene::Scene * __cdecl(void)> > > >::push_back
PUBLIC	??1?$_Func_class@PEAVScene@1Application@@$$V@std@@QEAA@XZ ; std::_Func_class<Application::Scene::Scene *>::~_Func_class<Application::Scene::Scene *>
PUBLIC	??1?$function@$$A6APEAVScene@1Application@@XZ@std@@QEAA@XZ ; std::function<Application::Scene::Scene * __cdecl(void)>::~function<Application::Scene::Scene * __cdecl(void)>
PUBLIC	?__autoclassinit2@ComputeShaderScene@Scene@Application@@QEAAX_K@Z ; Application::Scene::ComputeShaderScene::__autoclassinit2
PUBLIC	?__autoclassinit2@MandelbrotScene@Scene@Application@@QEAAX_K@Z ; Application::Scene::MandelbrotScene::__autoclassinit2
PUBLIC	?__autoclassinit2@BoidScene@Scene@Application@@QEAAX_K@Z ; Application::Scene::BoidScene::__autoclassinit2
PUBLIC	?__autoclassinit2@LayerScene@Scene@Application@@QEAAX_K@Z ; Application::Scene::LayerScene::__autoclassinit2
PUBLIC	?__autoclassinit2@BatchRendererScene@Scene@Application@@QEAAX_K@Z ; Application::Scene::BatchRendererScene::__autoclassinit2
PUBLIC	?__autoclassinit2@SimpleRendererScene@Scene@Application@@QEAAX_K@Z ; Application::Scene::SimpleRendererScene::__autoclassinit2
PUBLIC	?__autoclassinit2@TextureTestScene@Scene@Application@@QEAAX_K@Z ; Application::Scene::TextureTestScene::__autoclassinit2
PUBLIC	?__autoclassinit2@BuffersTestScene@Scene@Application@@QEAAX_K@Z ; Application::Scene::BuffersTestScene::__autoclassinit2
PUBLIC	??1?$pair@PEBDV?$function@$$A6APEAVScene@1Application@@XZ@std@@@std@@QEAA@XZ ; std::pair<char const *,std::function<Application::Scene::Scene * __cdecl(void)> >::~pair<char const *,std::function<Application::Scene::Scene * __cdecl(void)> >
PUBLIC	??_H@YAXPEAX_K1P6APEAX0@Z@Z			; `vector constructor iterator'
PUBLIC	??$_Deallocate@$0BA@$0A@@std@@YAXPEAX_K@Z	; std::_Deallocate<16,0>
PUBLIC	??$_Allocate@$0BA@U_Default_allocate_traits@std@@$0A@@std@@YAPEAX_K@Z ; std::_Allocate<16,std::_Default_allocate_traits,0>
PUBLIC	??$RegisterScene@VComputeShaderScene@Scene@Application@@@MainMenuScene@Scene@Application@@QEAAXPEBD@Z ; Application::Scene::MainMenuScene::RegisterScene<Application::Scene::ComputeShaderScene>
PUBLIC	??$RegisterScene@VMandelbrotScene@Scene@Application@@@MainMenuScene@Scene@Application@@QEAAXPEBD@Z ; Application::Scene::MainMenuScene::RegisterScene<Application::Scene::MandelbrotScene>
PUBLIC	??$RegisterScene@VBoidScene@Scene@Application@@@MainMenuScene@Scene@Application@@QEAAXPEBD@Z ; Application::Scene::MainMenuScene::RegisterScene<Application::Scene::BoidScene>
PUBLIC	??$RegisterScene@VLayerScene@Scene@Application@@@MainMenuScene@Scene@Application@@QEAAXPEBD@Z ; Application::Scene::MainMenuScene::RegisterScene<Application::Scene::LayerScene>
PUBLIC	??$RegisterScene@VBatchRendererScene@Scene@Application@@@MainMenuScene@Scene@Application@@QEAAXPEBD@Z ; Application::Scene::MainMenuScene::RegisterScene<Application::Scene::BatchRendererScene>
PUBLIC	??$RegisterScene@VSimpleRendererScene@Scene@Application@@@MainMenuScene@Scene@Application@@QEAAXPEBD@Z ; Application::Scene::MainMenuScene::RegisterScene<Application::Scene::SimpleRendererScene>
PUBLIC	??$RegisterScene@VTextureTestScene@Scene@Application@@@MainMenuScene@Scene@Application@@QEAAXPEBD@Z ; Application::Scene::MainMenuScene::RegisterScene<Application::Scene::TextureTestScene>
PUBLIC	??$RegisterScene@VBuffersTestScene@Scene@Application@@@MainMenuScene@Scene@Application@@QEAAXPEBD@Z ; Application::Scene::MainMenuScene::RegisterScene<Application::Scene::BuffersTestScene>
PUBLIC	??$RegisterScene@VTestScene@Scene@Application@@@MainMenuScene@Scene@Application@@QEAAXPEBD@Z ; Application::Scene::MainMenuScene::RegisterScene<Application::Scene::TestScene>
PUBLIC	??$_Min_value@_K@std@@YAAEB_KAEB_K0@Z		; std::_Min_value<unsigned __int64>
PUBLIC	?__autoclassinit2@MainMenuScene@Scene@Application@@QEAAX_K@Z ; Application::Scene::MainMenuScene::__autoclassinit2
PUBLIC	?__autoclassinit2@Window@graphics@core@@QEAAX_K@Z ; core::graphics::Window::__autoclassinit2
PUBLIC	main
PUBLIC	??0ImVec2@@QEAA@MM@Z				; ImVec2::ImVec2
PUBLIC	?_Adjust_manually_vector_aligned@std@@YAXAEAPEAXAEA_K@Z ; std::_Adjust_manually_vector_aligned
PUBLIC	?_Allocate@_Default_allocate_traits@std@@SAPEAX_K@Z ; std::_Default_allocate_traits::_Allocate
PUBLIC	?_Orphan_all@_Container_base0@std@@QEAAXXZ	; std::_Container_base0::_Orphan_all
PUBLIC	??2@YAPEAX_KPEAX@Z				; operator new
PUBLIC	?max@?$numeric_limits@_J@std@@SA_JXZ		; std::numeric_limits<__int64>::max
PUBLIC	__isa_available_default
PUBLIC	__real@1e3ce508
PUBLIC	__real@358637bd
PUBLIC	__real@3727c5ac
PUBLIC	__real@37800000
PUBLIC	__real@38800000
PUBLIC	__real@38d1b717
PUBLIC	__real@3a83126f
PUBLIC	__real@3b808081
PUBLIC	__real@3c23d70a
PUBLIC	__real@3c888889
PUBLIC	__real@3cdd2f1b
PUBLIC	__real@3d000000
PUBLIC	__real@3d4ccccd
PUBLIC	__real@3d638e39
PUBLIC	__real@3da3d70a
PUBLIC	__real@3dcccccd
PUBLIC	__real@3e19999a
PUBLIC	__real@3e22f983
PUBLIC	__real@3e2aaaab
PUBLIC	__real@3e4ccccd
PUBLIC	__real@3e800000
PUBLIC	__real@3e99999a
PUBLIC	__real@3eaaaaab
PUBLIC	__real@3eab3cca
PUBLIC	__real@3eb33333
PUBLIC	__real@3ecccccd
PUBLIC	__real@3ee8ba2e
PUBLIC	__real@3efae148
PUBLIC	__real@3f000000
PUBLIC	__real@3f060a92
PUBLIC	__real@3f0ccccd
PUBLIC	__real@3f19999a
PUBLIC	__real@3f266666
PUBLIC	__real@3f2b851f
PUBLIC	__real@3f333333
PUBLIC	__real@3f350481
PUBLIC	__real@3f36db6e
PUBLIC	__real@3f400000
PUBLIC	__real@3f4ccccd
PUBLIC	__real@3f5db22d
PUBLIC	__real@3f5db3d0
PUBLIC	__real@3f733333
PUBLIC	__real@3f800000
PUBLIC	__real@3f8147ae
PUBLIC	__real@3f860a92
PUBLIC	__real@3f91df46a2529d39
PUBLIC	__real@3f99999a
PUBLIC	__real@3fab851f
PUBLIC	__real@3faccccd
PUBLIC	__real@3fc00000
PUBLIC	__real@3fd55556
PUBLIC	__real@3ff0000000000000
PUBLIC	__real@3ffeb852
PUBLIC	__real@40000000
PUBLIC	__real@40200000
PUBLIC	__real@40400000
PUBLIC	__real@40600000
PUBLIC	__real@40800000
PUBLIC	__real@40900000
PUBLIC	__real@40a00000
PUBLIC	__real@40b84e89
PUBLIC	__real@40c00000
PUBLIC	__real@40c90fda
PUBLIC	__real@40c90fdb
PUBLIC	__real@41000000
PUBLIC	__real@41100000
PUBLIC	__real@41200000
PUBLIC	__real@41400000
PUBLIC	__real@41500000
PUBLIC	__real@41800000
PUBLIC	__real@41a00000
PUBLIC	__real@41c00000
PUBLIC	__real@41c80000
PUBLIC	__real@42b60000
PUBLIC	__real@42c80000
PUBLIC	__real@42f00000
PUBLIC	__real@43000000
PUBLIC	__real@434c0000
PUBLIC	__real@437f0000
PUBLIC	__real@43900000
PUBLIC	__real@44000000
PUBLIC	__real@44100000
PUBLIC	__real@44160000
PUBLIC	__real@44480000
PUBLIC	__real@447a0000
PUBLIC	__real@44800000
PUBLIC	__real@461c3c00
PUBLIC	__real@477fff00
PUBLIC	__real@5f800000
PUBLIC	__real@7f7fffff
PUBLIC	__real@be99999a
PUBLIC	__real@beaaaaab
PUBLIC	__real@becccccd
PUBLIC	__real@bf000000
PUBLIC	__real@bf400000
PUBLIC	__real@bf5db22d
PUBLIC	__real@bf5db3d0
PUBLIC	__real@bf800000
PUBLIC	__real@bfd55556
PUBLIC	__real@c0000000
PUBLIC	__real@c000c152382d7365
PUBLIC	__real@c0600000
PUBLIC	__real@c0900000
PUBLIC	__real@c0c90fdb
PUBLIC	__real@c1000000
PUBLIC	__real@c1100000
PUBLIC	__real@c1800000
PUBLIC	__real@c47a0000
PUBLIC	__real@c87a0000
PUBLIC	__real@ff7fffff
PUBLIC	__xmm@0000000000000000000000003f800000
PUBLIC	__xmm@00000000000000003f80000000000000
PUBLIC	__xmm@0000000000000000bf000000bf000000
PUBLIC	__xmm@0000000000000000c0800000c0800000
PUBLIC	__xmm@00000000000000020000000300000001
PUBLIC	__xmm@00000000000000040000000000000000
PUBLIC	__xmm@000000000000000f0000000000000000
PUBLIC	__xmm@000000003f8000000000000000000000
PUBLIC	__xmm@000000003f8000003f8000003f800000
PUBLIC	__xmm@000000003f800000bf0000003f000000
PUBLIC	__xmm@00000000bf8000000000000000000000
PUBLIC	__xmm@00000000c08000004080000000000000
PUBLIC	__xmm@00000001000000010000000100000001
PUBLIC	__xmm@00000002000000000000000400000000
PUBLIC	__xmm@00000002000000020000000200000002
PUBLIC	__xmm@00000003000000020000000100000000
PUBLIC	__xmm@00000003000000030000000300000003
PUBLIC	__xmm@00000004000000040000000800000008
PUBLIC	__xmm@00000004000000080000000800000008
PUBLIC	__xmm@00000200000002000000020000000200
PUBLIC	__xmm@00080008000800080008000800080008
PUBLIC	__xmm@00ff00ff00ff00ff00ff00ff00ff00ff
PUBLIC	__xmm@01010000010100000101000001010000
PUBLIC	__xmm@08a914e808a914e808a914e808a914e8
PUBLIC	__xmm@11c8e09e11c8e09e11c8e09e11c8e09e
PUBLIC	__xmm@11c8f9c311c8f9c311c8f9c311c8f9c3
PUBLIC	__xmm@12d0046b12d0046b12d0046b12d0046b
PUBLIC	__xmm@166f166f166f166f166f166f166f166f
PUBLIC	__xmm@1c5a1c5a1c5a1c5a1c5a1c5a1c5a1c5a
PUBLIC	__xmm@3b8080813b8080813b8080813b808081
PUBLIC	__xmm@3e8000003f7ae1483f170a3d3e851eb8
PUBLIC	__xmm@3e9eb8523f7ae1483f170a3d3e851eb8
PUBLIC	__xmm@3eb333333f4ccccd3f4ccccd3f4ccccd
PUBLIC	__xmm@3eb333333f7ae1483f170a3d3e851eb8
PUBLIC	__xmm@3ecccccd3f7ae1483f170a3d3e851eb8
PUBLIC	__xmm@3f0000003f0000003edc28f63edc28f6
PUBLIC	__xmm@3f000000bf0000003f0000003f000000
PUBLIC	__xmm@3f028f5c000000000000000000000000
PUBLIC	__xmm@3f07ae143ca3d70a3ca3d70a3ca3d70a
PUBLIC	__xmm@3f0a3d713ef5c28f3e947ae13e23d70a
PUBLIC	__xmm@3f2b851f3f7ae1483f170a3d3e851eb8
PUBLIC	__xmm@3f3333333f8000003f8000003f800000
PUBLIC	__xmm@3f47ae143f4000003ecccccd3dcccccd
PUBLIC	__xmm@3f4ccccd3f7ae1483f170a3d3e851eb8
PUBLIC	__xmm@3f666666000000003f8000003f800000
PUBLIC	__xmm@3f70a3d73d75c28f3d75c28f3d75c28f
PUBLIC	__xmm@3f70a3d73da3d70a3da3d70a3da3d70a
PUBLIC	__xmm@3f7333333f7ae1483f170a3d3e851eb8
PUBLIC	__xmm@3f800000000000000000000000000000
PUBLIC	__xmm@3f80000000000000000000003f800000
PUBLIC	__xmm@3f800000000000000000000040800000
PUBLIC	__xmm@3f800000000000003f000000bf000000
PUBLIC	__xmm@3f800000000000003f19999a3f800000
PUBLIC	__xmm@3f800000000000003f3333333f666666
PUBLIC	__xmm@3f800000000000003f800000bf800000
PUBLIC	__xmm@3f8000003d23d70a3d23d70a3d23d70a
PUBLIC	__xmm@3f8000003e0f5c293e0f5c293e0f5c29
PUBLIC	__xmm@3f8000003e9eb8523e9eb8523e9eb852
PUBLIC	__xmm@3f8000003eb333333edc28f63f800000
PUBLIC	__xmm@3f8000003ed1eb853ed1eb853ed1eb85
PUBLIC	__xmm@3f8000003ef5c28f3e947ae13e23d70a
PUBLIC	__xmm@3f8000003f0000003f0000003f000000
PUBLIC	__xmm@3f8000003f028f5c3f028f5c3f028f5c
PUBLIC	__xmm@3f8000003f1c28f63f1c28f63f1c28f6
PUBLIC	__xmm@3f8000003f4000003ecccccd3dcccccd
PUBLIC	__xmm@3f8000003f6147ae3f051eb83e75c28f
PUBLIC	__xmm@3f8000003f7ae1483f07ae143d75c28f
PUBLIC	__xmm@3f8000003f7ae1483f170a3d3e851eb8
PUBLIC	__xmm@3f8000003f8000003f0000003f000000
PUBLIC	__xmm@3f8000003f8000003f8000003f800000
PUBLIC	__xmm@3f8000003f800000bf8000003f800000
PUBLIC	__xmm@3f800000bf800000bf800000bf800000
PUBLIC	__xmm@4080000040800000000000003f800000
PUBLIC	__xmm@4600000046000000c6000000c6000000
PUBLIC	__xmm@7f7fffff7f7fffffff7fffffff7fffff
PUBLIC	__xmm@7fffffff7fffffff7fffffff7fffffff
PUBLIC	__xmm@80000000800000008000000080000000
PUBLIC	__xmm@80808080808080808080808080808080
PUBLIC	__xmm@bf0000003f000000bf000000bf000000
PUBLIC	__xmm@c08000003f8000003f80000000000000
PUBLIC	__xmm@e09ee565e09ee565e09ee565e09ee565
PUBLIC	__xmm@e9cf12d0e9cf12d0e9cf12d0e9cf12d0
PUBLIC	__xmm@eb1a08a9eb1a08a9eb1a08a9eb1a08a9
PUBLIC	__xmm@f493f493f493f493f493f493f493f493
PUBLIC	__xmm@f9c31a9df9c31a9df9c31a9df9c31a9d
PUBLIC	__xmm@fa7efa7efa7efa7efa7efa7efa7efa7e
PUBLIC	__xmm@ff7fffffff7fffff7f7fffff7f7fffff
EXTRN	_CxxThrowException:PROC
EXTRN	__CxxFrameHandler3:PROC
EXTRN	__GSHandlerCheck:PROC
EXTRN	__GSHandlerCheck_EH:PROC
EXTRN	__chkstk:PROC
EXTRN	__libm_sse2_sincosf4_:PROC
EXTRN	__libm_sse2_sincosf_:PROC
EXTRN	__std_terminate:PROC
EXTRN	atan2f:PROC
EXTRN	cosf:PROC
EXTRN	fmodf:PROC
EXTRN	memchr:PROC
EXTRN	memcmp:PROC
EXTRN	memcpy:PROC
EXTRN	memmove:PROC
EXTRN	memset:PROC
EXTRN	powf:PROC
EXTRN	sinf:PROC
EXTRN	strcmp:PROC
EXTRN	__ImageBase:BYTE
EXTRN	__isa_available:DWORD
EXTRN	__security_cookie:QWORD
EXTRN	_fltused:DWORD
EXTRN	_tls_index:DWORD
;	COMDAT __isa_available_default
_BSS	SEGMENT
__isa_available_default DD 01H DUP (?)
_BSS	ENDS
;	COMDAT pdata
pdata	SEGMENT
$pdata$??$_Call@AEAV<lambda_9e62dcf887c94db0be73ed49d4be45d7>@@$$V@_Invoker_functor@std@@SAPEAVComputeShaderScene@Scene@Application@@AEAV<lambda_9e62dcf887c94db0be73ed49d4be45d7>@@@Z DD imagerel ??$_Call@AEAV<lambda_9e62dcf887c94db0be73ed49d4be45d7>@@$$V@_Invoker_functor@std@@SAPEAVComputeShaderScene@Scene@Application@@AEAV<lambda_9e62dcf887c94db0be73ed49d4be45d7>@@@Z
	DD	imagerel ??$_Call@AEAV<lambda_9e62dcf887c94db0be73ed49d4be45d7>@@$$V@_Invoker_functor@std@@SAPEAVComputeShaderScene@Scene@Application@@AEAV<lambda_9e62dcf887c94db0be73ed49d4be45d7>@@@Z+68
	DD	imagerel $unwind$??$_Call@AEAV<lambda_9e62dcf887c94db0be73ed49d4be45d7>@@$$V@_Invoker_functor@std@@SAPEAVComputeShaderScene@Scene@Application@@AEAV<lambda_9e62dcf887c94db0be73ed49d4be45d7>@@@Z
pdata	ENDS
;	COMDAT pdata
pdata	SEGMENT
$pdata$?dtor$0@?0???$_Call@AEAV<lambda_9e62dcf887c94db0be73ed49d4be45d7>@@$$V@_Invoker_functor@std@@SAPEAVComputeShaderScene@Scene@Application@@AEAV<lambda_9e62dcf887c94db0be73ed49d4be45d7>@@@Z@4HA DD imagerel ?dtor$0@?0???$_Call@AEAV<lambda_9e62dcf887c94db0be73ed49d4be45d7>@@$$V@_Invoker_functor@std@@SAPEAVComputeShaderScene@Scene@Application@@AEAV<lambda_9e62dcf887c94db0be73ed49d4be45d7>@@@Z@4HA
	DD	imagerel ?dtor$0@?0???$_Call@AEAV<lambda_9e62dcf887c94db0be73ed49d4be45d7>@@$$V@_Invoker_functor@std@@SAPEAVComputeShaderScene@Scene@Application@@AEAV<lambda_9e62dcf887c94db0be73ed49d4be45d7>@@@Z@4HA+29
	DD	imagerel $unwind$?dtor$0@?0???$_Call@AEAV<lambda_9e62dcf887c94db0be73ed49d4be45d7>@@$$V@_Invoker_functor@std@@SAPEAVComputeShaderScene@Scene@Application@@AEAV<lambda_9e62dcf887c94db0be73ed49d4be45d7>@@@Z@4HA
pdata	ENDS
;	COMDAT pdata
pdata	SEGMENT
$pdata$??$_Call@AEAV<lambda_f04c6ff6a0f44a3600e7c5996fdf93c3>@@$$V@_Invoker_functor@std@@SAPEAVMandelbrotScene@Scene@Application@@AEAV<lambda_f04c6ff6a0f44a3600e7c5996fdf93c3>@@@Z DD imagerel ??$_Call@AEAV<lambda_f04c6ff6a0f44a3600e7c5996fdf93c3>@@$$V@_Invoker_functor@std@@SAPEAVMandelbrotScene@Scene@Application@@AEAV<lambda_f04c6ff6a0f44a3600e7c5996fdf93c3>@@@Z
	DD	imagerel ??$_Call@AEAV<lambda_f04c6ff6a0f44a3600e7c5996fdf93c3>@@$$V@_Invoker_functor@std@@SAPEAVMandelbrotScene@Scene@Application@@AEAV<lambda_f04c6ff6a0f44a3600e7c5996fdf93c3>@@@Z+66
	DD	imagerel $unwind$??$_Call@AEAV<lambda_f04c6ff6a0f44a3600e7c5996fdf93c3>@@$$V@_Invoker_functor@std@@SAPEAVMandelbrotScene@Scene@Application@@AEAV<lambda_f04c6ff6a0f44a3600e7c5996fdf93c3>@@@Z
pdata	ENDS
;	COMDAT pdata
pdata	SEGMENT
$pdata$?dtor$0@?0???$_Call@AEAV<lambda_f04c6ff6a0f44a3600e7c5996fdf93c3>@@$$V@_Invoker_functor@std@@SAPEAVMandelbrotScene@Scene@Application@@AEAV<lambda_f04c6ff6a0f44a3600e7c5996fdf93c3>@@@Z@4HA DD imagerel ?dtor$0@?0???$_Call@AEAV<lambda_f04c6ff6a0f44a3600e7c5996fdf93c3>@@$$V@_Invoker_functor@std@@SAPEAVMandelbrotScene@Scene@Application@@AEAV<lambda_f04c6ff6a0f44a3600e7c5996fdf93c3>@@@Z@4HA
	DD	imagerel ?dtor$0@?0???$_Call@AEAV<lambda_f04c6ff6a0f44a3600e7c5996fdf93c3>@@$$V@_Invoker_functor@std@@SAPEAVMandelbrotScene@Scene@Application@@AEAV<lambda_f04c6ff6a0f44a3600e7c5996fdf93c3>@@@Z@4HA+29
	DD	imagerel $unwind$?dtor$0@?0???$_Call@AEAV<lambda_f04c6ff6a0f44a3600e7c5996fdf93c3>@@$$V@_Invoker_functor@std@@SAPEAVMandelbrotScene@Scene@Application@@AEAV<lambda_f04c6ff6a0f44a3600e7c5996fdf93c3>@@@Z@4HA
pdata	ENDS
;	COMDAT pdata
pdata	SEGMENT
$pdata$??$_Call@AEAV<lambda_8a87a946287cf0625355d2c413df9209>@@$$V@_Invoker_functor@std@@SAPEAVBoidScene@Scene@Application@@AEAV<lambda_8a87a946287cf0625355d2c413df9209>@@@Z DD imagerel ??$_Call@AEAV<lambda_8a87a946287cf0625355d2c413df9209>@@$$V@_Invoker_functor@std@@SAPEAVBoidScene@Scene@Application@@AEAV<lambda_8a87a946287cf0625355d2c413df9209>@@@Z
	DD	imagerel ??$_Call@AEAV<lambda_8a87a946287cf0625355d2c413df9209>@@$$V@_Invoker_functor@std@@SAPEAVBoidScene@Scene@Application@@AEAV<lambda_8a87a946287cf0625355d2c413df9209>@@@Z+76
	DD	imagerel $unwind$??$_Call@AEAV<lambda_8a87a946287cf0625355d2c413df9209>@@$$V@_Invoker_functor@std@@SAPEAVBoidScene@Scene@Application@@AEAV<lambda_8a87a946287cf0625355d2c413df9209>@@@Z
pdata	ENDS
;	COMDAT pdata
pdata	SEGMENT
$pdata$?dtor$0@?0???$_Call@AEAV<lambda_8a87a946287cf0625355d2c413df9209>@@$$V@_Invoker_functor@std@@SAPEAVBoidScene@Scene@Application@@AEAV<lambda_8a87a946287cf0625355d2c413df9209>@@@Z@4HA DD imagerel ?dtor$0@?0???$_Call@AEAV<lambda_8a87a946287cf0625355d2c413df9209>@@$$V@_Invoker_functor@std@@SAPEAVBoidScene@Scene@Application@@AEAV<lambda_8a87a946287cf0625355d2c413df9209>@@@Z@4HA
	DD	imagerel ?dtor$0@?0???$_Call@AEAV<lambda_8a87a946287cf0625355d2c413df9209>@@$$V@_Invoker_functor@std@@SAPEAVBoidScene@Scene@Application@@AEAV<lambda_8a87a946287cf0625355d2c413df9209>@@@Z@4HA+29
	DD	imagerel $unwind$?dtor$0@?0???$_Call@AEAV<lambda_8a87a946287cf0625355d2c413df9209>@@$$V@_Invoker_functor@std@@SAPEAVBoidScene@Scene@Application@@AEAV<lambda_8a87a946287cf0625355d2c413df9209>@@@Z@4HA
pdata	ENDS
;	COMDAT pdata
pdata	SEGMENT
$pdata$??$_Call@AEAV<lambda_1f639e86dd05cae58c2a45cb24025185>@@$$V@_Invoker_functor@std@@SAPEAVLayerScene@Scene@Application@@AEAV<lambda_1f639e86dd05cae58c2a45cb24025185>@@@Z DD imagerel ??$_Call@AEAV<lambda_1f639e86dd05cae58c2a45cb24025185>@@$$V@_Invoker_functor@std@@SAPEAVLayerScene@Scene@Application@@AEAV<lambda_1f639e86dd05cae58c2a45cb24025185>@@@Z
	DD	imagerel ??$_Call@AEAV<lambda_1f639e86dd05cae58c2a45cb24025185>@@$$V@_Invoker_functor@std@@SAPEAVLayerScene@Scene@Application@@AEAV<lambda_1f639e86dd05cae58c2a45cb24025185>@@@Z+64
	DD	imagerel $unwind$??$_Call@AEAV<lambda_1f639e86dd05cae58c2a45cb24025185>@@$$V@_Invoker_functor@std@@SAPEAVLayerScene@Scene@Application@@AEAV<lambda_1f639e86dd05cae58c2a45cb24025185>@@@Z
pdata	ENDS
;	COMDAT pdata
pdata	SEGMENT
$pdata$?dtor$0@?0???$_Call@AEAV<lambda_1f639e86dd05cae58c2a45cb24025185>@@$$V@_Invoker_functor@std@@SAPEAVLayerScene@Scene@Application@@AEAV<lambda_1f639e86dd05cae58c2a45cb24025185>@@@Z@4HA DD imagerel ?dtor$0@?0???$_Call@AEAV<lambda_1f639e86dd05cae58c2a45cb24025185>@@$$V@_Invoker_functor@std@@SAPEAVLayerScene@Scene@Application@@AEAV<lambda_1f639e86dd05cae58c2a45cb24025185>@@@Z@4HA
	DD	imagerel ?dtor$0@?0???$_Call@AEAV<lambda_1f639e86dd05cae58c2a45cb24025185>@@$$V@_Invoker_functor@std@@SAPEAVLayerScene@Scene@Application@@AEAV<lambda_1f639e86dd05cae58c2a45cb24025185>@@@Z@4HA+29
	DD	imagerel $unwind$?dtor$0@?0???$_Call@AEAV<lambda_1f639e86dd05cae58c2a45cb24025185>@@$$V@_Invoker_functor@std@@SAPEAVLayerScene@Scene@Application@@AEAV<lambda_1f639e86dd05cae58c2a45cb24025185>@@@Z@4HA
pdata	ENDS
;	COMDAT pdata
pdata	SEGMENT
$pdata$??$_Call@AEAV<lambda_f8034f4d3434a17004a65f045c28f944>@@$$V@_Invoker_functor@std@@SAPEAVBatchRendererScene@Scene@Application@@AEAV<lambda_f8034f4d3434a17004a65f045c28f944>@@@Z DD imagerel ??$_Call@AEAV<lambda_f8034f4d3434a17004a65f045c28f944>@@$$V@_Invoker_functor@std@@SAPEAVBatchRendererScene@Scene@Application@@AEAV<lambda_f8034f4d3434a17004a65f045c28f944>@@@Z
	DD	imagerel ??$_Call@AEAV<lambda_f8034f4d3434a17004a65f045c28f944>@@$$V@_Invoker_functor@std@@SAPEAVBatchRendererScene@Scene@Application@@AEAV<lambda_f8034f4d3434a17004a65f045c28f944>@@@Z+84
	DD	imagerel $unwind$??$_Call@AEAV<lambda_f8034f4d3434a17004a65f045c28f944>@@$$V@_Invoker_functor@std@@SAPEAVBatchRendererScene@Scene@Application@@AEAV<lambda_f8034f4d3434a17004a65f045c28f944>@@@Z
pdata	ENDS
;	COMDAT pdata
pdata	SEGMENT
$pdata$?dtor$0@?0???$_Call@AEAV<lambda_f8034f4d3434a17004a65f045c28f944>@@$$V@_Invoker_functor@std@@SAPEAVBatchRendererScene@Scene@Application@@AEAV<lambda_f8034f4d3434a17004a65f045c28f944>@@@Z@4HA DD imagerel ?dtor$0@?0???$_Call@AEAV<lambda_f8034f4d3434a17004a65f045c28f944>@@$$V@_Invoker_functor@std@@SAPEAVBatchRendererScene@Scene@Application@@AEAV<lambda_f8034f4d3434a17004a65f045c28f944>@@@Z@4HA
	DD	imagerel ?dtor$0@?0???$_Call@AEAV<lambda_f8034f4d3434a17004a65f045c28f944>@@$$V@_Invoker_functor@std@@SAPEAVBatchRendererScene@Scene@Application@@AEAV<lambda_f8034f4d3434a17004a65f045c28f944>@@@Z@4HA+29
	DD	imagerel $unwind$?dtor$0@?0???$_Call@AEAV<lambda_f8034f4d3434a17004a65f045c28f944>@@$$V@_Invoker_functor@std@@SAPEAVBatchRendererScene@Scene@Application@@AEAV<lambda_f8034f4d3434a17004a65f045c28f944>@@@Z@4HA
pdata	ENDS
;	COMDAT pdata
pdata	SEGMENT
$pdata$??$_Call@AEAV<lambda_6e33341e90591d57c68d6076b03224d9>@@$$V@_Invoker_functor@std@@SAPEAVSimpleRendererScene@Scene@Application@@AEAV<lambda_6e33341e90591d57c68d6076b03224d9>@@@Z DD imagerel ??$_Call@AEAV<lambda_6e33341e90591d57c68d6076b03224d9>@@$$V@_Invoker_functor@std@@SAPEAVSimpleRendererScene@Scene@Application@@AEAV<lambda_6e33341e90591d57c68d6076b03224d9>@@@Z
	DD	imagerel ??$_Call@AEAV<lambda_6e33341e90591d57c68d6076b03224d9>@@$$V@_Invoker_functor@std@@SAPEAVSimpleRendererScene@Scene@Application@@AEAV<lambda_6e33341e90591d57c68d6076b03224d9>@@@Z+80
	DD	imagerel $unwind$??$_Call@AEAV<lambda_6e33341e90591d57c68d6076b03224d9>@@$$V@_Invoker_functor@std@@SAPEAVSimpleRendererScene@Scene@Application@@AEAV<lambda_6e33341e90591d57c68d6076b03224d9>@@@Z
pdata	ENDS
;	COMDAT pdata
pdata	SEGMENT
$pdata$?dtor$0@?0???$_Call@AEAV<lambda_6e33341e90591d57c68d6076b03224d9>@@$$V@_Invoker_functor@std@@SAPEAVSimpleRendererScene@Scene@Application@@AEAV<lambda_6e33341e90591d57c68d6076b03224d9>@@@Z@4HA DD imagerel ?dtor$0@?0???$_Call@AEAV<lambda_6e33341e90591d57c68d6076b03224d9>@@$$V@_Invoker_functor@std@@SAPEAVSimpleRendererScene@Scene@Application@@AEAV<lambda_6e33341e90591d57c68d6076b03224d9>@@@Z@4HA
	DD	imagerel ?dtor$0@?0???$_Call@AEAV<lambda_6e33341e90591d57c68d6076b03224d9>@@$$V@_Invoker_functor@std@@SAPEAVSimpleRendererScene@Scene@Application@@AEAV<lambda_6e33341e90591d57c68d6076b03224d9>@@@Z@4HA+29
	DD	imagerel $unwind$?dtor$0@?0???$_Call@AEAV<lambda_6e33341e90591d57c68d6076b03224d9>@@$$V@_Invoker_functor@std@@SAPEAVSimpleRendererScene@Scene@Application@@AEAV<lambda_6e33341e90591d57c68d6076b03224d9>@@@Z@4HA
pdata	ENDS
;	COMDAT pdata
pdata	SEGMENT
$pdata$??$_Call@AEAV<lambda_2c3ab7f48cee5f9b56075868f97e05b2>@@$$V@_Invoker_functor@std@@SAPEAVTextureTestScene@Scene@Application@@AEAV<lambda_2c3ab7f48cee5f9b56075868f97e05b2>@@@Z DD imagerel ??$_Call@AEAV<lambda_2c3ab7f48cee5f9b56075868f97e05b2>@@$$V@_Invoker_functor@std@@SAPEAVTextureTestScene@Scene@Application@@AEAV<lambda_2c3ab7f48cee5f9b56075868f97e05b2>@@@Z
	DD	imagerel ??$_Call@AEAV<lambda_2c3ab7f48cee5f9b56075868f97e05b2>@@$$V@_Invoker_functor@std@@SAPEAVTextureTestScene@Scene@Application@@AEAV<lambda_2c3ab7f48cee5f9b56075868f97e05b2>@@@Z+76
	DD	imagerel $unwind$??$_Call@AEAV<lambda_2c3ab7f48cee5f9b56075868f97e05b2>@@$$V@_Invoker_functor@std@@SAPEAVTextureTestScene@Scene@Application@@AEAV<lambda_2c3ab7f48cee5f9b56075868f97e05b2>@@@Z
pdata	ENDS
;	COMDAT pdata
pdata	SEGMENT
$pdata$?dtor$0@?0???$_Call@AEAV<lambda_2c3ab7f48cee5f9b56075868f97e05b2>@@$$V@_Invoker_functor@std@@SAPEAVTextureTestScene@Scene@Application@@AEAV<lambda_2c3ab7f48cee5f9b56075868f97e05b2>@@@Z@4HA DD imagerel ?dtor$0@?0???$_Call@AEAV<lambda_2c3ab7f48cee5f9b56075868f97e05b2>@@$$V@_Invoker_functor@std@@SAPEAVTextureTestScene@Scene@Application@@AEAV<lambda_2c3ab7f48cee5f9b56075868f97e05b2>@@@Z@4HA
	DD	imagerel ?dtor$0@?0???$_Call@AEAV<lambda_2c3ab7f48cee5f9b56075868f97e05b2>@@$$V@_Invoker_functor@std@@SAPEAVTextureTestScene@Scene@Application@@AEAV<lambda_2c3ab7f48cee5f9b56075868f97e05b2>@@@Z@4HA+29
	DD	imagerel $unwind$?dtor$0@?0???$_Call@AEAV<lambda_2c3ab7f48cee5f9b56075868f97e05b2>@@$$V@_Invoker_functor@std@@SAPEAVTextureTestScene@Scene@Application@@AEAV<lambda_2c3ab7f48cee5f9b56075868f97e05b2>@@@Z@4HA
pdata	ENDS
;	COMDAT pdata
pdata	SEGMENT
$pdata$??$_Call@AEAV<lambda_d0f437802599b72fdddcf24900d600a3>@@$$V@_Invoker_functor@std@@SAPEAVBuffersTestScene@Scene@Application@@AEAV<lambda_d0f437802599b72fdddcf24900d600a3>@@@Z DD imagerel ??$_Call@AEAV<lambda_d0f437802599b72fdddcf24900d600a3>@@$$V@_Invoker_functor@std@@SAPEAVBuffersTestScene@Scene@Application@@AEAV<lambda_d0f437802599b72fdddcf24900d600a3>@@@Z
	DD	imagerel ??$_Call@AEAV<lambda_d0f437802599b72fdddcf24900d600a3>@@$$V@_Invoker_functor@std@@SAPEAVBuffersTestScene@Scene@Application@@AEAV<lambda_d0f437802599b72fdddcf24900d600a3>@@@Z+72
	DD	imagerel $unwind$??$_Call@AEAV<lambda_d0f437802599b72fdddcf24900d600a3>@@$$V@_Invoker_functor@std@@SAPEAVBuffersTestScene@Scene@Application@@AEAV<lambda_d0f437802599b72fdddcf24900d600a3>@@@Z
pdata	ENDS
;	COMDAT pdata
pdata	SEGMENT
$pdata$?dtor$0@?0???$_Call@AEAV<lambda_d0f437802599b72fdddcf24900d600a3>@@$$V@_Invoker_functor@std@@SAPEAVBuffersTestScene@Scene@Application@@AEAV<lambda_d0f437802599b72fdddcf24900d600a3>@@@Z@4HA DD imagerel ?dtor$0@?0???$_Call@AEAV<lambda_d0f437802599b72fdddcf24900d600a3>@@$$V@_Invoker_functor@std@@SAPEAVBuffersTestScene@Scene@Application@@AEAV<lambda_d0f437802599b72fdddcf24900d600a3>@@@Z@4HA
	DD	imagerel ?dtor$0@?0???$_Call@AEAV<lambda_d0f437802599b72fdddcf24900d600a3>@@$$V@_Invoker_functor@std@@SAPEAVBuffersTestScene@Scene@Application@@AEAV<lambda_d0f437802599b72fdddcf24900d600a3>@@@Z@4HA+29
	DD	imagerel $unwind$?dtor$0@?0???$_Call@AEAV<lambda_d0f437802599b72fdddcf24900d600a3>@@$$V@_Invoker_functor@std@@SAPEAVBuffersTestScene@Scene@Application@@AEAV<lambda_d0f437802599b72fdddcf24900d600a3>@@@Z@4HA
pdata	ENDS
;	COMDAT pdata
pdata	SEGMENT
$pdata$??$_Call@AEAV<lambda_411dc79f4b3a863ac6e5ae55809472f9>@@$$V@_Invoker_functor@std@@SAPEAVTestScene@Scene@Application@@AEAV<lambda_411dc79f4b3a863ac6e5ae55809472f9>@@@Z DD imagerel ??$_Call@AEAV<lambda_411dc79f4b3a863ac6e5ae55809472f9>@@$$V@_Invoker_functor@std@@SAPEAVTestScene@Scene@Application@@AEAV<lambda_411dc79f4b3a863ac6e5ae55809472f9>@@@Z
	DD	imagerel ??$_Call@AEAV<lambda_411dc79f4b3a863ac6e5ae55809472f9>@@$$V@_Invoker_functor@std@@SAPEAVTestScene@Scene@Application@@AEAV<lambda_411dc79f4b3a863ac6e5ae55809472f9>@@@Z+62
	DD	imagerel $unwind$??$_Call@AEAV<lambda_411dc79f4b3a863ac6e5ae55809472f9>@@$$V@_Invoker_functor@std@@SAPEAVTestScene@Scene@Application@@AEAV<lambda_411dc79f4b3a863ac6e5ae55809472f9>@@@Z
pdata	ENDS
;	COMDAT pdata
pdata	SEGMENT
$pdata$??$invoke@AEAV<lambda_9e62dcf887c94db0be73ed49d4be45d7>@@$$V@std@@YAPEAVComputeShaderScene@Scene@Application@@AEAV<lambda_9e62dcf887c94db0be73ed49d4be45d7>@@@Z DD imagerel ??$invoke@AEAV<lambda_9e62dcf887c94db0be73ed49d4be45d7>@@$$V@std@@YAPEAVComputeShaderScene@Scene@Application@@AEAV<lambda_9e62dcf887c94db0be73ed49d4be45d7>@@@Z
	DD	imagerel ??$invoke@AEAV<lambda_9e62dcf887c94db0be73ed49d4be45d7>@@$$V@std@@YAPEAVComputeShaderScene@Scene@Application@@AEAV<lambda_9e62dcf887c94db0be73ed49d4be45d7>@@@Z+68
	DD	imagerel $unwind$??$invoke@AEAV<lambda_9e62dcf887c94db0be73ed49d4be45d7>@@$$V@std@@YAPEAVComputeShaderScene@Scene@Application@@AEAV<lambda_9e62dcf887c94db0be73ed49d4be45d7>@@@Z
pdata	ENDS
;	COMDAT pdata
pdata	SEGMENT
$pdata$?dtor$0@?0???$invoke@AEAV<lambda_9e62dcf887c94db0be73ed49d4be45d7>@@$$V@std@@YAPEAVComputeShaderScene@Scene@Application@@AEAV<lambda_9e62dcf887c94db0be73ed49d4be45d7>@@@Z@4HA DD imagerel ?dtor$0@?0???$invoke@AEAV<lambda_9e62dcf887c94db0be73ed49d4be45d7>@@$$V@std@@YAPEAVComputeShaderScene@Scene@Application@@AEAV<lambda_9e62dcf887c94db0be73ed49d4be45d7>@@@Z@4HA
	DD	imagerel ?dtor$0@?0???$invoke@AEAV<lambda_9e62dcf887c94db0be73ed49d4be45d7>@@$$V@std@@YAPEAVComputeShaderScene@Scene@Application@@AEAV<lambda_9e62dcf887c94db0be73ed49d4be45d7>@@@Z@4HA+29
	DD	imagerel $unwind$?dtor$0@?0???$invoke@AEAV<lambda_9e62dcf887c94db0be73ed49d4be45d7>@@$$V@std@@YAPEAVComputeShaderScene@Scene@Application@@AEAV<lambda_9e62dcf887c94db0be73ed49d4be45d7>@@@Z@4HA
pdata	ENDS
;	COMDAT pdata
pdata	SEGMENT
$pdata$??$invoke@AEAV<lambda_f04c6ff6a0f44a3600e7c5996fdf93c3>@@$$V@std@@YAPEAVMandelbrotScene@Scene@Application@@AEAV<lambda_f04c6ff6a0f44a3600e7c5996fdf93c3>@@@Z DD imagerel ??$invoke@AEAV<lambda_f04c6ff6a0f44a3600e7c5996fdf93c3>@@$$V@std@@YAPEAVMandelbrotScene@Scene@Application@@AEAV<lambda_f04c6ff6a0f44a3600e7c5996fdf93c3>@@@Z
	DD	imagerel ??$invoke@AEAV<lambda_f04c6ff6a0f44a3600e7c5996fdf93c3>@@$$V@std@@YAPEAVMandelbrotScene@Scene@Application@@AEAV<lambda_f04c6ff6a0f44a3600e7c5996fdf93c3>@@@Z+66
	DD	imagerel $unwind$??$invoke@AEAV<lambda_f04c6ff6a0f44a3600e7c5996fdf93c3>@@$$V@std@@YAPEAVMandelbrotScene@Scene@Application@@AEAV<lambda_f04c6ff6a0f44a3600e7c5996fdf93c3>@@@Z
pdata	ENDS
;	COMDAT pdata
pdata	SEGMENT
$pdata$?dtor$0@?0???$invoke@AEAV<lambda_f04c6ff6a0f44a3600e7c5996fdf93c3>@@$$V@std@@YAPEAVMandelbrotScene@Scene@Application@@AEAV<lambda_f04c6ff6a0f44a3600e7c5996fdf93c3>@@@Z@4HA DD imagerel ?dtor$0@?0???$invoke@AEAV<lambda_f04c6ff6a0f44a3600e7c5996fdf93c3>@@$$V@std@@YAPEAVMandelbrotScene@Scene@Application@@AEAV<lambda_f04c6ff6a0f44a3600e7c5996fdf93c3>@@@Z@4HA
	DD	imagerel ?dtor$0@?0???$invoke@AEAV<lambda_f04c6ff6a0f44a3600e7c5996fdf93c3>@@$$V@std@@YAPEAVMandelbrotScene@Scene@Application@@AEAV<lambda_f04c6ff6a0f44a3600e7c5996fdf93c3>@@@Z@4HA+29
	DD	imagerel $unwind$?dtor$0@?0???$invoke@AEAV<lambda_f04c6ff6a0f44a3600e7c5996fdf93c3>@@$$V@std@@YAPEAVMandelbrotScene@Scene@Application@@AEAV<lambda_f04c6ff6a0f44a3600e7c5996fdf93c3>@@@Z@4HA
pdata	ENDS
;	COMDAT pdata
pdata	SEGMENT
$pdata$??$invoke@AEAV<lambda_8a87a946287cf0625355d2c413df9209>@@$$V@std@@YAPEAVBoidScene@Scene@Application@@AEAV<lambda_8a87a946287cf0625355d2c413df9209>@@@Z DD imagerel ??$invoke@AEAV<lambda_8a87a946287cf0625355d2c413df9209>@@$$V@std@@YAPEAVBoidScene@Scene@Application@@AEAV<lambda_8a87a946287cf0625355d2c413df9209>@@@Z
	DD	imagerel ??$invoke@AEAV<lambda_8a87a946287cf0625355d2c413df9209>@@$$V@std@@YAPEAVBoidScene@Scene@Application@@AEAV<lambda_8a87a946287cf0625355d2c413df9209>@@@Z+76
	DD	imagerel $unwind$??$invoke@AEAV<lambda_8a87a946287cf0625355d2c413df9209>@@$$V@std@@YAPEAVBoidScene@Scene@Application@@AEAV<lambda_8a87a946287cf0625355d2c413df9209>@@@Z
pdata	ENDS
;	COMDAT pdata
pdata	SEGMENT
$pdata$?dtor$0@?0???$invoke@AEAV<lambda_8a87a946287cf0625355d2c413df9209>@@$$V@std@@YAPEAVBoidScene@Scene@Application@@AEAV<lambda_8a87a946287cf0625355d2c413df9209>@@@Z@4HA DD imagerel ?dtor$0@?0???$invoke@AEAV<lambda_8a87a946287cf0625355d2c413df9209>@@$$V@std@@YAPEAVBoidScene@Scene@Application@@AEAV<lambda_8a87a946287cf0625355d2c413df9209>@@@Z@4HA
	DD	imagerel ?dtor$0@?0???$invoke@AEAV<lambda_8a87a946287cf0625355d2c413df9209>@@$$V@std@@YAPEAVBoidScene@Scene@Application@@AEAV<lambda_8a87a946287cf0625355d2c413df9209>@@@Z@4HA+29
	DD	imagerel $unwind$?dtor$0@?0???$invoke@AEAV<lambda_8a87a946287cf0625355d2c413df9209>@@$$V@std@@YAPEAVBoidScene@Scene@Application@@AEAV<lambda_8a87a946287cf0625355d2c413df9209>@@@Z@4HA
pdata	ENDS
;	COMDAT pdata
pdata	SEGMENT
$pdata$??$invoke@AEAV<lambda_1f639e86dd05cae58c2a45cb24025185>@@$$V@std@@YAPEAVLayerScene@Scene@Application@@AEAV<lambda_1f639e86dd05cae58c2a45cb24025185>@@@Z DD imagerel ??$invoke@AEAV<lambda_1f639e86dd05cae58c2a45cb24025185>@@$$V@std@@YAPEAVLayerScene@Scene@Application@@AEAV<lambda_1f639e86dd05cae58c2a45cb24025185>@@@Z
	DD	imagerel ??$invoke@AEAV<lambda_1f639e86dd05cae58c2a45cb24025185>@@$$V@std@@YAPEAVLayerScene@Scene@Application@@AEAV<lambda_1f639e86dd05cae58c2a45cb24025185>@@@Z+64
	DD	imagerel $unwind$??$invoke@AEAV<lambda_1f639e86dd05cae58c2a45cb24025185>@@$$V@std@@YAPEAVLayerScene@Scene@Application@@AEAV<lambda_1f639e86dd05cae58c2a45cb24025185>@@@Z
pdata	ENDS
;	COMDAT pdata
pdata	SEGMENT
$pdata$?dtor$0@?0???$invoke@AEAV<lambda_1f639e86dd05cae58c2a45cb24025185>@@$$V@std@@YAPEAVLayerScene@Scene@Application@@AEAV<lambda_1f639e86dd05cae58c2a45cb24025185>@@@Z@4HA DD imagerel ?dtor$0@?0???$invoke@AEAV<lambda_1f639e86dd05cae58c2a45cb24025185>@@$$V@std@@YAPEAVLayerScene@Scene@Application@@AEAV<lambda_1f639e86dd05cae58c2a45cb24025185>@@@Z@4HA
	DD	imagerel ?dtor$0@?0???$invoke@AEAV<lambda_1f639e86dd05cae58c2a45cb24025185>@@$$V@std@@YAPEAVLayerScene@Scene@Application@@AEAV<lambda_1f639e86dd05cae58c2a45cb24025185>@@@Z@4HA+29
	DD	imagerel $unwind$?dtor$0@?0???$invoke@AEAV<lambda_1f639e86dd05cae58c2a45cb24025185>@@$$V@std@@YAPEAVLayerScene@Scene@Application@@AEAV<lambda_1f639e86dd05cae58c2a45cb24025185>@@@Z@4HA
pdata	ENDS
;	COMDAT pdata
pdata	SEGMENT
$pdata$??$invoke@AEAV<lambda_f8034f4d3434a17004a65f045c28f944>@@$$V@std@@YAPEAVBatchRendererScene@Scene@Application@@AEAV<lambda_f8034f4d3434a17004a65f045c28f944>@@@Z DD imagerel ??$invoke@AEAV<lambda_f8034f4d3434a17004a65f045c28f944>@@$$V@std@@YAPEAVBatchRendererScene@Scene@Application@@AEAV<lambda_f8034f4d3434a17004a65f045c28f944>@@@Z
	DD	imagerel ??$invoke@AEAV<lambda_f8034f4d3434a17004a65f045c28f944>@@$$V@std@@YAPEAVBatchRendererScene@Scene@Application@@AEAV<lambda_f8034f4d3434a17004a65f045c28f944>@@@Z+84
	DD	imagerel $unwind$??$invoke@AEAV<lambda_f8034f4d3434a17004a65f045c28f944>@@$$V@std@@YAPEAVBatchRendererScene@Scene@Application@@AEAV<lambda_f8034f4d3434a17004a65f045c28f944>@@@Z
pdata	ENDS
;	COMDAT pdata
pdata	SEGMENT
$pdata$?dtor$0@?0???$invoke@AEAV<lambda_f8034f4d3434a17004a65f045c28f944>@@$$V@std@@YAPEAVBatchRendererScene@Scene@Application@@AEAV<lambda_f8034f4d3434a17004a65f045c28f944>@@@Z@4HA DD imagerel ?dtor$0@?0???$invoke@AEAV<lambda_f8034f4d3434a17004a65f045c28f944>@@$$V@std@@YAPEAVBatchRendererScene@Scene@Application@@AEAV<lambda_f8034f4d3434a17004a65f045c28f944>@@@Z@4HA
	DD	imagerel ?dtor$0@?0???$invoke@AEAV<lambda_f8034f4d3434a17004a65f045c28f944>@@$$V@std@@YAPEAVBatchRendererScene@Scene@Application@@AEAV<lambda_f8034f4d3434a17004a65f045c28f944>@@@Z@4HA+29
	DD	imagerel $unwind$?dtor$0@?0???$invoke@AEAV<lambda_f8034f4d3434a17004a65f045c28f944>@@$$V@std@@YAPEAVBatchRendererScene@Scene@Application@@AEAV<lambda_f8034f4d3434a17004a65f045c28f944>@@@Z@4HA
pdata	ENDS
;	COMDAT pdata
pdata	SEGMENT
$pdata$??$invoke@AEAV<lambda_6e33341e90591d57c68d6076b03224d9>@@$$V@std@@YAPEAVSimpleRendererScene@Scene@Application@@AEAV<lambda_6e33341e90591d57c68d6076b03224d9>@@@Z DD imagerel ??$invoke@AEAV<lambda_6e33341e90591d57c68d6076b03224d9>@@$$V@std@@YAPEAVSimpleRendererScene@Scene@Application@@AEAV<lambda_6e33341e90591d57c68d6076b03224d9>@@@Z
	DD	imagerel ??$invoke@AEAV<lambda_6e33341e90591d57c68d6076b03224d9>@@$$V@std@@YAPEAVSimpleRendererScene@Scene@Application@@AEAV<lambda_6e33341e90591d57c68d6076b03224d9>@@@Z+80
	DD	imagerel $unwind$??$invoke@AEAV<lambda_6e33341e90591d57c68d6076b03224d9>@@$$V@std@@YAPEAVSimpleRendererScene@Scene@Application@@AEAV<lambda_6e33341e90591d57c68d6076b03224d9>@@@Z
pdata	ENDS
;	COMDAT pdata
pdata	SEGMENT
$pdata$?dtor$0@?0???$invoke@AEAV<lambda_6e33341e90591d57c68d6076b03224d9>@@$$V@std@@YAPEAVSimpleRendererScene@Scene@Application@@AEAV<lambda_6e33341e90591d57c68d6076b03224d9>@@@Z@4HA DD imagerel ?dtor$0@?0???$invoke@AEAV<lambda_6e33341e90591d57c68d6076b03224d9>@@$$V@std@@YAPEAVSimpleRendererScene@Scene@Application@@AEAV<lambda_6e33341e90591d57c68d6076b03224d9>@@@Z@4HA
	DD	imagerel ?dtor$0@?0???$invoke@AEAV<lambda_6e33341e90591d57c68d6076b03224d9>@@$$V@std@@YAPEAVSimpleRendererScene@Scene@Application@@AEAV<lambda_6e33341e90591d57c68d6076b03224d9>@@@Z@4HA+29
	DD	imagerel $unwind$?dtor$0@?0???$invoke@AEAV<lambda_6e33341e90591d57c68d6076b03224d9>@@$$V@std@@YAPEAVSimpleRendererScene@Scene@Application@@AEAV<lambda_6e33341e90591d57c68d6076b03224d9>@@@Z@4HA
pdata	ENDS
;	COMDAT pdata
pdata	SEGMENT
$pdata$??$invoke@AEAV<lambda_2c3ab7f48cee5f9b56075868f97e05b2>@@$$V@std@@YAPEAVTextureTestScene@Scene@Application@@AEAV<lambda_2c3ab7f48cee5f9b56075868f97e05b2>@@@Z DD imagerel ??$invoke@AEAV<lambda_2c3ab7f48cee5f9b56075868f97e05b2>@@$$V@std@@YAPEAVTextureTestScene@Scene@Application@@AEAV<lambda_2c3ab7f48cee5f9b56075868f97e05b2>@@@Z
	DD	imagerel ??$invoke@AEAV<lambda_2c3ab7f48cee5f9b56075868f97e05b2>@@$$V@std@@YAPEAVTextureTestScene@Scene@Application@@AEAV<lambda_2c3ab7f48cee5f9b56075868f97e05b2>@@@Z+76
	DD	imagerel $unwind$??$invoke@AEAV<lambda_2c3ab7f48cee5f9b56075868f97e05b2>@@$$V@std@@YAPEAVTextureTestScene@Scene@Application@@AEAV<lambda_2c3ab7f48cee5f9b56075868f97e05b2>@@@Z
pdata	ENDS
;	COMDAT pdata
pdata	SEGMENT
$pdata$?dtor$0@?0???$invoke@AEAV<lambda_2c3ab7f48cee5f9b56075868f97e05b2>@@$$V@std@@YAPEAVTextureTestScene@Scene@Application@@AEAV<lambda_2c3ab7f48cee5f9b56075868f97e05b2>@@@Z@4HA DD imagerel ?dtor$0@?0???$invoke@AEAV<lambda_2c3ab7f48cee5f9b56075868f97e05b2>@@$$V@std@@YAPEAVTextureTestScene@Scene@Application@@AEAV<lambda_2c3ab7f48cee5f9b56075868f97e05b2>@@@Z@4HA
	DD	imagerel ?dtor$0@?0???$invoke@AEAV<lambda_2c3ab7f48cee5f9b56075868f97e05b2>@@$$V@std@@YAPEAVTextureTestScene@Scene@Application@@AEAV<lambda_2c3ab7f48cee5f9b56075868f97e05b2>@@@Z@4HA+29
	DD	imagerel $unwind$?dtor$0@?0???$invoke@AEAV<lambda_2c3ab7f48cee5f9b56075868f97e05b2>@@$$V@std@@YAPEAVTextureTestScene@Scene@Application@@AEAV<lambda_2c3ab7f48cee5f9b56075868f97e05b2>@@@Z@4HA
pdata	ENDS
;	COMDAT pdata
pdata	SEGMENT
$pdata$??$invoke@AEAV<lambda_d0f437802599b72fdddcf24900d600a3>@@$$V@std@@YAPEAVBuffersTestScene@Scene@Application@@AEAV<lambda_d0f437802599b72fdddcf24900d600a3>@@@Z DD imagerel ??$invoke@AEAV<lambda_d0f437802599b72fdddcf24900d600a3>@@$$V@std@@YAPEAVBuffersTestScene@Scene@Application@@AEAV<lambda_d0f437802599b72fdddcf24900d600a3>@@@Z
	DD	imagerel ??$invoke@AEAV<lambda_d0f437802599b72fdddcf24900d600a3>@@$$V@std@@YAPEAVBuffersTestScene@Scene@Application@@AEAV<lambda_d0f437802599b72fdddcf24900d600a3>@@@Z+72
	DD	imagerel $unwind$??$invoke@AEAV<lambda_d0f437802599b72fdddcf24900d600a3>@@$$V@std@@YAPEAVBuffersTestScene@Scene@Application@@AEAV<lambda_d0f437802599b72fdddcf24900d600a3>@@@Z
pdata	ENDS
;	COMDAT pdata
pdata	SEGMENT
$pdata$?dtor$0@?0???$invoke@AEAV<lambda_d0f437802599b72fdddcf24900d600a3>@@$$V@std@@YAPEAVBuffersTestScene@Scene@Application@@AEAV<lambda_d0f437802599b72fdddcf24900d600a3>@@@Z@4HA DD imagerel ?dtor$0@?0???$invoke@AEAV<lambda_d0f437802599b72fdddcf24900d600a3>@@$$V@std@@YAPEAVBuffersTestScene@Scene@Application@@AEAV<lambda_d0f437802599b72fdddcf24900d600a3>@@@Z@4HA
	DD	imagerel ?dtor$0@?0???$invoke@AEAV<lambda_d0f437802599b72fdddcf24900d600a3>@@$$V@std@@YAPEAVBuffersTestScene@Scene@Application@@AEAV<lambda_d0f437802599b72fdddcf24900d600a3>@@@Z@4HA+29
	DD	imagerel $unwind$?dtor$0@?0???$invoke@AEAV<lambda_d0f437802599b72fdddcf24900d600a3>@@$$V@std@@YAPEAVBuffersTestScene@Scene@Application@@AEAV<lambda_d0f437802599b72fdddcf24900d600a3>@@@Z@4HA
pdata	ENDS
;	COMDAT pdata
pdata	SEGMENT
$pdata$??$invoke@AEAV<lambda_411dc79f4b3a863ac6e5ae55809472f9>@@$$V@std@@YAPEAVTestScene@Scene@Application@@AEAV<lambda_411dc79f4b3a863ac6e5ae55809472f9>@@@Z DD imagerel ??$invoke@AEAV<lambda_411dc79f4b3a863ac6e5ae55809472f9>@@$$V@std@@YAPEAVTestScene@Scene@Application@@AEAV<lambda_411dc79f4b3a863ac6e5ae55809472f9>@@@Z
	DD	imagerel ??$invoke@AEAV<lambda_411dc79f4b3a863ac6e5ae55809472f9>@@$$V@std@@YAPEAVTestScene@Scene@Application@@AEAV<lambda_411dc79f4b3a863ac6e5ae55809472f9>@@@Z+62
	DD	imagerel $unwind$??$invoke@AEAV<lambda_411dc79f4b3a863ac6e5ae55809472f9>@@$$V@std@@YAPEAVTestScene@Scene@Application@@AEAV<lambda_411dc79f4b3a863ac6e5ae55809472f9>@@@Z
pdata	ENDS
;	COMDAT pdata
pdata	SEGMENT
$pdata$?_Reset_copy@?$_Func_class@PEAVScene@1Application@@$$V@std@@IEAAXAEBV12@@Z DD imagerel $LN17@Reset_copy
	DD	imagerel $LN17@Reset_copy+36
	DD	imagerel $unwind$?_Reset_copy@?$_Func_class@PEAVScene@1Application@@$$V@std@@IEAAXAEBV12@@Z
pdata	ENDS
;	COMDAT pdata
pdata	SEGMENT
$pdata$??0?$function@$$A6APEAVScene@1Application@@XZ@std@@QEAA@AEBV01@@Z DD imagerel $LN25@function
	DD	imagerel $LN25@function+60
	DD	imagerel $unwind$??0?$function@$$A6APEAVScene@1Application@@XZ@std@@QEAA@AEBV01@@Z
pdata	ENDS
;	COMDAT pdata
pdata	SEGMENT
$pdata$??0?$pair@PEBDV?$function@$$A6APEAVScene@1Application@@XZ@std@@@std@@QEAA@AEBU01@@Z DD imagerel $LN28@pair
	DD	imagerel $LN28@pair+85
	DD	imagerel $unwind$??0?$pair@PEBDV?$function@$$A6APEAVScene@1Application@@XZ@std@@@std@@QEAA@AEBU01@@Z
pdata	ENDS
;	COMDAT pdata
pdata	SEGMENT
$pdata$??$construct@U?$pair@PEBDV?$function@$$A6APEAVScene@1Application@@XZ@std@@@std@@AEAU12@@?$_Default_allocator_traits@V?$allocator@U?$pair@PEBDV?$function@$$A6APEAVScene@1Application@@XZ@std@@@std@@@std@@@std@@SAXAEAV?$allocator@U?$pair@PEBDV?$function@$$A6APEAVScene@1Application@@XZ@std@@@std@@@1@QEAU?$pair@PEBDV?$function@$$A6APEAVScene@1Application@@XZ@std@@@1@AEAU31@@Z DD imagerel $LN34@construct
	DD	imagerel $LN34@construct+69
	DD	imagerel $unwind$??$construct@U?$pair@PEBDV?$function@$$A6APEAVScene@1Application@@XZ@std@@@std@@AEAU12@@?$_Default_allocator_traits@V?$allocator@U?$pair@PEBDV?$function@$$A6APEAVScene@1Application@@XZ@std@@@std@@@std@@@std@@SAXAEAV?$allocator@U?$pair@PEBDV?$function@$$A6APEAVScene@1Application@@XZ@std@@@std@@@1@QEAU?$pair@PEBDV?$function@$$A6APEAVScene@1Application@@XZ@std@@@1@AEAU31@@Z
pdata	ENDS
;	COMDAT pdata
pdata	SEGMENT
$pdata$??$_Call@AEAV<lambda_9e62dcf887c94db0be73ed49d4be45d7>@@@?$_Invoker_ret@PEAVScene@1Application@@$0A@@std@@SAPEAVScene@2Application@@AEAV<lambda_9e62dcf887c94db0be73ed49d4be45d7>@@@Z DD imagerel ??$_Call@AEAV<lambda_9e62dcf887c94db0be73ed49d4be45d7>@@@?$_Invoker_ret@PEAVScene@1Application@@$0A@@std@@SAPEAVScene@2Application@@AEAV<lambda_9e62dcf887c94db0be73ed49d4be45d7>@@@Z
	DD	imagerel ??$_Call@AEAV<lambda_9e62dcf887c94db0be73ed49d4be45d7>@@@?$_Invoker_ret@PEAVScene@1Application@@$0A@@std@@SAPEAVScene@2Application@@AEAV<lambda_9e62dcf887c94db0be73ed49d4be45d7>@@@Z+68
	DD	imagerel $unwind$??$_Call@AEAV<lambda_9e62dcf887c94db0be73ed49d4be45d7>@@@?$_Invoker_ret@PEAVScene@1Application@@$0A@@std@@SAPEAVScene@2Application@@AEAV<lambda_9e62dcf887c94db0be73ed49d4be45d7>@@@Z
pdata	ENDS
;	COMDAT pdata
pdata	SEGMENT
$pdata$?dtor$0@?0???$_Call@AEAV<lambda_9e62dcf887c94db0be73ed49d4be45d7>@@@?$_Invoker_ret@PEAVScene@1Application@@$0A@@std@@SAPEAVScene@2Application@@AEAV<lambda_9e62dcf887c94db0be73ed49d4be45d7>@@@Z@4HA DD imagerel ?dtor$0@?0???$_Call@AEAV<lambda_9e62dcf887c94db0be73ed49d4be45d7>@@@?$_Invoker_ret@PEAVScene@1Application@@$0A@@std@@SAPEAVScene@2Application@@AEAV<lambda_9e62dcf887c94db0be73ed49d4be45d7>@@@Z@4HA
	DD	imagerel ?dtor$0@?0???$_Call@AEAV<lambda_9e62dcf887c94db0be73ed49d4be45d7>@@@?$_Invoker_ret@PEAVScene@1Application@@$0A@@std@@SAPEAVScene@2Application@@AEAV<lambda_9e62dcf887c94db0be73ed49d4be45d7>@@@Z@4HA+29
	DD	imagerel $unwind$?dtor$0@?0???$_Call@AEAV<lambda_9e62dcf887c94db0be73ed49d4be45d7>@@@?$_Invoker_ret@PEAVScene@1Application@@$0A@@std@@SAPEAVScene@2Application@@AEAV<lambda_9e62dcf887c94db0be73ed49d4be45d7>@@@Z@4HA
pdata	ENDS
;	COMDAT pdata
pdata	SEGMENT
$pdata$??$_Call@AEAV<lambda_f04c6ff6a0f44a3600e7c5996fdf93c3>@@@?$_Invoker_ret@PEAVScene@1Application@@$0A@@std@@SAPEAVScene@2Application@@AEAV<lambda_f04c6ff6a0f44a3600e7c5996fdf93c3>@@@Z DD imagerel ??$_Call@AEAV<lambda_f04c6ff6a0f44a3600e7c5996fdf93c3>@@@?$_Invoker_ret@PEAVScene@1Application@@$0A@@std@@SAPEAVScene@2Application@@AEAV<lambda_f04c6ff6a0f44a3600e7c5996fdf93c3>@@@Z
	DD	imagerel ??$_Call@AEAV<lambda_f04c6ff6a0f44a3600e7c5996fdf93c3>@@@?$_Invoker_ret@PEAVScene@1Application@@$0A@@std@@SAPEAVScene@2Application@@AEAV<lambda_f04c6ff6a0f44a3600e7c5996fdf93c3>@@@Z+66
	DD	imagerel $unwind$??$_Call@AEAV<lambda_f04c6ff6a0f44a3600e7c5996fdf93c3>@@@?$_Invoker_ret@PEAVScene@1Application@@$0A@@std@@SAPEAVScene@2Application@@AEAV<lambda_f04c6ff6a0f44a3600e7c5996fdf93c3>@@@Z
pdata	ENDS
;	COMDAT pdata
pdata	SEGMENT
$pdata$?dtor$0@?0???$_Call@AEAV<lambda_f04c6ff6a0f44a3600e7c5996fdf93c3>@@@?$_Invoker_ret@PEAVScene@1Application@@$0A@@std@@SAPEAVScene@2Application@@AEAV<lambda_f04c6ff6a0f44a3600e7c5996fdf93c3>@@@Z@4HA DD imagerel ?dtor$0@?0???$_Call@AEAV<lambda_f04c6ff6a0f44a3600e7c5996fdf93c3>@@@?$_Invoker_ret@PEAVScene@1Application@@$0A@@std@@SAPEAVScene@2Application@@AEAV<lambda_f04c6ff6a0f44a3600e7c5996fdf93c3>@@@Z@4HA
	DD	imagerel ?dtor$0@?0???$_Call@AEAV<lambda_f04c6ff6a0f44a3600e7c5996fdf93c3>@@@?$_Invoker_ret@PEAVScene@1Application@@$0A@@std@@SAPEAVScene@2Application@@AEAV<lambda_f04c6ff6a0f44a3600e7c5996fdf93c3>@@@Z@4HA+29
	DD	imagerel $unwind$?dtor$0@?0???$_Call@AEAV<lambda_f04c6ff6a0f44a3600e7c5996fdf93c3>@@@?$_Invoker_ret@PEAVScene@1Application@@$0A@@std@@SAPEAVScene@2Application@@AEAV<lambda_f04c6ff6a0f44a3600e7c5996fdf93c3>@@@Z@4HA
pdata	ENDS
;	COMDAT pdata
pdata	SEGMENT
$pdata$??$_Call@AEAV<lambda_8a87a946287cf0625355d2c413df9209>@@@?$_Invoker_ret@PEAVScene@1Application@@$0A@@std@@SAPEAVScene@2Application@@AEAV<lambda_8a87a946287cf0625355d2c413df9209>@@@Z DD imagerel ??$_Call@AEAV<lambda_8a87a946287cf0625355d2c413df9209>@@@?$_Invoker_ret@PEAVScene@1Application@@$0A@@std@@SAPEAVScene@2Application@@AEAV<lambda_8a87a946287cf0625355d2c413df9209>@@@Z
	DD	imagerel ??$_Call@AEAV<lambda_8a87a946287cf0625355d2c413df9209>@@@?$_Invoker_ret@PEAVScene@1Application@@$0A@@std@@SAPEAVScene@2Application@@AEAV<lambda_8a87a946287cf0625355d2c413df9209>@@@Z+76
	DD	imagerel $unwind$??$_Call@AEAV<lambda_8a87a946287cf0625355d2c413df9209>@@@?$_Invoker_ret@PEAVScene@1Application@@$0A@@std@@SAPEAVScene@2Application@@AEAV<lambda_8a87a946287cf0625355d2c413df9209>@@@Z
pdata	ENDS
;	COMDAT pdata
pdata	SEGMENT
$pdata$?dtor$0@?0???$_Call@AEAV<lambda_8a87a946287cf0625355d2c413df9209>@@@?$_Invoker_ret@PEAVScene@1Application@@$0A@@std@@SAPEAVScene@2Application@@AEAV<lambda_8a87a946287cf0625355d2c413df9209>@@@Z@4HA DD imagerel ?dtor$0@?0???$_Call@AEAV<lambda_8a87a946287cf0625355d2c413df9209>@@@?$_Invoker_ret@PEAVScene@1Application@@$0A@@std@@SAPEAVScene@2Application@@AEAV<lambda_8a87a946287cf0625355d2c413df9209>@@@Z@4HA
	DD	imagerel ?dtor$0@?0???$_Call@AEAV<lambda_8a87a946287cf0625355d2c413df9209>@@@?$_Invoker_ret@PEAVScene@1Application@@$0A@@std@@SAPEAVScene@2Application@@AEAV<lambda_8a87a946287cf0625355d2c413df9209>@@@Z@4HA+29
	DD	imagerel $unwind$?dtor$0@?0???$_Call@AEAV<lambda_8a87a946287cf0625355d2c413df9209>@@@?$_Invoker_ret@PEAVScene@1Application@@$0A@@std@@SAPEAVScene@2Application@@AEAV<lambda_8a87a946287cf0625355d2c413df9209>@@@Z@4HA
pdata	ENDS
;	COMDAT pdata
pdata	SEGMENT
$pdata$??$_Call@AEAV<lambda_1f639e86dd05cae58c2a45cb24025185>@@@?$_Invoker_ret@PEAVScene@1Application@@$0A@@std@@SAPEAVScene@2Application@@AEAV<lambda_1f639e86dd05cae58c2a45cb24025185>@@@Z DD imagerel ??$_Call@AEAV<lambda_1f639e86dd05cae58c2a45cb24025185>@@@?$_Invoker_ret@PEAVScene@1Application@@$0A@@std@@SAPEAVScene@2Application@@AEAV<lambda_1f639e86dd05cae58c2a45cb24025185>@@@Z
	DD	imagerel ??$_Call@AEAV<lambda_1f639e86dd05cae58c2a45cb24025185>@@@?$_Invoker_ret@PEAVScene@1Application@@$0A@@std@@SAPEAVScene@2Application@@AEAV<lambda_1f639e86dd05cae58c2a45cb24025185>@@@Z+64
	DD	imagerel $unwind$??$_Call@AEAV<lambda_1f639e86dd05cae58c2a45cb24025185>@@@?$_Invoker_ret@PEAVScene@1Application@@$0A@@std@@SAPEAVScene@2Application@@AEAV<lambda_1f639e86dd05cae58c2a45cb24025185>@@@Z
pdata	ENDS
;	COMDAT pdata
pdata	SEGMENT
$pdata$?dtor$0@?0???$_Call@AEAV<lambda_1f639e86dd05cae58c2a45cb24025185>@@@?$_Invoker_ret@PEAVScene@1Application@@$0A@@std@@SAPEAVScene@2Application@@AEAV<lambda_1f639e86dd05cae58c2a45cb24025185>@@@Z@4HA DD imagerel ?dtor$0@?0???$_Call@AEAV<lambda_1f639e86dd05cae58c2a45cb24025185>@@@?$_Invoker_ret@PEAVScene@1Application@@$0A@@std@@SAPEAVScene@2Application@@AEAV<lambda_1f639e86dd05cae58c2a45cb24025185>@@@Z@4HA
	DD	imagerel ?dtor$0@?0???$_Call@AEAV<lambda_1f639e86dd05cae58c2a45cb24025185>@@@?$_Invoker_ret@PEAVScene@1Application@@$0A@@std@@SAPEAVScene@2Application@@AEAV<lambda_1f639e86dd05cae58c2a45cb24025185>@@@Z@4HA+29
	DD	imagerel $unwind$?dtor$0@?0???$_Call@AEAV<lambda_1f639e86dd05cae58c2a45cb24025185>@@@?$_Invoker_ret@PEAVScene@1Application@@$0A@@std@@SAPEAVScene@2Application@@AEAV<lambda_1f639e86dd05cae58c2a45cb24025185>@@@Z@4HA
pdata	ENDS
;	COMDAT pdata
pdata	SEGMENT
$pdata$??$_Call@AEAV<lambda_f8034f4d3434a17004a65f045c28f944>@@@?$_Invoker_ret@PEAVScene@1Application@@$0A@@std@@SAPEAVScene@2Application@@AEAV<lambda_f8034f4d3434a17004a65f045c28f944>@@@Z DD imagerel ??$_Call@AEAV<lambda_f8034f4d3434a17004a65f045c28f944>@@@?$_Invoker_ret@PEAVScene@1Application@@$0A@@std@@SAPEAVScene@2Application@@AEAV<lambda_f8034f4d3434a17004a65f045c28f944>@@@Z
	DD	imagerel ??$_Call@AEAV<lambda_f8034f4d3434a17004a65f045c28f944>@@@?$_Invoker_ret@PEAVScene@1Application@@$0A@@std@@SAPEAVScene@2Application@@AEAV<lambda_f8034f4d3434a17004a65f045c28f944>@@@Z+84
	DD	imagerel $unwind$??$_Call@AEAV<lambda_f8034f4d3434a17004a65f045c28f944>@@@?$_Invoker_ret@PEAVScene@1Application@@$0A@@std@@SAPEAVScene@2Application@@AEAV<lambda_f8034f4d3434a17004a65f045c28f944>@@@Z
pdata	ENDS
;	COMDAT pdata
pdata	SEGMENT
$pdata$?dtor$0@?0???$_Call@AEAV<lambda_f8034f4d3434a17004a65f045c28f944>@@@?$_Invoker_ret@PEAVScene@1Application@@$0A@@std@@SAPEAVScene@2Application@@AEAV<lambda_f8034f4d3434a17004a65f045c28f944>@@@Z@4HA DD imagerel ?dtor$0@?0???$_Call@AEAV<lambda_f8034f4d3434a17004a65f045c28f944>@@@?$_Invoker_ret@PEAVScene@1Application@@$0A@@std@@SAPEAVScene@2Application@@AEAV<lambda_f8034f4d3434a17004a65f045c28f944>@@@Z@4HA
	DD	imagerel ?dtor$0@?0???$_Call@AEAV<lambda_f8034f4d3434a17004a65f045c28f944>@@@?$_Invoker_ret@PEAVScene@1Application@@$0A@@std@@SAPEAVScene@2Application@@AEAV<lambda_f8034f4d3434a17004a65f045c28f944>@@@Z@4HA+29
	DD	imagerel $unwind$?dtor$0@?0???$_Call@AEAV<lambda_f8034f4d3434a17004a65f045c28f944>@@@?$_Invoker_ret@PEAVScene@1Application@@$0A@@std@@SAPEAVScene@2Application@@AEAV<lambda_f8034f4d3434a17004a65f045c28f944>@@@Z@4HA
pdata	ENDS
;	COMDAT pdata
pdata	SEGMENT
$pdata$??$_Call@AEAV<lambda_6e33341e90591d57c68d6076b03224d9>@@@?$_Invoker_ret@PEAVScene@1Application@@$0A@@std@@SAPEAVScene@2Application@@AEAV<lambda_6e33341e90591d57c68d6076b03224d9>@@@Z DD imagerel ??$_Call@AEAV<lambda_6e33341e90591d57c68d6076b03224d9>@@@?$_Invoker_ret@PEAVScene@1Application@@$0A@@std@@SAPEAVScene@2Application@@AEAV<lambda_6e33341e90591d57c68d6076b03224d9>@@@Z
	DD	imagerel ??$_Call@AEAV<lambda_6e33341e90591d57c68d6076b03224d9>@@@?$_Invoker_ret@PEAVScene@1Application@@$0A@@std@@SAPEAVScene@2Application@@AEAV<lambda_6e33341e90591d57c68d6076b03224d9>@@@Z+80
	DD	imagerel $unwind$??$_Call@AEAV<lambda_6e33341e90591d57c68d6076b03224d9>@@@?$_Invoker_ret@PEAVScene@1Application@@$0A@@std@@SAPEAVScene@2Application@@AEAV<lambda_6e33341e90591d57c68d6076b03224d9>@@@Z
pdata	ENDS
;	COMDAT pdata
pdata	SEGMENT
$pdata$?dtor$0@?0???$_Call@AEAV<lambda_6e33341e90591d57c68d6076b03224d9>@@@?$_Invoker_ret@PEAVScene@1Application@@$0A@@std@@SAPEAVScene@2Application@@AEAV<lambda_6e33341e90591d57c68d6076b03224d9>@@@Z@4HA DD imagerel ?dtor$0@?0???$_Call@AEAV<lambda_6e33341e90591d57c68d6076b03224d9>@@@?$_Invoker_ret@PEAVScene@1Application@@$0A@@std@@SAPEAVScene@2Application@@AEAV<lambda_6e33341e90591d57c68d6076b03224d9>@@@Z@4HA
	DD	imagerel ?dtor$0@?0???$_Call@AEAV<lambda_6e33341e90591d57c68d6076b03224d9>@@@?$_Invoker_ret@PEAVScene@1Application@@$0A@@std@@SAPEAVScene@2Application@@AEAV<lambda_6e33341e90591d57c68d6076b03224d9>@@@Z@4HA+29
	DD	imagerel $unwind$?dtor$0@?0???$_Call@AEAV<lambda_6e33341e90591d57c68d6076b03224d9>@@@?$_Invoker_ret@PEAVScene@1Application@@$0A@@std@@SAPEAVScene@2Application@@AEAV<lambda_6e33341e90591d57c68d6076b03224d9>@@@Z@4HA
pdata	ENDS
;	COMDAT pdata
pdata	SEGMENT
$pdata$??$_Call@AEAV<lambda_2c3ab7f48cee5f9b56075868f97e05b2>@@@?$_Invoker_ret@PEAVScene@1Application@@$0A@@std@@SAPEAVScene@2Application@@AEAV<lambda_2c3ab7f48cee5f9b56075868f97e05b2>@@@Z DD imagerel ??$_Call@AEAV<lambda_2c3ab7f48cee5f9b56075868f97e05b2>@@@?$_Invoker_ret@PEAVScene@1Application@@$0A@@std@@SAPEAVScene@2Application@@AEAV<lambda_2c3ab7f48cee5f9b56075868f97e05b2>@@@Z
	DD	imagerel ??$_Call@AEAV<lambda_2c3ab7f48cee5f9b56075868f97e05b2>@@@?$_Invoker_ret@PEAVScene@1Application@@$0A@@std@@SAPEAVScene@2Application@@AEAV<lambda_2c3ab7f48cee5f9b56075868f97e05b2>@@@Z+76
	DD	imagerel $unwind$??$_Call@AEAV<lambda_2c3ab7f48cee5f9b56075868f97e05b2>@@@?$_Invoker_ret@PEAVScene@1Application@@$0A@@std@@SAPEAVScene@2Application@@AEAV<lambda_2c3ab7f48cee5f9b56075868f97e05b2>@@@Z
pdata	ENDS
;	COMDAT pdata
pdata	SEGMENT
$pdata$?dtor$0@?0???$_Call@AEAV<lambda_2c3ab7f48cee5f9b56075868f97e05b2>@@@?$_Invoker_ret@PEAVScene@1Application@@$0A@@std@@SAPEAVScene@2Application@@AEAV<lambda_2c3ab7f48cee5f9b56075868f97e05b2>@@@Z@4HA DD imagerel ?dtor$0@?0???$_Call@AEAV<lambda_2c3ab7f48cee5f9b56075868f97e05b2>@@@?$_Invoker_ret@PEAVScene@1Application@@$0A@@std@@SAPEAVScene@2Application@@AEAV<lambda_2c3ab7f48cee5f9b56075868f97e05b2>@@@Z@4HA
	DD	imagerel ?dtor$0@?0???$_Call@AEAV<lambda_2c3ab7f48cee5f9b56075868f97e05b2>@@@?$_Invoker_ret@PEAVScene@1Application@@$0A@@std@@SAPEAVScene@2Application@@AEAV<lambda_2c3ab7f48cee5f9b56075868f97e05b2>@@@Z@4HA+29
	DD	imagerel $unwind$?dtor$0@?0???$_Call@AEAV<lambda_2c3ab7f48cee5f9b56075868f97e05b2>@@@?$_Invoker_ret@PEAVScene@1Application@@$0A@@std@@SAPEAVScene@2Application@@AEAV<lambda_2c3ab7f48cee5f9b56075868f97e05b2>@@@Z@4HA
pdata	ENDS
;	COMDAT pdata
pdata	SEGMENT
$pdata$??$_Call@AEAV<lambda_d0f437802599b72fdddcf24900d600a3>@@@?$_Invoker_ret@PEAVScene@1Application@@$0A@@std@@SAPEAVScene@2Application@@AEAV<lambda_d0f437802599b72fdddcf24900d600a3>@@@Z DD imagerel ??$_Call@AEAV<lambda_d0f437802599b72fdddcf24900d600a3>@@@?$_Invoker_ret@PEAVScene@1Application@@$0A@@std@@SAPEAVScene@2Application@@AEAV<lambda_d0f437802599b72fdddcf24900d600a3>@@@Z
	DD	imagerel ??$_Call@AEAV<lambda_d0f437802599b72fdddcf24900d600a3>@@@?$_Invoker_ret@PEAVScene@1Application@@$0A@@std@@SAPEAVScene@2Application@@AEAV<lambda_d0f437802599b72fdddcf24900d600a3>@@@Z+72
	DD	imagerel $unwind$??$_Call@AEAV<lambda_d0f437802599b72fdddcf24900d600a3>@@@?$_Invoker_ret@PEAVScene@1Application@@$0A@@std@@SAPEAVScene@2Application@@AEAV<lambda_d0f437802599b72fdddcf24900d600a3>@@@Z
pdata	ENDS
;	COMDAT pdata
pdata	SEGMENT
$pdata$?dtor$0@?0???$_Call@AEAV<lambda_d0f437802599b72fdddcf24900d600a3>@@@?$_Invoker_ret@PEAVScene@1Application@@$0A@@std@@SAPEAVScene@2Application@@AEAV<lambda_d0f437802599b72fdddcf24900d600a3>@@@Z@4HA DD imagerel ?dtor$0@?0???$_Call@AEAV<lambda_d0f437802599b72fdddcf24900d600a3>@@@?$_Invoker_ret@PEAVScene@1Application@@$0A@@std@@SAPEAVScene@2Application@@AEAV<lambda_d0f437802599b72fdddcf24900d600a3>@@@Z@4HA
	DD	imagerel ?dtor$0@?0???$_Call@AEAV<lambda_d0f437802599b72fdddcf24900d600a3>@@@?$_Invoker_ret@PEAVScene@1Application@@$0A@@std@@SAPEAVScene@2Application@@AEAV<lambda_d0f437802599b72fdddcf24900d600a3>@@@Z@4HA+29
	DD	imagerel $unwind$?dtor$0@?0???$_Call@AEAV<lambda_d0f437802599b72fdddcf24900d600a3>@@@?$_Invoker_ret@PEAVScene@1Application@@$0A@@std@@SAPEAVScene@2Application@@AEAV<lambda_d0f437802599b72fdddcf24900d600a3>@@@Z@4HA
pdata	ENDS
;	COMDAT pdata
pdata	SEGMENT
$pdata$??$_Call@AEAV<lambda_411dc79f4b3a863ac6e5ae55809472f9>@@@?$_Invoker_ret@PEAVScene@1Application@@$0A@@std@@SAPEAVScene@2Application@@AEAV<lambda_411dc79f4b3a863ac6e5ae55809472f9>@@@Z DD imagerel ??$_Call@AEAV<lambda_411dc79f4b3a863ac6e5ae55809472f9>@@@?$_Invoker_ret@PEAVScene@1Application@@$0A@@std@@SAPEAVScene@2Application@@AEAV<lambda_411dc79f4b3a863ac6e5ae55809472f9>@@@Z
	DD	imagerel ??$_Call@AEAV<lambda_411dc79f4b3a863ac6e5ae55809472f9>@@@?$_Invoker_ret@PEAVScene@1Application@@$0A@@std@@SAPEAVScene@2Application@@AEAV<lambda_411dc79f4b3a863ac6e5ae55809472f9>@@@Z+62
	DD	imagerel $unwind$??$_Call@AEAV<lambda_411dc79f4b3a863ac6e5ae55809472f9>@@@?$_Invoker_ret@PEAVScene@1Application@@$0A@@std@@SAPEAVScene@2Application@@AEAV<lambda_411dc79f4b3a863ac6e5ae55809472f9>@@@Z
pdata	ENDS
;	COMDAT pdata
pdata	SEGMENT
$pdata$??_G?$pair@PEBDV?$function@$$A6APEAVScene@1Application@@XZ@std@@@std@@QEAAPEAXI@Z DD imagerel $LN33@scalar
	DD	imagerel $LN33@scalar+71
	DD	imagerel $unwind$??_G?$pair@PEBDV?$function@$$A6APEAVScene@1Application@@XZ@std@@@std@@QEAAPEAXI@Z
pdata	ENDS
;	COMDAT pdata
pdata	SEGMENT
$pdata$??$_Emplace_back@AEAU?$pair@PEBDV?$function@$$A6APEAVScene@1Application@@XZ@std@@@std@@@?$_Uninitialized_backout_al@PEAU?$pair@PEBDV?$function@$$A6APEAVScene@1Application@@XZ@std@@@std@@V?$allocator@U?$pair@PEBDV?$function@$$A6APEAVScene@1Application@@XZ@std@@@std@@@2@@std@@QEAAXAEAU?$pair@PEBDV?$function@$$A6APEAVScene@1Application@@XZ@std@@@1@@Z DD imagerel $LN40@Emplace_ba
	DD	imagerel $LN40@Emplace_ba+87
	DD	imagerel $unwind$??$_Emplace_back@AEAU?$pair@PEBDV?$function@$$A6APEAVScene@1Application@@XZ@std@@@std@@@?$_Uninitialized_backout_al@PEAU?$pair@PEBDV?$function@$$A6APEAVScene@1Application@@XZ@std@@@std@@V?$allocator@U?$pair@PEBDV?$function@$$A6APEAVScene@1Application@@XZ@std@@@std@@@2@@std@@QEAAXAEAU?$pair@PEBDV?$function@$$A6APEAVScene@1Application@@XZ@std@@@1@@Z
pdata	ENDS
;	COMDAT pdata
pdata	SEGMENT
$pdata$??$_Emplace_back@U?$pair@PEBDV?$function@$$A6APEAVScene@1Application@@XZ@std@@@std@@@?$_Uninitialized_backout_al@PEAU?$pair@PEBDV?$function@$$A6APEAVScene@1Application@@XZ@std@@@std@@V?$allocator@U?$pair@PEBDV?$function@$$A6APEAVScene@1Application@@XZ@std@@@std@@@2@@std@@QEAAX$$QEAU?$pair@PEBDV?$function@$$A6APEAVScene@1Application@@XZ@std@@@1@@Z DD imagerel $LN9@Emplace_ba
	DD	imagerel $LN9@Emplace_ba+32
	DD	imagerel $unwind$??$_Emplace_back@U?$pair@PEBDV?$function@$$A6APEAVScene@1Application@@XZ@std@@@std@@@?$_Uninitialized_backout_al@PEAU?$pair@PEBDV?$function@$$A6APEAVScene@1Application@@XZ@std@@@std@@V?$allocator@U?$pair@PEBDV?$function@$$A6APEAVScene@1Application@@XZ@std@@@std@@@2@@std@@QEAAX$$QEAU?$pair@PEBDV?$function@$$A6APEAVScene@1Application@@XZ@std@@@1@@Z
pdata	ENDS
;	COMDAT pdata
pdata	SEGMENT
$pdata$??$destroy@U?$pair@PEBDV?$function@$$A6APEAVScene@1Application@@XZ@std@@@std@@@?$_Default_allocator_traits@V?$allocator@U?$pair@PEBDV?$function@$$A6APEAVScene@1Application@@XZ@std@@@std@@@std@@@std@@SAXAEAV?$allocator@U?$pair@PEBDV?$function@$$A6APEAVScene@1Application@@XZ@std@@@std@@@1@QEAU?$pair@PEBDV?$function@$$A6APEAVScene@1Application@@XZ@std@@@1@@Z DD imagerel $LN35@destroy
	DD	imagerel $LN35@destroy+54
	DD	imagerel $unwind$??$destroy@U?$pair@PEBDV?$function@$$A6APEAVScene@1Application@@XZ@std@@@std@@@?$_Default_allocator_traits@V?$allocator@U?$pair@PEBDV?$function@$$A6APEAVScene@1Application@@XZ@std@@@std@@@std@@@std@@SAXAEAV?$allocator@U?$pair@PEBDV?$function@$$A6APEAVScene@1Application@@XZ@std@@@std@@@1@QEAU?$pair@PEBDV?$function@$$A6APEAVScene@1Application@@XZ@std@@@1@@Z
pdata	ENDS
;	COMDAT pdata
pdata	SEGMENT
$pdata$?_Do_call@?$_Func_impl_no_alloc@V<lambda_9e62dcf887c94db0be73ed49d4be45d7>@@PEAVScene@2Application@@$$V@std@@EEAAPEAVScene@3Application@@XZ DD imagerel ?_Do_call@?$_Func_impl_no_alloc@V<lambda_9e62dcf887c94db0be73ed49d4be45d7>@@PEAVScene@2Application@@$$V@std@@EEAAPEAVScene@3Application@@XZ
	DD	imagerel ?_Do_call@?$_Func_impl_no_alloc@V<lambda_9e62dcf887c94db0be73ed49d4be45d7>@@PEAVScene@2Application@@$$V@std@@EEAAPEAVScene@3Application@@XZ+68
	DD	imagerel $unwind$?_Do_call@?$_Func_impl_no_alloc@V<lambda_9e62dcf887c94db0be73ed49d4be45d7>@@PEAVScene@2Application@@$$V@std@@EEAAPEAVScene@3Application@@XZ
pdata	ENDS
;	COMDAT pdata
pdata	SEGMENT
$pdata$?dtor$0@?0??_Do_call@?$_Func_impl_no_alloc@V<lambda_9e62dcf887c94db0be73ed49d4be45d7>@@PEAVScene@2Application@@$$V@std@@EEAAPEAVScene@3Application@@XZ@4HA DD imagerel ?dtor$0@?0??_Do_call@?$_Func_impl_no_alloc@V<lambda_9e62dcf887c94db0be73ed49d4be45d7>@@PEAVScene@2Application@@$$V@std@@EEAAPEAVScene@3Application@@XZ@4HA
	DD	imagerel ?dtor$0@?0??_Do_call@?$_Func_impl_no_alloc@V<lambda_9e62dcf887c94db0be73ed49d4be45d7>@@PEAVScene@2Application@@$$V@std@@EEAAPEAVScene@3Application@@XZ@4HA+29
	DD	imagerel $unwind$?dtor$0@?0??_Do_call@?$_Func_impl_no_alloc@V<lambda_9e62dcf887c94db0be73ed49d4be45d7>@@PEAVScene@2Application@@$$V@std@@EEAAPEAVScene@3Application@@XZ@4HA
pdata	ENDS
;	COMDAT pdata
pdata	SEGMENT
$pdata$?_Do_call@?$_Func_impl_no_alloc@V<lambda_f04c6ff6a0f44a3600e7c5996fdf93c3>@@PEAVScene@2Application@@$$V@std@@EEAAPEAVScene@3Application@@XZ DD imagerel ?_Do_call@?$_Func_impl_no_alloc@V<lambda_f04c6ff6a0f44a3600e7c5996fdf93c3>@@PEAVScene@2Application@@$$V@std@@EEAAPEAVScene@3Application@@XZ
	DD	imagerel ?_Do_call@?$_Func_impl_no_alloc@V<lambda_f04c6ff6a0f44a3600e7c5996fdf93c3>@@PEAVScene@2Application@@$$V@std@@EEAAPEAVScene@3Application@@XZ+66
	DD	imagerel $unwind$?_Do_call@?$_Func_impl_no_alloc@V<lambda_f04c6ff6a0f44a3600e7c5996fdf93c3>@@PEAVScene@2Application@@$$V@std@@EEAAPEAVScene@3Application@@XZ
pdata	ENDS
;	COMDAT pdata
pdata	SEGMENT
$pdata$?dtor$0@?0??_Do_call@?$_Func_impl_no_alloc@V<lambda_f04c6ff6a0f44a3600e7c5996fdf93c3>@@PEAVScene@2Application@@$$V@std@@EEAAPEAVScene@3Application@@XZ@4HA DD imagerel ?dtor$0@?0??_Do_call@?$_Func_impl_no_alloc@V<lambda_f04c6ff6a0f44a3600e7c5996fdf93c3>@@PEAVScene@2Application@@$$V@std@@EEAAPEAVScene@3Application@@XZ@4HA
	DD	imagerel ?dtor$0@?0??_Do_call@?$_Func_impl_no_alloc@V<lambda_f04c6ff6a0f44a3600e7c5996fdf93c3>@@PEAVScene@2Application@@$$V@std@@EEAAPEAVScene@3Application@@XZ@4HA+29
	DD	imagerel $unwind$?dtor$0@?0??_Do_call@?$_Func_impl_no_alloc@V<lambda_f04c6ff6a0f44a3600e7c5996fdf93c3>@@PEAVScene@2Application@@$$V@std@@EEAAPEAVScene@3Application@@XZ@4HA
pdata	ENDS
;	COMDAT pdata
pdata	SEGMENT
$pdata$?_Do_call@?$_Func_impl_no_alloc@V<lambda_8a87a946287cf0625355d2c413df9209>@@PEAVScene@2Application@@$$V@std@@EEAAPEAVScene@3Application@@XZ DD imagerel ?_Do_call@?$_Func_impl_no_alloc@V<lambda_8a87a946287cf0625355d2c413df9209>@@PEAVScene@2Application@@$$V@std@@EEAAPEAVScene@3Application@@XZ
	DD	imagerel ?_Do_call@?$_Func_impl_no_alloc@V<lambda_8a87a946287cf0625355d2c413df9209>@@PEAVScene@2Application@@$$V@std@@EEAAPEAVScene@3Application@@XZ+76
	DD	imagerel $unwind$?_Do_call@?$_Func_impl_no_alloc@V<lambda_8a87a946287cf0625355d2c413df9209>@@PEAVScene@2Application@@$$V@std@@EEAAPEAVScene@3Application@@XZ
pdata	ENDS
;	COMDAT pdata
pdata	SEGMENT
$pdata$?dtor$0@?0??_Do_call@?$_Func_impl_no_alloc@V<lambda_8a87a946287cf0625355d2c413df9209>@@PEAVScene@2Application@@$$V@std@@EEAAPEAVScene@3Application@@XZ@4HA DD imagerel ?dtor$0@?0??_Do_call@?$_Func_impl_no_alloc@V<lambda_8a87a946287cf0625355d2c413df9209>@@PEAVScene@2Application@@$$V@std@@EEAAPEAVScene@3Application@@XZ@4HA
	DD	imagerel ?dtor$0@?0??_Do_call@?$_Func_impl_no_alloc@V<lambda_8a87a946287cf0625355d2c413df9209>@@PEAVScene@2Application@@$$V@std@@EEAAPEAVScene@3Application@@XZ@4HA+29
	DD	imagerel $unwind$?dtor$0@?0??_Do_call@?$_Func_impl_no_alloc@V<lambda_8a87a946287cf0625355d2c413df9209>@@PEAVScene@2Application@@$$V@std@@EEAAPEAVScene@3Application@@XZ@4HA
pdata	ENDS
;	COMDAT pdata
pdata	SEGMENT
$pdata$?_Do_call@?$_Func_impl_no_alloc@V<lambda_1f639e86dd05cae58c2a45cb24025185>@@PEAVScene@2Application@@$$V@std@@EEAAPEAVScene@3Application@@XZ DD imagerel ?_Do_call@?$_Func_impl_no_alloc@V<lambda_1f639e86dd05cae58c2a45cb24025185>@@PEAVScene@2Application@@$$V@std@@EEAAPEAVScene@3Application@@XZ
	DD	imagerel ?_Do_call@?$_Func_impl_no_alloc@V<lambda_1f639e86dd05cae58c2a45cb24025185>@@PEAVScene@2Application@@$$V@std@@EEAAPEAVScene@3Application@@XZ+64
	DD	imagerel $unwind$?_Do_call@?$_Func_impl_no_alloc@V<lambda_1f639e86dd05cae58c2a45cb24025185>@@PEAVScene@2Application@@$$V@std@@EEAAPEAVScene@3Application@@XZ
pdata	ENDS
;	COMDAT pdata
pdata	SEGMENT
$pdata$?dtor$0@?0??_Do_call@?$_Func_impl_no_alloc@V<lambda_1f639e86dd05cae58c2a45cb24025185>@@PEAVScene@2Application@@$$V@std@@EEAAPEAVScene@3Application@@XZ@4HA DD imagerel ?dtor$0@?0??_Do_call@?$_Func_impl_no_alloc@V<lambda_1f639e86dd05cae58c2a45cb24025185>@@PEAVScene@2Application@@$$V@std@@EEAAPEAVScene@3Application@@XZ@4HA
	DD	imagerel ?dtor$0@?0??_Do_call@?$_Func_impl_no_alloc@V<lambda_1f639e86dd05cae58c2a45cb24025185>@@PEAVScene@2Application@@$$V@std@@EEAAPEAVScene@3Application@@XZ@4HA+29
	DD	imagerel $unwind$?dtor$0@?0??_Do_call@?$_Func_impl_no_alloc@V<lambda_1f639e86dd05cae58c2a45cb24025185>@@PEAVScene@2Application@@$$V@std@@EEAAPEAVScene@3Application@@XZ@4HA
pdata	ENDS
;	COMDAT pdata
pdata	SEGMENT
$pdata$?_Do_call@?$_Func_impl_no_alloc@V<lambda_f8034f4d3434a17004a65f045c28f944>@@PEAVScene@2Application@@$$V@std@@EEAAPEAVScene@3Application@@XZ DD imagerel ?_Do_call@?$_Func_impl_no_alloc@V<lambda_f8034f4d3434a17004a65f045c28f944>@@PEAVScene@2Application@@$$V@std@@EEAAPEAVScene@3Application@@XZ
	DD	imagerel ?_Do_call@?$_Func_impl_no_alloc@V<lambda_f8034f4d3434a17004a65f045c28f944>@@PEAVScene@2Application@@$$V@std@@EEAAPEAVScene@3Application@@XZ+84
	DD	imagerel $unwind$?_Do_call@?$_Func_impl_no_alloc@V<lambda_f8034f4d3434a17004a65f045c28f944>@@PEAVScene@2Application@@$$V@std@@EEAAPEAVScene@3Application@@XZ
pdata	ENDS
;	COMDAT pdata
pdata	SEGMENT
$pdata$?dtor$0@?0??_Do_call@?$_Func_impl_no_alloc@V<lambda_f8034f4d3434a17004a65f045c28f944>@@PEAVScene@2Application@@$$V@std@@EEAAPEAVScene@3Application@@XZ@4HA DD imagerel ?dtor$0@?0??_Do_call@?$_Func_impl_no_alloc@V<lambda_f8034f4d3434a17004a65f045c28f944>@@PEAVScene@2Application@@$$V@std@@EEAAPEAVScene@3Application@@XZ@4HA
	DD	imagerel ?dtor$0@?0??_Do_call@?$_Func_impl_no_alloc@V<lambda_f8034f4d3434a17004a65f045c28f944>@@PEAVScene@2Application@@$$V@std@@EEAAPEAVScene@3Application@@XZ@4HA+29
	DD	imagerel $unwind$?dtor$0@?0??_Do_call@?$_Func_impl_no_alloc@V<lambda_f8034f4d3434a17004a65f045c28f944>@@PEAVScene@2Application@@$$V@std@@EEAAPEAVScene@3Application@@XZ@4HA
pdata	ENDS
;	COMDAT pdata
pdata	SEGMENT
$pdata$?_Do_call@?$_Func_impl_no_alloc@V<lambda_6e33341e90591d57c68d6076b03224d9>@@PEAVScene@2Application@@$$V@std@@EEAAPEAVScene@3Application@@XZ DD imagerel ?_Do_call@?$_Func_impl_no_alloc@V<lambda_6e33341e90591d57c68d6076b03224d9>@@PEAVScene@2Application@@$$V@std@@EEAAPEAVScene@3Application@@XZ
	DD	imagerel ?_Do_call@?$_Func_impl_no_alloc@V<lambda_6e33341e90591d57c68d6076b03224d9>@@PEAVScene@2Application@@$$V@std@@EEAAPEAVScene@3Application@@XZ+80
	DD	imagerel $unwind$?_Do_call@?$_Func_impl_no_alloc@V<lambda_6e33341e90591d57c68d6076b03224d9>@@PEAVScene@2Application@@$$V@std@@EEAAPEAVScene@3Application@@XZ
pdata	ENDS
;	COMDAT pdata
pdata	SEGMENT
$pdata$?dtor$0@?0??_Do_call@?$_Func_impl_no_alloc@V<lambda_6e33341e90591d57c68d6076b03224d9>@@PEAVScene@2Application@@$$V@std@@EEAAPEAVScene@3Application@@XZ@4HA DD imagerel ?dtor$0@?0??_Do_call@?$_Func_impl_no_alloc@V<lambda_6e33341e90591d57c68d6076b03224d9>@@PEAVScene@2Application@@$$V@std@@EEAAPEAVScene@3Application@@XZ@4HA
	DD	imagerel ?dtor$0@?0??_Do_call@?$_Func_impl_no_alloc@V<lambda_6e33341e90591d57c68d6076b03224d9>@@PEAVScene@2Application@@$$V@std@@EEAAPEAVScene@3Application@@XZ@4HA+29
	DD	imagerel $unwind$?dtor$0@?0??_Do_call@?$_Func_impl_no_alloc@V<lambda_6e33341e90591d57c68d6076b03224d9>@@PEAVScene@2Application@@$$V@std@@EEAAPEAVScene@3Application@@XZ@4HA
pdata	ENDS
;	COMDAT pdata
pdata	SEGMENT
$pdata$?_Do_call@?$_Func_impl_no_alloc@V<lambda_2c3ab7f48cee5f9b56075868f97e05b2>@@PEAVScene@2Application@@$$V@std@@EEAAPEAVScene@3Application@@XZ DD imagerel ?_Do_call@?$_Func_impl_no_alloc@V<lambda_2c3ab7f48cee5f9b56075868f97e05b2>@@PEAVScene@2Application@@$$V@std@@EEAAPEAVScene@3Application@@XZ
	DD	imagerel ?_Do_call@?$_Func_impl_no_alloc@V<lambda_2c3ab7f48cee5f9b56075868f97e05b2>@@PEAVScene@2Application@@$$V@std@@EEAAPEAVScene@3Application@@XZ+76
	DD	imagerel $unwind$?_Do_call@?$_Func_impl_no_alloc@V<lambda_2c3ab7f48cee5f9b56075868f97e05b2>@@PEAVScene@2Application@@$$V@std@@EEAAPEAVScene@3Application@@XZ
pdata	ENDS
;	COMDAT pdata
pdata	SEGMENT
$pdata$?dtor$0@?0??_Do_call@?$_Func_impl_no_alloc@V<lambda_2c3ab7f48cee5f9b56075868f97e05b2>@@PEAVScene@2Application@@$$V@std@@EEAAPEAVScene@3Application@@XZ@4HA DD imagerel ?dtor$0@?0??_Do_call@?$_Func_impl_no_alloc@V<lambda_2c3ab7f48cee5f9b56075868f97e05b2>@@PEAVScene@2Application@@$$V@std@@EEAAPEAVScene@3Application@@XZ@4HA
	DD	imagerel ?dtor$0@?0??_Do_call@?$_Func_impl_no_alloc@V<lambda_2c3ab7f48cee5f9b56075868f97e05b2>@@PEAVScene@2Application@@$$V@std@@EEAAPEAVScene@3Application@@XZ@4HA+29
	DD	imagerel $unwind$?dtor$0@?0??_Do_call@?$_Func_impl_no_alloc@V<lambda_2c3ab7f48cee5f9b56075868f97e05b2>@@PEAVScene@2Application@@$$V@std@@EEAAPEAVScene@3Application@@XZ@4HA
pdata	ENDS
;	COMDAT pdata
pdata	SEGMENT
$pdata$?_Do_call@?$_Func_impl_no_alloc@V<lambda_d0f437802599b72fdddcf24900d600a3>@@PEAVScene@2Application@@$$V@std@@EEAAPEAVScene@3Application@@XZ DD imagerel ?_Do_call@?$_Func_impl_no_alloc@V<lambda_d0f437802599b72fdddcf24900d600a3>@@PEAVScene@2Application@@$$V@std@@EEAAPEAVScene@3Application@@XZ
	DD	imagerel ?_Do_call@?$_Func_impl_no_alloc@V<lambda_d0f437802599b72fdddcf24900d600a3>@@PEAVScene@2Application@@$$V@std@@EEAAPEAVScene@3Application@@XZ+72
	DD	imagerel $unwind$?_Do_call@?$_Func_impl_no_alloc@V<lambda_d0f437802599b72fdddcf24900d600a3>@@PEAVScene@2Application@@$$V@std@@EEAAPEAVScene@3Application@@XZ
pdata	ENDS
;	COMDAT pdata
pdata	SEGMENT
$pdata$?dtor$0@?0??_Do_call@?$_Func_impl_no_alloc@V<lambda_d0f437802599b72fdddcf24900d600a3>@@PEAVScene@2Application@@$$V@std@@EEAAPEAVScene@3Application@@XZ@4HA DD imagerel ?dtor$0@?0??_Do_call@?$_Func_impl_no_alloc@V<lambda_d0f437802599b72fdddcf24900d600a3>@@PEAVScene@2Application@@$$V@std@@EEAAPEAVScene@3Application@@XZ@4HA
	DD	imagerel ?dtor$0@?0??_Do_call@?$_Func_impl_no_alloc@V<lambda_d0f437802599b72fdddcf24900d600a3>@@PEAVScene@2Application@@$$V@std@@EEAAPEAVScene@3Application@@XZ@4HA+29
	DD	imagerel $unwind$?dtor$0@?0??_Do_call@?$_Func_impl_no_alloc@V<lambda_d0f437802599b72fdddcf24900d600a3>@@PEAVScene@2Application@@$$V@std@@EEAAPEAVScene@3Application@@XZ@4HA
pdata	ENDS
;	COMDAT pdata
pdata	SEGMENT
$pdata$?_Do_call@?$_Func_impl_no_alloc@V<lambda_411dc79f4b3a863ac6e5ae55809472f9>@@PEAVScene@2Application@@$$V@std@@EEAAPEAVScene@3Application@@XZ DD imagerel ?_Do_call@?$_Func_impl_no_alloc@V<lambda_411dc79f4b3a863ac6e5ae55809472f9>@@PEAVScene@2Application@@$$V@std@@EEAAPEAVScene@3Application@@XZ
	DD	imagerel ?_Do_call@?$_Func_impl_no_alloc@V<lambda_411dc79f4b3a863ac6e5ae55809472f9>@@PEAVScene@2Application@@$$V@std@@EEAAPEAVScene@3Application@@XZ+62
	DD	imagerel $unwind$?_Do_call@?$_Func_impl_no_alloc@V<lambda_411dc79f4b3a863ac6e5ae55809472f9>@@PEAVScene@2Application@@$$V@std@@EEAAPEAVScene@3Application@@XZ
pdata	ENDS
;	COMDAT pdata
pdata	SEGMENT
$pdata$??1?$_Uninitialized_backout_al@PEAU?$pair@PEBDV?$function@$$A6APEAVScene@1Application@@XZ@std@@@std@@V?$allocator@U?$pair@PEBDV?$function@$$A6APEAVScene@1Application@@XZ@std@@@std@@@2@@std@@QEAA@XZ DD imagerel $LN51@Uninitiali
	DD	imagerel $LN51@Uninitiali+111
	DD	imagerel $unwind$??1?$_Uninitialized_backout_al@PEAU?$pair@PEBDV?$function@$$A6APEAVScene@1Application@@XZ@std@@@std@@V?$allocator@U?$pair@PEBDV?$function@$$A6APEAVScene@1Application@@XZ@std@@@std@@@2@@std@@QEAA@XZ
pdata	ENDS
;	COMDAT pdata
pdata	SEGMENT
$pdata$??$_Uninitialized_copy_al_unchecked@PEAU?$pair@PEBDV?$function@$$A6APEAVScene@1Application@@XZ@std@@@std@@PEAU12@V?$allocator@U?$pair@PEBDV?$function@$$A6APEAVScene@1Application@@XZ@std@@@std@@@2@@std@@YAPEAU?$pair@PEBDV?$function@$$A6APEAVScene@1Application@@XZ@std@@@0@PEAU10@QEAU10@1AEAV?$allocator@U?$pair@PEBDV?$function@$$A6APEAVScene@1Application@@XZ@std@@@std@@@0@U_General_ptr_iterator_tag@0@U_Unused_parameter@0@@Z DD imagerel $LN103@Uninitiali
	DD	imagerel $LN103@Uninitiali+177
	DD	imagerel $unwind$??$_Uninitialized_copy_al_unchecked@PEAU?$pair@PEBDV?$function@$$A6APEAVScene@1Application@@XZ@std@@@std@@PEAU12@V?$allocator@U?$pair@PEBDV?$function@$$A6APEAVScene@1Application@@XZ@std@@@std@@@2@@std@@YAPEAU?$pair@PEBDV?$function@$$A6APEAVScene@1Application@@XZ@std@@@0@PEAU10@QEAU10@1AEAV?$allocator@U?$pair@PEBDV?$function@$$A6APEAVScene@1Application@@XZ@std@@@std@@@0@U_General_ptr_iterator_tag@0@U_Unused_parameter@0@@Z
pdata	ENDS
;	COMDAT pdata
pdata	SEGMENT
$pdata$??$_Uninitialized_move_al_unchecked@PEAU?$pair@PEBDV?$function@$$A6APEAVScene@1Application@@XZ@std@@@std@@PEAU12@V?$allocator@U?$pair@PEBDV?$function@$$A6APEAVScene@1Application@@XZ@std@@@std@@@2@@std@@YAPEAU?$pair@PEBDV?$function@$$A6APEAVScene@1Application@@XZ@std@@@0@PEAU10@QEAU10@1AEAV?$allocator@U?$pair@PEBDV?$function@$$A6APEAVScene@1Application@@XZ@std@@@std@@@0@U_General_ptr_iterator_tag@0@U_Unused_parameter@0@@Z DD imagerel $LN75@Uninitiali
	DD	imagerel $LN75@Uninitiali+130
	DD	imagerel $unwind$??$_Uninitialized_move_al_unchecked@PEAU?$pair@PEBDV?$function@$$A6APEAVScene@1Application@@XZ@std@@@std@@PEAU12@V?$allocator@U?$pair@PEBDV?$function@$$A6APEAVScene@1Application@@XZ@std@@@std@@@2@@std@@YAPEAU?$pair@PEBDV?$function@$$A6APEAVScene@1Application@@XZ@std@@@0@PEAU10@QEAU10@1AEAV?$allocator@U?$pair@PEBDV?$function@$$A6APEAVScene@1Application@@XZ@std@@@std@@@0@U_General_ptr_iterator_tag@0@U_Unused_parameter@0@@Z
pdata	ENDS
;	COMDAT pdata
pdata	SEGMENT
$pdata$??$_Destroy_range1@V?$allocator@U?$pair@PEBDV?$function@$$A6APEAVScene@1Application@@XZ@std@@@std@@@std@@@std@@YAXPEAU?$pair@PEBDV?$function@$$A6APEAVScene@1Application@@XZ@std@@@0@0AEAV?$allocator@U?$pair@PEBDV?$function@$$A6APEAVScene@1Application@@XZ@std@@@std@@@0@U?$integral_constant@_N$0A@@0@@Z DD imagerel $LN48@Destroy_ra
	DD	imagerel $LN48@Destroy_ra+95
	DD	imagerel $unwind$??$_Destroy_range1@V?$allocator@U?$pair@PEBDV?$function@$$A6APEAVScene@1Application@@XZ@std@@@std@@@std@@@std@@YAXPEAU?$pair@PEBDV?$function@$$A6APEAVScene@1Application@@XZ@std@@@0@0AEAV?$allocator@U?$pair@PEBDV?$function@$$A6APEAVScene@1Application@@XZ@std@@@std@@@0@U?$integral_constant@_N$0A@@0@@Z
pdata	ENDS
;	COMDAT pdata
pdata	SEGMENT
$pdata$??$_Uninitialized_copy@PEAU?$pair@PEBDV?$function@$$A6APEAVScene@1Application@@XZ@std@@@std@@PEAU12@V?$allocator@U?$pair@PEBDV?$function@$$A6APEAVScene@1Application@@XZ@std@@@std@@@2@@std@@YAPEAU?$pair@PEBDV?$function@$$A6APEAVScene@1Application@@XZ@std@@@0@QEAU10@0PEAU10@AEAV?$allocator@U?$pair@PEBDV?$function@$$A6APEAVScene@1Application@@XZ@std@@@std@@@0@@Z DD imagerel $LN117@Uninitiali
	DD	imagerel $LN117@Uninitiali+177
	DD	imagerel $unwind$??$_Uninitialized_copy@PEAU?$pair@PEBDV?$function@$$A6APEAVScene@1Application@@XZ@std@@@std@@PEAU12@V?$allocator@U?$pair@PEBDV?$function@$$A6APEAVScene@1Application@@XZ@std@@@std@@@2@@std@@YAPEAU?$pair@PEBDV?$function@$$A6APEAVScene@1Application@@XZ@std@@@0@QEAU10@0PEAU10@AEAV?$allocator@U?$pair@PEBDV?$function@$$A6APEAVScene@1Application@@XZ@std@@@std@@@0@@Z
pdata	ENDS
;	COMDAT pdata
pdata	SEGMENT
$pdata$??$_Uninitialized_move@PEAU?$pair@PEBDV?$function@$$A6APEAVScene@1Application@@XZ@std@@@std@@PEAU12@V?$allocator@U?$pair@PEBDV?$function@$$A6APEAVScene@1Application@@XZ@std@@@std@@@2@@std@@YAPEAU?$pair@PEBDV?$function@$$A6APEAVScene@1Application@@XZ@std@@@0@QEAU10@0PEAU10@AEAV?$allocator@U?$pair@PEBDV?$function@$$A6APEAVScene@1Application@@XZ@std@@@std@@@0@@Z DD imagerel $LN89@Uninitiali
	DD	imagerel $LN89@Uninitiali+130
	DD	imagerel $unwind$??$_Uninitialized_move@PEAU?$pair@PEBDV?$function@$$A6APEAVScene@1Application@@XZ@std@@@std@@PEAU12@V?$allocator@U?$pair@PEBDV?$function@$$A6APEAVScene@1Application@@XZ@std@@@std@@@2@@std@@YAPEAU?$pair@PEBDV?$function@$$A6APEAVScene@1Application@@XZ@std@@@0@QEAU10@0PEAU10@AEAV?$allocator@U?$pair@PEBDV?$function@$$A6APEAVScene@1Application@@XZ@std@@@std@@@0@@Z
pdata	ENDS
;	COMDAT pdata
pdata	SEGMENT
$pdata$??$_Destroy_range@V?$allocator@U?$pair@PEBDV?$function@$$A6APEAVScene@1Application@@XZ@std@@@std@@@std@@@std@@YAXPEAU?$pair@PEBDV?$function@$$A6APEAVScene@1Application@@XZ@std@@@0@0AEAV?$allocator@U?$pair@PEBDV?$function@$$A6APEAVScene@1Application@@XZ@std@@@std@@@0@@Z DD imagerel $LN50@Destroy_ra
	DD	imagerel $LN50@Destroy_ra+95
	DD	imagerel $unwind$??$_Destroy_range@V?$allocator@U?$pair@PEBDV?$function@$$A6APEAVScene@1Application@@XZ@std@@@std@@@std@@@std@@YAXPEAU?$pair@PEBDV?$function@$$A6APEAVScene@1Application@@XZ@std@@@0@0AEAV?$allocator@U?$pair@PEBDV?$function@$$A6APEAVScene@1Application@@XZ@std@@@std@@@0@@Z
pdata	ENDS
;	COMDAT pdata
pdata	SEGMENT
$pdata$?_Umove_if_noexcept1@?$vector@U?$pair@PEBDV?$function@$$A6APEAVScene@1Application@@XZ@std@@@std@@V?$allocator@U?$pair@PEBDV?$function@$$A6APEAVScene@1Application@@XZ@std@@@std@@@2@@std@@AEAAXPEAU?$pair@PEBDV?$function@$$A6APEAVScene@1Application@@XZ@std@@@2@00U?$integral_constant@_N$0A@@2@@Z DD imagerel $LN123@Umove_if_n
	DD	imagerel $LN123@Umove_if_n+173
	DD	imagerel $unwind$?_Umove_if_noexcept1@?$vector@U?$pair@PEBDV?$function@$$A6APEAVScene@1Application@@XZ@std@@@std@@V?$allocator@U?$pair@PEBDV?$function@$$A6APEAVScene@1Application@@XZ@std@@@std@@@2@@std@@AEAAXPEAU?$pair@PEBDV?$function@$$A6APEAVScene@1Application@@XZ@std@@@2@00U?$integral_constant@_N$0A@@2@@Z
pdata	ENDS
;	COMDAT pdata
pdata	SEGMENT
$pdata$?_Reset_move@?$_Func_class@PEAVScene@1Application@@$$V@std@@IEAAX$$QEAV12@@Z DD imagerel $LN49@Reset_move
	DD	imagerel $LN49@Reset_move+116
	DD	imagerel $unwind$?_Reset_move@?$_Func_class@PEAVScene@1Application@@$$V@std@@IEAAX$$QEAV12@@Z
pdata	ENDS
;	COMDAT pdata
pdata	SEGMENT
$pdata$??0?$function@$$A6APEAVScene@1Application@@XZ@std@@QEAA@$$QEAV01@@Z DD imagerel $LN59@function
	DD	imagerel $LN59@function+122
	DD	imagerel $unwind$??0?$function@$$A6APEAVScene@1Application@@XZ@std@@QEAA@$$QEAV01@@Z
pdata	ENDS
;	COMDAT pdata
pdata	SEGMENT
$pdata$?deallocate@?$allocator@U?$pair@PEBDV?$function@$$A6APEAVScene@1Application@@XZ@std@@@std@@@std@@QEAAXQEAU?$pair@PEBDV?$function@$$A6APEAVScene@1Application@@XZ@std@@@2@_K@Z DD imagerel $LN14@deallocate
	DD	imagerel $LN14@deallocate+67
	DD	imagerel $unwind$?deallocate@?$allocator@U?$pair@PEBDV?$function@$$A6APEAVScene@1Application@@XZ@std@@@std@@@std@@QEAAXQEAU?$pair@PEBDV?$function@$$A6APEAVScene@1Application@@XZ@std@@@2@_K@Z
pdata	ENDS
;	COMDAT pdata
pdata	SEGMENT
$pdata$?allocate@?$allocator@U?$pair@PEBDV?$function@$$A6APEAVScene@1Application@@XZ@std@@@std@@@std@@QEAAPEAU?$pair@PEBDV?$function@$$A6APEAVScene@1Application@@XZ@std@@@2@_K@Z DD imagerel $LN23@allocate
	DD	imagerel $LN23@allocate+117
	DD	imagerel $unwind$?allocate@?$allocator@U?$pair@PEBDV?$function@$$A6APEAVScene@1Application@@XZ@std@@@std@@@std@@QEAAPEAU?$pair@PEBDV?$function@$$A6APEAVScene@1Application@@XZ@std@@@2@_K@Z
pdata	ENDS
;	COMDAT pdata
pdata	SEGMENT
$pdata$?_Umove@?$vector@U?$pair@PEBDV?$function@$$A6APEAVScene@1Application@@XZ@std@@@std@@V?$allocator@U?$pair@PEBDV?$function@$$A6APEAVScene@1Application@@XZ@std@@@std@@@2@@std@@AEAAPEAU?$pair@PEBDV?$function@$$A6APEAVScene@1Application@@XZ@std@@@2@PEAU32@00@Z DD imagerel $LN95@Umove
	DD	imagerel $LN95@Umove+130
	DD	imagerel $unwind$?_Umove@?$vector@U?$pair@PEBDV?$function@$$A6APEAVScene@1Application@@XZ@std@@@std@@V?$allocator@U?$pair@PEBDV?$function@$$A6APEAVScene@1Application@@XZ@std@@@std@@@2@@std@@AEAAPEAU?$pair@PEBDV?$function@$$A6APEAVScene@1Application@@XZ@std@@@2@PEAU32@00@Z
pdata	ENDS
;	COMDAT pdata
pdata	SEGMENT
$pdata$?_Umove_if_noexcept@?$vector@U?$pair@PEBDV?$function@$$A6APEAVScene@1Application@@XZ@std@@@std@@V?$allocator@U?$pair@PEBDV?$function@$$A6APEAVScene@1Application@@XZ@std@@@std@@@2@@std@@AEAAXPEAU?$pair@PEBDV?$function@$$A6APEAVScene@1Application@@XZ@std@@@2@00@Z DD imagerel $LN125@Umove_if_n
	DD	imagerel $LN125@Umove_if_n+173
	DD	imagerel $unwind$?_Umove_if_noexcept@?$vector@U?$pair@PEBDV?$function@$$A6APEAVScene@1Application@@XZ@std@@@std@@V?$allocator@U?$pair@PEBDV?$function@$$A6APEAVScene@1Application@@XZ@std@@@std@@@2@@std@@AEAAXPEAU?$pair@PEBDV?$function@$$A6APEAVScene@1Application@@XZ@std@@@2@00@Z
pdata	ENDS
;	COMDAT pdata
pdata	SEGMENT
$pdata$?_Destroy@?$vector@U?$pair@PEBDV?$function@$$A6APEAVScene@1Application@@XZ@std@@@std@@V?$allocator@U?$pair@PEBDV?$function@$$A6APEAVScene@1Application@@XZ@std@@@std@@@2@@std@@AEAAXPEAU?$pair@PEBDV?$function@$$A6APEAVScene@1Application@@XZ@std@@@2@0@Z DD imagerel $LN56@Destroy
	DD	imagerel $LN56@Destroy+95
	DD	imagerel $unwind$?_Destroy@?$vector@U?$pair@PEBDV?$function@$$A6APEAVScene@1Application@@XZ@std@@@std@@V?$allocator@U?$pair@PEBDV?$function@$$A6APEAVScene@1Application@@XZ@std@@@std@@@2@@std@@AEAAXPEAU?$pair@PEBDV?$function@$$A6APEAVScene@1Application@@XZ@std@@@2@0@Z
pdata	ENDS
;	COMDAT pdata
pdata	SEGMENT
$pdata$?_Change_array@?$vector@U?$pair@PEBDV?$function@$$A6APEAVScene@1Application@@XZ@std@@@std@@V?$allocator@U?$pair@PEBDV?$function@$$A6APEAVScene@1Application@@XZ@std@@@std@@@2@@std@@AEAAXQEAU?$pair@PEBDV?$function@$$A6APEAVScene@1Application@@XZ@std@@@2@_K1@Z DD imagerel $LN139@Change_arr
	DD	imagerel $LN139@Change_arr+270
	DD	imagerel $unwind$?_Change_array@?$vector@U?$pair@PEBDV?$function@$$A6APEAVScene@1Application@@XZ@std@@@std@@V?$allocator@U?$pair@PEBDV?$function@$$A6APEAVScene@1Application@@XZ@std@@@std@@@2@@std@@AEAAXQEAU?$pair@PEBDV?$function@$$A6APEAVScene@1Application@@XZ@std@@@2@_K1@Z
pdata	ENDS
;	COMDAT pdata
pdata	SEGMENT
$pdata$?_Xlength@?$vector@U?$pair@PEBDV?$function@$$A6APEAVScene@1Application@@XZ@std@@@std@@V?$allocator@U?$pair@PEBDV?$function@$$A6APEAVScene@1Application@@XZ@std@@@std@@@2@@std@@CAXXZ DD imagerel $LN4@Xlength
	DD	imagerel $LN4@Xlength+18
	DD	imagerel $unwind$?_Xlength@?$vector@U?$pair@PEBDV?$function@$$A6APEAVScene@1Application@@XZ@std@@@std@@V?$allocator@U?$pair@PEBDV?$function@$$A6APEAVScene@1Application@@XZ@std@@@std@@@2@@std@@CAXXZ
pdata	ENDS
;	COMDAT pdata
pdata	SEGMENT
$pdata$??0?$pair@PEBDV?$function@$$A6APEAVScene@1Application@@XZ@std@@@std@@QEAA@$$QEAU01@@Z DD imagerel $LN62@pair
	DD	imagerel $LN62@pair+148
	DD	imagerel $unwind$??0?$pair@PEBDV?$function@$$A6APEAVScene@1Application@@XZ@std@@@std@@QEAA@$$QEAU01@@Z
pdata	ENDS
;	COMDAT pdata
pdata	SEGMENT
$pdata$??$_Emplace_reallocate@U?$pair@PEBDV?$function@$$A6APEAVScene@1Application@@XZ@std@@@std@@@?$vector@U?$pair@PEBDV?$function@$$A6APEAVScene@1Application@@XZ@std@@@std@@V?$allocator@U?$pair@PEBDV?$function@$$A6APEAVScene@1Application@@XZ@std@@@std@@@2@@std@@QEAAPEAU?$pair@PEBDV?$function@$$A6APEAVScene@1Application@@XZ@std@@@1@QEAU21@$$QEAU21@@Z DD imagerel $LN397@Emplace_re
	DD	imagerel $LN397@Emplace_re+798
	DD	imagerel $unwind$??$_Emplace_reallocate@U?$pair@PEBDV?$function@$$A6APEAVScene@1Application@@XZ@std@@@std@@@?$vector@U?$pair@PEBDV?$function@$$A6APEAVScene@1Application@@XZ@std@@@std@@V?$allocator@U?$pair@PEBDV?$function@$$A6APEAVScene@1Application@@XZ@std@@@std@@@2@@std@@QEAAPEAU?$pair@PEBDV?$function@$$A6APEAVScene@1Application@@XZ@std@@@1@QEAU21@$$QEAU21@@Z
pdata	ENDS
;	COMDAT pdata
pdata	SEGMENT
$pdata$?catch$9@?0???$_Emplace_reallocate@U?$pair@PEBDV?$function@$$A6APEAVScene@1Application@@XZ@std@@@std@@@?$vector@U?$pair@PEBDV?$function@$$A6APEAVScene@1Application@@XZ@std@@@std@@V?$allocator@U?$pair@PEBDV?$function@$$A6APEAVScene@1Application@@XZ@std@@@std@@@2@@std@@QEAAPEAU?$pair@PEBDV?$function@$$A6APEAVScene@1Application@@XZ@std@@@1@QEAU21@$$QEAU21@@Z@4HA DD imagerel ?catch$9@?0???$_Emplace_reallocate@U?$pair@PEBDV?$function@$$A6APEAVScene@1Application@@XZ@std@@@std@@@?$vector@U?$pair@PEBDV?$function@$$A6APEAVScene@1Application@@XZ@std@@@std@@V?$allocator@U?$pair@PEBDV?$function@$$A6APEAVScene@1Application@@XZ@std@@@std@@@2@@std@@QEAAPEAU?$pair@PEBDV?$function@$$A6APEAVScene@1Application@@XZ@std@@@1@QEAU21@$$QEAU21@@Z@4HA
	DD	imagerel ?catch$9@?0???$_Emplace_reallocate@U?$pair@PEBDV?$function@$$A6APEAVScene@1Application@@XZ@std@@@std@@@?$vector@U?$pair@PEBDV?$function@$$A6APEAVScene@1Application@@XZ@std@@@std@@V?$allocator@U?$pair@PEBDV?$function@$$A6APEAVScene@1Application@@XZ@std@@@std@@@2@@std@@QEAAPEAU?$pair@PEBDV?$function@$$A6APEAVScene@1Application@@XZ@std@@@1@QEAU21@$$QEAU21@@Z@4HA+49
	DD	imagerel $unwind$?catch$9@?0???$_Emplace_reallocate@U?$pair@PEBDV?$function@$$A6APEAVScene@1Application@@XZ@std@@@std@@@?$vector@U?$pair@PEBDV?$function@$$A6APEAVScene@1Application@@XZ@std@@@std@@V?$allocator@U?$pair@PEBDV?$function@$$A6APEAVScene@1Application@@XZ@std@@@std@@@2@@std@@QEAAPEAU?$pair@PEBDV?$function@$$A6APEAVScene@1Application@@XZ@std@@@1@QEAU21@$$QEAU21@@Z@4HA
pdata	ENDS
;	COMDAT pdata
pdata	SEGMENT
$pdata$??$construct@U?$pair@PEBDV?$function@$$A6APEAVScene@1Application@@XZ@std@@@std@@U12@@?$_Default_allocator_traits@V?$allocator@U?$pair@PEBDV?$function@$$A6APEAVScene@1Application@@XZ@std@@@std@@@std@@@std@@SAXAEAV?$allocator@U?$pair@PEBDV?$function@$$A6APEAVScene@1Application@@XZ@std@@@std@@@1@QEAU?$pair@PEBDV?$function@$$A6APEAVScene@1Application@@XZ@std@@@1@$$QEAU31@@Z DD imagerel $LN68@construct
	DD	imagerel $LN68@construct+132
	DD	imagerel $unwind$??$construct@U?$pair@PEBDV?$function@$$A6APEAVScene@1Application@@XZ@std@@@std@@U12@@?$_Default_allocator_traits@V?$allocator@U?$pair@PEBDV?$function@$$A6APEAVScene@1Application@@XZ@std@@@std@@@std@@@std@@SAXAEAV?$allocator@U?$pair@PEBDV?$function@$$A6APEAVScene@1Application@@XZ@std@@@std@@@1@QEAU?$pair@PEBDV?$function@$$A6APEAVScene@1Application@@XZ@std@@@1@$$QEAU31@@Z
pdata	ENDS
;	COMDAT pdata
pdata	SEGMENT
$pdata$??$_Allocate_manually_vector_aligned@U_Default_allocate_traits@std@@@std@@YAPEAX_K@Z DD imagerel $LN9@Allocate_m
	DD	imagerel $LN9@Allocate_m+62
	DD	imagerel $unwind$??$_Allocate_manually_vector_aligned@U_Default_allocate_traits@std@@@std@@YAPEAX_K@Z
pdata	ENDS
;	COMDAT pdata
pdata	SEGMENT
$pdata$?_Tidy@?$_Func_class@PEAVScene@1Application@@$$V@std@@IEAAXXZ DD imagerel $LN20@Tidy
	DD	imagerel $LN20@Tidy+54
	DD	imagerel $unwind$?_Tidy@?$_Func_class@PEAVScene@1Application@@$$V@std@@IEAAXXZ
pdata	ENDS
;	COMDAT pdata
pdata	SEGMENT
$pdata$??$_Emplace_back_with_unused_capacity@U?$pair@PEBDV?$function@$$A6APEAVScene@1Application@@XZ@std@@@std@@@?$vector@U?$pair@PEBDV?$function@$$A6APEAVScene@1Application@@XZ@std@@@std@@V?$allocator@U?$pair@PEBDV?$function@$$A6APEAVScene@1Application@@XZ@std@@@std@@@2@@std@@AEAAX$$QEAU?$pair@PEBDV?$function@$$A6APEAVScene@1Application@@XZ@std@@@1@@Z DD imagerel $LN45@Emplace_ba
	DD	imagerel $LN45@Emplace_ba+32
	DD	imagerel $unwind$??$_Emplace_back_with_unused_capacity@U?$pair@PEBDV?$function@$$A6APEAVScene@1Application@@XZ@std@@@std@@@?$vector@U?$pair@PEBDV?$function@$$A6APEAVScene@1Application@@XZ@std@@@std@@V?$allocator@U?$pair@PEBDV?$function@$$A6APEAVScene@1Application@@XZ@std@@@std@@@2@@std@@AEAAX$$QEAU?$pair@PEBDV?$function@$$A6APEAVScene@1Application@@XZ@std@@@1@@Z
pdata	ENDS
;	COMDAT pdata
pdata	SEGMENT
$pdata$??$emplace_back@U?$pair@PEBDV?$function@$$A6APEAVScene@1Application@@XZ@std@@@std@@@?$vector@U?$pair@PEBDV?$function@$$A6APEAVScene@1Application@@XZ@std@@@std@@V?$allocator@U?$pair@PEBDV?$function@$$A6APEAVScene@1Application@@XZ@std@@@std@@@2@@std@@QEAAX$$QEAU?$pair@PEBDV?$function@$$A6APEAVScene@1Application@@XZ@std@@@1@@Z DD imagerel $LN72@emplace_ba
	DD	imagerel $LN72@emplace_ba+48
	DD	imagerel $unwind$??$emplace_back@U?$pair@PEBDV?$function@$$A6APEAVScene@1Application@@XZ@std@@@std@@@?$vector@U?$pair@PEBDV?$function@$$A6APEAVScene@1Application@@XZ@std@@@std@@V?$allocator@U?$pair@PEBDV?$function@$$A6APEAVScene@1Application@@XZ@std@@@std@@@2@@std@@QEAAX$$QEAU?$pair@PEBDV?$function@$$A6APEAVScene@1Application@@XZ@std@@@1@@Z
pdata	ENDS
;	COMDAT pdata
pdata	SEGMENT
$pdata$?push_back@?$vector@U?$pair@PEBDV?$function@$$A6APEAVScene@1Application@@XZ@std@@@std@@V?$allocator@U?$pair@PEBDV?$function@$$A6APEAVScene@1Application@@XZ@std@@@std@@@2@@std@@QEAAX$$QEAU?$pair@PEBDV?$function@$$A6APEAVScene@1Application@@XZ@std@@@2@@Z DD imagerel $LN76@push_back
	DD	imagerel $LN76@push_back+48
	DD	imagerel $unwind$?push_back@?$vector@U?$pair@PEBDV?$function@$$A6APEAVScene@1Application@@XZ@std@@@std@@V?$allocator@U?$pair@PEBDV?$function@$$A6APEAVScene@1Application@@XZ@std@@@std@@@2@@std@@QEAAX$$QEAU?$pair@PEBDV?$function@$$A6APEAVScene@1Application@@XZ@std@@@2@@Z
pdata	ENDS
;	COMDAT pdata
pdata	SEGMENT
$pdata$??1?$_Func_class@PEAVScene@1Application@@$$V@std@@QEAA@XZ DD imagerel $LN24@Func_class
	DD	imagerel $LN24@Func_class+54
	DD	imagerel $unwind$??1?$_Func_class@PEAVScene@1Application@@$$V@std@@QEAA@XZ
pdata	ENDS
;	COMDAT pdata
pdata	SEGMENT
$pdata$??1?$function@$$A6APEAVScene@1Application@@XZ@std@@QEAA@XZ DD imagerel $LN26@function
	DD	imagerel $LN26@function+54
	DD	imagerel $unwind$??1?$function@$$A6APEAVScene@1Application@@XZ@std@@QEAA@XZ
pdata	ENDS
;	COMDAT pdata
pdata	SEGMENT
$pdata$??1?$pair@PEBDV?$function@$$A6APEAVScene@1Application@@XZ@std@@@std@@QEAA@XZ DD imagerel $LN29@pair
	DD	imagerel $LN29@pair+55
	DD	imagerel $unwind$??1?$pair@PEBDV?$function@$$A6APEAVScene@1Application@@XZ@std@@@std@@QEAA@XZ
pdata	ENDS
;	COMDAT pdata
pdata	SEGMENT
$pdata$??_H@YAXPEAX_K1P6APEAX0@Z@Z DD imagerel $LN11@vector
	DD	imagerel $LN11@vector+67
	DD	imagerel $unwind$??_H@YAXPEAX_K1P6APEAX0@Z@Z
pdata	ENDS
;	COMDAT pdata
pdata	SEGMENT
$pdata$??$_Deallocate@$0BA@$0A@@std@@YAXPEAX_K@Z DD imagerel $LN11@Deallocate
	DD	imagerel $LN11@Deallocate+53
	DD	imagerel $unwind$??$_Deallocate@$0BA@$0A@@std@@YAXPEAX_K@Z
pdata	ENDS
;	COMDAT pdata
pdata	SEGMENT
$pdata$??$_Allocate@$0BA@U_Default_allocate_traits@std@@$0A@@std@@YAPEAX_K@Z DD imagerel $LN16@Allocate
	DD	imagerel $LN16@Allocate+90
	DD	imagerel $unwind$??$_Allocate@$0BA@U_Default_allocate_traits@std@@$0A@@std@@YAPEAX_K@Z
pdata	ENDS
;	COMDAT pdata
pdata	SEGMENT
$pdata$??R<lambda_9e62dcf887c94db0be73ed49d4be45d7>@@QEBAPEAVComputeShaderScene@Scene@Application@@XZ DD imagerel ??R<lambda_9e62dcf887c94db0be73ed49d4be45d7>@@QEBAPEAVComputeShaderScene@Scene@Application@@XZ
	DD	imagerel ??R<lambda_9e62dcf887c94db0be73ed49d4be45d7>@@QEBAPEAVComputeShaderScene@Scene@Application@@XZ+68
	DD	imagerel $unwind$??R<lambda_9e62dcf887c94db0be73ed49d4be45d7>@@QEBAPEAVComputeShaderScene@Scene@Application@@XZ
pdata	ENDS
;	COMDAT pdata
pdata	SEGMENT
$pdata$?dtor$0@?0???R<lambda_9e62dcf887c94db0be73ed49d4be45d7>@@QEBAPEAVComputeShaderScene@Scene@Application@@XZ@4HA DD imagerel ?dtor$0@?0???R<lambda_9e62dcf887c94db0be73ed49d4be45d7>@@QEBAPEAVComputeShaderScene@Scene@Application@@XZ@4HA
	DD	imagerel ?dtor$0@?0???R<lambda_9e62dcf887c94db0be73ed49d4be45d7>@@QEBAPEAVComputeShaderScene@Scene@Application@@XZ@4HA+29
	DD	imagerel $unwind$?dtor$0@?0???R<lambda_9e62dcf887c94db0be73ed49d4be45d7>@@QEBAPEAVComputeShaderScene@Scene@Application@@XZ@4HA
pdata	ENDS
;	COMDAT pdata
pdata	SEGMENT
$pdata$??$RegisterScene@VComputeShaderScene@Scene@Application@@@MainMenuScene@Scene@Application@@QEAAXPEBD@Z DD imagerel $LN157@RegisterSc
	DD	imagerel $LN157@RegisterSc+129
	DD	imagerel $unwind$??$RegisterScene@VComputeShaderScene@Scene@Application@@@MainMenuScene@Scene@Application@@QEAAXPEBD@Z
pdata	ENDS
;	COMDAT pdata
pdata	SEGMENT
$pdata$??R<lambda_f04c6ff6a0f44a3600e7c5996fdf93c3>@@QEBAPEAVMandelbrotScene@Scene@Application@@XZ DD imagerel ??R<lambda_f04c6ff6a0f44a3600e7c5996fdf93c3>@@QEBAPEAVMandelbrotScene@Scene@Application@@XZ
	DD	imagerel ??R<lambda_f04c6ff6a0f44a3600e7c5996fdf93c3>@@QEBAPEAVMandelbrotScene@Scene@Application@@XZ+66
	DD	imagerel $unwind$??R<lambda_f04c6ff6a0f44a3600e7c5996fdf93c3>@@QEBAPEAVMandelbrotScene@Scene@Application@@XZ
pdata	ENDS
;	COMDAT pdata
pdata	SEGMENT
$pdata$?dtor$0@?0???R<lambda_f04c6ff6a0f44a3600e7c5996fdf93c3>@@QEBAPEAVMandelbrotScene@Scene@Application@@XZ@4HA DD imagerel ?dtor$0@?0???R<lambda_f04c6ff6a0f44a3600e7c5996fdf93c3>@@QEBAPEAVMandelbrotScene@Scene@Application@@XZ@4HA
	DD	imagerel ?dtor$0@?0???R<lambda_f04c6ff6a0f44a3600e7c5996fdf93c3>@@QEBAPEAVMandelbrotScene@Scene@Application@@XZ@4HA+29
	DD	imagerel $unwind$?dtor$0@?0???R<lambda_f04c6ff6a0f44a3600e7c5996fdf93c3>@@QEBAPEAVMandelbrotScene@Scene@Application@@XZ@4HA
pdata	ENDS
;	COMDAT pdata
pdata	SEGMENT
$pdata$??$RegisterScene@VMandelbrotScene@Scene@Application@@@MainMenuScene@Scene@Application@@QEAAXPEBD@Z DD imagerel $LN157@RegisterSc
	DD	imagerel $LN157@RegisterSc+129
	DD	imagerel $unwind$??$RegisterScene@VMandelbrotScene@Scene@Application@@@MainMenuScene@Scene@Application@@QEAAXPEBD@Z
pdata	ENDS
;	COMDAT pdata
pdata	SEGMENT
$pdata$??R<lambda_8a87a946287cf0625355d2c413df9209>@@QEBAPEAVBoidScene@Scene@Application@@XZ DD imagerel ??R<lambda_8a87a946287cf0625355d2c413df9209>@@QEBAPEAVBoidScene@Scene@Application@@XZ
	DD	imagerel ??R<lambda_8a87a946287cf0625355d2c413df9209>@@QEBAPEAVBoidScene@Scene@Application@@XZ+76
	DD	imagerel $unwind$??R<lambda_8a87a946287cf0625355d2c413df9209>@@QEBAPEAVBoidScene@Scene@Application@@XZ
pdata	ENDS
;	COMDAT pdata
pdata	SEGMENT
$pdata$?dtor$0@?0???R<lambda_8a87a946287cf0625355d2c413df9209>@@QEBAPEAVBoidScene@Scene@Application@@XZ@4HA DD imagerel ?dtor$0@?0???R<lambda_8a87a946287cf0625355d2c413df9209>@@QEBAPEAVBoidScene@Scene@Application@@XZ@4HA
	DD	imagerel ?dtor$0@?0???R<lambda_8a87a946287cf0625355d2c413df9209>@@QEBAPEAVBoidScene@Scene@Application@@XZ@4HA+29
	DD	imagerel $unwind$?dtor$0@?0???R<lambda_8a87a946287cf0625355d2c413df9209>@@QEBAPEAVBoidScene@Scene@Application@@XZ@4HA
pdata	ENDS
;	COMDAT pdata
pdata	SEGMENT
$pdata$??$RegisterScene@VBoidScene@Scene@Application@@@MainMenuScene@Scene@Application@@QEAAXPEBD@Z DD imagerel $LN157@RegisterSc
	DD	imagerel $LN157@RegisterSc+129
	DD	imagerel $unwind$??$RegisterScene@VBoidScene@Scene@Application@@@MainMenuScene@Scene@Application@@QEAAXPEBD@Z
pdata	ENDS
;	COMDAT pdata
pdata	SEGMENT
$pdata$??R<lambda_1f639e86dd05cae58c2a45cb24025185>@@QEBAPEAVLayerScene@Scene@Application@@XZ DD imagerel ??R<lambda_1f639e86dd05cae58c2a45cb24025185>@@QEBAPEAVLayerScene@Scene@Application@@XZ
	DD	imagerel ??R<lambda_1f639e86dd05cae58c2a45cb24025185>@@QEBAPEAVLayerScene@Scene@Application@@XZ+64
	DD	imagerel $unwind$??R<lambda_1f639e86dd05cae58c2a45cb24025185>@@QEBAPEAVLayerScene@Scene@Application@@XZ
pdata	ENDS
;	COMDAT pdata
pdata	SEGMENT
$pdata$?dtor$0@?0???R<lambda_1f639e86dd05cae58c2a45cb24025185>@@QEBAPEAVLayerScene@Scene@Application@@XZ@4HA DD imagerel ?dtor$0@?0???R<lambda_1f639e86dd05cae58c2a45cb24025185>@@QEBAPEAVLayerScene@Scene@Application@@XZ@4HA
	DD	imagerel ?dtor$0@?0???R<lambda_1f639e86dd05cae58c2a45cb24025185>@@QEBAPEAVLayerScene@Scene@Application@@XZ@4HA+29
	DD	imagerel $unwind$?dtor$0@?0???R<lambda_1f639e86dd05cae58c2a45cb24025185>@@QEBAPEAVLayerScene@Scene@Application@@XZ@4HA
pdata	ENDS
;	COMDAT pdata
pdata	SEGMENT
$pdata$??$RegisterScene@VLayerScene@Scene@Application@@@MainMenuScene@Scene@Application@@QEAAXPEBD@Z DD imagerel $LN157@RegisterSc
	DD	imagerel $LN157@RegisterSc+129
	DD	imagerel $unwind$??$RegisterScene@VLayerScene@Scene@Application@@@MainMenuScene@Scene@Application@@QEAAXPEBD@Z
pdata	ENDS
;	COMDAT pdata
pdata	SEGMENT
$pdata$??R<lambda_f8034f4d3434a17004a65f045c28f944>@@QEBAPEAVBatchRendererScene@Scene@Application@@XZ DD imagerel ??R<lambda_f8034f4d3434a17004a65f045c28f944>@@QEBAPEAVBatchRendererScene@Scene@Application@@XZ
	DD	imagerel ??R<lambda_f8034f4d3434a17004a65f045c28f944>@@QEBAPEAVBatchRendererScene@Scene@Application@@XZ+84
	DD	imagerel $unwind$??R<lambda_f8034f4d3434a17004a65f045c28f944>@@QEBAPEAVBatchRendererScene@Scene@Application@@XZ
pdata	ENDS
;	COMDAT pdata
pdata	SEGMENT
$pdata$?dtor$0@?0???R<lambda_f8034f4d3434a17004a65f045c28f944>@@QEBAPEAVBatchRendererScene@Scene@Application@@XZ@4HA DD imagerel ?dtor$0@?0???R<lambda_f8034f4d3434a17004a65f045c28f944>@@QEBAPEAVBatchRendererScene@Scene@Application@@XZ@4HA
	DD	imagerel ?dtor$0@?0???R<lambda_f8034f4d3434a17004a65f045c28f944>@@QEBAPEAVBatchRendererScene@Scene@Application@@XZ@4HA+29
	DD	imagerel $unwind$?dtor$0@?0???R<lambda_f8034f4d3434a17004a65f045c28f944>@@QEBAPEAVBatchRendererScene@Scene@Application@@XZ@4HA
pdata	ENDS
;	COMDAT pdata
pdata	SEGMENT
$pdata$??$RegisterScene@VBatchRendererScene@Scene@Application@@@MainMenuScene@Scene@Application@@QEAAXPEBD@Z DD imagerel $LN157@RegisterSc
	DD	imagerel $LN157@RegisterSc+129
	DD	imagerel $unwind$??$RegisterScene@VBatchRendererScene@Scene@Application@@@MainMenuScene@Scene@Application@@QEAAXPEBD@Z
pdata	ENDS
;	COMDAT pdata
pdata	SEGMENT
$pdata$??R<lambda_6e33341e90591d57c68d6076b03224d9>@@QEBAPEAVSimpleRendererScene@Scene@Application@@XZ DD imagerel ??R<lambda_6e33341e90591d57c68d6076b03224d9>@@QEBAPEAVSimpleRendererScene@Scene@Application@@XZ
	DD	imagerel ??R<lambda_6e33341e90591d57c68d6076b03224d9>@@QEBAPEAVSimpleRendererScene@Scene@Application@@XZ+80
	DD	imagerel $unwind$??R<lambda_6e33341e90591d57c68d6076b03224d9>@@QEBAPEAVSimpleRendererScene@Scene@Application@@XZ
pdata	ENDS
;	COMDAT pdata
pdata	SEGMENT
$pdata$?dtor$0@?0???R<lambda_6e33341e90591d57c68d6076b03224d9>@@QEBAPEAVSimpleRendererScene@Scene@Application@@XZ@4HA DD imagerel ?dtor$0@?0???R<lambda_6e33341e90591d57c68d6076b03224d9>@@QEBAPEAVSimpleRendererScene@Scene@Application@@XZ@4HA
	DD	imagerel ?dtor$0@?0???R<lambda_6e33341e90591d57c68d6076b03224d9>@@QEBAPEAVSimpleRendererScene@Scene@Application@@XZ@4HA+29
	DD	imagerel $unwind$?dtor$0@?0???R<lambda_6e33341e90591d57c68d6076b03224d9>@@QEBAPEAVSimpleRendererScene@Scene@Application@@XZ@4HA
pdata	ENDS
;	COMDAT pdata
pdata	SEGMENT
$pdata$??$RegisterScene@VSimpleRendererScene@Scene@Application@@@MainMenuScene@Scene@Application@@QEAAXPEBD@Z DD imagerel $LN157@RegisterSc
	DD	imagerel $LN157@RegisterSc+129
	DD	imagerel $unwind$??$RegisterScene@VSimpleRendererScene@Scene@Application@@@MainMenuScene@Scene@Application@@QEAAXPEBD@Z
pdata	ENDS
;	COMDAT pdata
pdata	SEGMENT
$pdata$??R<lambda_2c3ab7f48cee5f9b56075868f97e05b2>@@QEBAPEAVTextureTestScene@Scene@Application@@XZ DD imagerel ??R<lambda_2c3ab7f48cee5f9b56075868f97e05b2>@@QEBAPEAVTextureTestScene@Scene@Application@@XZ
	DD	imagerel ??R<lambda_2c3ab7f48cee5f9b56075868f97e05b2>@@QEBAPEAVTextureTestScene@Scene@Application@@XZ+76
	DD	imagerel $unwind$??R<lambda_2c3ab7f48cee5f9b56075868f97e05b2>@@QEBAPEAVTextureTestScene@Scene@Application@@XZ
pdata	ENDS
;	COMDAT pdata
pdata	SEGMENT
$pdata$?dtor$0@?0???R<lambda_2c3ab7f48cee5f9b56075868f97e05b2>@@QEBAPEAVTextureTestScene@Scene@Application@@XZ@4HA DD imagerel ?dtor$0@?0???R<lambda_2c3ab7f48cee5f9b56075868f97e05b2>@@QEBAPEAVTextureTestScene@Scene@Application@@XZ@4HA
	DD	imagerel ?dtor$0@?0???R<lambda_2c3ab7f48cee5f9b56075868f97e05b2>@@QEBAPEAVTextureTestScene@Scene@Application@@XZ@4HA+29
	DD	imagerel $unwind$?dtor$0@?0???R<lambda_2c3ab7f48cee5f9b56075868f97e05b2>@@QEBAPEAVTextureTestScene@Scene@Application@@XZ@4HA
pdata	ENDS
;	COMDAT pdata
pdata	SEGMENT
$pdata$??$RegisterScene@VTextureTestScene@Scene@Application@@@MainMenuScene@Scene@Application@@QEAAXPEBD@Z DD imagerel $LN157@RegisterSc
	DD	imagerel $LN157@RegisterSc+129
	DD	imagerel $unwind$??$RegisterScene@VTextureTestScene@Scene@Application@@@MainMenuScene@Scene@Application@@QEAAXPEBD@Z
pdata	ENDS
;	COMDAT pdata
pdata	SEGMENT
$pdata$??R<lambda_d0f437802599b72fdddcf24900d600a3>@@QEBAPEAVBuffersTestScene@Scene@Application@@XZ DD imagerel ??R<lambda_d0f437802599b72fdddcf24900d600a3>@@QEBAPEAVBuffersTestScene@Scene@Application@@XZ
	DD	imagerel ??R<lambda_d0f437802599b72fdddcf24900d600a3>@@QEBAPEAVBuffersTestScene@Scene@Application@@XZ+72
	DD	imagerel $unwind$??R<lambda_d0f437802599b72fdddcf24900d600a3>@@QEBAPEAVBuffersTestScene@Scene@Application@@XZ
pdata	ENDS
;	COMDAT pdata
pdata	SEGMENT
$pdata$?dtor$0@?0???R<lambda_d0f437802599b72fdddcf24900d600a3>@@QEBAPEAVBuffersTestScene@Scene@Application@@XZ@4HA DD imagerel ?dtor$0@?0???R<lambda_d0f437802599b72fdddcf24900d600a3>@@QEBAPEAVBuffersTestScene@Scene@Application@@XZ@4HA
	DD	imagerel ?dtor$0@?0???R<lambda_d0f437802599b72fdddcf24900d600a3>@@QEBAPEAVBuffersTestScene@Scene@Application@@XZ@4HA+29
	DD	imagerel $unwind$?dtor$0@?0???R<lambda_d0f437802599b72fdddcf24900d600a3>@@QEBAPEAVBuffersTestScene@Scene@Application@@XZ@4HA
pdata	ENDS
;	COMDAT pdata
pdata	SEGMENT
$pdata$??$RegisterScene@VBuffersTestScene@Scene@Application@@@MainMenuScene@Scene@Application@@QEAAXPEBD@Z DD imagerel $LN157@RegisterSc
	DD	imagerel $LN157@RegisterSc+129
	DD	imagerel $unwind$??$RegisterScene@VBuffersTestScene@Scene@Application@@@MainMenuScene@Scene@Application@@QEAAXPEBD@Z
pdata	ENDS
;	COMDAT pdata
pdata	SEGMENT
$pdata$??R<lambda_411dc79f4b3a863ac6e5ae55809472f9>@@QEBAPEAVTestScene@Scene@Application@@XZ DD imagerel ??R<lambda_411dc79f4b3a863ac6e5ae55809472f9>@@QEBAPEAVTestScene@Scene@Application@@XZ
	DD	imagerel ??R<lambda_411dc79f4b3a863ac6e5ae55809472f9>@@QEBAPEAVTestScene@Scene@Application@@XZ+62
	DD	imagerel $unwind$??R<lambda_411dc79f4b3a863ac6e5ae55809472f9>@@QEBAPEAVTestScene@Scene@Application@@XZ
pdata	ENDS
;	COMDAT pdata
pdata	SEGMENT
$pdata$??$RegisterScene@VTestScene@Scene@Application@@@MainMenuScene@Scene@Application@@QEAAXPEBD@Z DD imagerel $LN157@RegisterSc
	DD	imagerel $LN157@RegisterSc+129
	DD	imagerel $unwind$??$RegisterScene@VTestScene@Scene@Application@@@MainMenuScene@Scene@Application@@QEAAXPEBD@Z
pdata	ENDS
;	COMDAT pdata
pdata	SEGMENT
$pdata$main DD	imagerel $LN1511@main
	DD	imagerel $LN1511@main+2719
	DD	imagerel $unwind$main
pdata	ENDS
;	COMDAT pdata
pdata	SEGMENT
$pdata$main$dtor$2 DD imagerel main$dtor$2
	DD	imagerel main$dtor$2+44
	DD	imagerel $unwind$main$dtor$2
pdata	ENDS
;	COMDAT pdata
pdata	SEGMENT
$pdata$main$dtor$1 DD imagerel main$dtor$1
	DD	imagerel main$dtor$1+32
	DD	imagerel $unwind$main$dtor$1
pdata	ENDS
;	COMDAT pdata
pdata	SEGMENT
$pdata$?_Adjust_manually_vector_aligned@std@@YAXAEAPEAXAEA_K@Z DD imagerel $LN7@Adjust_man
	DD	imagerel $LN7@Adjust_man+43
	DD	imagerel $unwind$?_Adjust_manually_vector_aligned@std@@YAXAEAPEAXAEA_K@Z
;	COMDAT __xmm@ff7fffffff7fffff7f7fffff7f7fffff
CONST	SEGMENT
__xmm@ff7fffffff7fffff7f7fffff7f7fffff DB 0ffH, 0ffH, 07fH, 07fH, 0ffH, 0ffH
	DB	07fH, 07fH, 0ffH, 0ffH, 07fH, 0ffH, 0ffH, 0ffH, 07fH, 0ffH
CONST	ENDS
;	COMDAT __xmm@fa7efa7efa7efa7efa7efa7efa7efa7e
CONST	SEGMENT
__xmm@fa7efa7efa7efa7efa7efa7efa7efa7e DB '~', 0faH, '~', 0faH, '~', 0faH
	DB	'~', 0faH, '~', 0faH, '~', 0faH, '~', 0faH, '~', 0faH
CONST	ENDS
;	COMDAT __xmm@f9c31a9df9c31a9df9c31a9df9c31a9d
CONST	SEGMENT
__xmm@f9c31a9df9c31a9df9c31a9df9c31a9d DB 09dH, 01aH, 0c3H, 0f9H, 09dH, 01aH
	DB	0c3H, 0f9H, 09dH, 01aH, 0c3H, 0f9H, 09dH, 01aH, 0c3H, 0f9H
CONST	ENDS
;	COMDAT __xmm@f493f493f493f493f493f493f493f493
CONST	SEGMENT
__xmm@f493f493f493f493f493f493f493f493 DB 093H, 0f4H, 093H, 0f4H, 093H, 0f4H
	DB	093H, 0f4H, 093H, 0f4H, 093H, 0f4H, 093H, 0f4H, 093H, 0f4H
CONST	ENDS
;	COMDAT __xmm@eb1a08a9eb1a08a9eb1a08a9eb1a08a9
CONST	SEGMENT
__xmm@eb1a08a9eb1a08a9eb1a08a9eb1a08a9 DB 0a9H, 08H, 01aH, 0ebH, 0a9H, 08H
	DB	01aH, 0ebH, 0a9H, 08H, 01aH, 0ebH, 0a9H, 08H, 01aH, 0ebH
CONST	ENDS
;	COMDAT __xmm@e9cf12d0e9cf12d0e9cf12d0e9cf12d0
CONST	SEGMENT
__xmm@e9cf12d0e9cf12d0e9cf12d0e9cf12d0 DB 0d0H, 012H, 0cfH, 0e9H, 0d0H, 012H
	DB	0cfH, 0e9H, 0d0H, 012H, 0cfH, 0e9H, 0d0H, 012H, 0cfH, 0e9H
CONST	ENDS
;	COMDAT __xmm@e09ee565e09ee565e09ee565e09ee565
CONST	SEGMENT
__xmm@e09ee565e09ee565e09ee565e09ee565 DB 'e', 0e5H, 09eH, 0e0H, 'e', 0e5H
	DB	09eH, 0e0H, 'e', 0e5H, 09eH, 0e0H, 'e', 0e5H, 09eH, 0e0H
CONST	ENDS
;	COMDAT __xmm@c08000003f8000003f80000000000000
CONST	SEGMENT
__xmm@c08000003f8000003f80000000000000 DB 00H, 00H, 00H, 00H, 00H, 00H, 080H
	DB	'?', 00H, 00H, 080H, '?', 00H, 00H, 080H, 0c0H
CONST	ENDS
;	COMDAT __xmm@bf0000003f000000bf000000bf000000
CONST	SEGMENT
__xmm@bf0000003f000000bf000000bf000000 DB 00H, 00H, 00H, 0bfH, 00H, 00H, 00H
	DB	0bfH, 00H, 00H, 00H, '?', 00H, 00H, 00H, 0bfH
CONST	ENDS
;	COMDAT __xmm@80808080808080808080808080808080
CONST	SEGMENT
__xmm@80808080808080808080808080808080 DB 080H, 080H, 080H, 080H, 080H, 080H
	DB	080H, 080H, 080H, 080H, 080H, 080H, 080H, 080H, 080H, 080H
CONST	ENDS
;	COMDAT __xmm@80000000800000008000000080000000
CONST	SEGMENT
__xmm@80000000800000008000000080000000 DB 00H, 00H, 00H, 080H, 00H, 00H, 00H
	DB	080H, 00H, 00H, 00H, 080H, 00H, 00H, 00H, 080H
CONST	ENDS
;	COMDAT __xmm@7fffffff7fffffff7fffffff7fffffff
CONST	SEGMENT
__xmm@7fffffff7fffffff7fffffff7fffffff DB 0ffH, 0ffH, 0ffH, 07fH, 0ffH, 0ffH
	DB	0ffH, 07fH, 0ffH, 0ffH, 0ffH, 07fH, 0ffH, 0ffH, 0ffH, 07fH
CONST	ENDS
;	COMDAT __xmm@7f7fffff7f7fffffff7fffffff7fffff
CONST	SEGMENT
__xmm@7f7fffff7f7fffffff7fffffff7fffff DB 0ffH, 0ffH, 07fH, 0ffH, 0ffH, 0ffH
	DB	07fH, 0ffH, 0ffH, 0ffH, 07fH, 07fH, 0ffH, 0ffH, 07fH, 07fH
CONST	ENDS
;	COMDAT __xmm@4600000046000000c6000000c6000000
CONST	SEGMENT
__xmm@4600000046000000c6000000c6000000 DB 00H, 00H, 00H, 0c6H, 00H, 00H, 00H
	DB	0c6H, 00H, 00H, 00H, 'F', 00H, 00H, 00H, 'F'
CONST	ENDS
;	COMDAT __xmm@4080000040800000000000003f800000
CONST	SEGMENT
__xmm@4080000040800000000000003f800000 DB 00H, 00H, 080H, '?', 00H, 00H, 00H
	DB	00H, 00H, 00H, 080H, '@', 00H, 00H, 080H, '@'
CONST	ENDS
;	COMDAT __xmm@3f800000bf800000bf800000bf800000
CONST	SEGMENT
__xmm@3f800000bf800000bf800000bf800000 DB 00H, 00H, 080H, 0bfH, 00H, 00H, 080H
	DB	0bfH, 00H, 00H, 080H, 0bfH, 00H, 00H, 080H, '?'
CONST	ENDS
;	COMDAT __xmm@3f8000003f800000bf8000003f800000
CONST	SEGMENT
__xmm@3f8000003f800000bf8000003f800000 DB 00H, 00H, 080H, '?', 00H, 00H, 080H
	DB	0bfH, 00H, 00H, 080H, '?', 00H, 00H, 080H, '?'
CONST	ENDS
;	COMDAT __xmm@3f8000003f8000003f8000003f800000
CONST	SEGMENT
__xmm@3f8000003f8000003f8000003f800000 DB 00H, 00H, 080H, '?', 00H, 00H, 080H
	DB	'?', 00H, 00H, 080H, '?', 00H, 00H, 080H, '?'
CONST	ENDS
;	COMDAT __xmm@3f8000003f8000003f0000003f000000
CONST	SEGMENT
__xmm@3f8000003f8000003f0000003f000000 DB 00H, 00H, 00H, '?', 00H, 00H, 00H
	DB	'?', 00H, 00H, 080H, '?', 00H, 00H, 080H, '?'
CONST	ENDS
;	COMDAT __xmm@3f8000003f7ae1483f170a3d3e851eb8
CONST	SEGMENT
__xmm@3f8000003f7ae1483f170a3d3e851eb8 DB 0b8H, 01eH, 085H, '>=', 0aH, 017H
	DB	'?H', 0e1H, 'z?', 00H, 00H, 080H, '?'
CONST	ENDS
;	COMDAT __xmm@3f8000003f7ae1483f07ae143d75c28f
CONST	SEGMENT
__xmm@3f8000003f7ae1483f07ae143d75c28f DB 08fH, 0c2H, 'u=', 014H, 0aeH, 07H
	DB	'?H', 0e1H, 'z?', 00H, 00H, 080H, '?'
CONST	ENDS
;	COMDAT __xmm@3f8000003f6147ae3f051eb83e75c28f
CONST	SEGMENT
__xmm@3f8000003f6147ae3f051eb83e75c28f DB 08fH, 0c2H, 'u>', 0b8H, 01eH, 05H
	DB	'?', 0aeH, 'Ga?', 00H, 00H, 080H, '?'
CONST	ENDS
;	COMDAT __xmm@3f8000003f4000003ecccccd3dcccccd
CONST	SEGMENT
__xmm@3f8000003f4000003ecccccd3dcccccd DB 0cdH, 0ccH, 0ccH, '=', 0cdH, 0ccH
	DB	0ccH, '>', 00H, 00H, '@?', 00H, 00H, 080H, '?'
CONST	ENDS
;	COMDAT __xmm@3f8000003f1c28f63f1c28f63f1c28f6
CONST	SEGMENT
__xmm@3f8000003f1c28f63f1c28f63f1c28f6 DB 0f6H, '(', 01cH, '?', 0f6H, '(', 01cH
	DB	'?', 0f6H, '(', 01cH, '?', 00H, 00H, 080H, '?'
CONST	ENDS
;	COMDAT __xmm@3f8000003f028f5c3f028f5c3f028f5c
CONST	SEGMENT
__xmm@3f8000003f028f5c3f028f5c3f028f5c DB '\', 08fH, 02H, '?\', 08fH, 02H
	DB	'?\', 08fH, 02H, '?', 00H, 00H, 080H, '?'
CONST	ENDS
;	COMDAT __xmm@3f8000003f0000003f0000003f000000
CONST	SEGMENT
__xmm@3f8000003f0000003f0000003f000000 DB 00H, 00H, 00H, '?', 00H, 00H, 00H
	DB	'?', 00H, 00H, 00H, '?', 00H, 00H, 080H, '?'
CONST	ENDS
;	COMDAT __xmm@3f8000003ef5c28f3e947ae13e23d70a
CONST	SEGMENT
__xmm@3f8000003ef5c28f3e947ae13e23d70a DB 0aH, 0d7H, '#>', 0e1H, 'z', 094H
	DB	'>', 08fH, 0c2H, 0f5H, '>', 00H, 00H, 080H, '?'
CONST	ENDS
;	COMDAT __xmm@3f8000003ed1eb853ed1eb853ed1eb85
CONST	SEGMENT
__xmm@3f8000003ed1eb853ed1eb853ed1eb85 DB 085H, 0ebH, 0d1H, '>', 085H, 0ebH
	DB	0d1H, '>', 085H, 0ebH, 0d1H, '>', 00H, 00H, 080H, '?'
CONST	ENDS
;	COMDAT __xmm@3f8000003eb333333edc28f63f800000
CONST	SEGMENT
__xmm@3f8000003eb333333edc28f63f800000 DB 00H, 00H, 080H, '?', 0f6H, '(', 0dcH
	DB	'>33', 0b3H, '>', 00H, 00H, 080H, '?'
CONST	ENDS
;	COMDAT __xmm@3f8000003e9eb8523e9eb8523e9eb852
CONST	SEGMENT
__xmm@3f8000003e9eb8523e9eb8523e9eb852 DB 'R', 0b8H, 09eH, '>R', 0b8H, 09eH
	DB	'>R', 0b8H, 09eH, '>', 00H, 00H, 080H, '?'
CONST	ENDS
;	COMDAT __xmm@3f8000003e0f5c293e0f5c293e0f5c29
CONST	SEGMENT
__xmm@3f8000003e0f5c293e0f5c293e0f5c29 DB ')\', 0fH, '>)\', 0fH, '>)\', 0fH
	DB	'>', 00H, 00H, 080H, '?'
CONST	ENDS
;	COMDAT __xmm@3f8000003d23d70a3d23d70a3d23d70a
CONST	SEGMENT
__xmm@3f8000003d23d70a3d23d70a3d23d70a DB 0aH, 0d7H, '#=', 0aH, 0d7H, '#='
	DB	0aH, 0d7H, '#=', 00H, 00H, 080H, '?'
CONST	ENDS
;	COMDAT __xmm@3f800000000000003f800000bf800000
CONST	SEGMENT
__xmm@3f800000000000003f800000bf800000 DB 00H, 00H, 080H, 0bfH, 00H, 00H, 080H
	DB	'?', 00H, 00H, 00H, 00H, 00H, 00H, 080H, '?'
CONST	ENDS
;	COMDAT __xmm@3f800000000000003f3333333f666666
CONST	SEGMENT
__xmm@3f800000000000003f3333333f666666 DB 'fff?333?', 00H, 00H, 00H, 00H, 00H
	DB	00H, 080H, '?'
CONST	ENDS
;	COMDAT __xmm@3f800000000000003f19999a3f800000
CONST	SEGMENT
__xmm@3f800000000000003f19999a3f800000 DB 00H, 00H, 080H, '?', 09aH, 099H
	DB	019H, '?', 00H, 00H, 00H, 00H, 00H, 00H, 080H, '?'
CONST	ENDS
;	COMDAT __xmm@3f800000000000003f000000bf000000
CONST	SEGMENT
__xmm@3f800000000000003f000000bf000000 DB 00H, 00H, 00H, 0bfH, 00H, 00H, 00H
	DB	'?', 00H, 00H, 00H, 00H, 00H, 00H, 080H, '?'
CONST	ENDS
;	COMDAT __xmm@3f800000000000000000000040800000
CONST	SEGMENT
__xmm@3f800000000000000000000040800000 DB 00H, 00H, 080H, '@', 00H, 00H, 00H
	DB	00H, 00H, 00H, 00H, 00H, 00H, 00H, 080H, '?'
CONST	ENDS
;	COMDAT __xmm@3f80000000000000000000003f800000
CONST	SEGMENT
__xmm@3f80000000000000000000003f800000 DB 00H, 00H, 080H, '?', 00H, 00H, 00H
	DB	00H, 00H, 00H, 00H, 00H, 00H, 00H, 080H, '?'
CONST	ENDS
;	COMDAT __xmm@3f800000000000000000000000000000
CONST	SEGMENT
__xmm@3f800000000000000000000000000000 DB 00H, 00H, 00H, 00H, 00H, 00H, 00H
	DB	00H, 00H, 00H, 00H, 00H, 00H, 00H, 080H, '?'
CONST	ENDS
;	COMDAT __xmm@3f7333333f7ae1483f170a3d3e851eb8
CONST	SEGMENT
__xmm@3f7333333f7ae1483f170a3d3e851eb8 DB 0b8H, 01eH, 085H, '>=', 0aH, 017H
	DB	'?H', 0e1H, 'z?33s?'
CONST	ENDS
;	COMDAT __xmm@3f70a3d73da3d70a3da3d70a3da3d70a
CONST	SEGMENT
__xmm@3f70a3d73da3d70a3da3d70a3da3d70a DB 0aH, 0d7H, 0a3H, '=', 0aH, 0d7H
	DB	0a3H, '=', 0aH, 0d7H, 0a3H, '=', 0d7H, 0a3H, 'p?'
CONST	ENDS
;	COMDAT __xmm@3f70a3d73d75c28f3d75c28f3d75c28f
CONST	SEGMENT
__xmm@3f70a3d73d75c28f3d75c28f3d75c28f DB 08fH, 0c2H, 'u=', 08fH, 0c2H, 'u'
	DB	'=', 08fH, 0c2H, 'u=', 0d7H, 0a3H, 'p?'
CONST	ENDS
;	COMDAT __xmm@3f666666000000003f8000003f800000
CONST	SEGMENT
__xmm@3f666666000000003f8000003f800000 DB 00H, 00H, 080H, '?', 00H, 00H, 080H
	DB	'?', 00H, 00H, 00H, 00H, 'fff?'
CONST	ENDS
;	COMDAT __xmm@3f4ccccd3f7ae1483f170a3d3e851eb8
CONST	SEGMENT
__xmm@3f4ccccd3f7ae1483f170a3d3e851eb8 DB 0b8H, 01eH, 085H, '>=', 0aH, 017H
	DB	'?H', 0e1H, 'z?', 0cdH, 0ccH, 'L?'
CONST	ENDS
;	COMDAT __xmm@3f47ae143f4000003ecccccd3dcccccd
CONST	SEGMENT
__xmm@3f47ae143f4000003ecccccd3dcccccd DB 0cdH, 0ccH, 0ccH, '=', 0cdH, 0ccH
	DB	0ccH, '>', 00H, 00H, '@?', 014H, 0aeH, 'G?'
CONST	ENDS
;	COMDAT __xmm@3f3333333f8000003f8000003f800000
CONST	SEGMENT
__xmm@3f3333333f8000003f8000003f800000 DB 00H, 00H, 080H, '?', 00H, 00H, 080H
	DB	'?', 00H, 00H, 080H, '?333?'
CONST	ENDS
;	COMDAT __xmm@3f2b851f3f7ae1483f170a3d3e851eb8
CONST	SEGMENT
__xmm@3f2b851f3f7ae1483f170a3d3e851eb8 DB 0b8H, 01eH, 085H, '>=', 0aH, 017H
	DB	'?H', 0e1H, 'z?', 01fH, 085H, '+?'
CONST	ENDS
;	COMDAT __xmm@3f0a3d713ef5c28f3e947ae13e23d70a
CONST	SEGMENT
__xmm@3f0a3d713ef5c28f3e947ae13e23d70a DB 0aH, 0d7H, '#>', 0e1H, 'z', 094H
	DB	'>', 08fH, 0c2H, 0f5H, '>q=', 0aH, '?'
CONST	ENDS
;	COMDAT __xmm@3f07ae143ca3d70a3ca3d70a3ca3d70a
CONST	SEGMENT
__xmm@3f07ae143ca3d70a3ca3d70a3ca3d70a DB 0aH, 0d7H, 0a3H, '<', 0aH, 0d7H
	DB	0a3H, '<', 0aH, 0d7H, 0a3H, '<', 014H, 0aeH, 07H, '?'
CONST	ENDS
;	COMDAT __xmm@3f028f5c000000000000000000000000
CONST	SEGMENT
__xmm@3f028f5c000000000000000000000000 DB 00H, 00H, 00H, 00H, 00H, 00H, 00H
	DB	00H, 00H, 00H, 00H, 00H, '\', 08fH, 02H, '?'
CONST	ENDS
;	COMDAT __xmm@3f000000bf0000003f0000003f000000
CONST	SEGMENT
__xmm@3f000000bf0000003f0000003f000000 DB 00H, 00H, 00H, '?', 00H, 00H, 00H
	DB	'?', 00H, 00H, 00H, 0bfH, 00H, 00H, 00H, '?'
CONST	ENDS
;	COMDAT __xmm@3f0000003f0000003edc28f63edc28f6
CONST	SEGMENT
__xmm@3f0000003f0000003edc28f63edc28f6 DB 0f6H, '(', 0dcH, '>', 0f6H, '(', 0dcH
	DB	'>', 00H, 00H, 00H, '?', 00H, 00H, 00H, '?'
CONST	ENDS
;	COMDAT __xmm@3ecccccd3f7ae1483f170a3d3e851eb8
CONST	SEGMENT
__xmm@3ecccccd3f7ae1483f170a3d3e851eb8 DB 0b8H, 01eH, 085H, '>=', 0aH, 017H
	DB	'?H', 0e1H, 'z?', 0cdH, 0ccH, 0ccH, '>'
CONST	ENDS
;	COMDAT __xmm@3eb333333f7ae1483f170a3d3e851eb8
CONST	SEGMENT
__xmm@3eb333333f7ae1483f170a3d3e851eb8 DB 0b8H, 01eH, 085H, '>=', 0aH, 017H
	DB	'?H', 0e1H, 'z?33', 0b3H, '>'
CONST	ENDS
;	COMDAT __xmm@3eb333333f4ccccd3f4ccccd3f4ccccd
CONST	SEGMENT
__xmm@3eb333333f4ccccd3f4ccccd3f4ccccd DB 0cdH, 0ccH, 'L?', 0cdH, 0ccH, 'L'
	DB	'?', 0cdH, 0ccH, 'L?33', 0b3H, '>'
CONST	ENDS
;	COMDAT __xmm@3e9eb8523f7ae1483f170a3d3e851eb8
CONST	SEGMENT
__xmm@3e9eb8523f7ae1483f170a3d3e851eb8 DB 0b8H, 01eH, 085H, '>=', 0aH, 017H
	DB	'?H', 0e1H, 'z?R', 0b8H, 09eH, '>'
CONST	ENDS
;	COMDAT __xmm@3e8000003f7ae1483f170a3d3e851eb8
CONST	SEGMENT
__xmm@3e8000003f7ae1483f170a3d3e851eb8 DB 0b8H, 01eH, 085H, '>=', 0aH, 017H
	DB	'?H', 0e1H, 'z?', 00H, 00H, 080H, '>'
CONST	ENDS
;	COMDAT __xmm@3b8080813b8080813b8080813b808081
CONST	SEGMENT
__xmm@3b8080813b8080813b8080813b808081 DB 081H, 080H, 080H, ';', 081H, 080H
	DB	080H, ';', 081H, 080H, 080H, ';', 081H, 080H, 080H, ';'
CONST	ENDS
;	COMDAT __xmm@1c5a1c5a1c5a1c5a1c5a1c5a1c5a1c5a
CONST	SEGMENT
__xmm@1c5a1c5a1c5a1c5a1c5a1c5a1c5a1c5a DB 'Z', 01cH, 'Z', 01cH, 'Z', 01cH
	DB	'Z', 01cH, 'Z', 01cH, 'Z', 01cH, 'Z', 01cH, 'Z', 01cH
CONST	ENDS
;	COMDAT __xmm@166f166f166f166f166f166f166f166f
CONST	SEGMENT
__xmm@166f166f166f166f166f166f166f166f DB 'o', 016H, 'o', 016H, 'o', 016H
	DB	'o', 016H, 'o', 016H, 'o', 016H, 'o', 016H, 'o', 016H
CONST	ENDS
;	COMDAT __xmm@12d0046b12d0046b12d0046b12d0046b
CONST	SEGMENT
__xmm@12d0046b12d0046b12d0046b12d0046b DB 'k', 04H, 0d0H, 012H, 'k', 04H, 0d0H
	DB	012H, 'k', 04H, 0d0H, 012H, 'k', 04H, 0d0H, 012H
CONST	ENDS
;	COMDAT __xmm@11c8f9c311c8f9c311c8f9c311c8f9c3
CONST	SEGMENT
__xmm@11c8f9c311c8f9c311c8f9c311c8f9c3 DB 0c3H, 0f9H, 0c8H, 011H, 0c3H, 0f9H
	DB	0c8H, 011H, 0c3H, 0f9H, 0c8H, 011H, 0c3H, 0f9H, 0c8H, 011H
CONST	ENDS
;	COMDAT __xmm@11c8e09e11c8e09e11c8e09e11c8e09e
CONST	SEGMENT
__xmm@11c8e09e11c8e09e11c8e09e11c8e09e DB 09eH, 0e0H, 0c8H, 011H, 09eH, 0e0H
	DB	0c8H, 011H, 09eH, 0e0H, 0c8H, 011H, 09eH, 0e0H, 0c8H, 011H
CONST	ENDS
;	COMDAT __xmm@08a914e808a914e808a914e808a914e8
CONST	SEGMENT
__xmm@08a914e808a914e808a914e808a914e8 DB 0e8H, 014H, 0a9H, 08H, 0e8H, 014H
	DB	0a9H, 08H, 0e8H, 014H, 0a9H, 08H, 0e8H, 014H, 0a9H, 08H
CONST	ENDS
;	COMDAT __xmm@01010000010100000101000001010000
CONST	SEGMENT
__xmm@01010000010100000101000001010000 DB 00H, 00H, 01H, 01H, 00H, 00H, 01H
	DB	01H, 00H, 00H, 01H, 01H, 00H, 00H, 01H, 01H
CONST	ENDS
;	COMDAT __xmm@00ff00ff00ff00ff00ff00ff00ff00ff
CONST	SEGMENT
__xmm@00ff00ff00ff00ff00ff00ff00ff00ff DB 0ffH, 00H, 0ffH, 00H, 0ffH, 00H
	DB	0ffH, 00H, 0ffH, 00H, 0ffH, 00H, 0ffH, 00H, 0ffH, 00H
CONST	ENDS
;	COMDAT __xmm@00080008000800080008000800080008
CONST	SEGMENT
__xmm@00080008000800080008000800080008 DB 08H, 00H, 08H, 00H, 08H, 00H, 08H
	DB	00H, 08H, 00H, 08H, 00H, 08H, 00H, 08H, 00H
CONST	ENDS
;	COMDAT __xmm@00000200000002000000020000000200
CONST	SEGMENT
__xmm@00000200000002000000020000000200 DB 00H, 02H, 00H, 00H, 00H, 02H, 00H
	DB	00H, 00H, 02H, 00H, 00H, 00H, 02H, 00H, 00H
CONST	ENDS
;	COMDAT __xmm@00000004000000080000000800000008
CONST	SEGMENT
__xmm@00000004000000080000000800000008 DB 08H, 00H, 00H, 00H, 08H, 00H, 00H
	DB	00H, 08H, 00H, 00H, 00H, 04H, 00H, 00H, 00H
CONST	ENDS
;	COMDAT __xmm@00000004000000040000000800000008
CONST	SEGMENT
__xmm@00000004000000040000000800000008 DB 08H, 00H, 00H, 00H, 08H, 00H, 00H
	DB	00H, 04H, 00H, 00H, 00H, 04H, 00H, 00H, 00H
CONST	ENDS
;	COMDAT __xmm@00000003000000030000000300000003
CONST	SEGMENT
__xmm@00000003000000030000000300000003 DB 03H, 00H, 00H, 00H, 03H, 00H, 00H
	DB	00H, 03H, 00H, 00H, 00H, 03H, 00H, 00H, 00H
CONST	ENDS
;	COMDAT __xmm@00000003000000020000000100000000
CONST	SEGMENT
__xmm@00000003000000020000000100000000 DB 00H, 00H, 00H, 00H, 01H, 00H, 00H
	DB	00H, 02H, 00H, 00H, 00H, 03H, 00H, 00H, 00H
CONST	ENDS
;	COMDAT __xmm@00000002000000020000000200000002
CONST	SEGMENT
__xmm@00000002000000020000000200000002 DB 02H, 00H, 00H, 00H, 02H, 00H, 00H
	DB	00H, 02H, 00H, 00H, 00H, 02H, 00H, 00H, 00H
CONST	ENDS
;	COMDAT __xmm@00000002000000000000000400000000
CONST	SEGMENT
__xmm@00000002000000000000000400000000 DB 00H, 00H, 00H, 00H, 04H, 00H, 00H
	DB	00H, 00H, 00H, 00H, 00H, 02H, 00H, 00H, 00H
CONST	ENDS
;	COMDAT __xmm@00000001000000010000000100000001
CONST	SEGMENT
__xmm@00000001000000010000000100000001 DB 01H, 00H, 00H, 00H, 01H, 00H, 00H
	DB	00H, 01H, 00H, 00H, 00H, 01H, 00H, 00H, 00H
CONST	ENDS
;	COMDAT __xmm@00000000c08000004080000000000000
CONST	SEGMENT
__xmm@00000000c08000004080000000000000 DB 00H, 00H, 00H, 00H, 00H, 00H, 080H
	DB	'@', 00H, 00H, 080H, 0c0H, 00H, 00H, 00H, 00H
CONST	ENDS
;	COMDAT __xmm@00000000bf8000000000000000000000
CONST	SEGMENT
__xmm@00000000bf8000000000000000000000 DB 00H, 00H, 00H, 00H, 00H, 00H, 00H
	DB	00H, 00H, 00H, 080H, 0bfH, 00H, 00H, 00H, 00H
CONST	ENDS
;	COMDAT __xmm@000000003f800000bf0000003f000000
CONST	SEGMENT
__xmm@000000003f800000bf0000003f000000 DB 00H, 00H, 00H, '?', 00H, 00H, 00H
	DB	0bfH, 00H, 00H, 080H, '?', 00H, 00H, 00H, 00H
CONST	ENDS
;	COMDAT __xmm@000000003f8000003f8000003f800000
CONST	SEGMENT
__xmm@000000003f8000003f8000003f800000 DB 00H, 00H, 080H, '?', 00H, 00H, 080H
	DB	'?', 00H, 00H, 080H, '?', 00H, 00H, 00H, 00H
CONST	ENDS
;	COMDAT __xmm@000000003f8000000000000000000000
CONST	SEGMENT
__xmm@000000003f8000000000000000000000 DB 00H, 00H, 00H, 00H, 00H, 00H, 00H
	DB	00H, 00H, 00H, 080H, '?', 00H, 00H, 00H, 00H
CONST	ENDS
;	COMDAT __xmm@000000000000000f0000000000000000
CONST	SEGMENT
__xmm@000000000000000f0000000000000000 DB 00H, 00H, 00H, 00H, 00H, 00H, 00H
	DB	00H, 0fH, 00H, 00H, 00H, 00H, 00H, 00H, 00H
CONST	ENDS
;	COMDAT __xmm@00000000000000040000000000000000
CONST	SEGMENT
__xmm@00000000000000040000000000000000 DB 00H, 00H, 00H, 00H, 00H, 00H, 00H
	DB	00H, 04H, 00H, 00H, 00H, 00H, 00H, 00H, 00H
CONST	ENDS
;	COMDAT __xmm@00000000000000020000000300000001
CONST	SEGMENT
__xmm@00000000000000020000000300000001 DB 01H, 00H, 00H, 00H, 03H, 00H, 00H
	DB	00H, 02H, 00H, 00H, 00H, 00H, 00H, 00H, 00H
CONST	ENDS
;	COMDAT __xmm@0000000000000000c0800000c0800000
CONST	SEGMENT
__xmm@0000000000000000c0800000c0800000 DB 00H, 00H, 080H, 0c0H, 00H, 00H, 080H
	DB	0c0H, 00H, 00H, 00H, 00H, 00H, 00H, 00H, 00H
CONST	ENDS
;	COMDAT __xmm@0000000000000000bf000000bf000000
CONST	SEGMENT
__xmm@0000000000000000bf000000bf000000 DB 00H, 00H, 00H, 0bfH, 00H, 00H, 00H
	DB	0bfH, 00H, 00H, 00H, 00H, 00H, 00H, 00H, 00H
CONST	ENDS
;	COMDAT __xmm@00000000000000003f80000000000000
CONST	SEGMENT
__xmm@00000000000000003f80000000000000 DB 00H, 00H, 00H, 00H, 00H, 00H, 080H
	DB	'?', 00H, 00H, 00H, 00H, 00H, 00H, 00H, 00H
CONST	ENDS
;	COMDAT __xmm@0000000000000000000000003f800000
CONST	SEGMENT
__xmm@0000000000000000000000003f800000 DB 00H, 00H, 080H, '?', 00H, 00H, 00H
	DB	00H, 00H, 00H, 00H, 00H, 00H, 00H, 00H, 00H
CONST	ENDS
;	COMDAT __real@ff7fffff
CONST	SEGMENT
__real@ff7fffff DD 0ff7fffffr			; -3.40282e+38
CONST	ENDS
;	COMDAT __real@c87a0000
CONST	SEGMENT
__real@c87a0000 DD 0c87a0000r			; -256000
CONST	ENDS
;	COMDAT __real@c47a0000
CONST	SEGMENT
__real@c47a0000 DD 0c47a0000r			; -1000
CONST	ENDS
;	COMDAT __real@c1800000
CONST	SEGMENT
__real@c1800000 DD 0c1800000r			; -16
CONST	ENDS
;	COMDAT __real@c1100000
CONST	SEGMENT
__real@c1100000 DD 0c1100000r			; -9
CONST	ENDS
;	COMDAT __real@c1000000
CONST	SEGMENT
__real@c1000000 DD 0c1000000r			; -8
CONST	ENDS
;	COMDAT __real@c0c90fdb
CONST	SEGMENT
__real@c0c90fdb DD 0c0c90fdbr			; -6.28319
CONST	ENDS
;	COMDAT __real@c0900000
CONST	SEGMENT
__real@c0900000 DD 0c0900000r			; -4.5
CONST	ENDS
;	COMDAT __real@c0600000
CONST	SEGMENT
__real@c0600000 DD 0c0600000r			; -3.5
CONST	ENDS
;	COMDAT __real@c000c152382d7365
CONST	SEGMENT
__real@c000c152382d7365 DQ 0c000c152382d7365r	; -2.0944
CONST	ENDS
;	COMDAT __real@c0000000
CONST	SEGMENT
__real@c0000000 DD 0c0000000r			; -2
CONST	ENDS
;	COMDAT __real@bfd55556
CONST	SEGMENT
__real@bfd55556 DD 0bfd55556r			; -1.66667
CONST	ENDS
;	COMDAT __real@bf800000
CONST	SEGMENT
__real@bf800000 DD 0bf800000r			; -1
CONST	ENDS
;	COMDAT __real@bf5db3d0
CONST	SEGMENT
__real@bf5db3d0 DD 0bf5db3d0r			; -0.866025
CONST	ENDS
;	COMDAT __real@bf5db22d
CONST	SEGMENT
__real@bf5db22d DD 0bf5db22dr			; -0.866
CONST	ENDS
;	COMDAT __real@bf400000
CONST	SEGMENT
__real@bf400000 DD 0bf400000r			; -0.75
CONST	ENDS
;	COMDAT __real@bf000000
CONST	SEGMENT
__real@bf000000 DD 0bf000000r			; -0.5
CONST	ENDS
;	COMDAT __real@becccccd
CONST	SEGMENT
__real@becccccd DD 0becccccdr			; -0.4
CONST	ENDS
;	COMDAT __real@beaaaaab
CONST	SEGMENT
__real@beaaaaab DD 0beaaaaabr			; -0.333333
CONST	ENDS
;	COMDAT __real@be99999a
CONST	SEGMENT
__real@be99999a DD 0be99999ar			; -0.3
CONST	ENDS
;	COMDAT __real@7f7fffff
CONST	SEGMENT
__real@7f7fffff DD 07f7fffffr			; 3.40282e+38
CONST	ENDS
;	COMDAT __real@5f800000
CONST	SEGMENT
__real@5f800000 DD 05f800000r			; 1.84467e+19
CONST	ENDS
;	COMDAT __real@477fff00
CONST	SEGMENT
__real@477fff00 DD 0477fff00r			; 65535
CONST	ENDS
;	COMDAT __real@461c3c00
CONST	SEGMENT
__real@461c3c00 DD 0461c3c00r			; 9999
CONST	ENDS
;	COMDAT __real@44800000
CONST	SEGMENT
__real@44800000 DD 044800000r			; 1024
CONST	ENDS
;	COMDAT __real@447a0000
CONST	SEGMENT
__real@447a0000 DD 0447a0000r			; 1000
CONST	ENDS
;	COMDAT __real@44480000
CONST	SEGMENT
__real@44480000 DD 044480000r			; 800
CONST	ENDS
;	COMDAT __real@44160000
CONST	SEGMENT
__real@44160000 DD 044160000r			; 600
CONST	ENDS
;	COMDAT __real@44100000
CONST	SEGMENT
__real@44100000 DD 044100000r			; 576
CONST	ENDS
;	COMDAT __real@44000000
CONST	SEGMENT
__real@44000000 DD 044000000r			; 512
CONST	ENDS
;	COMDAT __real@43900000
CONST	SEGMENT
__real@43900000 DD 043900000r			; 288
CONST	ENDS
;	COMDAT __real@437f0000
CONST	SEGMENT
__real@437f0000 DD 0437f0000r			; 255
CONST	ENDS
;	COMDAT __real@434c0000
CONST	SEGMENT
__real@434c0000 DD 0434c0000r			; 204
CONST	ENDS
;	COMDAT __real@43000000
CONST	SEGMENT
__real@43000000 DD 043000000r			; 128
CONST	ENDS
;	COMDAT __real@42f00000
CONST	SEGMENT
__real@42f00000 DD 042f00000r			; 120
CONST	ENDS
;	COMDAT __real@42c80000
CONST	SEGMENT
__real@42c80000 DD 042c80000r			; 100
CONST	ENDS
;	COMDAT __real@42b60000
CONST	SEGMENT
__real@42b60000 DD 042b60000r			; 91
CONST	ENDS
;	COMDAT __real@41c80000
CONST	SEGMENT
__real@41c80000 DD 041c80000r			; 25
CONST	ENDS
;	COMDAT __real@41c00000
CONST	SEGMENT
__real@41c00000 DD 041c00000r			; 24
CONST	ENDS
;	COMDAT __real@41a00000
CONST	SEGMENT
__real@41a00000 DD 041a00000r			; 20
CONST	ENDS
;	COMDAT __real@41800000
CONST	SEGMENT
__real@41800000 DD 041800000r			; 16
CONST	ENDS
;	COMDAT __real@41500000
CONST	SEGMENT
__real@41500000 DD 041500000r			; 13
CONST	ENDS
;	COMDAT __real@41400000
CONST	SEGMENT
__real@41400000 DD 041400000r			; 12
CONST	ENDS
;	COMDAT __real@41200000
CONST	SEGMENT
__real@41200000 DD 041200000r			; 10
CONST	ENDS
;	COMDAT __real@41100000
CONST	SEGMENT
__real@41100000 DD 041100000r			; 9
CONST	ENDS
;	COMDAT __real@41000000
CONST	SEGMENT
__real@41000000 DD 041000000r			; 8
CONST	ENDS
;	COMDAT __real@40c90fdb
CONST	SEGMENT
__real@40c90fdb DD 040c90fdbr			; 6.28319
CONST	ENDS
;	COMDAT __real@40c90fda
CONST	SEGMENT
__real@40c90fda DD 040c90fdar			; 6.28319
CONST	ENDS
;	COMDAT __real@40c00000
CONST	SEGMENT
__real@40c00000 DD 040c00000r			; 6
CONST	ENDS
;	COMDAT __real@40b84e89
CONST	SEGMENT
__real@40b84e89 DD 040b84e89r			; 5.75959
CONST	ENDS
;	COMDAT __real@40a00000
CONST	SEGMENT
__real@40a00000 DD 040a00000r			; 5
CONST	ENDS
;	COMDAT __real@40900000
CONST	SEGMENT
__real@40900000 DD 040900000r			; 4.5
CONST	ENDS
;	COMDAT __real@40800000
CONST	SEGMENT
__real@40800000 DD 040800000r			; 4
CONST	ENDS
;	COMDAT __real@40600000
CONST	SEGMENT
__real@40600000 DD 040600000r			; 3.5
CONST	ENDS
;	COMDAT __real@40400000
CONST	SEGMENT
__real@40400000 DD 040400000r			; 3
CONST	ENDS
;	COMDAT __real@40200000
CONST	SEGMENT
__real@40200000 DD 040200000r			; 2.5
CONST	ENDS
;	COMDAT __real@40000000
CONST	SEGMENT
__real@40000000 DD 040000000r			; 2
CONST	ENDS
;	COMDAT __real@3ffeb852
CONST	SEGMENT
__real@3ffeb852 DD 03ffeb852r			; 1.99
CONST	ENDS
;	COMDAT __real@3ff0000000000000
CONST	SEGMENT
__real@3ff0000000000000 DQ 03ff0000000000000r	; 1
CONST	ENDS
;	COMDAT __real@3fd55556
CONST	SEGMENT
__real@3fd55556 DD 03fd55556r			; 1.66667
CONST	ENDS
;	COMDAT __real@3fc00000
CONST	SEGMENT
__real@3fc00000 DD 03fc00000r			; 1.5
CONST	ENDS
;	COMDAT __real@3faccccd
CONST	SEGMENT
__real@3faccccd DD 03faccccdr			; 1.35
CONST	ENDS
;	COMDAT __real@3fab851f
CONST	SEGMENT
__real@3fab851f DD 03fab851fr			; 1.34
CONST	ENDS
;	COMDAT __real@3f99999a
CONST	SEGMENT
__real@3f99999a DD 03f99999ar			; 1.2
CONST	ENDS
;	COMDAT __real@3f91df46a2529d39
CONST	SEGMENT
__real@3f91df46a2529d39 DQ 03f91df46a2529d39r	; 0.0174533
CONST	ENDS
;	COMDAT __real@3f860a92
CONST	SEGMENT
__real@3f860a92 DD 03f860a92r			; 1.0472
CONST	ENDS
;	COMDAT __real@3f8147ae
CONST	SEGMENT
__real@3f8147ae DD 03f8147aer			; 1.01
CONST	ENDS
;	COMDAT __real@3f800000
CONST	SEGMENT
__real@3f800000 DD 03f800000r			; 1
CONST	ENDS
;	COMDAT __real@3f733333
CONST	SEGMENT
__real@3f733333 DD 03f733333r			; 0.95
CONST	ENDS
;	COMDAT __real@3f5db3d0
CONST	SEGMENT
__real@3f5db3d0 DD 03f5db3d0r			; 0.866025
CONST	ENDS
;	COMDAT __real@3f5db22d
CONST	SEGMENT
__real@3f5db22d DD 03f5db22dr			; 0.866
CONST	ENDS
;	COMDAT __real@3f4ccccd
CONST	SEGMENT
__real@3f4ccccd DD 03f4ccccdr			; 0.8
CONST	ENDS
;	COMDAT __real@3f400000
CONST	SEGMENT
__real@3f400000 DD 03f400000r			; 0.75
CONST	ENDS
;	COMDAT __real@3f36db6e
CONST	SEGMENT
__real@3f36db6e DD 03f36db6er			; 0.714286
CONST	ENDS
;	COMDAT __real@3f350481
CONST	SEGMENT
__real@3f350481 DD 03f350481r			; 0.7071
CONST	ENDS
;	COMDAT __real@3f333333
CONST	SEGMENT
__real@3f333333 DD 03f333333r			; 0.7
CONST	ENDS
;	COMDAT __real@3f2b851f
CONST	SEGMENT
__real@3f2b851f DD 03f2b851fr			; 0.67
CONST	ENDS
;	COMDAT __real@3f266666
CONST	SEGMENT
__real@3f266666 DD 03f266666r			; 0.65
CONST	ENDS
;	COMDAT __real@3f19999a
CONST	SEGMENT
__real@3f19999a DD 03f19999ar			; 0.6
CONST	ENDS
;	COMDAT __real@3f0ccccd
CONST	SEGMENT
__real@3f0ccccd DD 03f0ccccdr			; 0.55
CONST	ENDS
;	COMDAT __real@3f060a92
CONST	SEGMENT
__real@3f060a92 DD 03f060a92r			; 0.523599
CONST	ENDS
;	COMDAT __real@3f000000
CONST	SEGMENT
__real@3f000000 DD 03f000000r			; 0.5
CONST	ENDS
;	COMDAT __real@3efae148
CONST	SEGMENT
__real@3efae148 DD 03efae148r			; 0.49
CONST	ENDS
;	COMDAT __real@3ee8ba2e
CONST	SEGMENT
__real@3ee8ba2e DD 03ee8ba2er			; 0.454545
CONST	ENDS
;	COMDAT __real@3ecccccd
CONST	SEGMENT
__real@3ecccccd DD 03ecccccdr			; 0.4
CONST	ENDS
;	COMDAT __real@3eb33333
CONST	SEGMENT
__real@3eb33333 DD 03eb33333r			; 0.35
CONST	ENDS
;	COMDAT __real@3eab3cca
CONST	SEGMENT
__real@3eab3cca DD 03eab3ccar			; 0.334448
CONST	ENDS
;	COMDAT __real@3eaaaaab
CONST	SEGMENT
__real@3eaaaaab DD 03eaaaaabr			; 0.333333
CONST	ENDS
;	COMDAT __real@3e99999a
CONST	SEGMENT
__real@3e99999a DD 03e99999ar			; 0.3
CONST	ENDS
;	COMDAT __real@3e800000
CONST	SEGMENT
__real@3e800000 DD 03e800000r			; 0.25
CONST	ENDS
;	COMDAT __real@3e4ccccd
CONST	SEGMENT
__real@3e4ccccd DD 03e4ccccdr			; 0.2
CONST	ENDS
;	COMDAT __real@3e2aaaab
CONST	SEGMENT
__real@3e2aaaab DD 03e2aaaabr			; 0.166667
CONST	ENDS
;	COMDAT __real@3e22f983
CONST	SEGMENT
__real@3e22f983 DD 03e22f983r			; 0.159155
CONST	ENDS
;	COMDAT __real@3e19999a
CONST	SEGMENT
__real@3e19999a DD 03e19999ar			; 0.15
CONST	ENDS
;	COMDAT __real@3dcccccd
CONST	SEGMENT
__real@3dcccccd DD 03dcccccdr			; 0.1
CONST	ENDS
;	COMDAT __real@3da3d70a
CONST	SEGMENT
__real@3da3d70a DD 03da3d70ar			; 0.08
CONST	ENDS
;	COMDAT __real@3d638e39
CONST	SEGMENT
__real@3d638e39 DD 03d638e39r			; 0.0555556
CONST	ENDS
;	COMDAT __real@3d4ccccd
CONST	SEGMENT
__real@3d4ccccd DD 03d4ccccdr			; 0.05
CONST	ENDS
;	COMDAT __real@3d000000
CONST	SEGMENT
__real@3d000000 DD 03d000000r			; 0.03125
CONST	ENDS
;	COMDAT __real@3cdd2f1b
CONST	SEGMENT
__real@3cdd2f1b DD 03cdd2f1br			; 0.027
CONST	ENDS
;	COMDAT __real@3c888889
CONST	SEGMENT
__real@3c888889 DD 03c888889r			; 0.0166667
CONST	ENDS
;	COMDAT __real@3c23d70a
CONST	SEGMENT
__real@3c23d70a DD 03c23d70ar			; 0.01
CONST	ENDS
;	COMDAT __real@3b808081
CONST	SEGMENT
__real@3b808081 DD 03b808081r			; 0.00392157
CONST	ENDS
;	COMDAT __real@3a83126f
CONST	SEGMENT
__real@3a83126f DD 03a83126fr			; 0.001
CONST	ENDS
;	COMDAT __real@38d1b717
CONST	SEGMENT
__real@38d1b717 DD 038d1b717r			; 0.0001
CONST	ENDS
;	COMDAT __real@38800000
CONST	SEGMENT
__real@38800000 DD 038800000r			; 6.10352e-05
CONST	ENDS
;	COMDAT __real@37800000
CONST	SEGMENT
__real@37800000 DD 037800000r			; 1.52588e-05
CONST	ENDS
;	COMDAT __real@3727c5ac
CONST	SEGMENT
__real@3727c5ac DD 03727c5acr			; 1e-05
CONST	ENDS
;	COMDAT __real@358637bd
CONST	SEGMENT
__real@358637bd DD 0358637bdr			; 1e-06
CONST	ENDS
;	COMDAT __real@1e3ce508
CONST	SEGMENT
__real@1e3ce508 DD 01e3ce508r			; 1e-20
CONST	ENDS
;	COMDAT xdata
xdata	SEGMENT
$unwind$?_Adjust_manually_vector_aligned@std@@YAXAEAPEAXAEA_K@Z DD 010401H
	DD	04204H
xdata	ENDS
;	COMDAT xdata
xdata	SEGMENT
$unwind$main$dtor$1 DD 020601H
	DD	050023206H
xdata	ENDS
;	COMDAT xdata
xdata	SEGMENT
$unwind$main$dtor$2 DD 020601H
	DD	050023206H
xdata	ENDS
;	COMDAT xdata
xdata	SEGMENT
$ip2state$main DD imagerel main+102
	DD	0ffffffffH
	DD	imagerel main+153
	DD	01H
	DD	imagerel main+738
	DD	00H
	DD	imagerel main+773
	DD	02H
	DD	imagerel main+829
	DD	03H
	DD	imagerel main+851
	DD	04H
	DD	imagerel main+878
	DD	00H
	DD	imagerel main+926
	DD	05H
	DD	imagerel main+948
	DD	04H
	DD	imagerel main+975
	DD	00H
	DD	imagerel main+1023
	DD	06H
	DD	imagerel main+1045
	DD	04H
	DD	imagerel main+1072
	DD	00H
	DD	imagerel main+1120
	DD	07H
	DD	imagerel main+1142
	DD	04H
	DD	imagerel main+1169
	DD	00H
	DD	imagerel main+1217
	DD	08H
	DD	imagerel main+1239
	DD	04H
	DD	imagerel main+1266
	DD	00H
	DD	imagerel main+1314
	DD	09H
	DD	imagerel main+1336
	DD	04H
	DD	imagerel main+1363
	DD	00H
	DD	imagerel main+1411
	DD	0aH
	DD	imagerel main+1433
	DD	04H
	DD	imagerel main+1460
	DD	00H
	DD	imagerel main+1508
	DD	0bH
	DD	imagerel main+1530
	DD	04H
	DD	imagerel main+1557
	DD	00H
	DD	imagerel main+1605
	DD	0cH
	DD	imagerel main+1627
	DD	04H
	DD	imagerel main+1654
	DD	00H
	DD	imagerel main+2655
	DD	0ffffffffH
xdata	ENDS
;	COMDAT xdata
xdata	SEGMENT
$stateUnwindMap$main DD 0ffffffffH
	DD	imagerel main$dtor$0
	DD	00H
	DD	imagerel main$dtor$2
	DD	00H
	DD	imagerel main$dtor$1
	DD	00H
	DD	imagerel main$dtor$3
	DD	00H
	DD	imagerel __std_terminate
	DD	00H
	DD	imagerel main$dtor$7
	DD	00H
	DD	imagerel main$dtor$11
	DD	00H
	DD	imagerel main$dtor$15
	DD	00H
	DD	imagerel main$dtor$19
	DD	00H
	DD	imagerel main$dtor$23
	DD	00H
	DD	imagerel main$dtor$27
	DD	00H
	DD	imagerel main$dtor$31
	DD	00H
	DD	imagerel main$dtor$35
xdata	ENDS
;	COMDAT CONST
CONST	SEGMENT
$cppxdata$main DQ 00000000d19930522r		; 2.77979e-313
	DD	imagerel $stateUnwindMap$main
	DQ	00000000000000000r		; 0
	DD	020H
	DD	imagerel $ip2state$main
	DQ	000000000000000a8r		; 8.3003e-322
	DD	01H
CONST	ENDS
;	COMDAT xdata
xdata	SEGMENT
$unwind$main DD	0b3b19H
	DD	052682aH
	DD	0aa7426H
	DD	0a96422H
	DD	0a8341eH
	DD	0a60112H
	DD	05004H
	DD	imagerel __GSHandlerCheck_EH
	DD	imagerel $cppxdata$main
	DD	0512H
xdata	ENDS
;	COMDAT xdata
xdata	SEGMENT
$ip2state$??$RegisterScene@VTestScene@Scene@Application@@@MainMenuScene@Scene@Application@@QEAAXPEBD@Z DD imagerel ??$RegisterScene@VTestScene@Scene@Application@@@MainMenuScene@Scene@Application@@QEAAXPEBD@Z+71
	DD	00H
	DD	imagerel ??$RegisterScene@VTestScene@Scene@Application@@@MainMenuScene@Scene@Application@@QEAAXPEBD@Z+92
	DD	01H
	DD	imagerel ??$RegisterScene@VTestScene@Scene@Application@@@MainMenuScene@Scene@Application@@QEAAXPEBD@Z+120
	DD	0ffffffffH
xdata	ENDS
;	COMDAT xdata
xdata	SEGMENT
$stateUnwindMap$??$RegisterScene@VTestScene@Scene@Application@@@MainMenuScene@Scene@Application@@QEAAXPEBD@Z DD 0ffffffffH
	DD	imagerel ?dtor$0@?0???$RegisterScene@VTestScene@Scene@Application@@@MainMenuScene@Scene@Application@@QEAAXPEBD@Z@4HA
	DD	0ffffffffH
	DD	imagerel __std_terminate
xdata	ENDS
;	COMDAT CONST
CONST	SEGMENT
$cppxdata$??$RegisterScene@VTestScene@Scene@Application@@@MainMenuScene@Scene@Application@@QEAAXPEBD@Z DQ 00000000219930522r ; 4.45598e-314
	DD	imagerel $stateUnwindMap$??$RegisterScene@VTestScene@Scene@Application@@@MainMenuScene@Scene@Application@@QEAAXPEBD@Z
	DQ	00000000000000000r		; 0
	DD	03H
	DD	imagerel $ip2state$??$RegisterScene@VTestScene@Scene@Application@@@MainMenuScene@Scene@Application@@QEAAXPEBD@Z
	DQ	00000000000000020r		; 1.58101e-322
	DD	01H
CONST	ENDS
;	COMDAT xdata
xdata	SEGMENT
$unwind$??$RegisterScene@VTestScene@Scene@Application@@@MainMenuScene@Scene@Application@@QEAAXPEBD@Z DD 021211H
	DD	03002f209H
	DD	imagerel __CxxFrameHandler3
	DD	imagerel $cppxdata$??$RegisterScene@VTestScene@Scene@Application@@@MainMenuScene@Scene@Application@@QEAAXPEBD@Z
xdata	ENDS
;	COMDAT xdata
xdata	SEGMENT
$unwind$??R<lambda_411dc79f4b3a863ac6e5ae55809472f9>@@QEBAPEAVTestScene@Scene@Application@@XZ DD 010401H
	DD	04204H
xdata	ENDS
;	COMDAT xdata
xdata	SEGMENT
$ip2state$??$RegisterScene@VBuffersTestScene@Scene@Application@@@MainMenuScene@Scene@Application@@QEAAXPEBD@Z DD imagerel ??$RegisterScene@VBuffersTestScene@Scene@Application@@@MainMenuScene@Scene@Application@@QEAAXPEBD@Z+71
	DD	00H
	DD	imagerel ??$RegisterScene@VBuffersTestScene@Scene@Application@@@MainMenuScene@Scene@Application@@QEAAXPEBD@Z+92
	DD	01H
	DD	imagerel ??$RegisterScene@VBuffersTestScene@Scene@Application@@@MainMenuScene@Scene@Application@@QEAAXPEBD@Z+120
	DD	0ffffffffH
xdata	ENDS
;	COMDAT xdata
xdata	SEGMENT
$stateUnwindMap$??$RegisterScene@VBuffersTestScene@Scene@Application@@@MainMenuScene@Scene@Application@@QEAAXPEBD@Z DD 0ffffffffH
	DD	imagerel ?dtor$0@?0???$RegisterScene@VBuffersTestScene@Scene@Application@@@MainMenuScene@Scene@Application@@QEAAXPEBD@Z@4HA
	DD	0ffffffffH
	DD	imagerel __std_terminate
xdata	ENDS
;	COMDAT CONST
CONST	SEGMENT
$cppxdata$??$RegisterScene@VBuffersTestScene@Scene@Application@@@MainMenuScene@Scene@Application@@QEAAXPEBD@Z DQ 00000000219930522r ; 4.45598e-314
	DD	imagerel $stateUnwindMap$??$RegisterScene@VBuffersTestScene@Scene@Application@@@MainMenuScene@Scene@Application@@QEAAXPEBD@Z
	DQ	00000000000000000r		; 0
	DD	03H
	DD	imagerel $ip2state$??$RegisterScene@VBuffersTestScene@Scene@Application@@@MainMenuScene@Scene@Application@@QEAAXPEBD@Z
	DQ	00000000000000020r		; 1.58101e-322
	DD	01H
CONST	ENDS
;	COMDAT xdata
xdata	SEGMENT
$unwind$??$RegisterScene@VBuffersTestScene@Scene@Application@@@MainMenuScene@Scene@Application@@QEAAXPEBD@Z DD 021211H
	DD	03002f209H
	DD	imagerel __CxxFrameHandler3
	DD	imagerel $cppxdata$??$RegisterScene@VBuffersTestScene@Scene@Application@@@MainMenuScene@Scene@Application@@QEAAXPEBD@Z
xdata	ENDS
;	COMDAT xdata
xdata	SEGMENT
$unwind$?dtor$0@?0???R<lambda_d0f437802599b72fdddcf24900d600a3>@@QEBAPEAVBuffersTestScene@Scene@Application@@XZ@4HA DD 020601H
	DD	050023206H
xdata	ENDS
;	COMDAT xdata
xdata	SEGMENT
$ip2state$??R<lambda_d0f437802599b72fdddcf24900d600a3>@@QEBAPEAVBuffersTestScene@Scene@Application@@XZ DD imagerel ??R<lambda_d0f437802599b72fdddcf24900d600a3>@@QEBAPEAVBuffersTestScene@Scene@Application@@XZ+23
	DD	0ffffffffH
	DD	imagerel ??R<lambda_d0f437802599b72fdddcf24900d600a3>@@QEBAPEAVBuffersTestScene@Scene@Application@@XZ+61
	DD	00H
xdata	ENDS
;	COMDAT xdata
xdata	SEGMENT
$stateUnwindMap$??R<lambda_d0f437802599b72fdddcf24900d600a3>@@QEBAPEAVBuffersTestScene@Scene@Application@@XZ DD 0ffffffffH
	DD	imagerel ?dtor$0@?0???R<lambda_d0f437802599b72fdddcf24900d600a3>@@QEBAPEAVBuffersTestScene@Scene@Application@@XZ@4HA
xdata	ENDS
;	COMDAT CONST
CONST	SEGMENT
$cppxdata$??R<lambda_d0f437802599b72fdddcf24900d600a3>@@QEBAPEAVBuffersTestScene@Scene@Application@@XZ DQ 00000000119930522r ; 2.33398e-314
	DD	imagerel $stateUnwindMap$??R<lambda_d0f437802599b72fdddcf24900d600a3>@@QEBAPEAVBuffersTestScene@Scene@Application@@XZ
	DQ	00000000000000000r		; 0
	DD	02H
	DD	imagerel $ip2state$??R<lambda_d0f437802599b72fdddcf24900d600a3>@@QEBAPEAVBuffersTestScene@Scene@Application@@XZ
	DQ	00000000000000020r		; 1.58101e-322
	DD	01H
CONST	ENDS
;	COMDAT xdata
xdata	SEGMENT
$unwind$??R<lambda_d0f437802599b72fdddcf24900d600a3>@@QEBAPEAVBuffersTestScene@Scene@Application@@XZ DD 011211H
	DD	06209H
	DD	imagerel __CxxFrameHandler3
	DD	imagerel $cppxdata$??R<lambda_d0f437802599b72fdddcf24900d600a3>@@QEBAPEAVBuffersTestScene@Scene@Application@@XZ
xdata	ENDS
;	COMDAT xdata
xdata	SEGMENT
$ip2state$??$RegisterScene@VTextureTestScene@Scene@Application@@@MainMenuScene@Scene@Application@@QEAAXPEBD@Z DD imagerel ??$RegisterScene@VTextureTestScene@Scene@Application@@@MainMenuScene@Scene@Application@@QEAAXPEBD@Z+71
	DD	00H
	DD	imagerel ??$RegisterScene@VTextureTestScene@Scene@Application@@@MainMenuScene@Scene@Application@@QEAAXPEBD@Z+92
	DD	01H
	DD	imagerel ??$RegisterScene@VTextureTestScene@Scene@Application@@@MainMenuScene@Scene@Application@@QEAAXPEBD@Z+120
	DD	0ffffffffH
xdata	ENDS
;	COMDAT xdata
xdata	SEGMENT
$stateUnwindMap$??$RegisterScene@VTextureTestScene@Scene@Application@@@MainMenuScene@Scene@Application@@QEAAXPEBD@Z DD 0ffffffffH
	DD	imagerel ?dtor$0@?0???$RegisterScene@VTextureTestScene@Scene@Application@@@MainMenuScene@Scene@Application@@QEAAXPEBD@Z@4HA
	DD	0ffffffffH
	DD	imagerel __std_terminate
xdata	ENDS
;	COMDAT CONST
CONST	SEGMENT
$cppxdata$??$RegisterScene@VTextureTestScene@Scene@Application@@@MainMenuScene@Scene@Application@@QEAAXPEBD@Z DQ 00000000219930522r ; 4.45598e-314
	DD	imagerel $stateUnwindMap$??$RegisterScene@VTextureTestScene@Scene@Application@@@MainMenuScene@Scene@Application@@QEAAXPEBD@Z
	DQ	00000000000000000r		; 0
	DD	03H
	DD	imagerel $ip2state$??$RegisterScene@VTextureTestScene@Scene@Application@@@MainMenuScene@Scene@Application@@QEAAXPEBD@Z
	DQ	00000000000000020r		; 1.58101e-322
	DD	01H
CONST	ENDS
;	COMDAT xdata
xdata	SEGMENT
$unwind$??$RegisterScene@VTextureTestScene@Scene@Application@@@MainMenuScene@Scene@Application@@QEAAXPEBD@Z DD 021211H
	DD	03002f209H
	DD	imagerel __CxxFrameHandler3
	DD	imagerel $cppxdata$??$RegisterScene@VTextureTestScene@Scene@Application@@@MainMenuScene@Scene@Application@@QEAAXPEBD@Z
xdata	ENDS
;	COMDAT xdata
xdata	SEGMENT
$unwind$?dtor$0@?0???R<lambda_2c3ab7f48cee5f9b56075868f97e05b2>@@QEBAPEAVTextureTestScene@Scene@Application@@XZ@4HA DD 020601H
	DD	050023206H
xdata	ENDS
;	COMDAT xdata
xdata	SEGMENT
$ip2state$??R<lambda_2c3ab7f48cee5f9b56075868f97e05b2>@@QEBAPEAVTextureTestScene@Scene@Application@@XZ DD imagerel ??R<lambda_2c3ab7f48cee5f9b56075868f97e05b2>@@QEBAPEAVTextureTestScene@Scene@Application@@XZ+23
	DD	0ffffffffH
	DD	imagerel ??R<lambda_2c3ab7f48cee5f9b56075868f97e05b2>@@QEBAPEAVTextureTestScene@Scene@Application@@XZ+65
	DD	00H
xdata	ENDS
;	COMDAT xdata
xdata	SEGMENT
$stateUnwindMap$??R<lambda_2c3ab7f48cee5f9b56075868f97e05b2>@@QEBAPEAVTextureTestScene@Scene@Application@@XZ DD 0ffffffffH
	DD	imagerel ?dtor$0@?0???R<lambda_2c3ab7f48cee5f9b56075868f97e05b2>@@QEBAPEAVTextureTestScene@Scene@Application@@XZ@4HA
xdata	ENDS
;	COMDAT CONST
CONST	SEGMENT
$cppxdata$??R<lambda_2c3ab7f48cee5f9b56075868f97e05b2>@@QEBAPEAVTextureTestScene@Scene@Application@@XZ DQ 00000000119930522r ; 2.33398e-314
	DD	imagerel $stateUnwindMap$??R<lambda_2c3ab7f48cee5f9b56075868f97e05b2>@@QEBAPEAVTextureTestScene@Scene@Application@@XZ
	DQ	00000000000000000r		; 0
	DD	02H
	DD	imagerel $ip2state$??R<lambda_2c3ab7f48cee5f9b56075868f97e05b2>@@QEBAPEAVTextureTestScene@Scene@Application@@XZ
	DQ	00000000000000020r		; 1.58101e-322
	DD	01H
CONST	ENDS
;	COMDAT xdata
xdata	SEGMENT
$unwind$??R<lambda_2c3ab7f48cee5f9b56075868f97e05b2>@@QEBAPEAVTextureTestScene@Scene@Application@@XZ DD 011211H
	DD	06209H
	DD	imagerel __CxxFrameHandler3
	DD	imagerel $cppxdata$??R<lambda_2c3ab7f48cee5f9b56075868f97e05b2>@@QEBAPEAVTextureTestScene@Scene@Application@@XZ
xdata	ENDS
;	COMDAT xdata
xdata	SEGMENT
$ip2state$??$RegisterScene@VSimpleRendererScene@Scene@Application@@@MainMenuScene@Scene@Application@@QEAAXPEBD@Z DD imagerel ??$RegisterScene@VSimpleRendererScene@Scene@Application@@@MainMenuScene@Scene@Application@@QEAAXPEBD@Z+71
	DD	00H
	DD	imagerel ??$RegisterScene@VSimpleRendererScene@Scene@Application@@@MainMenuScene@Scene@Application@@QEAAXPEBD@Z+92
	DD	01H
	DD	imagerel ??$RegisterScene@VSimpleRendererScene@Scene@Application@@@MainMenuScene@Scene@Application@@QEAAXPEBD@Z+120
	DD	0ffffffffH
xdata	ENDS
;	COMDAT xdata
xdata	SEGMENT
$stateUnwindMap$??$RegisterScene@VSimpleRendererScene@Scene@Application@@@MainMenuScene@Scene@Application@@QEAAXPEBD@Z DD 0ffffffffH
	DD	imagerel ?dtor$0@?0???$RegisterScene@VSimpleRendererScene@Scene@Application@@@MainMenuScene@Scene@Application@@QEAAXPEBD@Z@4HA
	DD	0ffffffffH
	DD	imagerel __std_terminate
xdata	ENDS
;	COMDAT CONST
CONST	SEGMENT
$cppxdata$??$RegisterScene@VSimpleRendererScene@Scene@Application@@@MainMenuScene@Scene@Application@@QEAAXPEBD@Z DQ 00000000219930522r ; 4.45598e-314
	DD	imagerel $stateUnwindMap$??$RegisterScene@VSimpleRendererScene@Scene@Application@@@MainMenuScene@Scene@Application@@QEAAXPEBD@Z
	DQ	00000000000000000r		; 0
	DD	03H
	DD	imagerel $ip2state$??$RegisterScene@VSimpleRendererScene@Scene@Application@@@MainMenuScene@Scene@Application@@QEAAXPEBD@Z
	DQ	00000000000000020r		; 1.58101e-322
	DD	01H
CONST	ENDS
;	COMDAT xdata
xdata	SEGMENT
$unwind$??$RegisterScene@VSimpleRendererScene@Scene@Application@@@MainMenuScene@Scene@Application@@QEAAXPEBD@Z DD 021211H
	DD	03002f209H
	DD	imagerel __CxxFrameHandler3
	DD	imagerel $cppxdata$??$RegisterScene@VSimpleRendererScene@Scene@Application@@@MainMenuScene@Scene@Application@@QEAAXPEBD@Z
xdata	ENDS
;	COMDAT xdata
xdata	SEGMENT
$unwind$?dtor$0@?0???R<lambda_6e33341e90591d57c68d6076b03224d9>@@QEBAPEAVSimpleRendererScene@Scene@Application@@XZ@4HA DD 020601H
	DD	050023206H
xdata	ENDS
;	COMDAT xdata
xdata	SEGMENT
$ip2state$??R<lambda_6e33341e90591d57c68d6076b03224d9>@@QEBAPEAVSimpleRendererScene@Scene@Application@@XZ DD imagerel ??R<lambda_6e33341e90591d57c68d6076b03224d9>@@QEBAPEAVSimpleRendererScene@Scene@Application@@XZ+23
	DD	0ffffffffH
	DD	imagerel ??R<lambda_6e33341e90591d57c68d6076b03224d9>@@QEBAPEAVSimpleRendererScene@Scene@Application@@XZ+69
	DD	00H
xdata	ENDS
;	COMDAT xdata
xdata	SEGMENT
$stateUnwindMap$??R<lambda_6e33341e90591d57c68d6076b03224d9>@@QEBAPEAVSimpleRendererScene@Scene@Application@@XZ DD 0ffffffffH
	DD	imagerel ?dtor$0@?0???R<lambda_6e33341e90591d57c68d6076b03224d9>@@QEBAPEAVSimpleRendererScene@Scene@Application@@XZ@4HA
xdata	ENDS
;	COMDAT CONST
CONST	SEGMENT
$cppxdata$??R<lambda_6e33341e90591d57c68d6076b03224d9>@@QEBAPEAVSimpleRendererScene@Scene@Application@@XZ DQ 00000000119930522r ; 2.33398e-314
	DD	imagerel $stateUnwindMap$??R<lambda_6e33341e90591d57c68d6076b03224d9>@@QEBAPEAVSimpleRendererScene@Scene@Application@@XZ
	DQ	00000000000000000r		; 0
	DD	02H
	DD	imagerel $ip2state$??R<lambda_6e33341e90591d57c68d6076b03224d9>@@QEBAPEAVSimpleRendererScene@Scene@Application@@XZ
	DQ	00000000000000020r		; 1.58101e-322
	DD	01H
CONST	ENDS
;	COMDAT xdata
xdata	SEGMENT
$unwind$??R<lambda_6e33341e90591d57c68d6076b03224d9>@@QEBAPEAVSimpleRendererScene@Scene@Application@@XZ DD 011211H
	DD	06209H
	DD	imagerel __CxxFrameHandler3
	DD	imagerel $cppxdata$??R<lambda_6e33341e90591d57c68d6076b03224d9>@@QEBAPEAVSimpleRendererScene@Scene@Application@@XZ
xdata	ENDS
;	COMDAT xdata
xdata	SEGMENT
$ip2state$??$RegisterScene@VBatchRendererScene@Scene@Application@@@MainMenuScene@Scene@Application@@QEAAXPEBD@Z DD imagerel ??$RegisterScene@VBatchRendererScene@Scene@Application@@@MainMenuScene@Scene@Application@@QEAAXPEBD@Z+71
	DD	00H
	DD	imagerel ??$RegisterScene@VBatchRendererScene@Scene@Application@@@MainMenuScene@Scene@Application@@QEAAXPEBD@Z+92
	DD	01H
	DD	imagerel ??$RegisterScene@VBatchRendererScene@Scene@Application@@@MainMenuScene@Scene@Application@@QEAAXPEBD@Z+120
	DD	0ffffffffH
xdata	ENDS
;	COMDAT xdata
xdata	SEGMENT
$stateUnwindMap$??$RegisterScene@VBatchRendererScene@Scene@Application@@@MainMenuScene@Scene@Application@@QEAAXPEBD@Z DD 0ffffffffH
	DD	imagerel ?dtor$0@?0???$RegisterScene@VBatchRendererScene@Scene@Application@@@MainMenuScene@Scene@Application@@QEAAXPEBD@Z@4HA
	DD	0ffffffffH
	DD	imagerel __std_terminate
xdata	ENDS
;	COMDAT CONST
CONST	SEGMENT
$cppxdata$??$RegisterScene@VBatchRendererScene@Scene@Application@@@MainMenuScene@Scene@Application@@QEAAXPEBD@Z DQ 00000000219930522r ; 4.45598e-314
	DD	imagerel $stateUnwindMap$??$RegisterScene@VBatchRendererScene@Scene@Application@@@MainMenuScene@Scene@Application@@QEAAXPEBD@Z
	DQ	00000000000000000r		; 0
	DD	03H
	DD	imagerel $ip2state$??$RegisterScene@VBatchRendererScene@Scene@Application@@@MainMenuScene@Scene@Application@@QEAAXPEBD@Z
	DQ	00000000000000020r		; 1.58101e-322
	DD	01H
CONST	ENDS
;	COMDAT xdata
xdata	SEGMENT
$unwind$??$RegisterScene@VBatchRendererScene@Scene@Application@@@MainMenuScene@Scene@Application@@QEAAXPEBD@Z DD 021211H
	DD	03002f209H
	DD	imagerel __CxxFrameHandler3
	DD	imagerel $cppxdata$??$RegisterScene@VBatchRendererScene@Scene@Application@@@MainMenuScene@Scene@Application@@QEAAXPEBD@Z
xdata	ENDS
;	COMDAT xdata
xdata	SEGMENT
$unwind$?dtor$0@?0???R<lambda_f8034f4d3434a17004a65f045c28f944>@@QEBAPEAVBatchRendererScene@Scene@Application@@XZ@4HA DD 020601H
	DD	050023206H
xdata	ENDS
;	COMDAT xdata
xdata	SEGMENT
$ip2state$??R<lambda_f8034f4d3434a17004a65f045c28f944>@@QEBAPEAVBatchRendererScene@Scene@Application@@XZ DD imagerel ??R<lambda_f8034f4d3434a17004a65f045c28f944>@@QEBAPEAVBatchRendererScene@Scene@Application@@XZ+23
	DD	0ffffffffH
	DD	imagerel ??R<lambda_f8034f4d3434a17004a65f045c28f944>@@QEBAPEAVBatchRendererScene@Scene@Application@@XZ+73
	DD	00H
xdata	ENDS
;	COMDAT xdata
xdata	SEGMENT
$stateUnwindMap$??R<lambda_f8034f4d3434a17004a65f045c28f944>@@QEBAPEAVBatchRendererScene@Scene@Application@@XZ DD 0ffffffffH
	DD	imagerel ?dtor$0@?0???R<lambda_f8034f4d3434a17004a65f045c28f944>@@QEBAPEAVBatchRendererScene@Scene@Application@@XZ@4HA
xdata	ENDS
;	COMDAT CONST
CONST	SEGMENT
$cppxdata$??R<lambda_f8034f4d3434a17004a65f045c28f944>@@QEBAPEAVBatchRendererScene@Scene@Application@@XZ DQ 00000000119930522r ; 2.33398e-314
	DD	imagerel $stateUnwindMap$??R<lambda_f8034f4d3434a17004a65f045c28f944>@@QEBAPEAVBatchRendererScene@Scene@Application@@XZ
	DQ	00000000000000000r		; 0
	DD	02H
	DD	imagerel $ip2state$??R<lambda_f8034f4d3434a17004a65f045c28f944>@@QEBAPEAVBatchRendererScene@Scene@Application@@XZ
	DQ	00000000000000020r		; 1.58101e-322
	DD	01H
CONST	ENDS
;	COMDAT xdata
xdata	SEGMENT
$unwind$??R<lambda_f8034f4d3434a17004a65f045c28f944>@@QEBAPEAVBatchRendererScene@Scene@Application@@XZ DD 011211H
	DD	06209H
	DD	imagerel __CxxFrameHandler3
	DD	imagerel $cppxdata$??R<lambda_f8034f4d3434a17004a65f045c28f944>@@QEBAPEAVBatchRendererScene@Scene@Application@@XZ
xdata	ENDS
;	COMDAT xdata
xdata	SEGMENT
$ip2state$??$RegisterScene@VLayerScene@Scene@Application@@@MainMenuScene@Scene@Application@@QEAAXPEBD@Z DD imagerel ??$RegisterScene@VLayerScene@Scene@Application@@@MainMenuScene@Scene@Application@@QEAAXPEBD@Z+71
	DD	00H
	DD	imagerel ??$RegisterScene@VLayerScene@Scene@Application@@@MainMenuScene@Scene@Application@@QEAAXPEBD@Z+92
	DD	01H
	DD	imagerel ??$RegisterScene@VLayerScene@Scene@Application@@@MainMenuScene@Scene@Application@@QEAAXPEBD@Z+120
	DD	0ffffffffH
xdata	ENDS
;	COMDAT xdata
xdata	SEGMENT
$stateUnwindMap$??$RegisterScene@VLayerScene@Scene@Application@@@MainMenuScene@Scene@Application@@QEAAXPEBD@Z DD 0ffffffffH
	DD	imagerel ?dtor$0@?0???$RegisterScene@VLayerScene@Scene@Application@@@MainMenuScene@Scene@Application@@QEAAXPEBD@Z@4HA
	DD	0ffffffffH
	DD	imagerel __std_terminate
xdata	ENDS
;	COMDAT CONST
CONST	SEGMENT
$cppxdata$??$RegisterScene@VLayerScene@Scene@Application@@@MainMenuScene@Scene@Application@@QEAAXPEBD@Z DQ 00000000219930522r ; 4.45598e-314
	DD	imagerel $stateUnwindMap$??$RegisterScene@VLayerScene@Scene@Application@@@MainMenuScene@Scene@Application@@QEAAXPEBD@Z
	DQ	00000000000000000r		; 0
	DD	03H
	DD	imagerel $ip2state$??$RegisterScene@VLayerScene@Scene@Application@@@MainMenuScene@Scene@Application@@QEAAXPEBD@Z
	DQ	00000000000000020r		; 1.58101e-322
	DD	01H
CONST	ENDS
;	COMDAT xdata
xdata	SEGMENT
$unwind$??$RegisterScene@VLayerScene@Scene@Application@@@MainMenuScene@Scene@Application@@QEAAXPEBD@Z DD 021211H
	DD	03002f209H
	DD	imagerel __CxxFrameHandler3
	DD	imagerel $cppxdata$??$RegisterScene@VLayerScene@Scene@Application@@@MainMenuScene@Scene@Application@@QEAAXPEBD@Z
xdata	ENDS
;	COMDAT xdata
xdata	SEGMENT
$unwind$?dtor$0@?0???R<lambda_1f639e86dd05cae58c2a45cb24025185>@@QEBAPEAVLayerScene@Scene@Application@@XZ@4HA DD 020601H
	DD	050023206H
xdata	ENDS
;	COMDAT xdata
xdata	SEGMENT
$ip2state$??R<lambda_1f639e86dd05cae58c2a45cb24025185>@@QEBAPEAVLayerScene@Scene@Application@@XZ DD imagerel ??R<lambda_1f639e86dd05cae58c2a45cb24025185>@@QEBAPEAVLayerScene@Scene@Application@@XZ+23
	DD	0ffffffffH
	DD	imagerel ??R<lambda_1f639e86dd05cae58c2a45cb24025185>@@QEBAPEAVLayerScene@Scene@Application@@XZ+53
	DD	00H
xdata	ENDS
;	COMDAT xdata
xdata	SEGMENT
$stateUnwindMap$??R<lambda_1f639e86dd05cae58c2a45cb24025185>@@QEBAPEAVLayerScene@Scene@Application@@XZ DD 0ffffffffH
	DD	imagerel ?dtor$0@?0???R<lambda_1f639e86dd05cae58c2a45cb24025185>@@QEBAPEAVLayerScene@Scene@Application@@XZ@4HA
xdata	ENDS
;	COMDAT CONST
CONST	SEGMENT
$cppxdata$??R<lambda_1f639e86dd05cae58c2a45cb24025185>@@QEBAPEAVLayerScene@Scene@Application@@XZ DQ 00000000119930522r ; 2.33398e-314
	DD	imagerel $stateUnwindMap$??R<lambda_1f639e86dd05cae58c2a45cb24025185>@@QEBAPEAVLayerScene@Scene@Application@@XZ
	DQ	00000000000000000r		; 0
	DD	02H
	DD	imagerel $ip2state$??R<lambda_1f639e86dd05cae58c2a45cb24025185>@@QEBAPEAVLayerScene@Scene@Application@@XZ
	DQ	00000000000000020r		; 1.58101e-322
	DD	01H
CONST	ENDS
;	COMDAT xdata
xdata	SEGMENT
$unwind$??R<lambda_1f639e86dd05cae58c2a45cb24025185>@@QEBAPEAVLayerScene@Scene@Application@@XZ DD 011211H
	DD	06209H
	DD	imagerel __CxxFrameHandler3
	DD	imagerel $cppxdata$??R<lambda_1f639e86dd05cae58c2a45cb24025185>@@QEBAPEAVLayerScene@Scene@Application@@XZ
xdata	ENDS
;	COMDAT xdata
xdata	SEGMENT
$ip2state$??$RegisterScene@VBoidScene@Scene@Application@@@MainMenuScene@Scene@Application@@QEAAXPEBD@Z DD imagerel ??$RegisterScene@VBoidScene@Scene@Application@@@MainMenuScene@Scene@Application@@QEAAXPEBD@Z+71
	DD	00H
	DD	imagerel ??$RegisterScene@VBoidScene@Scene@Application@@@MainMenuScene@Scene@Application@@QEAAXPEBD@Z+92
	DD	01H
	DD	imagerel ??$RegisterScene@VBoidScene@Scene@Application@@@MainMenuScene@Scene@Application@@QEAAXPEBD@Z+120
	DD	0ffffffffH
xdata	ENDS
;	COMDAT xdata
xdata	SEGMENT
$stateUnwindMap$??$RegisterScene@VBoidScene@Scene@Application@@@MainMenuScene@Scene@Application@@QEAAXPEBD@Z DD 0ffffffffH
	DD	imagerel ?dtor$0@?0???$RegisterScene@VBoidScene@Scene@Application@@@MainMenuScene@Scene@Application@@QEAAXPEBD@Z@4HA
	DD	0ffffffffH
	DD	imagerel __std_terminate
xdata	ENDS
;	COMDAT CONST
CONST	SEGMENT
$cppxdata$??$RegisterScene@VBoidScene@Scene@Application@@@MainMenuScene@Scene@Application@@QEAAXPEBD@Z DQ 00000000219930522r ; 4.45598e-314
	DD	imagerel $stateUnwindMap$??$RegisterScene@VBoidScene@Scene@Application@@@MainMenuScene@Scene@Application@@QEAAXPEBD@Z
	DQ	00000000000000000r		; 0
	DD	03H
	DD	imagerel $ip2state$??$RegisterScene@VBoidScene@Scene@Application@@@MainMenuScene@Scene@Application@@QEAAXPEBD@Z
	DQ	00000000000000020r		; 1.58101e-322
	DD	01H
CONST	ENDS
;	COMDAT xdata
xdata	SEGMENT
$unwind$??$RegisterScene@VBoidScene@Scene@Application@@@MainMenuScene@Scene@Application@@QEAAXPEBD@Z DD 021211H
	DD	03002f209H
	DD	imagerel __CxxFrameHandler3
	DD	imagerel $cppxdata$??$RegisterScene@VBoidScene@Scene@Application@@@MainMenuScene@Scene@Application@@QEAAXPEBD@Z
xdata	ENDS
;	COMDAT xdata
xdata	SEGMENT
$unwind$?dtor$0@?0???R<lambda_8a87a946287cf0625355d2c413df9209>@@QEBAPEAVBoidScene@Scene@Application@@XZ@4HA DD 020601H
	DD	050023206H
xdata	ENDS
;	COMDAT xdata
xdata	SEGMENT
$ip2state$??R<lambda_8a87a946287cf0625355d2c413df9209>@@QEBAPEAVBoidScene@Scene@Application@@XZ DD imagerel ??R<lambda_8a87a946287cf0625355d2c413df9209>@@QEBAPEAVBoidScene@Scene@Application@@XZ+23
	DD	0ffffffffH
	DD	imagerel ??R<lambda_8a87a946287cf0625355d2c413df9209>@@QEBAPEAVBoidScene@Scene@Application@@XZ+65
	DD	00H
xdata	ENDS
;	COMDAT xdata
xdata	SEGMENT
$stateUnwindMap$??R<lambda_8a87a946287cf0625355d2c413df9209>@@QEBAPEAVBoidScene@Scene@Application@@XZ DD 0ffffffffH
	DD	imagerel ?dtor$0@?0???R<lambda_8a87a946287cf0625355d2c413df9209>@@QEBAPEAVBoidScene@Scene@Application@@XZ@4HA
xdata	ENDS
;	COMDAT CONST
CONST	SEGMENT
$cppxdata$??R<lambda_8a87a946287cf0625355d2c413df9209>@@QEBAPEAVBoidScene@Scene@Application@@XZ DQ 00000000119930522r ; 2.33398e-314
	DD	imagerel $stateUnwindMap$??R<lambda_8a87a946287cf0625355d2c413df9209>@@QEBAPEAVBoidScene@Scene@Application@@XZ
	DQ	00000000000000000r		; 0
	DD	02H
	DD	imagerel $ip2state$??R<lambda_8a87a946287cf0625355d2c413df9209>@@QEBAPEAVBoidScene@Scene@Application@@XZ
	DQ	00000000000000020r		; 1.58101e-322
	DD	01H
CONST	ENDS
;	COMDAT xdata
xdata	SEGMENT
$unwind$??R<lambda_8a87a946287cf0625355d2c413df9209>@@QEBAPEAVBoidScene@Scene@Application@@XZ DD 011211H
	DD	06209H
	DD	imagerel __CxxFrameHandler3
	DD	imagerel $cppxdata$??R<lambda_8a87a946287cf0625355d2c413df9209>@@QEBAPEAVBoidScene@Scene@Application@@XZ
xdata	ENDS
;	COMDAT xdata
xdata	SEGMENT
$ip2state$??$RegisterScene@VMandelbrotScene@Scene@Application@@@MainMenuScene@Scene@Application@@QEAAXPEBD@Z DD imagerel ??$RegisterScene@VMandelbrotScene@Scene@Application@@@MainMenuScene@Scene@Application@@QEAAXPEBD@Z+71
	DD	00H
	DD	imagerel ??$RegisterScene@VMandelbrotScene@Scene@Application@@@MainMenuScene@Scene@Application@@QEAAXPEBD@Z+92
	DD	01H
	DD	imagerel ??$RegisterScene@VMandelbrotScene@Scene@Application@@@MainMenuScene@Scene@Application@@QEAAXPEBD@Z+120
	DD	0ffffffffH
xdata	ENDS
;	COMDAT xdata
xdata	SEGMENT
$stateUnwindMap$??$RegisterScene@VMandelbrotScene@Scene@Application@@@MainMenuScene@Scene@Application@@QEAAXPEBD@Z DD 0ffffffffH
	DD	imagerel ?dtor$0@?0???$RegisterScene@VMandelbrotScene@Scene@Application@@@MainMenuScene@Scene@Application@@QEAAXPEBD@Z@4HA
	DD	0ffffffffH
	DD	imagerel __std_terminate
xdata	ENDS
;	COMDAT CONST
CONST	SEGMENT
$cppxdata$??$RegisterScene@VMandelbrotScene@Scene@Application@@@MainMenuScene@Scene@Application@@QEAAXPEBD@Z DQ 00000000219930522r ; 4.45598e-314
	DD	imagerel $stateUnwindMap$??$RegisterScene@VMandelbrotScene@Scene@Application@@@MainMenuScene@Scene@Application@@QEAAXPEBD@Z
	DQ	00000000000000000r		; 0
	DD	03H
	DD	imagerel $ip2state$??$RegisterScene@VMandelbrotScene@Scene@Application@@@MainMenuScene@Scene@Application@@QEAAXPEBD@Z
	DQ	00000000000000020r		; 1.58101e-322
	DD	01H
CONST	ENDS
;	COMDAT xdata
xdata	SEGMENT
$unwind$??$RegisterScene@VMandelbrotScene@Scene@Application@@@MainMenuScene@Scene@Application@@QEAAXPEBD@Z DD 021211H
	DD	03002f209H
	DD	imagerel __CxxFrameHandler3
	DD	imagerel $cppxdata$??$RegisterScene@VMandelbrotScene@Scene@Application@@@MainMenuScene@Scene@Application@@QEAAXPEBD@Z
xdata	ENDS
;	COMDAT xdata
xdata	SEGMENT
$unwind$?dtor$0@?0???R<lambda_f04c6ff6a0f44a3600e7c5996fdf93c3>@@QEBAPEAVMandelbrotScene@Scene@Application@@XZ@4HA DD 020601H
	DD	050023206H
xdata	ENDS
;	COMDAT xdata
xdata	SEGMENT
$ip2state$??R<lambda_f04c6ff6a0f44a3600e7c5996fdf93c3>@@QEBAPEAVMandelbrotScene@Scene@Application@@XZ DD imagerel ??R<lambda_f04c6ff6a0f44a3600e7c5996fdf93c3>@@QEBAPEAVMandelbrotScene@Scene@Application@@XZ+24
	DD	0ffffffffH
	DD	imagerel ??R<lambda_f04c6ff6a0f44a3600e7c5996fdf93c3>@@QEBAPEAVMandelbrotScene@Scene@Application@@XZ+54
	DD	00H
xdata	ENDS
;	COMDAT xdata
xdata	SEGMENT
$stateUnwindMap$??R<lambda_f04c6ff6a0f44a3600e7c5996fdf93c3>@@QEBAPEAVMandelbrotScene@Scene@Application@@XZ DD 0ffffffffH
	DD	imagerel ?dtor$0@?0???R<lambda_f04c6ff6a0f44a3600e7c5996fdf93c3>@@QEBAPEAVMandelbrotScene@Scene@Application@@XZ@4HA
xdata	ENDS
;	COMDAT CONST
CONST	SEGMENT
$cppxdata$??R<lambda_f04c6ff6a0f44a3600e7c5996fdf93c3>@@QEBAPEAVMandelbrotScene@Scene@Application@@XZ DQ 00000000119930522r ; 2.33398e-314
	DD	imagerel $stateUnwindMap$??R<lambda_f04c6ff6a0f44a3600e7c5996fdf93c3>@@QEBAPEAVMandelbrotScene@Scene@Application@@XZ
	DQ	00000000000000000r		; 0
	DD	02H
	DD	imagerel $ip2state$??R<lambda_f04c6ff6a0f44a3600e7c5996fdf93c3>@@QEBAPEAVMandelbrotScene@Scene@Application@@XZ
	DQ	00000000000000020r		; 1.58101e-322
	DD	01H
CONST	ENDS
;	COMDAT xdata
xdata	SEGMENT
$unwind$??R<lambda_f04c6ff6a0f44a3600e7c5996fdf93c3>@@QEBAPEAVMandelbrotScene@Scene@Application@@XZ DD 021311H
	DD	03006520aH
	DD	imagerel __CxxFrameHandler3
	DD	imagerel $cppxdata$??R<lambda_f04c6ff6a0f44a3600e7c5996fdf93c3>@@QEBAPEAVMandelbrotScene@Scene@Application@@XZ
xdata	ENDS
;	COMDAT xdata
xdata	SEGMENT
$ip2state$??$RegisterScene@VComputeShaderScene@Scene@Application@@@MainMenuScene@Scene@Application@@QEAAXPEBD@Z DD imagerel ??$RegisterScene@VComputeShaderScene@Scene@Application@@@MainMenuScene@Scene@Application@@QEAAXPEBD@Z+71
	DD	00H
	DD	imagerel ??$RegisterScene@VComputeShaderScene@Scene@Application@@@MainMenuScene@Scene@Application@@QEAAXPEBD@Z+92
	DD	01H
	DD	imagerel ??$RegisterScene@VComputeShaderScene@Scene@Application@@@MainMenuScene@Scene@Application@@QEAAXPEBD@Z+120
	DD	0ffffffffH
xdata	ENDS
;	COMDAT xdata
xdata	SEGMENT
$stateUnwindMap$??$RegisterScene@VComputeShaderScene@Scene@Application@@@MainMenuScene@Scene@Application@@QEAAXPEBD@Z DD 0ffffffffH
	DD	imagerel ?dtor$0@?0???$RegisterScene@VComputeShaderScene@Scene@Application@@@MainMenuScene@Scene@Application@@QEAAXPEBD@Z@4HA
	DD	0ffffffffH
	DD	imagerel __std_terminate
xdata	ENDS
;	COMDAT CONST
CONST	SEGMENT
$cppxdata$??$RegisterScene@VComputeShaderScene@Scene@Application@@@MainMenuScene@Scene@Application@@QEAAXPEBD@Z DQ 00000000219930522r ; 4.45598e-314
	DD	imagerel $stateUnwindMap$??$RegisterScene@VComputeShaderScene@Scene@Application@@@MainMenuScene@Scene@Application@@QEAAXPEBD@Z
	DQ	00000000000000000r		; 0
	DD	03H
	DD	imagerel $ip2state$??$RegisterScene@VComputeShaderScene@Scene@Application@@@MainMenuScene@Scene@Application@@QEAAXPEBD@Z
	DQ	00000000000000020r		; 1.58101e-322
	DD	01H
CONST	ENDS
;	COMDAT xdata
xdata	SEGMENT
$unwind$??$RegisterScene@VComputeShaderScene@Scene@Application@@@MainMenuScene@Scene@Application@@QEAAXPEBD@Z DD 021211H
	DD	03002f209H
	DD	imagerel __CxxFrameHandler3
	DD	imagerel $cppxdata$??$RegisterScene@VComputeShaderScene@Scene@Application@@@MainMenuScene@Scene@Application@@QEAAXPEBD@Z
xdata	ENDS
;	COMDAT xdata
xdata	SEGMENT
$unwind$?dtor$0@?0???R<lambda_9e62dcf887c94db0be73ed49d4be45d7>@@QEBAPEAVComputeShaderScene@Scene@Application@@XZ@4HA DD 020601H
	DD	050023206H
xdata	ENDS
;	COMDAT xdata
xdata	SEGMENT
$ip2state$??R<lambda_9e62dcf887c94db0be73ed49d4be45d7>@@QEBAPEAVComputeShaderScene@Scene@Application@@XZ DD imagerel ??R<lambda_9e62dcf887c94db0be73ed49d4be45d7>@@QEBAPEAVComputeShaderScene@Scene@Application@@XZ+23
	DD	0ffffffffH
	DD	imagerel ??R<lambda_9e62dcf887c94db0be73ed49d4be45d7>@@QEBAPEAVComputeShaderScene@Scene@Application@@XZ+57
	DD	00H
xdata	ENDS
;	COMDAT xdata
xdata	SEGMENT
$stateUnwindMap$??R<lambda_9e62dcf887c94db0be73ed49d4be45d7>@@QEBAPEAVComputeShaderScene@Scene@Application@@XZ DD 0ffffffffH
	DD	imagerel ?dtor$0@?0???R<lambda_9e62dcf887c94db0be73ed49d4be45d7>@@QEBAPEAVComputeShaderScene@Scene@Application@@XZ@4HA
xdata	ENDS
;	COMDAT CONST
CONST	SEGMENT
$cppxdata$??R<lambda_9e62dcf887c94db0be73ed49d4be45d7>@@QEBAPEAVComputeShaderScene@Scene@Application@@XZ DQ 00000000119930522r ; 2.33398e-314
	DD	imagerel $stateUnwindMap$??R<lambda_9e62dcf887c94db0be73ed49d4be45d7>@@QEBAPEAVComputeShaderScene@Scene@Application@@XZ
	DQ	00000000000000000r		; 0
	DD	02H
	DD	imagerel $ip2state$??R<lambda_9e62dcf887c94db0be73ed49d4be45d7>@@QEBAPEAVComputeShaderScene@Scene@Application@@XZ
	DQ	00000000000000020r		; 1.58101e-322
	DD	01H
CONST	ENDS
;	COMDAT xdata
xdata	SEGMENT
$unwind$??R<lambda_9e62dcf887c94db0be73ed49d4be45d7>@@QEBAPEAVComputeShaderScene@Scene@Application@@XZ DD 011211H
	DD	06209H
	DD	imagerel __CxxFrameHandler3
	DD	imagerel $cppxdata$??R<lambda_9e62dcf887c94db0be73ed49d4be45d7>@@QEBAPEAVComputeShaderScene@Scene@Application@@XZ
xdata	ENDS
;	COMDAT xdata
xdata	SEGMENT
$unwind$??$_Allocate@$0BA@U_Default_allocate_traits@std@@$0A@@std@@YAPEAX_K@Z DD 010401H
	DD	04204H
xdata	ENDS
;	COMDAT xdata
xdata	SEGMENT
$unwind$??$_Deallocate@$0BA@$0A@@std@@YAXPEAX_K@Z DD 010401H
	DD	04204H
xdata	ENDS
;	COMDAT xdata
xdata	SEGMENT
$unwind$??_H@YAXPEAX_K1P6APEAX0@Z@Z DD 081401H
	DD	086414H
	DD	075414H
	DD	063414H
	DD	070103214H
xdata	ENDS
;	COMDAT xdata
xdata	SEGMENT
$ip2state$??1?$pair@PEBDV?$function@$$A6APEAVScene@1Application@@XZ@std@@@std@@QEAA@XZ DD imagerel ??1?$pair@PEBDV?$function@$$A6APEAVScene@1Application@@XZ@std@@@std@@QEAA@XZ+37
	DD	00H
xdata	ENDS
;	COMDAT xdata
xdata	SEGMENT
$stateUnwindMap$??1?$pair@PEBDV?$function@$$A6APEAVScene@1Application@@XZ@std@@@std@@QEAA@XZ DD 0ffffffffH
	DD	imagerel __std_terminate
xdata	ENDS
;	COMDAT CONST
CONST	SEGMENT
$cppxdata$??1?$pair@PEBDV?$function@$$A6APEAVScene@1Application@@XZ@std@@@std@@QEAA@XZ DQ 00000000119930522r ; 2.33398e-314
	DD	imagerel $stateUnwindMap$??1?$pair@PEBDV?$function@$$A6APEAVScene@1Application@@XZ@std@@@std@@QEAA@XZ
	DQ	00000000000000000r		; 0
	DD	01H
	DD	imagerel $ip2state$??1?$pair@PEBDV?$function@$$A6APEAVScene@1Application@@XZ@std@@@std@@QEAA@XZ
	DQ	00000000000000020r		; 1.58101e-322
	DD	05H
CONST	ENDS
;	COMDAT xdata
xdata	SEGMENT
$unwind$??1?$pair@PEBDV?$function@$$A6APEAVScene@1Application@@XZ@std@@@std@@QEAA@XZ DD 020f19H
	DD	030025206H
	DD	imagerel __CxxFrameHandler3
	DD	imagerel $cppxdata$??1?$pair@PEBDV?$function@$$A6APEAVScene@1Application@@XZ@std@@@std@@QEAA@XZ
xdata	ENDS
;	COMDAT xdata
xdata	SEGMENT
$ip2state$??1?$function@$$A6APEAVScene@1Application@@XZ@std@@QEAA@XZ DD imagerel ??1?$function@$$A6APEAVScene@1Application@@XZ@std@@QEAA@XZ+36
	DD	00H
xdata	ENDS
;	COMDAT xdata
xdata	SEGMENT
$stateUnwindMap$??1?$function@$$A6APEAVScene@1Application@@XZ@std@@QEAA@XZ DD 0ffffffffH
	DD	imagerel __std_terminate
xdata	ENDS
;	COMDAT CONST
CONST	SEGMENT
$cppxdata$??1?$function@$$A6APEAVScene@1Application@@XZ@std@@QEAA@XZ DQ 00000000119930522r ; 2.33398e-314
	DD	imagerel $stateUnwindMap$??1?$function@$$A6APEAVScene@1Application@@XZ@std@@QEAA@XZ
	DQ	00000000000000000r		; 0
	DD	01H
	DD	imagerel $ip2state$??1?$function@$$A6APEAVScene@1Application@@XZ@std@@QEAA@XZ
	DQ	00000000000000020r		; 1.58101e-322
	DD	05H
CONST	ENDS
;	COMDAT xdata
xdata	SEGMENT
$unwind$??1?$function@$$A6APEAVScene@1Application@@XZ@std@@QEAA@XZ DD 020f19H
	DD	030025206H
	DD	imagerel __CxxFrameHandler3
	DD	imagerel $cppxdata$??1?$function@$$A6APEAVScene@1Application@@XZ@std@@QEAA@XZ
xdata	ENDS
;	COMDAT xdata
xdata	SEGMENT
$ip2state$??1?$_Func_class@PEAVScene@1Application@@$$V@std@@QEAA@XZ DD imagerel ??1?$_Func_class@PEAVScene@1Application@@$$V@std@@QEAA@XZ+36
	DD	00H
xdata	ENDS
;	COMDAT xdata
xdata	SEGMENT
$stateUnwindMap$??1?$_Func_class@PEAVScene@1Application@@$$V@std@@QEAA@XZ DD 0ffffffffH
	DD	imagerel __std_terminate
xdata	ENDS
;	COMDAT CONST
CONST	SEGMENT
$cppxdata$??1?$_Func_class@PEAVScene@1Application@@$$V@std@@QEAA@XZ DQ 00000000119930522r ; 2.33398e-314
	DD	imagerel $stateUnwindMap$??1?$_Func_class@PEAVScene@1Application@@$$V@std@@QEAA@XZ
	DQ	00000000000000000r		; 0
	DD	01H
	DD	imagerel $ip2state$??1?$_Func_class@PEAVScene@1Application@@$$V@std@@QEAA@XZ
	DQ	00000000000000020r		; 1.58101e-322
	DD	05H
CONST	ENDS
;	COMDAT xdata
xdata	SEGMENT
$unwind$??1?$_Func_class@PEAVScene@1Application@@$$V@std@@QEAA@XZ DD 020f19H
	DD	030025206H
	DD	imagerel __CxxFrameHandler3
	DD	imagerel $cppxdata$??1?$_Func_class@PEAVScene@1Application@@$$V@std@@QEAA@XZ
xdata	ENDS
;	COMDAT xdata
xdata	SEGMENT
$unwind$?push_back@?$vector@U?$pair@PEBDV?$function@$$A6APEAVScene@1Application@@XZ@std@@@std@@V?$allocator@U?$pair@PEBDV?$function@$$A6APEAVScene@1Application@@XZ@std@@@std@@@2@@std@@QEAAX$$QEAU?$pair@PEBDV?$function@$$A6APEAVScene@1Application@@XZ@std@@@2@@Z DD 020601H
	DD	030023206H
xdata	ENDS
;	COMDAT xdata
xdata	SEGMENT
$unwind$??$emplace_back@U?$pair@PEBDV?$function@$$A6APEAVScene@1Application@@XZ@std@@@std@@@?$vector@U?$pair@PEBDV?$function@$$A6APEAVScene@1Application@@XZ@std@@@std@@V?$allocator@U?$pair@PEBDV?$function@$$A6APEAVScene@1Application@@XZ@std@@@std@@@2@@std@@QEAAX$$QEAU?$pair@PEBDV?$function@$$A6APEAVScene@1Application@@XZ@std@@@1@@Z DD 020601H
	DD	030023206H
xdata	ENDS
;	COMDAT xdata
xdata	SEGMENT
$unwind$??$_Emplace_back_with_unused_capacity@U?$pair@PEBDV?$function@$$A6APEAVScene@1Application@@XZ@std@@@std@@@?$vector@U?$pair@PEBDV?$function@$$A6APEAVScene@1Application@@XZ@std@@@std@@V?$allocator@U?$pair@PEBDV?$function@$$A6APEAVScene@1Application@@XZ@std@@@std@@@2@@std@@AEAAX$$QEAU?$pair@PEBDV?$function@$$A6APEAVScene@1Application@@XZ@std@@@1@@Z DD 020601H
	DD	030023206H
xdata	ENDS
;	COMDAT xdata
xdata	SEGMENT
$ip2state$?_Tidy@?$_Func_class@PEAVScene@1Application@@$$V@std@@IEAAXXZ DD imagerel ?_Tidy@?$_Func_class@PEAVScene@1Application@@$$V@std@@IEAAXXZ+36
	DD	0ffffffffH
xdata	ENDS
;	COMDAT CONST
CONST	SEGMENT
$cppxdata$?_Tidy@?$_Func_class@PEAVScene@1Application@@$$V@std@@IEAAXXZ DQ 00000000019930522r ; 2.11987e-315
	DQ	00000000000000000r		; 0
	DQ	00000000100000000r		; 2.122e-314
	DD	imagerel $ip2state$?_Tidy@?$_Func_class@PEAVScene@1Application@@$$V@std@@IEAAXXZ
	DQ	00000000000000020r		; 1.58101e-322
	DD	05H
CONST	ENDS
;	COMDAT xdata
xdata	SEGMENT
$unwind$?_Tidy@?$_Func_class@PEAVScene@1Application@@$$V@std@@IEAAXXZ DD 020f19H
	DD	030025206H
	DD	imagerel __CxxFrameHandler3
	DD	imagerel $cppxdata$?_Tidy@?$_Func_class@PEAVScene@1Application@@$$V@std@@IEAAXXZ
xdata	ENDS
;	COMDAT xdata
xdata	SEGMENT
$unwind$??$_Allocate_manually_vector_aligned@U_Default_allocate_traits@std@@@std@@YAPEAX_K@Z DD 010401H
	DD	04204H
xdata	ENDS
;	COMDAT xdata
xdata	SEGMENT
$ip2state$??$construct@U?$pair@PEBDV?$function@$$A6APEAVScene@1Application@@XZ@std@@@std@@U12@@?$_Default_allocator_traits@V?$allocator@U?$pair@PEBDV?$function@$$A6APEAVScene@1Application@@XZ@std@@@std@@@std@@@std@@SAXAEAV?$allocator@U?$pair@PEBDV?$function@$$A6APEAVScene@1Application@@XZ@std@@@std@@@1@QEAU?$pair@PEBDV?$function@$$A6APEAVScene@1Application@@XZ@std@@@1@$$QEAU31@@Z DD imagerel ??$construct@U?$pair@PEBDV?$function@$$A6APEAVScene@1Application@@XZ@std@@@std@@U12@@?$_Default_allocator_traits@V?$allocator@U?$pair@PEBDV?$function@$$A6APEAVScene@1Application@@XZ@std@@@std@@@std@@@std@@SAXAEAV?$allocator@U?$pair@PEBDV?$function@$$A6APEAVScene@1Application@@XZ@std@@@std@@@1@QEAU?$pair@PEBDV?$function@$$A6APEAVScene@1Application@@XZ@std@@@1@$$QEAU31@@Z+71
	DD	00H
	DD	imagerel ??$construct@U?$pair@PEBDV?$function@$$A6APEAVScene@1Application@@XZ@std@@@std@@U12@@?$_Default_allocator_traits@V?$allocator@U?$pair@PEBDV?$function@$$A6APEAVScene@1Application@@XZ@std@@@std@@@std@@@std@@SAXAEAV?$allocator@U?$pair@PEBDV?$function@$$A6APEAVScene@1Application@@XZ@std@@@std@@@1@QEAU?$pair@PEBDV?$function@$$A6APEAVScene@1Application@@XZ@std@@@1@$$QEAU31@@Z+96
	DD	01H
xdata	ENDS
;	COMDAT xdata
xdata	SEGMENT
$stateUnwindMap$??$construct@U?$pair@PEBDV?$function@$$A6APEAVScene@1Application@@XZ@std@@@std@@U12@@?$_Default_allocator_traits@V?$allocator@U?$pair@PEBDV?$function@$$A6APEAVScene@1Application@@XZ@std@@@std@@@std@@@std@@SAXAEAV?$allocator@U?$pair@PEBDV?$function@$$A6APEAVScene@1Application@@XZ@std@@@std@@@1@QEAU?$pair@PEBDV?$function@$$A6APEAVScene@1Application@@XZ@std@@@1@$$QEAU31@@Z DD 0ffffffffH
