; Listing generated by Microsoft (R) Optimizing Compiler Version 19.14.26433.0 

include listing.inc

INCLUDELIB OLDNAMES

PUBLIC	??_R1A@?0A@EA@Scene@0Application@@8		; Application::Scene::Scene::`RTTI Base Class Descriptor at (0,-1,0,64)'
PUBLIC	??_R1A@?0A@EA@BatchRendererScene@Scene@Application@@8 ; Application::Scene::BatchRendererScene::`RTTI Base Class Descriptor at (0,-1,0,64)'
PUBLIC	??_R3Scene@0Application@@8			; Application::Scene::Scene::`RTTI Class Hierarchy Descriptor'
PUBLIC	??_R0?AVScene@0Application@@@8			; Application::Scene::Scene `RTTI Type Descriptor'
PUBLIC	??_R4BatchRendererScene@Scene@Application@@6B@	; Application::Scene::BatchRendererScene::`RTTI Complete Object Locator'
PUBLIC	??_R2BatchRendererScene@Scene@Application@@8	; Application::Scene::BatchRendererScene::`RTTI Base Class Array'
PUBLIC	??_R2Scene@0Application@@8			; Application::Scene::Scene::`RTTI Base Class Array'
PUBLIC	??_7BatchRendererScene@Scene@Application@@6B@	; Application::Scene::BatchRendererScene::`vftable'
PUBLIC	??_R0?AVBatchRendererScene@Scene@Application@@@8 ; Application::Scene::BatchRendererScene `RTTI Type Descriptor'
PUBLIC	??_R3BatchRendererScene@Scene@Application@@8	; Application::Scene::BatchRendererScene::`RTTI Class Hierarchy Descriptor'
PUBLIC	??_C@_0CF@MCOFFGAJ@res?1shaders?1BatchRendererTest?4sh@ ; `string'
PUBLIC	??_C@_08IMNAFLGG@prMatrix?$AA@			; `string'
PUBLIC	??_C@_08FDLBOOOB@mousePos?$AA@			; `string'
PUBLIC	??_C@_08KFCDPDHF@strength?$AA@			; `string'
PUBLIC	??_C@_07PEFMIECA@doLight?$AA@			; `string'
PUBLIC	??_C@_0BF@IPJPDOFC@Batch?5Renderer?5Test?$CB?$AA@ ; `string'
PUBLIC	??_C@_0BI@EIFLKDM@Window?5Size?3?5?$CF?41f?0?5?$CF?41f?$AA@ ; `string'
PUBLIC	??_C@_0BB@BNODLDCD@Sprite?5Count?3?5?$CFd?$AA@	; `string'
PUBLIC	??_C@_0BL@CKFJBINN@Light?5Position?3?5?$CF?41f?0?5?$CF?41f?$AA@ ; `string'
PUBLIC	??_C@_0P@OHPFCADO@Light?5Strength?$AA@		; `string'
PUBLIC	??_C@_0BI@MIJOFKAI@Do?5Lighting?5Calculation?$AA@ ; `string'
PUBLIC	??_C@_1DK@BGNCJAPL@?$AAi?$AA?5?$AA?$DO?$AA?$DN?$AA?5?$AA0?$AA?5?$AA?$CG?$AA?$CG?$AA?5?$AAi?$AA?5?$AA?$DM?$AA?5?$AAt?$AAh?$AAi?$AAs?$AA?9?$AA?$DO?$AAl?$AAe?$AAn?$AAg?$AAt?$AAh?$AA?$CI?$AA?$CJ?$AA?$AA@ ; `string'
PUBLIC	??_C@_1JE@FOLDLNOC@?$AAf?$AA?3?$AA?2?$AAd?$AAe?$AAv?$AA?2?$AAf?$AAe?$AAa?$AAt?$AAh?$AAe?$AAr?$AAf?$AAa?$AAl?$AAl?$AAe?$AAn?$AAg?$AAi?$AAn?$AAe?$AA?2?$AAd?$AAe?$AAp?$AAe?$AAn?$AAd?$AAs@ ; `string'
PUBLIC	??_C@_1JI@LCCOONMA@?$AAf?$AA?3?$AA?2?$AAd?$AAe?$AAv?$AA?2?$AAf?$AAe?$AAa?$AAt?$AAh?$AAe?$AAr?$AAf?$AAa?$AAl?$AAl?$AAe?$AAn?$AAg?$AAi?$AAn?$AAe?$AA?2?$AAd?$AAe?$AAp?$AAe?$AAn?$AAd?$AAs@ ; `string'
PUBLIC	??_C@_1CG@KOFHLCJL@?$AAi?$AA?5?$AA?$DM?$AA?5?$AAt?$AAh?$AAi?$AAs?$AA?9?$AA?$DO?$AAl?$AAe?$AAn?$AAg?$AAt?$AAh?$AA?$CI?$AA?$CJ?$AA?$AA@ ; `string'
PUBLIC	??_C@_0BA@JFNIOLAK@string?5too?5long?$AA@	; `string'
EXTRN	__imp__wassert:PROC
EXTRN	__imp__time64:PROC
EXTRN	__imp_srand:PROC
;	COMDAT ??_C@_0BA@JFNIOLAK@string?5too?5long?$AA@
CONST	SEGMENT
??_C@_0BA@JFNIOLAK@string?5too?5long?$AA@ DB 'string too long', 00H ; `string'
CONST	ENDS
;	COMDAT ??_C@_1CG@KOFHLCJL@?$AAi?$AA?5?$AA?$DM?$AA?5?$AAt?$AAh?$AAi?$AAs?$AA?9?$AA?$DO?$AAl?$AAe?$AAn?$AAg?$AAt?$AAh?$AA?$CI?$AA?$CJ?$AA?$AA@
CONST	SEGMENT
??_C@_1CG@KOFHLCJL@?$AAi?$AA?5?$AA?$DM?$AA?5?$AAt?$AAh?$AAi?$AAs?$AA?9?$AA?$DO?$AAl?$AAe?$AAn?$AAg?$AAt?$AAh?$AA?$CI?$AA?$CJ?$AA?$AA@ DB 'i'
	DB	00H, ' ', 00H, '<', 00H, ' ', 00H, 't', 00H, 'h', 00H, 'i', 00H
	DB	's', 00H, '-', 00H, '>', 00H, 'l', 00H, 'e', 00H, 'n', 00H, 'g'
	DB	00H, 't', 00H, 'h', 00H, '(', 00H, ')', 00H, 00H, 00H ; `string'
CONST	ENDS
;	COMDAT ??_C@_1JI@LCCOONMA@?$AAf?$AA?3?$AA?2?$AAd?$AAe?$AAv?$AA?2?$AAf?$AAe?$AAa?$AAt?$AAh?$AAe?$AAr?$AAf?$AAa?$AAl?$AAl?$AAe?$AAn?$AAg?$AAi?$AAn?$AAe?$AA?2?$AAd?$AAe?$AAp?$AAe?$AAn?$AAd?$AAs@
CONST	SEGMENT
??_C@_1JI@LCCOONMA@?$AAf?$AA?3?$AA?2?$AAd?$AAe?$AAv?$AA?2?$AAf?$AAe?$AAa?$AAt?$AAh?$AAe?$AAr?$AAf?$AAa?$AAl?$AAl?$AAe?$AAn?$AAg?$AAi?$AAn?$AAe?$AA?2?$AAd?$AAe?$AAp?$AAe?$AAn?$AAd?$AAs@ DB 'f'
	DB	00H, ':', 00H, '\', 00H, 'd', 00H, 'e', 00H, 'v', 00H, '\', 00H
	DB	'f', 00H, 'e', 00H, 'a', 00H, 't', 00H, 'h', 00H, 'e', 00H, 'r'
	DB	00H, 'f', 00H, 'a', 00H, 'l', 00H, 'l', 00H, 'e', 00H, 'n', 00H
	DB	'g', 00H, 'i', 00H, 'n', 00H, 'e', 00H, '\', 00H, 'd', 00H, 'e'
	DB	00H, 'p', 00H, 'e', 00H, 'n', 00H, 'd', 00H, 's', 00H, '\', 00H
	DB	'i', 00H, 'n', 00H, 's', 00H, 't', 00H, 'a', 00H, 'l', 00H, 'l'
	DB	00H, '\', 00H, 'i', 00H, 'n', 00H, 'c', 00H, 'l', 00H, 'u', 00H
	DB	'd', 00H, 'e', 00H, '\', 00H, 'g', 00H, 'l', 00H, 'm', 00H, '\'
	DB	00H, 'd', 00H, 'e', 00H, 't', 00H, 'a', 00H, 'i', 00H, 'l', 00H
	DB	'\', 00H, 't', 00H, 'y', 00H, 'p', 00H, 'e', 00H, '_', 00H, 'm'
	DB	00H, 'a', 00H, 't', 00H, '4', 00H, 'x', 00H, '4', 00H, '.', 00H
	DB	'i', 00H, 'n', 00H, 'l', 00H, 00H, 00H	; `string'
CONST	ENDS
;	COMDAT ??_C@_1JE@FOLDLNOC@?$AAf?$AA?3?$AA?2?$AAd?$AAe?$AAv?$AA?2?$AAf?$AAe?$AAa?$AAt?$AAh?$AAe?$AAr?$AAf?$AAa?$AAl?$AAl?$AAe?$AAn?$AAg?$AAi?$AAn?$AAe?$AA?2?$AAd?$AAe?$AAp?$AAe?$AAn?$AAd?$AAs@
CONST	SEGMENT
??_C@_1JE@FOLDLNOC@?$AAf?$AA?3?$AA?2?$AAd?$AAe?$AAv?$AA?2?$AAf?$AAe?$AAa?$AAt?$AAh?$AAe?$AAr?$AAf?$AAa?$AAl?$AAl?$AAe?$AAn?$AAg?$AAi?$AAn?$AAe?$AA?2?$AAd?$AAe?$AAp?$AAe?$AAn?$AAd?$AAs@ DB 'f'
	DB	00H, ':', 00H, '\', 00H, 'd', 00H, 'e', 00H, 'v', 00H, '\', 00H
	DB	'f', 00H, 'e', 00H, 'a', 00H, 't', 00H, 'h', 00H, 'e', 00H, 'r'
	DB	00H, 'f', 00H, 'a', 00H, 'l', 00H, 'l', 00H, 'e', 00H, 'n', 00H
	DB	'g', 00H, 'i', 00H, 'n', 00H, 'e', 00H, '\', 00H, 'd', 00H, 'e'
	DB	00H, 'p', 00H, 'e', 00H, 'n', 00H, 'd', 00H, 's', 00H, '\', 00H
	DB	'i', 00H, 'n', 00H, 's', 00H, 't', 00H, 'a', 00H, 'l', 00H, 'l'
	DB	00H, '\', 00H, 'i', 00H, 'n', 00H, 'c', 00H, 'l', 00H, 'u', 00H
	DB	'd', 00H, 'e', 00H, '\', 00H, 'g', 00H, 'l', 00H, 'm', 00H, '\'
	DB	00H, 'd', 00H, 'e', 00H, 't', 00H, 'a', 00H, 'i', 00H, 'l', 00H
	DB	'\', 00H, 't', 00H, 'y', 00H, 'p', 00H, 'e', 00H, '_', 00H, 'v'
	DB	00H, 'e', 00H, 'c', 00H, '4', 00H, '.', 00H, 'i', 00H, 'n', 00H
	DB	'l', 00H, 00H, 00H				; `string'
CONST	ENDS
;	COMDAT ??_C@_1DK@BGNCJAPL@?$AAi?$AA?5?$AA?$DO?$AA?$DN?$AA?5?$AA0?$AA?5?$AA?$CG?$AA?$CG?$AA?5?$AAi?$AA?5?$AA?$DM?$AA?5?$AAt?$AAh?$AAi?$AAs?$AA?9?$AA?$DO?$AAl?$AAe?$AAn?$AAg?$AAt?$AAh?$AA?$CI?$AA?$CJ?$AA?$AA@
CONST	SEGMENT
??_C@_1DK@BGNCJAPL@?$AAi?$AA?5?$AA?$DO?$AA?$DN?$AA?5?$AA0?$AA?5?$AA?$CG?$AA?$CG?$AA?5?$AAi?$AA?5?$AA?$DM?$AA?5?$AAt?$AAh?$AAi?$AAs?$AA?9?$AA?$DO?$AAl?$AAe?$AAn?$AAg?$AAt?$AAh?$AA?$CI?$AA?$CJ?$AA?$AA@ DB 'i'
	DB	00H, ' ', 00H, '>', 00H, '=', 00H, ' ', 00H, '0', 00H, ' ', 00H
	DB	'&', 00H, '&', 00H, ' ', 00H, 'i', 00H, ' ', 00H, '<', 00H, ' '
	DB	00H, 't', 00H, 'h', 00H, 'i', 00H, 's', 00H, '-', 00H, '>', 00H
	DB	'l', 00H, 'e', 00H, 'n', 00H, 'g', 00H, 't', 00H, 'h', 00H, '('
	DB	00H, ')', 00H, 00H, 00H			; `string'
CONST	ENDS
;	COMDAT ??_C@_0BI@MIJOFKAI@Do?5Lighting?5Calculation?$AA@
CONST	SEGMENT
??_C@_0BI@MIJOFKAI@Do?5Lighting?5Calculation?$AA@ DB 'Do Lighting Calcula'
	DB	'tion', 00H					; `string'
CONST	ENDS
;	COMDAT ??_C@_0P@OHPFCADO@Light?5Strength?$AA@
CONST	SEGMENT
??_C@_0P@OHPFCADO@Light?5Strength?$AA@ DB 'Light Strength', 00H ; `string'
CONST	ENDS
;	COMDAT ??_C@_0BL@CKFJBINN@Light?5Position?3?5?$CF?41f?0?5?$CF?41f?$AA@
CONST	SEGMENT
??_C@_0BL@CKFJBINN@Light?5Position?3?5?$CF?41f?0?5?$CF?41f?$AA@ DB 'Light'
	DB	' Position: %.1f, %.1f', 00H			; `string'
CONST	ENDS
;	COMDAT ??_C@_0BB@BNODLDCD@Sprite?5Count?3?5?$CFd?$AA@
CONST	SEGMENT
??_C@_0BB@BNODLDCD@Sprite?5Count?3?5?$CFd?$AA@ DB 'Sprite Count: %d', 00H ; `string'
CONST	ENDS
;	COMDAT ??_C@_0BI@EIFLKDM@Window?5Size?3?5?$CF?41f?0?5?$CF?41f?$AA@
CONST	SEGMENT
??_C@_0BI@EIFLKDM@Window?5Size?3?5?$CF?41f?0?5?$CF?41f?$AA@ DB 'Window Si'
	DB	'ze: %.1f, %.1f', 00H			; `string'
CONST	ENDS
;	COMDAT ??_C@_0BF@IPJPDOFC@Batch?5Renderer?5Test?$CB?$AA@
CONST	SEGMENT
??_C@_0BF@IPJPDOFC@Batch?5Renderer?5Test?$CB?$AA@ DB 'Batch Renderer Test'
	DB	'!', 00H					; `string'
CONST	ENDS
;	COMDAT ??_C@_07PEFMIECA@doLight?$AA@
CONST	SEGMENT
??_C@_07PEFMIECA@doLight?$AA@ DB 'doLight', 00H		; `string'
CONST	ENDS
;	COMDAT ??_C@_08KFCDPDHF@strength?$AA@
CONST	SEGMENT
??_C@_08KFCDPDHF@strength?$AA@ DB 'strength', 00H	; `string'
CONST	ENDS
;	COMDAT ??_C@_08FDLBOOOB@mousePos?$AA@
CONST	SEGMENT
??_C@_08FDLBOOOB@mousePos?$AA@ DB 'mousePos', 00H	; `string'
CONST	ENDS
;	COMDAT ??_C@_08IMNAFLGG@prMatrix?$AA@
CONST	SEGMENT
??_C@_08IMNAFLGG@prMatrix?$AA@ DB 'prMatrix', 00H	; `string'
CONST	ENDS
;	COMDAT ??_C@_0CF@MCOFFGAJ@res?1shaders?1BatchRendererTest?4sh@
CONST	SEGMENT
??_C@_0CF@MCOFFGAJ@res?1shaders?1BatchRendererTest?4sh@ DB 'res/shaders/B'
	DB	'atchRendererTest.shader', 00H		; `string'
CONST	ENDS
;	COMDAT ??_R3BatchRendererScene@Scene@Application@@8
rdata$r	SEGMENT
??_R3BatchRendererScene@Scene@Application@@8 DD 00H	; Application::Scene::BatchRendererScene::`RTTI Class Hierarchy Descriptor'
	DD	00H
	DD	02H
	DD	imagerel ??_R2BatchRendererScene@Scene@Application@@8
rdata$r	ENDS
;	COMDAT ??_R0?AVBatchRendererScene@Scene@Application@@@8
data$r	SEGMENT
??_R0?AVBatchRendererScene@Scene@Application@@@8 DQ FLAT:??_7type_info@@6B@ ; Application::Scene::BatchRendererScene `RTTI Type Descriptor'
	DQ	0000000000000000H
	DB	'.?AVBatchRendererScene@Scene@Application@@', 00H
data$r	ENDS
;	COMDAT ??_7BatchRendererScene@Scene@Application@@6B@
CONST	SEGMENT
??_7BatchRendererScene@Scene@Application@@6B@ DQ FLAT:??_R4BatchRendererScene@Scene@Application@@6B@ ; Application::Scene::BatchRendererScene::`vftable'
	DQ	FLAT:??_EBatchRendererScene@Scene@Application@@UEAAPEAXI@Z
	DQ	FLAT:?OnUpdate@BatchRendererScene@Scene@Application@@UEAAXM@Z
	DQ	FLAT:?OnRender@BatchRendererScene@Scene@Application@@UEAAXXZ
	DQ	FLAT:?OnImGuiRender@BatchRendererScene@Scene@Application@@UEAAXXZ
CONST	ENDS
;	COMDAT ??_R2Scene@0Application@@8
rdata$r	SEGMENT
??_R2Scene@0Application@@8 DD imagerel ??_R1A@?0A@EA@Scene@0Application@@8 ; Application::Scene::Scene::`RTTI Base Class Array'
	ORG $+3
rdata$r	ENDS
;	COMDAT ??_R2BatchRendererScene@Scene@Application@@8
rdata$r	SEGMENT
??_R2BatchRendererScene@Scene@Application@@8 DD imagerel ??_R1A@?0A@EA@BatchRendererScene@Scene@Application@@8 ; Application::Scene::BatchRendererScene::`RTTI Base Class Array'
	DD	imagerel ??_R1A@?0A@EA@Scene@0Application@@8
	ORG $+3
rdata$r	ENDS
;	COMDAT ??_R4BatchRendererScene@Scene@Application@@6B@
rdata$r	SEGMENT
??_R4BatchRendererScene@Scene@Application@@6B@ DD 01H	; Application::Scene::BatchRendererScene::`RTTI Complete Object Locator'
	DD	00H
	DD	00H
	DD	imagerel ??_R0?AVBatchRendererScene@Scene@Application@@@8
	DD	imagerel ??_R3BatchRendererScene@Scene@Application@@8
	DD	imagerel ??_R4BatchRendererScene@Scene@Application@@6B@
rdata$r	ENDS
;	COMDAT ??_R0?AVScene@0Application@@@8
data$r	SEGMENT
??_R0?AVScene@0Application@@@8 DQ FLAT:??_7type_info@@6B@ ; Application::Scene::Scene `RTTI Type Descriptor'
	DQ	0000000000000000H
	DB	'.?AVScene@0Application@@', 00H
data$r	ENDS
;	COMDAT ??_R3Scene@0Application@@8
rdata$r	SEGMENT
??_R3Scene@0Application@@8 DD 00H			; Application::Scene::Scene::`RTTI Class Hierarchy Descriptor'
	DD	00H
	DD	01H
	DD	imagerel ??_R2Scene@0Application@@8
rdata$r	ENDS
;	COMDAT ??_R1A@?0A@EA@BatchRendererScene@Scene@Application@@8
rdata$r	SEGMENT
??_R1A@?0A@EA@BatchRendererScene@Scene@Application@@8 DD imagerel ??_R0?AVBatchRendererScene@Scene@Application@@@8 ; Application::Scene::BatchRendererScene::`RTTI Base Class Descriptor at (0,-1,0,64)'
	DD	01H
	DD	00H
	DD	0ffffffffH
	DD	00H
	DD	040H
	DD	imagerel ??_R3BatchRendererScene@Scene@Application@@8
rdata$r	ENDS
;	COMDAT ??_R1A@?0A@EA@Scene@0Application@@8
rdata$r	SEGMENT
??_R1A@?0A@EA@Scene@0Application@@8 DD imagerel ??_R0?AVScene@0Application@@@8 ; Application::Scene::Scene::`RTTI Base Class Descriptor at (0,-1,0,64)'
	DD	00H
	DD	00H
	DD	0ffffffffH
	DD	00H
	DD	040H
	DD	imagerel ??_R3Scene@0Application@@8
PUBLIC	??$_Copy_memmove@PEAPEAVRenderable2D@graphics@core@@PEAPEAV123@@std@@YAPEAPEAVRenderable2D@graphics@core@@PEAPEAV123@00@Z ; std::_Copy_memmove<core::graphics::Renderable2D * *,core::graphics::Renderable2D * *>
PUBLIC	??$_Rechecked@PEAPEAVRenderable2D@graphics@core@@PEAPEAV123@@std@@YAAEAPEAPEAVRenderable2D@graphics@core@@AEAPEAPEAV123@QEAPEAV123@@Z ; std::_Rechecked<core::graphics::Renderable2D * *,core::graphics::Renderable2D * *>
PUBLIC	??$_Uninitialized_move_al_unchecked@PEAVRenderable2D@graphics@core@@PEAV123@V?$allocator@PEAVRenderable2D@graphics@core@@@std@@@std@@YAPEAPEAVRenderable2D@graphics@core@@QEAPEAV123@00AEAV?$allocator@PEAVRenderable2D@graphics@core@@@0@U_Really_trivial_ptr_iterator_tag@0@U?$integral_constant@_N$00@0@@Z ; std::_Uninitialized_move_al_unchecked<core::graphics::Renderable2D *,core::graphics::Renderable2D *,std::allocator<core::graphics::Renderable2D *> >
PUBLIC	??$_Ptr_move_cat@PEAVRenderable2D@graphics@core@@PEAV123@@std@@YA?AU_Really_trivial_ptr_iterator_tag@0@AEBQEAPEAVRenderable2D@graphics@core@@0@Z ; std::_Ptr_move_cat<core::graphics::Renderable2D *,core::graphics::Renderable2D *>
PUBLIC	??$_Unchecked@PEAPEAVRenderable2D@graphics@core@@@std@@YAPEAPEAVRenderable2D@graphics@core@@PEAPEAV123@@Z ; std::_Unchecked<core::graphics::Renderable2D * *>
PUBLIC	??A?$tvec4@M$0A@@glm@@QEAAAEAMH@Z		; glm::tvec4<float,0>::operator[]
PUBLIC	?length@?$tvec4@M$0A@@glm@@SAHXZ		; glm::tvec4<float,0>::length
PUBLIC	?length@?$tmat4x4@M$0A@@glm@@SAHXZ		; glm::tmat4x4<float,0>::length
PUBLIC	??$_Uninitialized_move@PEAPEAVRenderable2D@graphics@core@@PEAPEAV123@V?$allocator@PEAVRenderable2D@graphics@core@@@std@@@std@@YAPEAPEAVRenderable2D@graphics@core@@QEAPEAV123@0PEAPEAV123@AEAV?$allocator@PEAVRenderable2D@graphics@core@@@0@@Z ; std::_Uninitialized_move<core::graphics::Renderable2D * *,core::graphics::Renderable2D * *,std::allocator<core::graphics::Renderable2D *> >
PUBLIC	??$_Destroy_range1@V?$allocator@PEAVRenderable2D@graphics@core@@@std@@@std@@YAXPEAPEAVRenderable2D@graphics@core@@0AEAV?$allocator@PEAVRenderable2D@graphics@core@@@0@U?$integral_constant@_N$00@0@@Z ; std::_Destroy_range1<std::allocator<core::graphics::Renderable2D *> >
PUBLIC	??$forward@AEBQEAD@std@@YAAEBQEADAEBQEAD@Z	; std::forward<char * const &>
PUBLIC	??$orthoRH@M@glm@@YA?AU?$tmat4x4@M$0A@@0@MMMMMM@Z ; glm::orthoRH<float>
PUBLIC	??$?0HHHM@?$tvec4@M$0A@@glm@@QEAA@HHHM@Z	; glm::tvec4<float,0>::tvec4<float,0><int,int,int,float>
PUBLIC	??$?0HHMH@?$tvec4@M$0A@@glm@@QEAA@HHMH@Z	; glm::tvec4<float,0>::tvec4<float,0><int,int,float,int>
PUBLIC	??$?0HMHH@?$tvec4@M$0A@@glm@@QEAA@HMHH@Z	; glm::tvec4<float,0>::tvec4<float,0><int,float,int,int>
PUBLIC	??$?0MHHH@?$tvec4@M$0A@@glm@@QEAA@MHHH@Z	; glm::tvec4<float,0>::tvec4<float,0><float,int,int,int>
PUBLIC	??A?$tmat4x4@M$0A@@glm@@QEAAAEAU?$tvec4@M$0A@@1@H@Z ; glm::tmat4x4<float,0>::operator[]
PUBLIC	??0?$tvec4@M$0A@@glm@@QEAA@XZ			; glm::tvec4<float,0>::tvec4<float,0>
PUBLIC	?_Get_first@?$_Compressed_pair@V?$allocator@PEAVRenderable2D@graphics@core@@@std@@V?$_Vector_val@U?$_Simple_types@PEAVRenderable2D@graphics@core@@@std@@@2@$00@std@@QEBAAEBV?$allocator@PEAVRenderable2D@graphics@core@@@2@XZ ; std::_Compressed_pair<std::allocator<core::graphics::Renderable2D *>,std::_Vector_val<std::_Simple_types<core::graphics::Renderable2D *> >,1>::_Get_first
PUBLIC	??0_Bxty@?$_String_val@U?$_Simple_types@D@std@@@std@@QEAA@XZ ; std::_String_val<std::_Simple_types<char> >::_Bxty::_Bxty
PUBLIC	?_Umove_if_noexcept1@?$vector@PEAVRenderable2D@graphics@core@@V?$allocator@PEAVRenderable2D@graphics@core@@@std@@@std@@AEAAXPEAPEAVRenderable2D@graphics@core@@00U?$integral_constant@_N$00@2@@Z ; std::vector<core::graphics::Renderable2D *,std::allocator<core::graphics::Renderable2D *> >::_Umove_if_noexcept1
PUBLIC	?_Getal@?$_Vector_alloc@U?$_Vec_base_types@PEAVRenderable2D@graphics@core@@V?$allocator@PEAVRenderable2D@graphics@core@@@std@@@std@@@std@@QEBAAEBV?$allocator@PEAVRenderable2D@graphics@core@@@2@XZ ; std::_Vector_alloc<std::_Vec_base_types<core::graphics::Renderable2D *,std::allocator<core::graphics::Renderable2D *> > >::_Getal
PUBLIC	?max_size@?$_Default_allocator_traits@V?$allocator@PEAVRenderable2D@graphics@core@@@std@@@std@@SA_KAEBV?$allocator@PEAVRenderable2D@graphics@core@@@2@@Z ; std::_Default_allocator_traits<std::allocator<core::graphics::Renderable2D *> >::max_size
PUBLIC	??0?$allocator@D@std@@QEAA@XZ			; std::allocator<char>::allocator<char>
PUBLIC	?_Calculate_growth@?$basic_string@DU?$char_traits@D@std@@V?$allocator@D@2@@std@@QEBA_K_K@Z ; std::basic_string<char,std::char_traits<char>,std::allocator<char> >::_Calculate_growth
PUBLIC	?_Xlen@?$basic_string@DU?$char_traits@D@std@@V?$allocator@D@2@@std@@SAXXZ ; std::basic_string<char,std::char_traits<char>,std::allocator<char> >::_Xlen
PUBLIC	??0?$_String_val@U?$_Simple_types@D@std@@@std@@QEAA@XZ ; std::_String_val<std::_Simple_types<char> >::_String_val<std::_Simple_types<char> >
PUBLIC	??0?$allocator@PEAVRenderable2D@graphics@core@@@std@@QEAA@XZ ; std::allocator<core::graphics::Renderable2D *>::allocator<core::graphics::Renderable2D *>
PUBLIC	?allocate@?$allocator@PEAVRenderable2D@graphics@core@@@std@@QEAAPEAPEAVRenderable2D@graphics@core@@_K@Z ; std::allocator<core::graphics::Renderable2D *>::allocate
PUBLIC	?max_size@?$vector@PEAVRenderable2D@graphics@core@@V?$allocator@PEAVRenderable2D@graphics@core@@@std@@@std@@QEBA_KXZ ; std::vector<core::graphics::Renderable2D *,std::allocator<core::graphics::Renderable2D *> >::max_size
PUBLIC	?_Umove@?$vector@PEAVRenderable2D@graphics@core@@V?$allocator@PEAVRenderable2D@graphics@core@@@std@@@std@@AEAAPEAPEAVRenderable2D@graphics@core@@PEAPEAV345@00@Z ; std::vector<core::graphics::Renderable2D *,std::allocator<core::graphics::Renderable2D *> >::_Umove
PUBLIC	?_Umove_if_noexcept@?$vector@PEAVRenderable2D@graphics@core@@V?$allocator@PEAVRenderable2D@graphics@core@@@std@@@std@@AEAAXPEAPEAVRenderable2D@graphics@core@@00@Z ; std::vector<core::graphics::Renderable2D *,std::allocator<core::graphics::Renderable2D *> >::_Umove_if_noexcept
PUBLIC	?_Calculate_growth@?$vector@PEAVRenderable2D@graphics@core@@V?$allocator@PEAVRenderable2D@graphics@core@@@std@@@std@@AEBA_K_K@Z ; std::vector<core::graphics::Renderable2D *,std::allocator<core::graphics::Renderable2D *> >::_Calculate_growth
PUBLIC	?_Change_array@?$vector@PEAVRenderable2D@graphics@core@@V?$allocator@PEAVRenderable2D@graphics@core@@@std@@@std@@AEAAXQEAPEAVRenderable2D@graphics@core@@_K1@Z ; std::vector<core::graphics::Renderable2D *,std::allocator<core::graphics::Renderable2D *> >::_Change_array
PUBLIC	?_Xlength@?$vector@PEAVRenderable2D@graphics@core@@V?$allocator@PEAVRenderable2D@graphics@core@@@std@@@std@@CAXXZ ; std::vector<core::graphics::Renderable2D *,std::allocator<core::graphics::Renderable2D *> >::_Xlength
PUBLIC	??0?$_Vector_val@U?$_Simple_types@PEAVRenderable2D@graphics@core@@@std@@@std@@QEAA@XZ ; std::_Vector_val<std::_Simple_types<core::graphics::Renderable2D *> >::_Vector_val<std::_Simple_types<core::graphics::Renderable2D *> >
PUBLIC	??$_Destroy_range@V?$allocator@PEAVRenderable2D@graphics@core@@@std@@@std@@YAXPEAPEAVRenderable2D@graphics@core@@0AEAV?$allocator@PEAVRenderable2D@graphics@core@@@0@@Z ; std::_Destroy_range<std::allocator<core::graphics::Renderable2D *> >
PUBLIC	??$construct@PEADAEBQEAD@?$_Default_allocator_traits@V?$allocator@D@std@@@std@@SAXAEAV?$allocator@D@1@QEAPEADAEBQEAD@Z ; std::_Default_allocator_traits<std::allocator<char> >::construct<char *,char * const &>
PUBLIC	??$destroy@PEAD@?$_Default_allocator_traits@V?$allocator@D@std@@@std@@SAXAEAV?$allocator@D@1@QEAPEAD@Z ; std::_Default_allocator_traits<std::allocator<char> >::destroy<char *>
PUBLIC	??$addressof@PEAD@std@@YAPEAPEADAEAPEAD@Z	; std::addressof<char *>
PUBLIC	??$?0$$V@?$_Compressed_pair@V?$allocator@D@std@@V?$_String_val@U?$_Simple_types@D@std@@@2@$00@std@@QEAA@U_Zero_then_variadic_args_t@1@@Z ; std::_Compressed_pair<std::allocator<char>,std::_String_val<std::_Simple_types<char> >,1>::_Compressed_pair<std::allocator<char>,std::_String_val<std::_Simple_types<char> >,1><>
PUBLIC	??$?0$$V@?$_Compressed_pair@V?$allocator@PEAVRenderable2D@graphics@core@@@std@@V?$_Vector_val@U?$_Simple_types@PEAVRenderable2D@graphics@core@@@std@@@2@$00@std@@QEAA@U_Zero_then_variadic_args_t@1@@Z ; std::_Compressed_pair<std::allocator<core::graphics::Renderable2D *>,std::_Vector_val<std::_Simple_types<core::graphics::Renderable2D *> >,1>::_Compressed_pair<std::allocator<core::graphics::Renderable2D *>,std::_Vector_val<std::_Simple_types<core::graphics::Renderable2D *> >,1><>
PUBLIC	??$_Unfancy@D@std@@YAPEADPEAD@Z			; std::_Unfancy<char>
PUBLIC	??$_Emplace_reallocate@PEAVRenderable2D@graphics@core@@@?$vector@PEAVRenderable2D@graphics@core@@V?$allocator@PEAVRenderable2D@graphics@core@@@std@@@std@@QEAAPEAPEAVRenderable2D@graphics@core@@QEAPEAV234@$$QEAPEAV234@@Z ; std::vector<core::graphics::Renderable2D *,std::allocator<core::graphics::Renderable2D *> >::_Emplace_reallocate<core::graphics::Renderable2D *>
PUBLIC	??$construct@PEAVRenderable2D@graphics@core@@PEAV123@@?$_Default_allocator_traits@V?$allocator@PEAVRenderable2D@graphics@core@@@std@@@std@@SAXAEAV?$allocator@PEAVRenderable2D@graphics@core@@@1@QEAPEAVRenderable2D@graphics@core@@$$QEAPEAV345@@Z ; std::_Default_allocator_traits<std::allocator<core::graphics::Renderable2D *> >::construct<core::graphics::Renderable2D *,core::graphics::Renderable2D *>
PUBLIC	??$_Unfancy@PEAVRenderable2D@graphics@core@@@std@@YAPEAPEAVRenderable2D@graphics@core@@PEAPEAV123@@Z ; std::_Unfancy<core::graphics::Renderable2D *>
PUBLIC	??$forward@PEAVRenderable2D@graphics@core@@@std@@YA$$QEAPEAVRenderable2D@graphics@core@@AEAPEAV123@@Z ; std::forward<core::graphics::Renderable2D *>
PUBLIC	??$move@AEAPEAVRenderable2D@graphics@core@@@std@@YA$$QEAPEAVRenderable2D@graphics@core@@AEAPEAV123@@Z ; std::move<core::graphics::Renderable2D * &>
PUBLIC	??$ortho@M@glm@@YA?AU?$tmat4x4@M$0A@@0@MMMMMM@Z	; glm::ortho<float>
PUBLIC	??0?$tmat4x4@M$0A@@glm@@QEAA@AEBM@Z		; glm::tmat4x4<float,0>::tmat4x4<float,0>
PUBLIC	??0?$tvec2@M$0A@@glm@@QEAA@XZ			; glm::tvec2<float,0>::tvec2<float,0>
PUBLIC	?_Get_second@?$_Compressed_pair@V?$allocator@PEAVRenderable2D@graphics@core@@@std@@V?$_Vector_val@U?$_Simple_types@PEAVRenderable2D@graphics@core@@@std@@@2@$00@std@@QEAAAEAV?$_Vector_val@U?$_Simple_types@PEAVRenderable2D@graphics@core@@@std@@@2@XZ ; std::_Compressed_pair<std::allocator<core::graphics::Renderable2D *>,std::_Vector_val<std::_Simple_types<core::graphics::Renderable2D *> >,1>::_Get_second
PUBLIC	?_Get_second@?$_Compressed_pair@V?$allocator@PEAVRenderable2D@graphics@core@@@std@@V?$_Vector_val@U?$_Simple_types@PEAVRenderable2D@graphics@core@@@std@@@2@$00@std@@QEBAAEBV?$_Vector_val@U?$_Simple_types@PEAVRenderable2D@graphics@core@@@std@@@2@XZ ; std::_Compressed_pair<std::allocator<core::graphics::Renderable2D *>,std::_Vector_val<std::_Simple_types<core::graphics::Renderable2D *> >,1>::_Get_second
PUBLIC	?assign@?$basic_string@DU?$char_traits@D@std@@V?$allocator@D@2@@std@@QEAAAEAV12@QEBD_K@Z ; std::basic_string<char,std::char_traits<char>,std::allocator<char> >::assign
PUBLIC	?max_size@?$_Default_allocator_traits@V?$allocator@D@std@@@std@@SA_KAEBV?$allocator@D@2@@Z ; std::_Default_allocator_traits<std::allocator<char> >::max_size
PUBLIC	?_Get_first@?$_Compressed_pair@V?$allocator@D@std@@V?$_String_val@U?$_Simple_types@D@std@@@2@$00@std@@QEAAAEAV?$allocator@D@2@XZ ; std::_Compressed_pair<std::allocator<char>,std::_String_val<std::_Simple_types<char> >,1>::_Get_first
PUBLIC	?_Get_first@?$_Compressed_pair@V?$allocator@D@std@@V?$_String_val@U?$_Simple_types@D@std@@@2@$00@std@@QEBAAEBV?$allocator@D@2@XZ ; std::_Compressed_pair<std::allocator<char>,std::_String_val<std::_Simple_types<char> >,1>::_Get_first
PUBLIC	?_Get_second@?$_Compressed_pair@V?$allocator@D@std@@V?$_String_val@U?$_Simple_types@D@std@@@2@$00@std@@QEAAAEAV?$_String_val@U?$_Simple_types@D@std@@@2@XZ ; std::_Compressed_pair<std::allocator<char>,std::_String_val<std::_Simple_types<char> >,1>::_Get_second
PUBLIC	?_Get_second@?$_Compressed_pair@V?$allocator@D@std@@V?$_String_val@U?$_Simple_types@D@std@@@2@$00@std@@QEBAAEBV?$_String_val@U?$_Simple_types@D@std@@@2@XZ ; std::_Compressed_pair<std::allocator<char>,std::_String_val<std::_Simple_types<char> >,1>::_Get_second
PUBLIC	?deallocate@?$allocator@PEAVRenderable2D@graphics@core@@@std@@QEAAXQEAPEAVRenderable2D@graphics@core@@_K@Z ; std::allocator<core::graphics::Renderable2D *>::deallocate
PUBLIC	?capacity@?$vector@PEAVRenderable2D@graphics@core@@V?$allocator@PEAVRenderable2D@graphics@core@@@std@@@std@@QEBA_KXZ ; std::vector<core::graphics::Renderable2D *,std::allocator<core::graphics::Renderable2D *> >::capacity
PUBLIC	?_Destroy@?$vector@PEAVRenderable2D@graphics@core@@V?$allocator@PEAVRenderable2D@graphics@core@@@std@@@std@@AEAAXPEAPEAVRenderable2D@graphics@core@@0@Z ; std::vector<core::graphics::Renderable2D *,std::allocator<core::graphics::Renderable2D *> >::_Destroy
PUBLIC	?_Orphan_all@?$_Vector_alloc@U?$_Vec_base_types@PEAVRenderable2D@graphics@core@@V?$allocator@PEAVRenderable2D@graphics@core@@@std@@@std@@@std@@QEAAXXZ ; std::_Vector_alloc<std::_Vec_base_types<core::graphics::Renderable2D *,std::allocator<core::graphics::Renderable2D *> > >::_Orphan_all
PUBLIC	?_Get_data@?$_Vector_alloc@U?$_Vec_base_types@PEAVRenderable2D@graphics@core@@V?$allocator@PEAVRenderable2D@graphics@core@@@std@@@std@@@std@@QEAAAEAV?$_Vector_val@U?$_Simple_types@PEAVRenderable2D@graphics@core@@@std@@@2@XZ ; std::_Vector_alloc<std::_Vec_base_types<core::graphics::Renderable2D *,std::allocator<core::graphics::Renderable2D *> > >::_Get_data
PUBLIC	?_Get_data@?$_Vector_alloc@U?$_Vec_base_types@PEAVRenderable2D@graphics@core@@V?$allocator@PEAVRenderable2D@graphics@core@@@std@@@std@@@std@@QEBAAEBV?$_Vector_val@U?$_Simple_types@PEAVRenderable2D@graphics@core@@@std@@@2@XZ ; std::_Vector_alloc<std::_Vec_base_types<core::graphics::Renderable2D *,std::allocator<core::graphics::Renderable2D *> > >::_Get_data
PUBLIC	?_Myend@?$_Vector_alloc@U?$_Vec_base_types@PEAVRenderable2D@graphics@core@@V?$allocator@PEAVRenderable2D@graphics@core@@@std@@@std@@@std@@QEAAAEAPEAPEAVRenderable2D@graphics@core@@XZ ; std::_Vector_alloc<std::_Vec_base_types<core::graphics::Renderable2D *,std::allocator<core::graphics::Renderable2D *> > >::_Myend
PUBLIC	?_Myend@?$_Vector_alloc@U?$_Vec_base_types@PEAVRenderable2D@graphics@core@@V?$allocator@PEAVRenderable2D@graphics@core@@@std@@@std@@@std@@QEBAAEBQEAPEAVRenderable2D@graphics@core@@XZ ; std::_Vector_alloc<std::_Vec_base_types<core::graphics::Renderable2D *,std::allocator<core::graphics::Renderable2D *> > >::_Myend
PUBLIC	?_Get_first@?$_Compressed_pair@V?$allocator@PEAVRenderable2D@graphics@core@@@std@@V?$_Vector_val@U?$_Simple_types@PEAVRenderable2D@graphics@core@@@std@@@2@$00@std@@QEAAAEAV?$allocator@PEAVRenderable2D@graphics@core@@@2@XZ ; std::_Compressed_pair<std::allocator<core::graphics::Renderable2D *>,std::_Vector_val<std::_Simple_types<core::graphics::Renderable2D *> >,1>::_Get_first
PUBLIC	?deallocate@?$allocator@D@std@@QEAAXQEAD_K@Z	; std::allocator<char>::deallocate
PUBLIC	?allocate@?$allocator@D@std@@QEAAPEAD_K@Z	; std::allocator<char>::allocate
PUBLIC	?assign@?$basic_string@DU?$char_traits@D@std@@V?$allocator@D@2@@std@@QEAAAEAV12@QEBD@Z ; std::basic_string<char,std::char_traits<char>,std::allocator<char> >::assign
PUBLIC	??$_Max_value@_K@std@@YAAEB_KAEB_K0@Z		; std::_Max_value<unsigned __int64>
PUBLIC	?max_size@?$basic_string@DU?$char_traits@D@std@@V?$allocator@D@2@@std@@QEBA_KXZ ; std::basic_string<char,std::char_traits<char>,std::allocator<char> >::max_size
PUBLIC	?_Tidy_init@?$basic_string@DU?$char_traits@D@std@@V?$allocator@D@2@@std@@QEAAXXZ ; std::basic_string<char,std::char_traits<char>,std::allocator<char> >::_Tidy_init
PUBLIC	?_Tidy_deallocate@?$basic_string@DU?$char_traits@D@std@@V?$allocator@D@2@@std@@QEAAXXZ ; std::basic_string<char,std::char_traits<char>,std::allocator<char> >::_Tidy_deallocate
PUBLIC	??0?$_String_alloc@U?$_String_base_types@DV?$allocator@D@std@@@std@@@std@@QEAA@XZ ; std::_String_alloc<std::_String_base_types<char,std::allocator<char> > >::_String_alloc<std::_String_base_types<char,std::allocator<char> > >
PUBLIC	?_Orphan_all@?$_String_alloc@U?$_String_base_types@DV?$allocator@D@std@@@std@@@std@@QEAAXXZ ; std::_String_alloc<std::_String_base_types<char,std::allocator<char> > >::_Orphan_all
PUBLIC	?_Getal@?$_String_alloc@U?$_String_base_types@DV?$allocator@D@std@@@std@@@std@@QEAAAEAV?$allocator@D@2@XZ ; std::_String_alloc<std::_String_base_types<char,std::allocator<char> > >::_Getal
PUBLIC	?_Getal@?$_String_alloc@U?$_String_base_types@DV?$allocator@D@std@@@std@@@std@@QEBAAEBV?$allocator@D@2@XZ ; std::_String_alloc<std::_String_base_types<char,std::allocator<char> > >::_Getal
PUBLIC	?_Get_data@?$_String_alloc@U?$_String_base_types@DV?$allocator@D@std@@@std@@@std@@QEAAAEAV?$_String_val@U?$_Simple_types@D@std@@@2@XZ ; std::_String_alloc<std::_String_base_types<char,std::allocator<char> > >::_Get_data
PUBLIC	?_Get_data@?$_String_alloc@U?$_String_base_types@DV?$allocator@D@std@@@std@@@std@@QEBAAEBV?$_String_val@U?$_Simple_types@D@std@@@2@XZ ; std::_String_alloc<std::_String_base_types<char,std::allocator<char> > >::_Get_data
PUBLIC	?_Myptr@?$_String_val@U?$_Simple_types@D@std@@@std@@QEAAPEADXZ ; std::_String_val<std::_Simple_types<char> >::_Myptr
PUBLIC	?_Large_string_engaged@?$_String_val@U?$_Simple_types@D@std@@@std@@QEBA_NXZ ; std::_String_val<std::_Simple_types<char> >::_Large_string_engaged
PUBLIC	??1_Bxty@?$_String_val@U?$_Simple_types@D@std@@@std@@QEAA@XZ ; std::_String_val<std::_Simple_types<char> >::_Bxty::~_Bxty
PUBLIC	?_Has_unused_capacity@?$vector@PEAVRenderable2D@graphics@core@@V?$allocator@PEAVRenderable2D@graphics@core@@@std@@@std@@AEBA_NXZ ; std::vector<core::graphics::Renderable2D *,std::allocator<core::graphics::Renderable2D *> >::_Has_unused_capacity
PUBLIC	?_Tidy@?$vector@PEAVRenderable2D@graphics@core@@V?$allocator@PEAVRenderable2D@graphics@core@@@std@@@std@@AEAAXXZ ; std::vector<core::graphics::Renderable2D *,std::allocator<core::graphics::Renderable2D *> >::_Tidy
PUBLIC	?_Orphan_range@?$vector@PEAVRenderable2D@graphics@core@@V?$allocator@PEAVRenderable2D@graphics@core@@@std@@@std@@AEBAXPEAPEAVRenderable2D@graphics@core@@0@Z ; std::vector<core::graphics::Renderable2D *,std::allocator<core::graphics::Renderable2D *> >::_Orphan_range
PUBLIC	??0?$_Vector_alloc@U?$_Vec_base_types@PEAVRenderable2D@graphics@core@@V?$allocator@PEAVRenderable2D@graphics@core@@@std@@@std@@@std@@QEAA@XZ ; std::_Vector_alloc<std::_Vec_base_types<core::graphics::Renderable2D *,std::allocator<core::graphics::Renderable2D *> > >::_Vector_alloc<std::_Vec_base_types<core::graphics::Renderable2D *,std::allocator<core::graphics::Renderable2D *> > >
PUBLIC	?_Getal@?$_Vector_alloc@U?$_Vec_base_types@PEAVRenderable2D@graphics@core@@V?$allocator@PEAVRenderable2D@graphics@core@@@std@@@std@@@std@@QEAAAEAV?$allocator@PEAVRenderable2D@graphics@core@@@2@XZ ; std::_Vector_alloc<std::_Vec_base_types<core::graphics::Renderable2D *,std::allocator<core::graphics::Renderable2D *> > >::_Getal
PUBLIC	?_Myfirst@?$_Vector_alloc@U?$_Vec_base_types@PEAVRenderable2D@graphics@core@@V?$allocator@PEAVRenderable2D@graphics@core@@@std@@@std@@@std@@QEAAAEAPEAPEAVRenderable2D@graphics@core@@XZ ; std::_Vector_alloc<std::_Vec_base_types<core::graphics::Renderable2D *,std::allocator<core::graphics::Renderable2D *> > >::_Myfirst
PUBLIC	?_Myfirst@?$_Vector_alloc@U?$_Vec_base_types@PEAVRenderable2D@graphics@core@@V?$allocator@PEAVRenderable2D@graphics@core@@@std@@@std@@@std@@QEBAAEBQEAPEAVRenderable2D@graphics@core@@XZ ; std::_Vector_alloc<std::_Vec_base_types<core::graphics::Renderable2D *,std::allocator<core::graphics::Renderable2D *> > >::_Myfirst
PUBLIC	?_Mylast@?$_Vector_alloc@U?$_Vec_base_types@PEAVRenderable2D@graphics@core@@V?$allocator@PEAVRenderable2D@graphics@core@@@std@@@std@@@std@@QEAAAEAPEAPEAVRenderable2D@graphics@core@@XZ ; std::_Vector_alloc<std::_Vec_base_types<core::graphics::Renderable2D *,std::allocator<core::graphics::Renderable2D *> > >::_Mylast
PUBLIC	?_Mylast@?$_Vector_alloc@U?$_Vec_base_types@PEAVRenderable2D@graphics@core@@V?$allocator@PEAVRenderable2D@graphics@core@@@std@@@std@@@std@@QEBAAEBQEAPEAVRenderable2D@graphics@core@@XZ ; std::_Vector_alloc<std::_Vec_base_types<core::graphics::Renderable2D *,std::allocator<core::graphics::Renderable2D *> > >::_Mylast
PUBLIC	??1?$_String_val@U?$_Simple_types@D@std@@@std@@QEAA@XZ ; std::_String_val<std::_Simple_types<char> >::~_String_val<std::_Simple_types<char> >
PUBLIC	??1?$_Compressed_pair@V?$allocator@D@std@@V?$_String_val@U?$_Simple_types@D@std@@@2@$00@std@@QEAA@XZ ; std::_Compressed_pair<std::allocator<char>,std::_String_val<std::_Simple_types<char> >,1>::~_Compressed_pair<std::allocator<char>,std::_String_val<std::_Simple_types<char> >,1>
PUBLIC	??1?$_String_alloc@U?$_String_base_types@DV?$allocator@D@std@@@std@@@std@@QEAA@XZ ; std::_String_alloc<std::_String_base_types<char,std::allocator<char> > >::~_String_alloc<std::_String_base_types<char,std::allocator<char> > >
PUBLIC	??0?$basic_string@DU?$char_traits@D@std@@V?$allocator@D@2@@std@@QEAA@QEBD@Z ; std::basic_string<char,std::char_traits<char>,std::allocator<char> >::basic_string<char,std::char_traits<char>,std::allocator<char> >
PUBLIC	??1?$basic_string@DU?$char_traits@D@std@@V?$allocator@D@2@@std@@QEAA@XZ ; std::basic_string<char,std::char_traits<char>,std::allocator<char> >::~basic_string<char,std::char_traits<char>,std::allocator<char> >
PUBLIC	??0?$vector@PEAVRenderable2D@graphics@core@@V?$allocator@PEAVRenderable2D@graphics@core@@@std@@@std@@QEAA@XZ ; std::vector<core::graphics::Renderable2D *,std::allocator<core::graphics::Renderable2D *> >::vector<core::graphics::Renderable2D *,std::allocator<core::graphics::Renderable2D *> >
PUBLIC	??1?$vector@PEAVRenderable2D@graphics@core@@V?$allocator@PEAVRenderable2D@graphics@core@@@std@@@std@@QEAA@XZ ; std::vector<core::graphics::Renderable2D *,std::allocator<core::graphics::Renderable2D *> >::~vector<core::graphics::Renderable2D *,std::allocator<core::graphics::Renderable2D *> >
PUBLIC	??$_Emplace_back_with_unused_capacity@PEAVRenderable2D@graphics@core@@@?$vector@PEAVRenderable2D@graphics@core@@V?$allocator@PEAVRenderable2D@graphics@core@@@std@@@std@@AEAAX$$QEAPEAVRenderable2D@graphics@core@@@Z ; std::vector<core::graphics::Renderable2D *,std::allocator<core::graphics::Renderable2D *> >::_Emplace_back_with_unused_capacity<core::graphics::Renderable2D *>
PUBLIC	??$emplace_back@PEAVRenderable2D@graphics@core@@@?$vector@PEAVRenderable2D@graphics@core@@V?$allocator@PEAVRenderable2D@graphics@core@@@std@@@std@@QEAAX$$QEAPEAVRenderable2D@graphics@core@@@Z ; std::vector<core::graphics::Renderable2D *,std::allocator<core::graphics::Renderable2D *> >::emplace_back<core::graphics::Renderable2D *>
PUBLIC	?push_back@?$vector@PEAVRenderable2D@graphics@core@@V?$allocator@PEAVRenderable2D@graphics@core@@@std@@@std@@QEAAX$$QEAPEAVRenderable2D@graphics@core@@@Z ; std::vector<core::graphics::Renderable2D *,std::allocator<core::graphics::Renderable2D *> >::push_back
PUBLIC	?size@?$vector@PEAVRenderable2D@graphics@core@@V?$allocator@PEAVRenderable2D@graphics@core@@@std@@@std@@QEBA_KXZ ; std::vector<core::graphics::Renderable2D *,std::allocator<core::graphics::Renderable2D *> >::size
PUBLIC	??A?$vector@PEAVRenderable2D@graphics@core@@V?$allocator@PEAVRenderable2D@graphics@core@@@std@@@std@@QEAAAEAPEAVRenderable2D@graphics@core@@_K@Z ; std::vector<core::graphics::Renderable2D *,std::allocator<core::graphics::Renderable2D *> >::operator[]
PUBLIC	?OnImGuiRender@BatchRendererScene@Scene@Application@@UEAAXXZ ; Application::Scene::BatchRendererScene::OnImGuiRender
PUBLIC	?OnRender@BatchRendererScene@Scene@Application@@UEAAXXZ ; Application::Scene::BatchRendererScene::OnRender
PUBLIC	?OnUpdate@BatchRendererScene@Scene@Application@@UEAAXM@Z ; Application::Scene::BatchRendererScene::OnUpdate
PUBLIC	??_GBatchRenderer2D@graphics@core@@QEAAPEAXI@Z	; core::graphics::BatchRenderer2D::`scalar deleting destructor'
PUBLIC	??_GShader@graphics@core@@QEAAPEAXI@Z		; core::graphics::Shader::`scalar deleting destructor'
PUBLIC	??1BatchRendererScene@Scene@Application@@UEAA@XZ ; Application::Scene::BatchRendererScene::~BatchRendererScene
PUBLIC	?__autoclassinit2@BatchRenderer2D@graphics@core@@QEAAX_K@Z ; core::graphics::BatchRenderer2D::__autoclassinit2
PUBLIC	??_GBatchRendererScene@Scene@Application@@UEAAPEAXI@Z ; Application::Scene::BatchRendererScene::`scalar deleting destructor'
PUBLIC	??$_Convert_size@_K@std@@YA_K_K@Z		; std::_Convert_size<unsigned __int64>
PUBLIC	??$_Get_size_of_n@$00@std@@YA_K_K@Z		; std::_Get_size_of_n<1>
PUBLIC	?assign@?$char_traits@D@std@@SAXAEADAEBD@Z	; std::char_traits<char>::assign
PUBLIC	?move@?$char_traits@D@std@@SAPEADQEADQEBD_K@Z	; std::char_traits<char>::move
PUBLIC	?copy@?$char_traits@D@std@@SAPEADQEADQEBD_K@Z	; std::char_traits<char>::copy
PUBLIC	?length@?$char_traits@D@std@@SA_KQEBD@Z		; std::char_traits<char>::length
PUBLIC	??0BatchRendererScene@Scene@Application@@QEAA@XZ ; Application::Scene::BatchRendererScene::BatchRendererScene
EXTRN	??_EBatchRendererScene@Scene@Application@@UEAAPEAXI@Z:PROC ; Application::Scene::BatchRendererScene::`vector deleting destructor'
;	COMDAT pdata
pdata	SEGMENT
$pdata$??$_Copy_memmove@PEAPEAVRenderable2D@graphics@core@@PEAPEAV123@@std@@YAPEAPEAVRenderable2D@graphics@core@@PEAPEAV123@00@Z DD imagerel $LN4@Copy_memmo
	DD	imagerel $LN4@Copy_memmo+48
	DD	imagerel $unwind$??$_Copy_memmove@PEAPEAVRenderable2D@graphics@core@@PEAPEAV123@@std@@YAPEAPEAVRenderable2D@graphics@core@@PEAPEAV123@00@Z
pdata	ENDS
;	COMDAT pdata
pdata	SEGMENT
$pdata$??$_Uninitialized_move_al_unchecked@PEAVRenderable2D@graphics@core@@PEAV123@V?$allocator@PEAVRenderable2D@graphics@core@@@std@@@std@@YAPEAPEAVRenderable2D@graphics@core@@QEAPEAV123@00AEAV?$allocator@PEAVRenderable2D@graphics@core@@@0@U_Really_trivial_ptr_iterator_tag@0@U?$integral_constant@_N$00@0@@Z DD imagerel $LN6@Uninitiali
	DD	imagerel $LN6@Uninitiali+48
	DD	imagerel $unwind$??$_Uninitialized_move_al_unchecked@PEAVRenderable2D@graphics@core@@PEAV123@V?$allocator@PEAVRenderable2D@graphics@core@@@std@@@std@@YAPEAPEAVRenderable2D@graphics@core@@QEAPEAV123@00AEAV?$allocator@PEAVRenderable2D@graphics@core@@@0@U_Really_trivial_ptr_iterator_tag@0@U?$integral_constant@_N$00@0@@Z
pdata	ENDS
;	COMDAT pdata
pdata	SEGMENT
$pdata$??A?$tvec4@M$0A@@glm@@QEAAAEAMH@Z DD imagerel $LN9@operator
	DD	imagerel $LN9@operator+62
	DD	imagerel $unwind$??A?$tvec4@M$0A@@glm@@QEAAAEAMH@Z
pdata	ENDS
;	COMDAT pdata
pdata	SEGMENT
$pdata$??$_Uninitialized_move@PEAPEAVRenderable2D@graphics@core@@PEAPEAV123@V?$allocator@PEAVRenderable2D@graphics@core@@@std@@@std@@YAPEAPEAVRenderable2D@graphics@core@@QEAPEAV123@0PEAPEAV123@AEAV?$allocator@PEAVRenderable2D@graphics@core@@@0@@Z DD imagerel $LN18@Uninitiali
	DD	imagerel $LN18@Uninitiali+48
	DD	imagerel $unwind$??$_Uninitialized_move@PEAPEAVRenderable2D@graphics@core@@PEAPEAV123@V?$allocator@PEAVRenderable2D@graphics@core@@@std@@@std@@YAPEAPEAVRenderable2D@graphics@core@@QEAPEAV123@0PEAPEAV123@AEAV?$allocator@PEAVRenderable2D@graphics@core@@@0@@Z
pdata	ENDS
;	COMDAT pdata
pdata	SEGMENT
$pdata$??$orthoRH@M@glm@@YA?AU?$tmat4x4@M$0A@@0@MMMMMM@Z DD imagerel $LN94@orthoRH
	DD	imagerel $LN94@orthoRH+197
	DD	imagerel $unwind$??$orthoRH@M@glm@@YA?AU?$tmat4x4@M$0A@@0@MMMMMM@Z
pdata	ENDS
;	COMDAT pdata
pdata	SEGMENT
$pdata$??A?$tmat4x4@M$0A@@glm@@QEAAAEAU?$tvec4@M$0A@@1@H@Z DD imagerel $LN7@operator
	DD	imagerel $LN7@operator+68
	DD	imagerel $unwind$??A?$tmat4x4@M$0A@@glm@@QEAAAEAU?$tvec4@M$0A@@1@H@Z
pdata	ENDS
;	COMDAT pdata
pdata	SEGMENT
$pdata$?_Xlen@?$basic_string@DU?$char_traits@D@std@@V?$allocator@D@2@@std@@SAXXZ DD imagerel $LN4@Xlen
	DD	imagerel $LN4@Xlen+18
	DD	imagerel $unwind$?_Xlen@?$basic_string@DU?$char_traits@D@std@@V?$allocator@D@2@@std@@SAXXZ
pdata	ENDS
;	COMDAT pdata
pdata	SEGMENT
$pdata$?allocate@?$allocator@PEAVRenderable2D@graphics@core@@@std@@QEAAPEAPEAVRenderable2D@graphics@core@@_K@Z DD imagerel $LN23@allocate
	DD	imagerel $LN23@allocate+117
	DD	imagerel $unwind$?allocate@?$allocator@PEAVRenderable2D@graphics@core@@@std@@QEAAPEAPEAVRenderable2D@graphics@core@@_K@Z
pdata	ENDS
;	COMDAT pdata
pdata	SEGMENT
$pdata$?_Umove@?$vector@PEAVRenderable2D@graphics@core@@V?$allocator@PEAVRenderable2D@graphics@core@@@std@@@std@@AEAAPEAPEAVRenderable2D@graphics@core@@PEAPEAV345@00@Z DD imagerel $LN25@Umove
	DD	imagerel $LN25@Umove+45
	DD	imagerel $unwind$?_Umove@?$vector@PEAVRenderable2D@graphics@core@@V?$allocator@PEAVRenderable2D@graphics@core@@@std@@@std@@AEAAPEAPEAVRenderable2D@graphics@core@@PEAPEAV345@00@Z
pdata	ENDS
;	COMDAT pdata
pdata	SEGMENT
$pdata$?_Umove_if_noexcept@?$vector@PEAVRenderable2D@graphics@core@@V?$allocator@PEAVRenderable2D@graphics@core@@@std@@@std@@AEAAXPEAPEAVRenderable2D@graphics@core@@00@Z DD imagerel $LN27@Umove_if_n
	DD	imagerel $LN27@Umove_if_n+48
	DD	imagerel $unwind$?_Umove_if_noexcept@?$vector@PEAVRenderable2D@graphics@core@@V?$allocator@PEAVRenderable2D@graphics@core@@@std@@@std@@AEAAXPEAPEAVRenderable2D@graphics@core@@00@Z
pdata	ENDS
;	COMDAT pdata
pdata	SEGMENT
$pdata$?_Change_array@?$vector@PEAVRenderable2D@graphics@core@@V?$allocator@PEAVRenderable2D@graphics@core@@@std@@@std@@AEAAXQEAPEAVRenderable2D@graphics@core@@_K1@Z DD imagerel $LN97@Change_arr
	DD	imagerel $LN97@Change_arr+136
	DD	imagerel $unwind$?_Change_array@?$vector@PEAVRenderable2D@graphics@core@@V?$allocator@PEAVRenderable2D@graphics@core@@@std@@@std@@AEAAXQEAPEAVRenderable2D@graphics@core@@_K1@Z
pdata	ENDS
;	COMDAT pdata
pdata	SEGMENT
$pdata$?_Xlength@?$vector@PEAVRenderable2D@graphics@core@@V?$allocator@PEAVRenderable2D@graphics@core@@@std@@@std@@CAXXZ DD imagerel $LN4@Xlength
	DD	imagerel $LN4@Xlength+18
	DD	imagerel $unwind$?_Xlength@?$vector@PEAVRenderable2D@graphics@core@@V?$allocator@PEAVRenderable2D@graphics@core@@@std@@@std@@CAXXZ
pdata	ENDS
;	COMDAT pdata
pdata	SEGMENT
$pdata$??$_Reallocate_for@V<lambda_66f57f934f28d61049862f64df852ff0>@@PEBD@?$basic_string@DU?$char_traits@D@std@@V?$allocator@D@2@@std@@QEAAAEAV01@_KV<lambda_66f57f934f28d61049862f64df852ff0>@@PEBD@Z DD imagerel ??$_Reallocate_for@V<lambda_66f57f934f28d61049862f64df852ff0>@@PEBD@?$basic_string@DU?$char_traits@D@std@@V?$allocator@D@2@@std@@QEAAAEAV01@_KV<lambda_66f57f934f28d61049862f64df852ff0>@@PEBD@Z
	DD	imagerel ??$_Reallocate_for@V<lambda_66f57f934f28d61049862f64df852ff0>@@PEBD@?$basic_string@DU?$char_traits@D@std@@V?$allocator@D@2@@std@@QEAAAEAV01@_KV<lambda_66f57f934f28d61049862f64df852ff0>@@PEBD@Z+39
	DD	imagerel $unwind$??$_Reallocate_for@V<lambda_66f57f934f28d61049862f64df852ff0>@@PEBD@?$basic_string@DU?$char_traits@D@std@@V?$allocator@D@2@@std@@QEAAAEAV01@_KV<lambda_66f57f934f28d61049862f64df852ff0>@@PEBD@Z
pdata	ENDS
;	COMDAT pdata
pdata	SEGMENT
$pdata$1$??$_Reallocate_for@V<lambda_66f57f934f28d61049862f64df852ff0>@@PEBD@?$basic_string@DU?$char_traits@D@std@@V?$allocator@D@2@@std@@QEAAAEAV01@_KV<lambda_66f57f934f28d61049862f64df852ff0>@@PEBD@Z DD imagerel ??$_Reallocate_for@V<lambda_66f57f934f28d61049862f64df852ff0>@@PEBD@?$basic_string@DU?$char_traits@D@std@@V?$allocator@D@2@@std@@QEAAAEAV01@_KV<lambda_66f57f934f28d61049862f64df852ff0>@@PEBD@Z+39
	DD	imagerel ??$_Reallocate_for@V<lambda_66f57f934f28d61049862f64df852ff0>@@PEBD@?$basic_string@DU?$char_traits@D@std@@V?$allocator@D@2@@std@@QEAAAEAV01@_KV<lambda_66f57f934f28d61049862f64df852ff0>@@PEBD@Z+286
	DD	imagerel $chain$1$??$_Reallocate_for@V<lambda_66f57f934f28d61049862f64df852ff0>@@PEBD@?$basic_string@DU?$char_traits@D@std@@V?$allocator@D@2@@std@@QEAAAEAV01@_KV<lambda_66f57f934f28d61049862f64df852ff0>@@PEBD@Z
pdata	ENDS
;	COMDAT pdata
pdata	SEGMENT
$pdata$3$??$_Reallocate_for@V<lambda_66f57f934f28d61049862f64df852ff0>@@PEBD@?$basic_string@DU?$char_traits@D@std@@V?$allocator@D@2@@std@@QEAAAEAV01@_KV<lambda_66f57f934f28d61049862f64df852ff0>@@PEBD@Z DD imagerel ??$_Reallocate_for@V<lambda_66f57f934f28d61049862f64df852ff0>@@PEBD@?$basic_string@DU?$char_traits@D@std@@V?$allocator@D@2@@std@@QEAAAEAV01@_KV<lambda_66f57f934f28d61049862f64df852ff0>@@PEBD@Z+286
	DD	imagerel ??$_Reallocate_for@V<lambda_66f57f934f28d61049862f64df852ff0>@@PEBD@?$basic_string@DU?$char_traits@D@std@@V?$allocator@D@2@@std@@QEAAAEAV01@_KV<lambda_66f57f934f28d61049862f64df852ff0>@@PEBD@Z+293
	DD	imagerel $chain$3$??$_Reallocate_for@V<lambda_66f57f934f28d61049862f64df852ff0>@@PEBD@?$basic_string@DU?$char_traits@D@std@@V?$allocator@D@2@@std@@QEAAAEAV01@_KV<lambda_66f57f934f28d61049862f64df852ff0>@@PEBD@Z
pdata	ENDS
;	COMDAT pdata
pdata	SEGMENT
$pdata$4$??$_Reallocate_for@V<lambda_66f57f934f28d61049862f64df852ff0>@@PEBD@?$basic_string@DU?$char_traits@D@std@@V?$allocator@D@2@@std@@QEAAAEAV01@_KV<lambda_66f57f934f28d61049862f64df852ff0>@@PEBD@Z DD imagerel ??$_Reallocate_for@V<lambda_66f57f934f28d61049862f64df852ff0>@@PEBD@?$basic_string@DU?$char_traits@D@std@@V?$allocator@D@2@@std@@QEAAAEAV01@_KV<lambda_66f57f934f28d61049862f64df852ff0>@@PEBD@Z+293
	DD	imagerel ??$_Reallocate_for@V<lambda_66f57f934f28d61049862f64df852ff0>@@PEBD@?$basic_string@DU?$char_traits@D@std@@V?$allocator@D@2@@std@@QEAAAEAV01@_KV<lambda_66f57f934f28d61049862f64df852ff0>@@PEBD@Z+299
	DD	imagerel $chain$4$??$_Reallocate_for@V<lambda_66f57f934f28d61049862f64df852ff0>@@PEBD@?$basic_string@DU?$char_traits@D@std@@V?$allocator@D@2@@std@@QEAAAEAV01@_KV<lambda_66f57f934f28d61049862f64df852ff0>@@PEBD@Z
pdata	ENDS
;	COMDAT pdata
pdata	SEGMENT
$pdata$??$_Emplace_reallocate@PEAVRenderable2D@graphics@core@@@?$vector@PEAVRenderable2D@graphics@core@@V?$allocator@PEAVRenderable2D@graphics@core@@@std@@@std@@QEAAPEAPEAVRenderable2D@graphics@core@@QEAPEAV234@$$QEAPEAV234@@Z DD imagerel $LN313@Emplace_re
	DD	imagerel $LN313@Emplace_re+70
	DD	imagerel $unwind$??$_Emplace_reallocate@PEAVRenderable2D@graphics@core@@@?$vector@PEAVRenderable2D@graphics@core@@V?$allocator@PEAVRenderable2D@graphics@core@@@std@@@std@@QEAAPEAPEAVRenderable2D@graphics@core@@QEAPEAV234@$$QEAPEAV234@@Z
pdata	ENDS
;	COMDAT pdata
pdata	SEGMENT
$pdata$2$??$_Emplace_reallocate@PEAVRenderable2D@graphics@core@@@?$vector@PEAVRenderable2D@graphics@core@@V?$allocator@PEAVRenderable2D@graphics@core@@@std@@@std@@QEAAPEAPEAVRenderable2D@graphics@core@@QEAPEAV234@$$QEAPEAV234@@Z DD imagerel $LN313@Emplace_re+70
	DD	imagerel $LN313@Emplace_re+393
	DD	imagerel $chain$2$??$_Emplace_reallocate@PEAVRenderable2D@graphics@core@@@?$vector@PEAVRenderable2D@graphics@core@@V?$allocator@PEAVRenderable2D@graphics@core@@@std@@@std@@QEAAPEAPEAVRenderable2D@graphics@core@@QEAPEAV234@$$QEAPEAV234@@Z
pdata	ENDS
;	COMDAT pdata
pdata	SEGMENT
$pdata$4$??$_Emplace_reallocate@PEAVRenderable2D@graphics@core@@@?$vector@PEAVRenderable2D@graphics@core@@V?$allocator@PEAVRenderable2D@graphics@core@@@std@@@std@@QEAAPEAPEAVRenderable2D@graphics@core@@QEAPEAV234@$$QEAPEAV234@@Z DD imagerel $LN313@Emplace_re+393
	DD	imagerel $LN313@Emplace_re+400
	DD	imagerel $chain$4$??$_Emplace_reallocate@PEAVRenderable2D@graphics@core@@@?$vector@PEAVRenderable2D@graphics@core@@V?$allocator@PEAVRenderable2D@graphics@core@@@std@@@std@@QEAAPEAPEAVRenderable2D@graphics@core@@QEAPEAV234@$$QEAPEAV234@@Z
pdata	ENDS
;	COMDAT pdata
pdata	SEGMENT
$pdata$5$??$_Emplace_reallocate@PEAVRenderable2D@graphics@core@@@?$vector@PEAVRenderable2D@graphics@core@@V?$allocator@PEAVRenderable2D@graphics@core@@@std@@@std@@QEAAPEAPEAVRenderable2D@graphics@core@@QEAPEAV234@$$QEAPEAV234@@Z DD imagerel $LN313@Emplace_re+400
	DD	imagerel $LN313@Emplace_re+406
	DD	imagerel $chain$5$??$_Emplace_reallocate@PEAVRenderable2D@graphics@core@@@?$vector@PEAVRenderable2D@graphics@core@@V?$allocator@PEAVRenderable2D@graphics@core@@@std@@@std@@QEAAPEAPEAVRenderable2D@graphics@core@@QEAPEAV234@$$QEAPEAV234@@Z
pdata	ENDS
;	COMDAT pdata
pdata	SEGMENT
$pdata$??$ortho@M@glm@@YA?AU?$tmat4x4@M$0A@@0@MMMMMM@Z DD imagerel $LN96@ortho
	DD	imagerel $LN96@ortho+197
	DD	imagerel $unwind$??$ortho@M@glm@@YA?AU?$tmat4x4@M$0A@@0@MMMMMM@Z
pdata	ENDS
;	COMDAT pdata
pdata	SEGMENT
$pdata$??0?$tmat4x4@M$0A@@glm@@QEAA@AEBM@Z DD imagerel $LN26@tmat4x4
	DD	imagerel $LN26@tmat4x4+177
	DD	imagerel $unwind$??0?$tmat4x4@M$0A@@glm@@QEAA@AEBM@Z
pdata	ENDS
;	COMDAT pdata
pdata	SEGMENT
$pdata$??R<lambda_66f57f934f28d61049862f64df852ff0>@@QEBAXQEAD_KQEBD@Z DD imagerel ??R<lambda_66f57f934f28d61049862f64df852ff0>@@QEBAXQEAD_KQEBD@Z
	DD	imagerel ??R<lambda_66f57f934f28d61049862f64df852ff0>@@QEBAXQEAD_KQEBD@Z+42
	DD	imagerel $unwind$??R<lambda_66f57f934f28d61049862f64df852ff0>@@QEBAXQEAD_KQEBD@Z
pdata	ENDS
;	COMDAT pdata
pdata	SEGMENT
$pdata$?assign@?$basic_string@DU?$char_traits@D@std@@V?$allocator@D@2@@std@@QEAAAEAV12@QEBD_K@Z DD imagerel $LN125@assign
	DD	imagerel $LN125@assign+138
	DD	imagerel $unwind$?assign@?$basic_string@DU?$char_traits@D@std@@V?$allocator@D@2@@std@@QEAAAEAV12@QEBD_K@Z
pdata	ENDS
;	COMDAT pdata
pdata	SEGMENT
$pdata$0$?assign@?$basic_string@DU?$char_traits@D@std@@V?$allocator@D@2@@std@@QEAAAEAV12@QEBD_K@Z DD imagerel $LN125@assign+138
	DD	imagerel $LN125@assign+325
	DD	imagerel $chain$0$?assign@?$basic_string@DU?$char_traits@D@std@@V?$allocator@D@2@@std@@QEAAAEAV12@QEBD_K@Z
pdata	ENDS
;	COMDAT pdata
pdata	SEGMENT
$pdata$2$?assign@?$basic_string@DU?$char_traits@D@std@@V?$allocator@D@2@@std@@QEAAAEAV12@QEBD_K@Z DD imagerel $LN125@assign+325
	DD	imagerel $LN125@assign+332
	DD	imagerel $chain$2$?assign@?$basic_string@DU?$char_traits@D@std@@V?$allocator@D@2@@std@@QEAAAEAV12@QEBD_K@Z
pdata	ENDS
;	COMDAT pdata
pdata	SEGMENT
$pdata$3$?assign@?$basic_string@DU?$char_traits@D@std@@V?$allocator@D@2@@std@@QEAAAEAV12@QEBD_K@Z DD imagerel $LN125@assign+332
	DD	imagerel $LN125@assign+338
	DD	imagerel $chain$3$?assign@?$basic_string@DU?$char_traits@D@std@@V?$allocator@D@2@@std@@QEAAAEAV12@QEBD_K@Z
pdata	ENDS
;	COMDAT pdata
pdata	SEGMENT
$pdata$?deallocate@?$allocator@PEAVRenderable2D@graphics@core@@@std@@QEAAXQEAPEAVRenderable2D@graphics@core@@_K@Z DD imagerel $LN14@deallocate
	DD	imagerel $LN14@deallocate+67
	DD	imagerel $unwind$?deallocate@?$allocator@PEAVRenderable2D@graphics@core@@@std@@QEAAXQEAPEAVRenderable2D@graphics@core@@_K@Z
pdata	ENDS
;	COMDAT pdata
pdata	SEGMENT
$pdata$?deallocate@?$allocator@D@std@@QEAAXQEAD_K@Z DD imagerel $LN14@deallocate
	DD	imagerel $LN14@deallocate+62
	DD	imagerel $unwind$?deallocate@?$allocator@D@std@@QEAAXQEAD_K@Z
pdata	ENDS
;	COMDAT pdata
pdata	SEGMENT
$pdata$?allocate@?$allocator@D@std@@QEAAPEAD_K@Z DD imagerel $LN21@allocate
	DD	imagerel $LN21@allocate+92
	DD	imagerel $unwind$?allocate@?$allocator@D@std@@QEAAPEAD_K@Z
pdata	ENDS
;	COMDAT pdata
pdata	SEGMENT
$pdata$?_Tidy_deallocate@?$basic_string@DU?$char_traits@D@std@@V?$allocator@D@2@@std@@QEAAXXZ DD imagerel $LN43@Tidy_deall
	DD	imagerel $LN43@Tidy_deall+95
	DD	imagerel $unwind$?_Tidy_deallocate@?$basic_string@DU?$char_traits@D@std@@V?$allocator@D@2@@std@@QEAAXXZ
pdata	ENDS
;	COMDAT pdata
pdata	SEGMENT
$pdata$?_Tidy@?$vector@PEAVRenderable2D@graphics@core@@V?$allocator@PEAVRenderable2D@graphics@core@@@std@@@std@@AEAAXXZ DD imagerel $LN97@Tidy
	DD	imagerel $LN97@Tidy+92
	DD	imagerel $unwind$?_Tidy@?$vector@PEAVRenderable2D@graphics@core@@V?$allocator@PEAVRenderable2D@graphics@core@@@std@@@std@@AEAAXXZ
pdata	ENDS
;	COMDAT pdata
pdata	SEGMENT
$pdata$??0?$basic_string@DU?$char_traits@D@std@@V?$allocator@D@2@@std@@QEAA@QEBD@Z DD imagerel $LN28@basic_stri
	DD	imagerel $LN28@basic_stri+59
	DD	imagerel $unwind$??0?$basic_string@DU?$char_traits@D@std@@V?$allocator@D@2@@std@@QEAA@QEBD@Z
pdata	ENDS
;	COMDAT pdata
pdata	SEGMENT
$pdata$??1?$basic_string@DU?$char_traits@D@std@@V?$allocator@D@2@@std@@QEAA@XZ DD imagerel $LN57@basic_stri
	DD	imagerel $LN57@basic_stri+95
	DD	imagerel $unwind$??1?$basic_string@DU?$char_traits@D@std@@V?$allocator@D@2@@std@@QEAA@XZ
pdata	ENDS
;	COMDAT pdata
pdata	SEGMENT
$pdata$??1?$vector@PEAVRenderable2D@graphics@core@@V?$allocator@PEAVRenderable2D@graphics@core@@@std@@@std@@QEAA@XZ DD imagerel $LN100@vector
	DD	imagerel $LN100@vector+92
	DD	imagerel $unwind$??1?$vector@PEAVRenderable2D@graphics@core@@V?$allocator@PEAVRenderable2D@graphics@core@@@std@@@std@@QEAA@XZ
pdata	ENDS
;	COMDAT pdata
pdata	SEGMENT
$pdata$?OnImGuiRender@BatchRendererScene@Scene@Application@@UEAAXXZ DD imagerel $LN25@OnImGuiRen
	DD	imagerel $LN25@OnImGuiRen+254
	DD	imagerel $unwind$?OnImGuiRender@BatchRendererScene@Scene@Application@@UEAAXXZ
pdata	ENDS
;	COMDAT pdata
pdata	SEGMENT
$pdata$?OnRender@BatchRendererScene@Scene@Application@@UEAAXXZ DD imagerel $LN61@OnRender
	DD	imagerel $LN61@OnRender+46
	DD	imagerel $unwind$?OnRender@BatchRendererScene@Scene@Application@@UEAAXXZ
pdata	ENDS
;	COMDAT pdata
pdata	SEGMENT
$pdata$0$?OnRender@BatchRendererScene@Scene@Application@@UEAAXXZ DD imagerel $LN61@OnRender+46
	DD	imagerel $LN61@OnRender+113
	DD	imagerel $chain$0$?OnRender@BatchRendererScene@Scene@Application@@UEAAXXZ
pdata	ENDS
;	COMDAT pdata
pdata	SEGMENT
$pdata$1$?OnRender@BatchRendererScene@Scene@Application@@UEAAXXZ DD imagerel $LN61@OnRender+113
	DD	imagerel $LN61@OnRender+336
	DD	imagerel $chain$1$?OnRender@BatchRendererScene@Scene@Application@@UEAAXXZ
pdata	ENDS
;	COMDAT pdata
pdata	SEGMENT
$pdata$??_GBatchRenderer2D@graphics@core@@QEAAPEAXI@Z DD imagerel $LN6@scalar
	DD	imagerel $LN6@scalar+36
	DD	imagerel $unwind$??_GBatchRenderer2D@graphics@core@@QEAAPEAXI@Z
pdata	ENDS
;	COMDAT pdata
pdata	SEGMENT
$pdata$??_GShader@graphics@core@@QEAAPEAXI@Z DD imagerel $LN9@scalar
	DD	imagerel $LN9@scalar+53
	DD	imagerel $unwind$??_GShader@graphics@core@@QEAAPEAXI@Z
pdata	ENDS
;	COMDAT pdata
pdata	SEGMENT
$pdata$??1BatchRendererScene@Scene@Application@@UEAA@XZ DD imagerel $LN118@BatchRende
	DD	imagerel $LN118@BatchRende+216
	DD	imagerel $unwind$??1BatchRendererScene@Scene@Application@@UEAA@XZ
pdata	ENDS
;	COMDAT pdata
pdata	SEGMENT
$pdata$??_GBatchRendererScene@Scene@Application@@UEAAPEAXI@Z DD imagerel $LN123@scalar
	DD	imagerel $LN123@scalar+251
	DD	imagerel $unwind$??_GBatchRendererScene@Scene@Application@@UEAAPEAXI@Z
pdata	ENDS
;	COMDAT pdata
pdata	SEGMENT
$pdata$?copy@?$char_traits@D@std@@SAPEADQEADQEBD_K@Z DD imagerel $LN5@copy
	DD	imagerel $LN5@copy+23
	DD	imagerel $unwind$?copy@?$char_traits@D@std@@SAPEADQEADQEBD_K@Z
pdata	ENDS
;	COMDAT pdata
pdata	SEGMENT
$pdata$??0BatchRendererScene@Scene@Application@@QEAA@XZ DD imagerel $LN317@BatchRende
	DD	imagerel $LN317@BatchRende+691
	DD	imagerel $unwind$??0BatchRendererScene@Scene@Application@@QEAA@XZ
pdata	ENDS
;	COMDAT pdata
pdata	SEGMENT
$pdata$?dtor$3@?0???0BatchRendererScene@Scene@Application@@QEAA@XZ@4HA DD imagerel ?dtor$3@?0???0BatchRendererScene@Scene@Application@@QEAA@XZ@4HA
	DD	imagerel ?dtor$3@?0???0BatchRendererScene@Scene@Application@@QEAA@XZ@4HA+29
	DD	imagerel $unwind$?dtor$3@?0???0BatchRendererScene@Scene@Application@@QEAA@XZ@4HA
pdata	ENDS
;	COMDAT pdata
pdata	SEGMENT
$pdata$?dtor$4@?0???0BatchRendererScene@Scene@Application@@QEAA@XZ@4HA DD imagerel ?dtor$4@?0???0BatchRendererScene@Scene@Application@@QEAA@XZ@4HA
	DD	imagerel ?dtor$4@?0???0BatchRendererScene@Scene@Application@@QEAA@XZ@4HA+38
	DD	imagerel $unwind$?dtor$4@?0???0BatchRendererScene@Scene@Application@@QEAA@XZ@4HA
pdata	ENDS
;	COMDAT pdata
pdata	SEGMENT
$pdata$?dtor$5@?0???0BatchRendererScene@Scene@Application@@QEAA@XZ@4HA DD imagerel ?dtor$5@?0???0BatchRendererScene@Scene@Application@@QEAA@XZ@4HA
	DD	imagerel ?dtor$5@?0???0BatchRendererScene@Scene@Application@@QEAA@XZ@4HA+29
	DD	imagerel $unwind$?dtor$5@?0???0BatchRendererScene@Scene@Application@@QEAA@XZ@4HA
;	COMDAT xdata
xdata	SEGMENT
$unwind$?dtor$5@?0???0BatchRendererScene@Scene@Application@@QEAA@XZ@4HA DD 020601H
	DD	050023206H
xdata	ENDS
;	COMDAT xdata
xdata	SEGMENT
$unwind$?dtor$4@?0???0BatchRendererScene@Scene@Application@@QEAA@XZ@4HA DD 020601H
	DD	050023206H
xdata	ENDS
;	COMDAT xdata
xdata	SEGMENT
$unwind$?dtor$3@?0???0BatchRendererScene@Scene@Application@@QEAA@XZ@4HA DD 020601H
	DD	050023206H
xdata	ENDS
;	COMDAT xdata
xdata	SEGMENT
$ip2state$??0BatchRendererScene@Scene@Application@@QEAA@XZ DD imagerel ??0BatchRendererScene@Scene@Application@@QEAA@XZ+112
	DD	01H
	DD	imagerel ??0BatchRendererScene@Scene@Application@@QEAA@XZ+226
	DD	02H
	DD	imagerel ??0BatchRendererScene@Scene@Application@@QEAA@XZ+267
	DD	03H
	DD	imagerel ??0BatchRendererScene@Scene@Application@@QEAA@XZ+289
	DD	04H
	DD	imagerel ??0BatchRendererScene@Scene@Application@@QEAA@XZ+362
	DD	01H
	DD	imagerel ??0BatchRendererScene@Scene@Application@@QEAA@XZ+392
	DD	05H
	DD	imagerel ??0BatchRendererScene@Scene@Application@@QEAA@XZ+533
	DD	01H
	DD	imagerel ??0BatchRendererScene@Scene@Application@@QEAA@XZ+633
	DD	0ffffffffH
xdata	ENDS
;	COMDAT xdata
xdata	SEGMENT
$stateUnwindMap$??0BatchRendererScene@Scene@Application@@QEAA@XZ DD 0ffffffffH
	DD	imagerel ?dtor$0@?0???0BatchRendererScene@Scene@Application@@QEAA@XZ@4HA
	DD	00H
	DD	imagerel ?dtor$1@?0???0BatchRendererScene@Scene@Application@@QEAA@XZ@4HA
	DD	01H
	DD	imagerel ?dtor$3@?0???0BatchRendererScene@Scene@Application@@QEAA@XZ@4HA
	DD	02H
	DD	imagerel ?dtor$4@?0???0BatchRendererScene@Scene@Application@@QEAA@XZ@4HA
	DD	01H
	DD	imagerel ?dtor$4@?0???0BatchRendererScene@Scene@Application@@QEAA@XZ@4HA
	DD	01H
	DD	imagerel ?dtor$5@?0???0BatchRendererScene@Scene@Application@@QEAA@XZ@4HA
xdata	ENDS
;	COMDAT CONST
CONST	SEGMENT
$cppxdata$??0BatchRendererScene@Scene@Application@@QEAA@XZ DQ 00000000619930522r ; 1.2944e-313
	DD	imagerel $stateUnwindMap$??0BatchRendererScene@Scene@Application@@QEAA@XZ
	DQ	00000000000000000r		; 0
	DD	08H
	DD	imagerel $ip2state$??0BatchRendererScene@Scene@Application@@QEAA@XZ
	DQ	00000000000000050r		; 3.95253e-322
	DD	01H
CONST	ENDS
;	COMDAT xdata
xdata	SEGMENT
$unwind$??0BatchRendererScene@Scene@Application@@QEAA@XZ DD 0153b11H
	DD	06b83bH
	DD	07a836H
	DD	089831H
	DD	09882cH
	DD	0a7827H
	DD	0b6823H
	DD	01d641fH
	DD	01c541bH
	DD	01b3417H
	DD	018010bH
	DD	07004H
	DD	imagerel __CxxFrameHandler3
	DD	imagerel $cppxdata$??0BatchRendererScene@Scene@Application@@QEAA@XZ
xdata	ENDS
;	COMDAT xdata
xdata	SEGMENT
$unwind$?copy@?$char_traits@D@std@@SAPEADQEADQEBD_K@Z DD 020601H
	DD	030023206H
xdata	ENDS
;	COMDAT xdata
xdata	SEGMENT
$ip2state$??_GBatchRendererScene@Scene@Application@@UEAAPEAXI@Z DD imagerel ??_GBatchRendererScene@Scene@Application@@UEAAPEAXI@Z+73
	DD	00H
xdata	ENDS
;	COMDAT xdata
xdata	SEGMENT
$stateUnwindMap$??_GBatchRendererScene@Scene@Application@@UEAAPEAXI@Z DD 0ffffffffH
	DD	imagerel __std_terminate
xdata	ENDS
;	COMDAT CONST
CONST	SEGMENT
$cppxdata$??_GBatchRendererScene@Scene@Application@@UEAAPEAXI@Z DQ 00000000119930522r ; 2.33398e-314
	DD	imagerel $stateUnwindMap$??_GBatchRendererScene@Scene@Application@@UEAAPEAXI@Z
	DQ	00000000000000000r		; 0
	DD	01H
	DD	imagerel $ip2state$??_GBatchRendererScene@Scene@Application@@UEAAPEAXI@Z
	DQ	00000000000000020r		; 1.58101e-322
	DD	05H
CONST	ENDS
;	COMDAT xdata
xdata	SEGMENT
$unwind$??_GBatchRendererScene@Scene@Application@@UEAAPEAXI@Z DD 061919H
	DD	0a6419H
	DD	093414H
	DD	070025206H
	DD	imagerel __CxxFrameHandler3
	DD	imagerel $cppxdata$??_GBatchRendererScene@Scene@Application@@UEAAPEAXI@Z
xdata	ENDS
;	COMDAT xdata
xdata	SEGMENT
$ip2state$??1BatchRendererScene@Scene@Application@@UEAA@XZ DD imagerel ??1BatchRendererScene@Scene@Application@@UEAA@XZ+66
	DD	00H
xdata	ENDS
;	COMDAT xdata
xdata	SEGMENT
$stateUnwindMap$??1BatchRendererScene@Scene@Application@@UEAA@XZ DD 0ffffffffH
	DD	imagerel __std_terminate
xdata	ENDS
;	COMDAT CONST
CONST	SEGMENT
$cppxdata$??1BatchRendererScene@Scene@Application@@UEAA@XZ DQ 00000000119930522r ; 2.33398e-314
	DD	imagerel $stateUnwindMap$??1BatchRendererScene@Scene@Application@@UEAA@XZ
	DQ	00000000000000000r		; 0
	DD	01H
	DD	imagerel $ip2state$??1BatchRendererScene@Scene@Application@@UEAA@XZ
	DQ	00000000000000020r		; 1.58101e-322
	DD	05H
CONST	ENDS
;	COMDAT xdata
xdata	SEGMENT
$unwind$??1BatchRendererScene@Scene@Application@@UEAA@XZ DD 041419H
	DD	093414H
	DD	070025206H
	DD	imagerel __CxxFrameHandler3
	DD	imagerel $cppxdata$??1BatchRendererScene@Scene@Application@@UEAA@XZ
xdata	ENDS
;	COMDAT xdata
xdata	SEGMENT
$ip2state$??_GShader@graphics@core@@QEAAPEAXI@Z DD imagerel ??_GShader@graphics@core@@QEAAPEAXI@Z+27
	DD	00H
xdata	ENDS
;	COMDAT xdata
xdata	SEGMENT
$stateUnwindMap$??_GShader@graphics@core@@QEAAPEAXI@Z DD 0ffffffffH
	DD	imagerel __std_terminate
xdata	ENDS
;	COMDAT CONST
CONST	SEGMENT
$cppxdata$??_GShader@graphics@core@@QEAAPEAXI@Z DQ 00000000119930522r ; 2.33398e-314
	DD	imagerel $stateUnwindMap$??_GShader@graphics@core@@QEAAPEAXI@Z
	DQ	00000000000000000r		; 0
	DD	01H
	DD	imagerel $ip2state$??_GShader@graphics@core@@QEAAPEAXI@Z
	DQ	00000000000000020r		; 1.58101e-322
	DD	05H
CONST	ENDS
;	COMDAT xdata
xdata	SEGMENT
$unwind$??_GShader@graphics@core@@QEAAPEAXI@Z DD 020f19H
	DD	030025206H
	DD	imagerel __CxxFrameHandler3
	DD	imagerel $cppxdata$??_GShader@graphics@core@@QEAAPEAXI@Z
xdata	ENDS
;	COMDAT xdata
xdata	SEGMENT
$unwind$??_GBatchRenderer2D@graphics@core@@QEAAPEAXI@Z DD 020601H
	DD	030023206H
xdata	ENDS
;	COMDAT xdata
xdata	SEGMENT
$chain$1$?OnRender@BatchRendererScene@Scene@Application@@UEAAXXZ DD 021H
	DD	imagerel $LN61@OnRender
	DD	imagerel $LN61@OnRender+46
	DD	imagerel $unwind$?OnRender@BatchRendererScene@Scene@Application@@UEAAXXZ
xdata	ENDS
;	COMDAT xdata
xdata	SEGMENT
$chain$0$?OnRender@BatchRendererScene@Scene@Application@@UEAAXXZ DD 020521H
	DD	086405H
	DD	imagerel $LN61@OnRender
	DD	imagerel $LN61@OnRender+46
	DD	imagerel $unwind$?OnRender@BatchRendererScene@Scene@Application@@UEAAXXZ
xdata	ENDS
;	COMDAT xdata
xdata	SEGMENT
$unwind$?OnRender@BatchRendererScene@Scene@Application@@UEAAXXZ DD 061201H
	DD	026812H
	DD	09340aH
	DD	07006520aH
xdata	ENDS
;	COMDAT xdata
xdata	SEGMENT
$unwind$?OnImGuiRender@BatchRendererScene@Scene@Application@@UEAAXXZ DD 021519H
	DD	03002b206H
	DD	imagerel __GSHandlerCheck
	DD	050H
xdata	ENDS
;	COMDAT xdata
xdata	SEGMENT
$unwind$??1?$vector@PEAVRenderable2D@graphics@core@@V?$allocator@PEAVRenderable2D@graphics@core@@@std@@@std@@QEAA@XZ DD 020601H
	DD	030023206H
xdata	ENDS
;	COMDAT xdata
xdata	SEGMENT
$unwind$??1?$basic_string@DU?$char_traits@D@std@@V?$allocator@D@2@@std@@QEAA@XZ DD 020601H
	DD	030023206H
xdata	ENDS
;	COMDAT xdata
xdata	SEGMENT
$unwind$??0?$basic_string@DU?$char_traits@D@std@@V?$allocator@D@2@@std@@QEAA@QEBD@Z DD 020601H
	DD	030023206H
xdata	ENDS
;	COMDAT xdata
xdata	SEGMENT
$unwind$?_Tidy@?$vector@PEAVRenderable2D@graphics@core@@V?$allocator@PEAVRenderable2D@graphics@core@@@std@@@std@@AEAAXXZ DD 020601H
	DD	030023206H
xdata	ENDS
;	COMDAT xdata
xdata	SEGMENT
$unwind$?_Tidy_deallocate@?$basic_string@DU?$char_traits@D@std@@V?$allocator@D@2@@std@@QEAAXXZ DD 020601H
	DD	030023206H
xdata	ENDS
;	COMDAT xdata
xdata	SEGMENT
$unwind$?allocate@?$allocator@D@std@@QEAAPEAD_K@Z DD 010401H
	DD	04204H
xdata	ENDS
;	COMDAT xdata
xdata	SEGMENT
$unwind$?deallocate@?$allocator@D@std@@QEAAXQEAD_K@Z DD 010401H
	DD	04204H
xdata	ENDS
;	COMDAT xdata
xdata	SEGMENT
$unwind$?deallocate@?$allocator@PEAVRenderable2D@graphics@core@@@std@@QEAAXQEAPEAVRenderable2D@graphics@core@@_K@Z DD 010401H
	DD	04204H
xdata	ENDS
;	COMDAT xdata
xdata	SEGMENT
$chain$3$?assign@?$basic_string@DU?$char_traits@D@std@@V?$allocator@D@2@@std@@QEAAAEAV12@QEBD_K@Z DD 021H
	DD	imagerel $LN125@assign
	DD	imagerel $LN125@assign+138
	DD	imagerel $unwind$?assign@?$basic_string@DU?$char_traits@D@std@@V?$allocator@D@2@@std@@QEAAAEAV12@QEBD_K@Z
xdata	ENDS
;	COMDAT xdata
xdata	SEGMENT
$chain$2$?assign@?$basic_string@DU?$char_traits@D@std@@V?$allocator@D@2@@std@@QEAAAEAV12@QEBD_K@Z DD 020021H
	DD	0d5400H
	DD	imagerel $LN125@assign
	DD	imagerel $LN125@assign+138
	DD	imagerel $unwind$?assign@?$basic_string@DU?$char_traits@D@std@@V?$allocator@D@2@@std@@QEAAAEAV12@QEBD_K@Z
xdata	ENDS
;	COMDAT xdata
xdata	SEGMENT
$chain$0$?assign@?$basic_string@DU?$char_traits@D@std@@V?$allocator@D@2@@std@@QEAAAEAV12@QEBD_K@Z DD 020521H
	DD	0d5405H
	DD	imagerel $LN125@assign
	DD	imagerel $LN125@assign+138
	DD	imagerel $unwind$?assign@?$basic_string@DU?$char_traits@D@std@@V?$allocator@D@2@@std@@QEAAAEAV12@QEBD_K@Z
xdata	ENDS
;	COMDAT xdata
xdata	SEGMENT
$unwind$?assign@?$basic_string@DU?$char_traits@D@std@@V?$allocator@D@2@@std@@QEAAAEAV12@QEBD_K@Z DD 060c01H
	DD	0f008320cH
	DD	07004e006H
	DD	030026003H
xdata	ENDS
;	COMDAT xdata
xdata	SEGMENT
$unwind$??R<lambda_66f57f934f28d61049862f64df852ff0>@@QEBAXQEAD_KQEBD@Z DD 040a01H
	DD	06340aH
	DD	07006320aH
xdata	ENDS
;	COMDAT xdata
xdata	SEGMENT
$unwind$??0?$tmat4x4@M$0A@@glm@@QEAA@AEBM@Z DD 010401H
	DD	02204H
xdata	ENDS
;	COMDAT xdata
xdata	SEGMENT
$unwind$??$ortho@M@glm@@YA?AU?$tmat4x4@M$0A@@0@MMMMMM@Z DD 056401H
	DD	07864H
	DD	01682dH
	DD	04204H
xdata	ENDS
;	COMDAT xdata
xdata	SEGMENT
$chain$5$??$_Emplace_reallocate@PEAVRenderable2D@graphics@core@@@?$vector@PEAVRenderable2D@graphics@core@@V?$allocator@PEAVRenderable2D@graphics@core@@@std@@@std@@QEAAPEAPEAVRenderable2D@graphics@core@@QEAPEAV234@$$QEAPEAV234@@Z DD 021H
	DD	imagerel $LN313@Emplace_re
	DD	imagerel $LN313@Emplace_re+70
	DD	imagerel $unwind$??$_Emplace_reallocate@PEAVRenderable2D@graphics@core@@@?$vector@PEAVRenderable2D@graphics@core@@V?$allocator@PEAVRenderable2D@graphics@core@@@std@@@std@@QEAAPEAPEAVRenderable2D@graphics@core@@QEAPEAV234@$$QEAPEAV234@@Z
xdata	ENDS
;	COMDAT xdata
xdata	SEGMENT
$chain$4$??$_Emplace_reallocate@PEAVRenderable2D@graphics@core@@@?$vector@PEAVRenderable2D@graphics@core@@V?$allocator@PEAVRenderable2D@graphics@core@@@std@@@std@@QEAAPEAPEAVRenderable2D@graphics@core@@QEAPEAV234@$$QEAPEAV234@@Z DD 060021H
	DD	04f400H
	DD	0d6400H
	DD	0c3400H
	DD	imagerel $LN313@Emplace_re
	DD	imagerel $LN313@Emplace_re+70
	DD	imagerel $unwind$??$_Emplace_reallocate@PEAVRenderable2D@graphics@core@@@?$vector@PEAVRenderable2D@graphics@core@@V?$allocator@PEAVRenderable2D@graphics@core@@@std@@@std@@QEAAPEAPEAVRenderable2D@graphics@core@@QEAPEAV234@$$QEAPEAV234@@Z
xdata	ENDS
;	COMDAT xdata
xdata	SEGMENT
$chain$2$??$_Emplace_reallocate@PEAVRenderable2D@graphics@core@@@?$vector@PEAVRenderable2D@graphics@core@@V?$allocator@PEAVRenderable2D@graphics@core@@@std@@@std@@QEAAPEAPEAVRenderable2D@graphics@core@@QEAPEAV234@$$QEAPEAV234@@Z DD 063821H
	DD	0c3438H
	DD	04f415H
	DD	0d6405H
	DD	imagerel $LN313@Emplace_re
	DD	imagerel $LN313@Emplace_re+70
	DD	imagerel $unwind$??$_Emplace_reallocate@PEAVRenderable2D@graphics@core@@@?$vector@PEAVRenderable2D@graphics@core@@V?$allocator@PEAVRenderable2D@graphics@core@@@std@@@std@@QEAAPEAPEAVRenderable2D@graphics@core@@QEAPEAV234@$$QEAPEAV234@@Z
xdata	ENDS
;	COMDAT xdata
xdata	SEGMENT
$unwind$??$_Emplace_reallocate@PEAVRenderable2D@graphics@core@@@?$vector@PEAVRenderable2D@graphics@core@@V?$allocator@PEAVRenderable2D@graphics@core@@@std@@@std@@QEAAPEAPEAVRenderable2D@graphics@core@@QEAPEAV234@$$QEAPEAV234@@Z DD 050b01H
	DD	0e007420bH
	DD	07003c005H
	DD	05002H
xdata	ENDS
;	COMDAT xdata
xdata	SEGMENT
$chain$4$??$_Reallocate_for@V<lambda_66f57f934f28d61049862f64df852ff0>@@PEBD@?$basic_string@DU?$char_traits@D@std@@V?$allocator@D@2@@std@@QEAAAEAV01@_KV<lambda_66f57f934f28d61049862f64df852ff0>@@PEBD@Z DD 021H
	DD	imagerel ??$_Reallocate_for@V<lambda_66f57f934f28d61049862f64df852ff0>@@PEBD@?$basic_string@DU?$char_traits@D@std@@V?$allocator@D@2@@std@@QEAAAEAV01@_KV<lambda_66f57f934f28d61049862f64df852ff0>@@PEBD@Z
	DD	imagerel ??$_Reallocate_for@V<lambda_66f57f934f28d61049862f64df852ff0>@@PEBD@?$basic_string@DU?$char_traits@D@std@@V?$allocator@D@2@@std@@QEAAAEAV01@_KV<lambda_66f57f934f28d61049862f64df852ff0>@@PEBD@Z+39
	DD	imagerel $unwind$??$_Reallocate_for@V<lambda_66f57f934f28d61049862f64df852ff0>@@PEBD@?$basic_string@DU?$char_traits@D@std@@V?$allocator@D@2@@std@@QEAAAEAV01@_KV<lambda_66f57f934f28d61049862f64df852ff0>@@PEBD@Z
xdata	ENDS
;	COMDAT xdata
xdata	SEGMENT
$chain$3$??$_Reallocate_for@V<lambda_66f57f934f28d61049862f64df852ff0>@@PEBD@?$basic_string@DU?$char_traits@D@std@@V?$allocator@D@2@@std@@QEAAAEAV01@_KV<lambda_66f57f934f28d61049862f64df852ff0>@@PEBD@Z DD 040021H
	DD	047400H
	DD	0c5400H
	DD	imagerel ??$_Reallocate_for@V<lambda_66f57f934f28d61049862f64df852ff0>@@PEBD@?$basic_string@DU?$char_traits@D@std@@V?$allocator@D@2@@std@@QEAAAEAV01@_KV<lambda_66f57f934f28d61049862f64df852ff0>@@PEBD@Z
	DD	imagerel ??$_Reallocate_for@V<lambda_66f57f934f28d61049862f64df852ff0>@@PEBD@?$basic_string@DU?$char_traits@D@std@@V?$allocator@D@2@@std@@QEAAAEAV01@_KV<lambda_66f57f934f28d61049862f64df852ff0>@@PEBD@Z+39
	DD	imagerel $unwind$??$_Reallocate_for@V<lambda_66f57f934f28d61049862f64df852ff0>@@PEBD@?$basic_string@DU?$char_traits@D@std@@V?$allocator@D@2@@std@@QEAAAEAV01@_KV<lambda_66f57f934f28d61049862f64df852ff0>@@PEBD@Z
xdata	ENDS
;	COMDAT xdata
xdata	SEGMENT
$chain$1$??$_Reallocate_for@V<lambda_66f57f934f28d61049862f64df852ff0>@@PEBD@?$basic_string@DU?$char_traits@D@std@@V?$allocator@D@2@@std@@QEAAAEAV01@_KV<lambda_66f57f934f28d61049862f64df852ff0>@@PEBD@Z DD 043c21H
	DD	04743cH
	DD	0c5405H
	DD	imagerel ??$_Reallocate_for@V<lambda_66f57f934f28d61049862f64df852ff0>@@PEBD@?$basic_string@DU?$char_traits@D@std@@V?$allocator@D@2@@std@@QEAAAEAV01@_KV<lambda_66f57f934f28d61049862f64df852ff0>@@PEBD@Z
	DD	imagerel ??$_Reallocate_for@V<lambda_66f57f934f28d61049862f64df852ff0>@@PEBD@?$basic_string@DU?$char_traits@D@std@@V?$allocator@D@2@@std@@QEAAAEAV01@_KV<lambda_66f57f934f28d61049862f64df852ff0>@@PEBD@Z+39
	DD	imagerel $unwind$??$_Reallocate_for@V<lambda_66f57f934f28d61049862f64df852ff0>@@PEBD@?$basic_string@DU?$char_traits@D@std@@V?$allocator@D@2@@std@@QEAAAEAV01@_KV<lambda_66f57f934f28d61049862f64df852ff0>@@PEBD@Z
xdata	ENDS
;	COMDAT xdata
xdata	SEGMENT
$unwind$??$_Reallocate_for@V<lambda_66f57f934f28d61049862f64df852ff0>@@PEBD@?$basic_string@DU?$char_traits@D@std@@V?$allocator@D@2@@std@@QEAAAEAV01@_KV<lambda_66f57f934f28d61049862f64df852ff0>@@PEBD@Z DD 050b01H
	DD	0f007420bH
	DD	06003e005H
	DD	03002H
xdata	ENDS
;	COMDAT xdata
xdata	SEGMENT
$unwind$?_Xlength@?$vector@PEAVRenderable2D@graphics@core@@V?$allocator@PEAVRenderable2D@graphics@core@@@std@@@std@@CAXXZ DD 010401H
	DD	04204H
xdata	ENDS
;	COMDAT xdata
xdata	SEGMENT
$unwind$?_Change_array@?$vector@PEAVRenderable2D@graphics@core@@V?$allocator@PEAVRenderable2D@graphics@core@@@std@@@std@@AEAAXQEAPEAVRenderable2D@graphics@core@@_K1@Z DD 081401H
	DD	096414H
	DD	085414H
	DD	073414H
	DD	070103214H
xdata	ENDS
;	COMDAT xdata
xdata	SEGMENT
$unwind$?_Umove_if_noexcept@?$vector@PEAVRenderable2D@graphics@core@@V?$allocator@PEAVRenderable2D@graphics@core@@@std@@@std@@AEAAXPEAPEAVRenderable2D@graphics@core@@00@Z DD 011319H
	DD	06204H
	DD	imagerel __GSHandlerCheck
	DD	020H
xdata	ENDS
;	COMDAT xdata
xdata	SEGMENT
$unwind$?_Umove@?$vector@PEAVRenderable2D@graphics@core@@V?$allocator@PEAVRenderable2D@graphics@core@@@std@@@std@@AEAAPEAPEAVRenderable2D@graphics@core@@PEAPEAV345@00@Z DD 040a01H
	DD	06340aH
	DD	07006320aH
xdata	ENDS
;	COMDAT xdata
xdata	SEGMENT
$unwind$?allocate@?$allocator@PEAVRenderable2D@graphics@core@@@std@@QEAAPEAPEAVRenderable2D@graphics@core@@_K@Z DD 010401H
	DD	04204H
xdata	ENDS
;	COMDAT xdata
xdata	SEGMENT
$unwind$?_Xlen@?$basic_string@DU?$char_traits@D@std@@V?$allocator@D@2@@std@@SAXXZ DD 010401H
	DD	04204H
xdata	ENDS
;	COMDAT xdata
xdata	SEGMENT
$unwind$??A?$tmat4x4@M$0A@@glm@@QEAAAEAU?$tvec4@M$0A@@1@H@Z DD 040a01H
	DD	06340aH
	DD	07006320aH
xdata	ENDS
;	COMDAT xdata
xdata	SEGMENT
$unwind$??$orthoRH@M@glm@@YA?AU?$tmat4x4@M$0A@@0@MMMMMM@Z DD 056401H
	DD	07864H
	DD	01682dH
	DD	04204H
xdata	ENDS
;	COMDAT xdata
xdata	SEGMENT
$unwind$??$_Uninitialized_move@PEAPEAVRenderable2D@graphics@core@@PEAPEAV123@V?$allocator@PEAVRenderable2D@graphics@core@@@std@@@std@@YAPEAPEAVRenderable2D@graphics@core@@QEAPEAV123@0PEAPEAV123@AEAV?$allocator@PEAVRenderable2D@graphics@core@@@0@@Z DD 040a01H
	DD	09340aH
	DD	07006320aH
xdata	ENDS
;	COMDAT xdata
xdata	SEGMENT
$unwind$??A?$tvec4@M$0A@@glm@@QEAAAEAMH@Z DD 040a01H
	DD	06340aH
	DD	07006320aH
xdata	ENDS
;	COMDAT xdata
xdata	SEGMENT
$unwind$??$_Uninitialized_move_al_unchecked@PEAVRenderable2D@graphics@core@@PEAV123@V?$allocator@PEAVRenderable2D@graphics@core@@@std@@@std@@YAPEAPEAVRenderable2D@graphics@core@@QEAPEAV123@00AEAV?$allocator@PEAVRenderable2D@graphics@core@@@0@U_Really_trivial_ptr_iterator_tag@0@U?$integral_constant@_N$00@0@@Z DD 040a01H
	DD	06340aH
	DD	07006320aH
xdata	ENDS
;	COMDAT xdata
xdata	SEGMENT
$unwind$??$_Copy_memmove@PEAPEAVRenderable2D@graphics@core@@PEAPEAV123@@std@@YAPEAPEAVRenderable2D@graphics@core@@PEAPEAV123@00@Z DD 040a01H
	DD	06340aH
	DD	07006320aH
END
