; Listing generated by Microsoft (R) Optimizing Compiler Version 19.14.26433.0 

include listing.inc

INCLUDELIB OLDNAMES

PUBLIC	??_C@_0BJ@IPPEPPO@res?1shaders?1Boids?4shader?$AA@ ; `string'
PUBLIC	??_C@_09NKKCIJOM@BOIDS?$CB?$CB?$CB?$CB?$AA@	; `string'
PUBLIC	??_C@_0M@MNNECBEE@Reset?5Boids?$AA@		; `string'
PUBLIC	??_C@_0N@BEKBMEGC@doSeparation?$AA@		; `string'
PUBLIC	??_C@_0M@HAHGFLPD@doAlignment?$AA@		; `string'
PUBLIC	??_C@_0L@BKIEANEI@doCohesion?$AA@		; `string'
PUBLIC	??_C@_07JFKBMIDJ@doNoise?$AA@			; `string'
PUBLIC	??_C@_07CEMGMHCE@doAvoid?$AA@			; `string'
PUBLIC	??_C@_0BA@HJPGCPJK@doMouseTracking?$AA@		; `string'
PUBLIC	??_R4BoidScene@Scene@Application@@6B@		; Application::Scene::BoidScene::`RTTI Complete Object Locator'
PUBLIC	??_R1A@?0A@EA@BoidScene@Scene@Application@@8	; Application::Scene::BoidScene::`RTTI Base Class Descriptor at (0,-1,0,64)'
PUBLIC	??_R3BoidScene@Scene@Application@@8		; Application::Scene::BoidScene::`RTTI Class Hierarchy Descriptor'
PUBLIC	??_7BoidScene@Scene@Application@@6B@		; Application::Scene::BoidScene::`vftable'
PUBLIC	??_R2BoidScene@Scene@Application@@8		; Application::Scene::BoidScene::`RTTI Base Class Array'
PUBLIC	??_R0?AVBoidScene@Scene@Application@@@8		; Application::Scene::BoidScene `RTTI Type Descriptor'
PUBLIC	?doAvoid@BoidScene@Scene@Application@@2_NA	; Application::Scene::BoidScene::doAvoid
PUBLIC	?doMouseTracking@BoidScene@Scene@Application@@2_NA ; Application::Scene::BoidScene::doMouseTracking
PUBLIC	?doCohesion@BoidScene@Scene@Application@@2_NA	; Application::Scene::BoidScene::doCohesion
PUBLIC	?doAlignment@BoidScene@Scene@Application@@2_NA	; Application::Scene::BoidScene::doAlignment
PUBLIC	?doNoise@BoidScene@Scene@Application@@2_NA	; Application::Scene::BoidScene::doNoise
PUBLIC	?doSeparation@BoidScene@Scene@Application@@2_NA	; Application::Scene::BoidScene::doSeparation
?doAvoid@BoidScene@Scene@Application@@2_NA DB 01H DUP (?) ; Application::Scene::BoidScene::doAvoid
	ALIGN	4

?doMouseTracking@BoidScene@Scene@Application@@2_NA DB 01H DUP (?) ; Application::Scene::BoidScene::doMouseTracking
	ALIGN	4

?doCohesion@BoidScene@Scene@Application@@2_NA DB 01H DUP (?) ; Application::Scene::BoidScene::doCohesion
	ALIGN	4

?doAlignment@BoidScene@Scene@Application@@2_NA DB 01H DUP (?) ; Application::Scene::BoidScene::doAlignment
	ALIGN	4

?doNoise@BoidScene@Scene@Application@@2_NA DB 01H DUP (?) ; Application::Scene::BoidScene::doNoise
	ALIGN	4

?doSeparation@BoidScene@Scene@Application@@2_NA DB 01H DUP (?) ; Application::Scene::BoidScene::doSeparation
_BSS	ENDS
;	COMDAT ??_R0?AVBoidScene@Scene@Application@@@8
data$r	SEGMENT
??_R0?AVBoidScene@Scene@Application@@@8 DQ FLAT:??_7type_info@@6B@ ; Application::Scene::BoidScene `RTTI Type Descriptor'
	DQ	0000000000000000H
	DB	'.?AVBoidScene@Scene@Application@@', 00H
data$r	ENDS
;	COMDAT ??_R2BoidScene@Scene@Application@@8
rdata$r	SEGMENT
??_R2BoidScene@Scene@Application@@8 DD imagerel ??_R1A@?0A@EA@BoidScene@Scene@Application@@8 ; Application::Scene::BoidScene::`RTTI Base Class Array'
	DD	imagerel ??_R1A@?0A@EA@Scene@0Application@@8
	ORG $+3
rdata$r	ENDS
;	COMDAT ??_7BoidScene@Scene@Application@@6B@
CONST	SEGMENT
??_7BoidScene@Scene@Application@@6B@ DQ FLAT:??_R4BoidScene@Scene@Application@@6B@ ; Application::Scene::BoidScene::`vftable'
	DQ	FLAT:??_EBoidScene@Scene@Application@@UEAAPEAXI@Z
	DQ	FLAT:?OnUpdate@BoidScene@Scene@Application@@UEAAXM@Z
	DQ	FLAT:?OnRender@BoidScene@Scene@Application@@UEAAXXZ
	DQ	FLAT:?OnImGuiRender@BoidScene@Scene@Application@@UEAAXXZ
CONST	ENDS
;	COMDAT ??_R3BoidScene@Scene@Application@@8
rdata$r	SEGMENT
??_R3BoidScene@Scene@Application@@8 DD 00H		; Application::Scene::BoidScene::`RTTI Class Hierarchy Descriptor'
	DD	00H
	DD	02H
	DD	imagerel ??_R2BoidScene@Scene@Application@@8
rdata$r	ENDS
;	COMDAT ??_R1A@?0A@EA@BoidScene@Scene@Application@@8
rdata$r	SEGMENT
??_R1A@?0A@EA@BoidScene@Scene@Application@@8 DD imagerel ??_R0?AVBoidScene@Scene@Application@@@8 ; Application::Scene::BoidScene::`RTTI Base Class Descriptor at (0,-1,0,64)'
	DD	01H
	DD	00H
	DD	0ffffffffH
	DD	00H
	DD	040H
	DD	imagerel ??_R3BoidScene@Scene@Application@@8
rdata$r	ENDS
;	COMDAT ??_R4BoidScene@Scene@Application@@6B@
rdata$r	SEGMENT
??_R4BoidScene@Scene@Application@@6B@ DD 01H		; Application::Scene::BoidScene::`RTTI Complete Object Locator'
	DD	00H
	DD	00H
	DD	imagerel ??_R0?AVBoidScene@Scene@Application@@@8
	DD	imagerel ??_R3BoidScene@Scene@Application@@8
	DD	imagerel ??_R4BoidScene@Scene@Application@@6B@
rdata$r	ENDS
;	COMDAT ??_C@_0BA@HJPGCPJK@doMouseTracking?$AA@
CONST	SEGMENT
??_C@_0BA@HJPGCPJK@doMouseTracking?$AA@ DB 'doMouseTracking', 00H ; `string'
CONST	ENDS
;	COMDAT ??_C@_07CEMGMHCE@doAvoid?$AA@
CONST	SEGMENT
??_C@_07CEMGMHCE@doAvoid?$AA@ DB 'doAvoid', 00H		; `string'
CONST	ENDS
;	COMDAT ??_C@_07JFKBMIDJ@doNoise?$AA@
CONST	SEGMENT
??_C@_07JFKBMIDJ@doNoise?$AA@ DB 'doNoise', 00H		; `string'
CONST	ENDS
;	COMDAT ??_C@_0L@BKIEANEI@doCohesion?$AA@
CONST	SEGMENT
??_C@_0L@BKIEANEI@doCohesion?$AA@ DB 'doCohesion', 00H	; `string'
CONST	ENDS
;	COMDAT ??_C@_0M@HAHGFLPD@doAlignment?$AA@
CONST	SEGMENT
??_C@_0M@HAHGFLPD@doAlignment?$AA@ DB 'doAlignment', 00H ; `string'
CONST	ENDS
;	COMDAT ??_C@_0N@BEKBMEGC@doSeparation?$AA@
CONST	SEGMENT
??_C@_0N@BEKBMEGC@doSeparation?$AA@ DB 'doSeparation', 00H ; `string'
CONST	ENDS
;	COMDAT ??_C@_0M@MNNECBEE@Reset?5Boids?$AA@
CONST	SEGMENT
??_C@_0M@MNNECBEE@Reset?5Boids?$AA@ DB 'Reset Boids', 00H ; `string'
CONST	ENDS
;	COMDAT ??_C@_09NKKCIJOM@BOIDS?$CB?$CB?$CB?$CB?$AA@
CONST	SEGMENT
??_C@_09NKKCIJOM@BOIDS?$CB?$CB?$CB?$CB?$AA@ DB 'BOIDS!!!!', 00H ; `string'
CONST	ENDS
;	COMDAT ??_C@_0BJ@IPPEPPO@res?1shaders?1Boids?4shader?$AA@
CONST	SEGMENT
??_C@_0BJ@IPPEPPO@res?1shaders?1Boids?4shader?$AA@ DB 'res/shaders/Boids.'
	DB	'shader', 00H				; `string'
PUBLIC	??$_Destroy_range1@V?$allocator@U?$tmat4x4@M$0A@@glm@@@std@@@std@@YAXPEAU?$tmat4x4@M$0A@@glm@@0AEAV?$allocator@U?$tmat4x4@M$0A@@glm@@@0@U?$integral_constant@_N$00@0@@Z ; std::_Destroy_range1<std::allocator<glm::tmat4x4<float,0> > >
PUBLIC	??$_Destroy_range@V?$allocator@U?$tmat4x4@M$0A@@glm@@@std@@@std@@YAXPEAU?$tmat4x4@M$0A@@glm@@0AEAV?$allocator@U?$tmat4x4@M$0A@@glm@@@0@@Z ; std::_Destroy_range<std::allocator<glm::tmat4x4<float,0> > >
PUBLIC	??$_Emplace_reallocate@PEAVBoid@1Application@@@?$vector@PEAVBoid@1Application@@V?$allocator@PEAVBoid@1Application@@@std@@@std@@QEAAPEAPEAVBoid@2Application@@QEAPEAV223@$$QEAPEAV223@@Z ; std::vector<Application::Boid::Boid *,std::allocator<Application::Boid::Boid *> >::_Emplace_reallocate<Application::Boid::Boid *>
PUBLIC	??$construct@PEAVBoid@1Application@@PEAV112@@?$_Default_allocator_traits@V?$allocator@PEAVBoid@1Application@@@std@@@std@@SAXAEAV?$allocator@PEAVBoid@1Application@@@1@QEAPEAVBoid@3Application@@$$QEAPEAV334@@Z ; std::_Default_allocator_traits<std::allocator<Application::Boid::Boid *> >::construct<Application::Boid::Boid *,Application::Boid::Boid *>
PUBLIC	??$forward@PEAVBoid@1Application@@@std@@YA$$QEAPEAVBoid@1Application@@AEAPEAV112@@Z ; std::forward<Application::Boid::Boid *>
PUBLIC	??$move@AEAPEAVBoid@1Application@@@std@@YA$$QEAPEAVBoid@1Application@@AEAPEAV112@@Z ; std::move<Application::Boid::Boid * &>
PUBLIC	?_Get_second@?$_Compressed_pair@V?$allocator@U?$tmat4x4@M$0A@@glm@@@std@@V?$_Vector_val@U?$_Simple_types@U?$tmat4x4@M$0A@@glm@@@std@@@2@$00@std@@QEAAAEAV?$_Vector_val@U?$_Simple_types@U?$tmat4x4@M$0A@@glm@@@std@@@2@XZ ; std::_Compressed_pair<std::allocator<glm::tmat4x4<float,0> >,std::_Vector_val<std::_Simple_types<glm::tmat4x4<float,0> > >,1>::_Get_second
PUBLIC	?_Get_second@?$_Compressed_pair@V?$allocator@U?$tmat4x4@M$0A@@glm@@@std@@V?$_Vector_val@U?$_Simple_types@U?$tmat4x4@M$0A@@glm@@@std@@@2@$00@std@@QEBAAEBV?$_Vector_val@U?$_Simple_types@U?$tmat4x4@M$0A@@glm@@@std@@@2@XZ ; std::_Compressed_pair<std::allocator<glm::tmat4x4<float,0> >,std::_Vector_val<std::_Simple_types<glm::tmat4x4<float,0> > >,1>::_Get_second
PUBLIC	?deallocate@?$allocator@U?$tmat4x4@M$0A@@glm@@@std@@QEAAXQEAU?$tmat4x4@M$0A@@glm@@_K@Z ; std::allocator<glm::tmat4x4<float,0> >::deallocate
PUBLIC	?capacity@?$vector@U?$tmat4x4@M$0A@@glm@@V?$allocator@U?$tmat4x4@M$0A@@glm@@@std@@@std@@QEBA_KXZ ; std::vector<glm::tmat4x4<float,0>,std::allocator<glm::tmat4x4<float,0> > >::capacity
PUBLIC	?_Destroy@?$vector@U?$tmat4x4@M$0A@@glm@@V?$allocator@U?$tmat4x4@M$0A@@glm@@@std@@@std@@AEAAXPEAU?$tmat4x4@M$0A@@glm@@0@Z ; std::vector<glm::tmat4x4<float,0>,std::allocator<glm::tmat4x4<float,0> > >::_Destroy
PUBLIC	?_Orphan_all@?$_Vector_alloc@U?$_Vec_base_types@U?$tmat4x4@M$0A@@glm@@V?$allocator@U?$tmat4x4@M$0A@@glm@@@std@@@std@@@std@@QEAAXXZ ; std::_Vector_alloc<std::_Vec_base_types<glm::tmat4x4<float,0>,std::allocator<glm::tmat4x4<float,0> > > >::_Orphan_all
PUBLIC	?_Get_data@?$_Vector_alloc@U?$_Vec_base_types@U?$tmat4x4@M$0A@@glm@@V?$allocator@U?$tmat4x4@M$0A@@glm@@@std@@@std@@@std@@QEAAAEAV?$_Vector_val@U?$_Simple_types@U?$tmat4x4@M$0A@@glm@@@std@@@2@XZ ; std::_Vector_alloc<std::_Vec_base_types<glm::tmat4x4<float,0>,std::allocator<glm::tmat4x4<float,0> > > >::_Get_data
PUBLIC	?_Get_data@?$_Vector_alloc@U?$_Vec_base_types@U?$tmat4x4@M$0A@@glm@@V?$allocator@U?$tmat4x4@M$0A@@glm@@@std@@@std@@@std@@QEBAAEBV?$_Vector_val@U?$_Simple_types@U?$tmat4x4@M$0A@@glm@@@std@@@2@XZ ; std::_Vector_alloc<std::_Vec_base_types<glm::tmat4x4<float,0>,std::allocator<glm::tmat4x4<float,0> > > >::_Get_data
PUBLIC	?_Myfirst@?$_Vector_alloc@U?$_Vec_base_types@U?$tmat4x4@M$0A@@glm@@V?$allocator@U?$tmat4x4@M$0A@@glm@@@std@@@std@@@std@@QEAAAEAPEAU?$tmat4x4@M$0A@@glm@@XZ ; std::_Vector_alloc<std::_Vec_base_types<glm::tmat4x4<float,0>,std::allocator<glm::tmat4x4<float,0> > > >::_Myfirst
PUBLIC	?_Myend@?$_Vector_alloc@U?$_Vec_base_types@U?$tmat4x4@M$0A@@glm@@V?$allocator@U?$tmat4x4@M$0A@@glm@@@std@@@std@@@std@@QEAAAEAPEAU?$tmat4x4@M$0A@@glm@@XZ ; std::_Vector_alloc<std::_Vec_base_types<glm::tmat4x4<float,0>,std::allocator<glm::tmat4x4<float,0> > > >::_Myend
PUBLIC	?_Myend@?$_Vector_alloc@U?$_Vec_base_types@U?$tmat4x4@M$0A@@glm@@V?$allocator@U?$tmat4x4@M$0A@@glm@@@std@@@std@@@std@@QEBAAEBQEAU?$tmat4x4@M$0A@@glm@@XZ ; std::_Vector_alloc<std::_Vec_base_types<glm::tmat4x4<float,0>,std::allocator<glm::tmat4x4<float,0> > > >::_Myend
PUBLIC	?_Get_first@?$_Compressed_pair@V?$allocator@U?$tmat4x4@M$0A@@glm@@@std@@V?$_Vector_val@U?$_Simple_types@U?$tmat4x4@M$0A@@glm@@@std@@@2@$00@std@@QEAAAEAV?$allocator@U?$tmat4x4@M$0A@@glm@@@2@XZ ; std::_Compressed_pair<std::allocator<glm::tmat4x4<float,0> >,std::_Vector_val<std::_Simple_types<glm::tmat4x4<float,0> > >,1>::_Get_first
PUBLIC	?_Tidy@?$vector@U?$tmat4x4@M$0A@@glm@@V?$allocator@U?$tmat4x4@M$0A@@glm@@@std@@@std@@AEAAXXZ ; std::vector<glm::tmat4x4<float,0>,std::allocator<glm::tmat4x4<float,0> > >::_Tidy
PUBLIC	?_Getal@?$_Vector_alloc@U?$_Vec_base_types@U?$tmat4x4@M$0A@@glm@@V?$allocator@U?$tmat4x4@M$0A@@glm@@@std@@@std@@@std@@QEAAAEAV?$allocator@U?$tmat4x4@M$0A@@glm@@@2@XZ ; std::_Vector_alloc<std::_Vec_base_types<glm::tmat4x4<float,0>,std::allocator<glm::tmat4x4<float,0> > > >::_Getal
PUBLIC	?_Myfirst@?$_Vector_alloc@U?$_Vec_base_types@U?$tmat4x4@M$0A@@glm@@V?$allocator@U?$tmat4x4@M$0A@@glm@@@std@@@std@@@std@@QEBAAEBQEAU?$tmat4x4@M$0A@@glm@@XZ ; std::_Vector_alloc<std::_Vec_base_types<glm::tmat4x4<float,0>,std::allocator<glm::tmat4x4<float,0> > > >::_Myfirst
PUBLIC	?_Mylast@?$_Vector_alloc@U?$_Vec_base_types@U?$tmat4x4@M$0A@@glm@@V?$allocator@U?$tmat4x4@M$0A@@glm@@@std@@@std@@@std@@QEAAAEAPEAU?$tmat4x4@M$0A@@glm@@XZ ; std::_Vector_alloc<std::_Vec_base_types<glm::tmat4x4<float,0>,std::allocator<glm::tmat4x4<float,0> > > >::_Mylast
PUBLIC	??1?$vector@U?$tmat4x4@M$0A@@glm@@V?$allocator@U?$tmat4x4@M$0A@@glm@@@std@@@std@@QEAA@XZ ; std::vector<glm::tmat4x4<float,0>,std::allocator<glm::tmat4x4<float,0> > >::~vector<glm::tmat4x4<float,0>,std::allocator<glm::tmat4x4<float,0> > >
PUBLIC	??$_Emplace_back_with_unused_capacity@PEAVBoid@1Application@@@?$vector@PEAVBoid@1Application@@V?$allocator@PEAVBoid@1Application@@@std@@@std@@AEAAX$$QEAPEAVBoid@2Application@@@Z ; std::vector<Application::Boid::Boid *,std::allocator<Application::Boid::Boid *> >::_Emplace_back_with_unused_capacity<Application::Boid::Boid *>
PUBLIC	??$emplace_back@PEAVBoid@1Application@@@?$vector@PEAVBoid@1Application@@V?$allocator@PEAVBoid@1Application@@@std@@@std@@QEAAX$$QEAPEAVBoid@2Application@@@Z ; std::vector<Application::Boid::Boid *,std::allocator<Application::Boid::Boid *> >::emplace_back<Application::Boid::Boid *>
PUBLIC	?push_back@?$vector@PEAVBoid@1Application@@V?$allocator@PEAVBoid@1Application@@@std@@@std@@QEAAX$$QEAPEAVBoid@3Application@@@Z ; std::vector<Application::Boid::Boid *,std::allocator<Application::Boid::Boid *> >::push_back
PUBLIC	?ResetBoids@BoidScene@Scene@Application@@AEAAXXZ ; Application::Scene::BoidScene::ResetBoids
PUBLIC	?OnImGuiRender@BoidScene@Scene@Application@@UEAAXXZ ; Application::Scene::BoidScene::OnImGuiRender
PUBLIC	?OnRender@BoidScene@Scene@Application@@UEAAXXZ	; Application::Scene::BoidScene::OnRender
PUBLIC	?OnUpdate@BoidScene@Scene@Application@@UEAAXM@Z	; Application::Scene::BoidScene::OnUpdate
PUBLIC	??1Renderer2D@graphics@core@@QEAA@XZ		; core::graphics::Renderer2D::~Renderer2D
PUBLIC	??_GRenderer2D@graphics@core@@QEAAPEAXI@Z	; core::graphics::Renderer2D::`scalar deleting destructor'
PUBLIC	??1BoidScene@Scene@Application@@UEAA@XZ		; Application::Scene::BoidScene::~BoidScene
PUBLIC	?__autoclassinit2@Boid@1Application@@QEAAX_K@Z	; Application::Boid::Boid::__autoclassinit2
PUBLIC	??_GBoidScene@Scene@Application@@UEAAPEAXI@Z	; Application::Scene::BoidScene::`scalar deleting destructor'
PUBLIC	??0BoidScene@Scene@Application@@QEAA@XZ		; Application::Scene::BoidScene::BoidScene
PUBLIC	?trackPos@BoidScene@Scene@Application@@2U?$tvec2@M$0A@@glm@@A ; Application::Scene::BoidScene::trackPos
EXTRN	??_EBoidScene@Scene@Application@@UEAAPEAXI@Z:PROC ; Application::Scene::BoidScene::`vector deleting destructor'
	ALIGN	8

?trackPos@BoidScene@Scene@Application@@2U?$tvec2@M$0A@@glm@@A DQ 01H DUP (?) ; Application::Scene::BoidScene::trackPos
_BSS	ENDS
;	COMDAT pdata
pdata	SEGMENT
$pdata$??$_Emplace_reallocate@PEAVBoid@1Application@@@?$vector@PEAVBoid@1Application@@V?$allocator@PEAVBoid@1Application@@@std@@@std@@QEAAPEAPEAVBoid@2Application@@QEAPEAV223@$$QEAPEAV223@@Z DD imagerel $LN313@Emplace_re
	DD	imagerel $LN313@Emplace_re+70
	DD	imagerel $unwind$??$_Emplace_reallocate@PEAVBoid@1Application@@@?$vector@PEAVBoid@1Application@@V?$allocator@PEAVBoid@1Application@@@std@@@std@@QEAAPEAPEAVBoid@2Application@@QEAPEAV223@$$QEAPEAV223@@Z
pdata	ENDS
;	COMDAT pdata
pdata	SEGMENT
$pdata$2$??$_Emplace_reallocate@PEAVBoid@1Application@@@?$vector@PEAVBoid@1Application@@V?$allocator@PEAVBoid@1Application@@@std@@@std@@QEAAPEAPEAVBoid@2Application@@QEAPEAV223@$$QEAPEAV223@@Z DD imagerel $LN313@Emplace_re+70
	DD	imagerel $LN313@Emplace_re+393
	DD	imagerel $chain$2$??$_Emplace_reallocate@PEAVBoid@1Application@@@?$vector@PEAVBoid@1Application@@V?$allocator@PEAVBoid@1Application@@@std@@@std@@QEAAPEAPEAVBoid@2Application@@QEAPEAV223@$$QEAPEAV223@@Z
pdata	ENDS
;	COMDAT pdata
pdata	SEGMENT
$pdata$4$??$_Emplace_reallocate@PEAVBoid@1Application@@@?$vector@PEAVBoid@1Application@@V?$allocator@PEAVBoid@1Application@@@std@@@std@@QEAAPEAPEAVBoid@2Application@@QEAPEAV223@$$QEAPEAV223@@Z DD imagerel $LN313@Emplace_re+393
	DD	imagerel $LN313@Emplace_re+400
	DD	imagerel $chain$4$??$_Emplace_reallocate@PEAVBoid@1Application@@@?$vector@PEAVBoid@1Application@@V?$allocator@PEAVBoid@1Application@@@std@@@std@@QEAAPEAPEAVBoid@2Application@@QEAPEAV223@$$QEAPEAV223@@Z
pdata	ENDS
;	COMDAT pdata
pdata	SEGMENT
$pdata$5$??$_Emplace_reallocate@PEAVBoid@1Application@@@?$vector@PEAVBoid@1Application@@V?$allocator@PEAVBoid@1Application@@@std@@@std@@QEAAPEAPEAVBoid@2Application@@QEAPEAV223@$$QEAPEAV223@@Z DD imagerel $LN313@Emplace_re+400
	DD	imagerel $LN313@Emplace_re+406
	DD	imagerel $chain$5$??$_Emplace_reallocate@PEAVBoid@1Application@@@?$vector@PEAVBoid@1Application@@V?$allocator@PEAVBoid@1Application@@@std@@@std@@QEAAPEAPEAVBoid@2Application@@QEAPEAV223@$$QEAPEAV223@@Z
pdata	ENDS
;	COMDAT pdata
pdata	SEGMENT
$pdata$?deallocate@?$allocator@U?$tmat4x4@M$0A@@glm@@@std@@QEAAXQEAU?$tmat4x4@M$0A@@glm@@_K@Z DD imagerel $LN14@deallocate
	DD	imagerel $LN14@deallocate+66
	DD	imagerel $unwind$?deallocate@?$allocator@U?$tmat4x4@M$0A@@glm@@@std@@QEAAXQEAU?$tmat4x4@M$0A@@glm@@_K@Z
pdata	ENDS
;	COMDAT pdata
pdata	SEGMENT
$pdata$?_Tidy@?$vector@U?$tmat4x4@M$0A@@glm@@V?$allocator@U?$tmat4x4@M$0A@@glm@@@std@@@std@@AEAAXXZ DD imagerel $LN97@Tidy
	DD	imagerel $LN97@Tidy+92
	DD	imagerel $unwind$?_Tidy@?$vector@U?$tmat4x4@M$0A@@glm@@V?$allocator@U?$tmat4x4@M$0A@@glm@@@std@@@std@@AEAAXXZ
pdata	ENDS
;	COMDAT pdata
pdata	SEGMENT
$pdata$??1?$vector@U?$tmat4x4@M$0A@@glm@@V?$allocator@U?$tmat4x4@M$0A@@glm@@@std@@@std@@QEAA@XZ DD imagerel $LN100@vector
	DD	imagerel $LN100@vector+92
	DD	imagerel $unwind$??1?$vector@U?$tmat4x4@M$0A@@glm@@V?$allocator@U?$tmat4x4@M$0A@@glm@@@std@@@std@@QEAA@XZ
pdata	ENDS
;	COMDAT pdata
pdata	SEGMENT
$pdata$?ResetBoids@BoidScene@Scene@Application@@AEAAXXZ DD imagerel $LN171@ResetBoids
	DD	imagerel $LN171@ResetBoids+388
	DD	imagerel $unwind$?ResetBoids@BoidScene@Scene@Application@@AEAAXXZ
pdata	ENDS
;	COMDAT pdata
pdata	SEGMENT
$pdata$?OnImGuiRender@BoidScene@Scene@Application@@UEAAXXZ DD imagerel $LN178@OnImGuiRen
	DD	imagerel $LN178@OnImGuiRen+66
	DD	imagerel $unwind$?OnImGuiRender@BoidScene@Scene@Application@@UEAAXXZ
pdata	ENDS
;	COMDAT pdata
pdata	SEGMENT
$pdata$6$?OnImGuiRender@BoidScene@Scene@Application@@UEAAXXZ DD imagerel $LN178@OnImGuiRen+66
	DD	imagerel $LN178@OnImGuiRen+452
	DD	imagerel $chain$6$?OnImGuiRender@BoidScene@Scene@Application@@UEAAXXZ
pdata	ENDS
;	COMDAT pdata
pdata	SEGMENT
$pdata$7$?OnImGuiRender@BoidScene@Scene@Application@@UEAAXXZ DD imagerel $LN178@OnImGuiRen+452
	DD	imagerel $LN178@OnImGuiRen+571
	DD	imagerel $chain$7$?OnImGuiRender@BoidScene@Scene@Application@@UEAAXXZ
pdata	ENDS
;	COMDAT pdata
pdata	SEGMENT
$pdata$?OnRender@BoidScene@Scene@Application@@UEAAXXZ DD imagerel $LN34@OnRender
	DD	imagerel $LN34@OnRender+41
	DD	imagerel $unwind$?OnRender@BoidScene@Scene@Application@@UEAAXXZ
pdata	ENDS
;	COMDAT pdata
pdata	SEGMENT
$pdata$0$?OnRender@BoidScene@Scene@Application@@UEAAXXZ DD imagerel $LN34@OnRender+41
	DD	imagerel $LN34@OnRender+97
	DD	imagerel $chain$0$?OnRender@BoidScene@Scene@Application@@UEAAXXZ
pdata	ENDS
;	COMDAT pdata
pdata	SEGMENT
$pdata$1$?OnRender@BoidScene@Scene@Application@@UEAAXXZ DD imagerel $LN34@OnRender+97
	DD	imagerel $LN34@OnRender+128
	DD	imagerel $chain$1$?OnRender@BoidScene@Scene@Application@@UEAAXXZ
pdata	ENDS
;	COMDAT pdata
pdata	SEGMENT
$pdata$?OnUpdate@BoidScene@Scene@Application@@UEAAXM@Z DD imagerel $LN235@OnUpdate
	DD	imagerel $LN235@OnUpdate+121
	DD	imagerel $unwind$?OnUpdate@BoidScene@Scene@Application@@UEAAXM@Z
pdata	ENDS
;	COMDAT pdata
pdata	SEGMENT
$pdata$9$?OnUpdate@BoidScene@Scene@Application@@UEAAXM@Z DD imagerel $LN235@OnUpdate+121
	DD	imagerel $LN235@OnUpdate+580
	DD	imagerel $chain$9$?OnUpdate@BoidScene@Scene@Application@@UEAAXM@Z
pdata	ENDS
;	COMDAT pdata
pdata	SEGMENT
$pdata$10$?OnUpdate@BoidScene@Scene@Application@@UEAAXM@Z DD imagerel $LN235@OnUpdate+580
	DD	imagerel $LN235@OnUpdate+591
	DD	imagerel $chain$10$?OnUpdate@BoidScene@Scene@Application@@UEAAXM@Z
pdata	ENDS
;	COMDAT pdata
pdata	SEGMENT
$pdata$??1Renderer2D@graphics@core@@QEAA@XZ DD imagerel $LN103@Renderer2D
	DD	imagerel $LN103@Renderer2D+94
	DD	imagerel $unwind$??1Renderer2D@graphics@core@@QEAA@XZ
pdata	ENDS
;	COMDAT pdata
pdata	SEGMENT
$pdata$??_GRenderer2D@graphics@core@@QEAAPEAXI@Z DD imagerel $LN108@scalar
	DD	imagerel $LN108@scalar+110
	DD	imagerel $unwind$??_GRenderer2D@graphics@core@@QEAAPEAXI@Z
pdata	ENDS
;	COMDAT pdata
pdata	SEGMENT
$pdata$??1BoidScene@Scene@Application@@UEAA@XZ DD imagerel $LN146@BoidScene
	DD	imagerel $LN146@BoidScene+292
	DD	imagerel $unwind$??1BoidScene@Scene@Application@@UEAA@XZ
pdata	ENDS
;	COMDAT pdata
pdata	SEGMENT
$pdata$??_GBoidScene@Scene@Application@@UEAAPEAXI@Z DD imagerel $LN151@scalar
	DD	imagerel $LN151@scalar+326
	DD	imagerel $unwind$??_GBoidScene@Scene@Application@@UEAAPEAXI@Z
pdata	ENDS
;	COMDAT pdata
pdata	SEGMENT
$pdata$??0BoidScene@Scene@Application@@QEAA@XZ DD imagerel $LN315@BoidScene
	DD	imagerel $LN315@BoidScene+806
	DD	imagerel $unwind$??0BoidScene@Scene@Application@@QEAA@XZ
pdata	ENDS
;	COMDAT pdata
pdata	SEGMENT
$pdata$?dtor$2@?0???0BoidScene@Scene@Application@@QEAA@XZ@4HA DD imagerel ?dtor$2@?0???0BoidScene@Scene@Application@@QEAA@XZ@4HA
	DD	imagerel ?dtor$2@?0???0BoidScene@Scene@Application@@QEAA@XZ@4HA+29
	DD	imagerel $unwind$?dtor$2@?0???0BoidScene@Scene@Application@@QEAA@XZ@4HA
pdata	ENDS
;	COMDAT pdata
pdata	SEGMENT
$pdata$?dtor$4@?0???0BoidScene@Scene@Application@@QEAA@XZ@4HA DD imagerel ?dtor$4@?0???0BoidScene@Scene@Application@@QEAA@XZ@4HA
	DD	imagerel ?dtor$4@?0???0BoidScene@Scene@Application@@QEAA@XZ@4HA+29
	DD	imagerel $unwind$?dtor$4@?0???0BoidScene@Scene@Application@@QEAA@XZ@4HA
pdata	ENDS
;	COMDAT pdata
pdata	SEGMENT
$pdata$?dtor$5@?0???0BoidScene@Scene@Application@@QEAA@XZ@4HA DD imagerel ?dtor$5@?0???0BoidScene@Scene@Application@@QEAA@XZ@4HA
	DD	imagerel ?dtor$5@?0???0BoidScene@Scene@Application@@QEAA@XZ@4HA+38
	DD	imagerel $unwind$?dtor$5@?0???0BoidScene@Scene@Application@@QEAA@XZ@4HA
;	COMDAT xdata
xdata	SEGMENT
$unwind$?dtor$5@?0???0BoidScene@Scene@Application@@QEAA@XZ@4HA DD 020601H
	DD	050023206H
xdata	ENDS
;	COMDAT xdata
xdata	SEGMENT
$unwind$?dtor$4@?0???0BoidScene@Scene@Application@@QEAA@XZ@4HA DD 020601H
	DD	050023206H
xdata	ENDS
;	COMDAT xdata
xdata	SEGMENT
$unwind$?dtor$2@?0???0BoidScene@Scene@Application@@QEAA@XZ@4HA DD 020601H
	DD	050023206H
xdata	ENDS
;	COMDAT xdata
xdata	SEGMENT
$ip2state$??0BoidScene@Scene@Application@@QEAA@XZ DD imagerel ??0BoidScene@Scene@Application@@QEAA@XZ+105
	DD	01H
	DD	imagerel ??0BoidScene@Scene@Application@@QEAA@XZ+135
	DD	02H
	DD	imagerel ??0BoidScene@Scene@Application@@QEAA@XZ+148
	DD	01H
	DD	imagerel ??0BoidScene@Scene@Application@@QEAA@XZ+262
	DD	03H
	DD	imagerel ??0BoidScene@Scene@Application@@QEAA@XZ+303
	DD	04H
	DD	imagerel ??0BoidScene@Scene@Application@@QEAA@XZ+325
	DD	05H
	DD	imagerel ??0BoidScene@Scene@Application@@QEAA@XZ+453
	DD	01H
	DD	imagerel ??0BoidScene@Scene@Application@@QEAA@XZ+757
	DD	0ffffffffH
xdata	ENDS
;	COMDAT xdata
xdata	SEGMENT
$stateUnwindMap$??0BoidScene@Scene@Application@@QEAA@XZ DD 0ffffffffH
	DD	imagerel ?dtor$0@?0???0BoidScene@Scene@Application@@QEAA@XZ@4HA
	DD	00H
	DD	imagerel ?dtor$1@?0???0BoidScene@Scene@Application@@QEAA@XZ@4HA
	DD	01H
	DD	imagerel ?dtor$2@?0???0BoidScene@Scene@Application@@QEAA@XZ@4HA
	DD	01H
	DD	imagerel ?dtor$4@?0???0BoidScene@Scene@Application@@QEAA@XZ@4HA
	DD	03H
	DD	imagerel ?dtor$5@?0???0BoidScene@Scene@Application@@QEAA@XZ@4HA
	DD	01H
	DD	imagerel ?dtor$5@?0???0BoidScene@Scene@Application@@QEAA@XZ@4HA
xdata	ENDS
;	COMDAT CONST
CONST	SEGMENT
$cppxdata$??0BoidScene@Scene@Application@@QEAA@XZ DQ 00000000619930522r ; 1.2944e-313
	DD	imagerel $stateUnwindMap$??0BoidScene@Scene@Application@@QEAA@XZ
	DQ	00000000000000000r		; 0
	DD	08H
	DD	imagerel $ip2state$??0BoidScene@Scene@Application@@QEAA@XZ
	DQ	00000000000000050r		; 3.95253e-322
	DD	01H
CONST	ENDS
;	COMDAT xdata
xdata	SEGMENT
$unwind$??0BoidScene@Scene@Application@@QEAA@XZ DD 0113211H
	DD	069832H
	DD	07882dH
	DD	087828H
	DD	096824H
	DD	0197420H
	DD	018641cH
	DD	0173418H
	DD	014010cH
	DD	0e005H
	DD	imagerel __CxxFrameHandler3
	DD	imagerel $cppxdata$??0BoidScene@Scene@Application@@QEAA@XZ
xdata	ENDS
;	COMDAT xdata
xdata	SEGMENT
$ip2state$??_GBoidScene@Scene@Application@@UEAAPEAXI@Z DD imagerel ??_GBoidScene@Scene@Application@@UEAAPEAXI@Z+93
	DD	00H
xdata	ENDS
;	COMDAT xdata
xdata	SEGMENT
$stateUnwindMap$??_GBoidScene@Scene@Application@@UEAAPEAXI@Z DD 0ffffffffH
	DD	imagerel __std_terminate
xdata	ENDS
;	COMDAT CONST
CONST	SEGMENT
$cppxdata$??_GBoidScene@Scene@Application@@UEAAPEAXI@Z DQ 00000000119930522r ; 2.33398e-314
	DD	imagerel $stateUnwindMap$??_GBoidScene@Scene@Application@@UEAAPEAXI@Z
	DQ	00000000000000000r		; 0
	DD	01H
	DD	imagerel $ip2state$??_GBoidScene@Scene@Application@@UEAAPEAXI@Z
	DQ	00000000000000020r		; 1.58101e-322
	DD	05H
CONST	ENDS
;	COMDAT xdata
xdata	SEGMENT
$unwind$??_GBoidScene@Scene@Application@@UEAAPEAXI@Z DD 081e19H
	DD	0b641eH
	DD	0a5419H
	DD	093414H
	DD	070025206H
	DD	imagerel __CxxFrameHandler3
	DD	imagerel $cppxdata$??_GBoidScene@Scene@Application@@UEAAPEAXI@Z
xdata	ENDS
;	COMDAT xdata
xdata	SEGMENT
$ip2state$??1BoidScene@Scene@Application@@UEAA@XZ DD imagerel ??1BoidScene@Scene@Application@@UEAA@XZ+86
	DD	00H
xdata	ENDS
;	COMDAT xdata
xdata	SEGMENT
$stateUnwindMap$??1BoidScene@Scene@Application@@UEAA@XZ DD 0ffffffffH
	DD	imagerel __std_terminate
xdata	ENDS
;	COMDAT CONST
CONST	SEGMENT
$cppxdata$??1BoidScene@Scene@Application@@UEAA@XZ DQ 00000000119930522r ; 2.33398e-314
	DD	imagerel $stateUnwindMap$??1BoidScene@Scene@Application@@UEAA@XZ
	DQ	00000000000000000r		; 0
	DD	01H
	DD	imagerel $ip2state$??1BoidScene@Scene@Application@@UEAA@XZ
	DQ	00000000000000020r		; 1.58101e-322
	DD	05H
CONST	ENDS
;	COMDAT xdata
xdata	SEGMENT
$unwind$??1BoidScene@Scene@Application@@UEAA@XZ DD 061919H
	DD	0a6419H
	DD	093414H
	DD	070025206H
	DD	imagerel __CxxFrameHandler3
	DD	imagerel $cppxdata$??1BoidScene@Scene@Application@@UEAA@XZ
xdata	ENDS
;	COMDAT xdata
xdata	SEGMENT
$unwind$??_GRenderer2D@graphics@core@@QEAAPEAXI@Z DD 020601H
	DD	030023206H
xdata	ENDS
;	COMDAT xdata
xdata	SEGMENT
$unwind$??1Renderer2D@graphics@core@@QEAA@XZ DD 020601H
	DD	030023206H
xdata	ENDS
;	COMDAT xdata
xdata	SEGMENT
$chain$10$?OnUpdate@BoidScene@Scene@Application@@UEAAXM@Z DD 021H
	DD	imagerel $LN235@OnUpdate
	DD	imagerel $LN235@OnUpdate+121
	DD	imagerel $unwind$?OnUpdate@BoidScene@Scene@Application@@UEAAXM@Z
xdata	ENDS
;	COMDAT xdata
xdata	SEGMENT
$chain$9$?OnUpdate@BoidScene@Scene@Application@@UEAAXM@Z DD 0145221H
	DD	02a852H
	DD	039844H
	DD	048836H
	DD	057829H
	DD	06681cH
	DD	0ef414H
	DD	0fe410H
	DD	010740cH
	DD	0165408H
	DD	0153404H
	DD	imagerel $LN235@OnUpdate
	DD	imagerel $LN235@OnUpdate+121
	DD	imagerel $unwind$?OnUpdate@BoidScene@Scene@Application@@UEAAXM@Z
xdata	ENDS
;	COMDAT xdata
xdata	SEGMENT
$unwind$?OnUpdate@BoidScene@Scene@Application@@UEAAXM@Z DD 040d01H
	DD	011010dH
	DD	06004c006H
xdata	ENDS
;	COMDAT xdata
xdata	SEGMENT
$chain$1$?OnRender@BoidScene@Scene@Application@@UEAAXXZ DD 021H
	DD	imagerel $LN34@OnRender
	DD	imagerel $LN34@OnRender+41
	DD	imagerel $unwind$?OnRender@BoidScene@Scene@Application@@UEAAXXZ
xdata	ENDS
;	COMDAT xdata
xdata	SEGMENT
$chain$0$?OnRender@BoidScene@Scene@Application@@UEAAXXZ DD 020521H
	DD	066405H
	DD	imagerel $LN34@OnRender
	DD	imagerel $LN34@OnRender+41
	DD	imagerel $unwind$?OnRender@BoidScene@Scene@Application@@UEAAXXZ
xdata	ENDS
;	COMDAT xdata
xdata	SEGMENT
$unwind$?OnRender@BoidScene@Scene@Application@@UEAAXXZ DD 040a01H
	DD	07340aH
	DD	07006320aH
xdata	ENDS
;	COMDAT xdata
xdata	SEGMENT
$chain$7$?OnImGuiRender@BoidScene@Scene@Application@@UEAAXXZ DD 021H
	DD	imagerel $LN178@OnImGuiRen
	DD	imagerel $LN178@OnImGuiRen+66
	DD	imagerel $unwind$?OnImGuiRender@BoidScene@Scene@Application@@UEAAXXZ
xdata	ENDS
;	COMDAT xdata
xdata	SEGMENT
$chain$6$?OnImGuiRender@BoidScene@Scene@Application@@UEAAXXZ DD 0e3421H
	DD	029834H
	DD	03882eH
	DD	047824H
	DD	05681fH
	DD	011741aH
	DD	0106410H
	DD	0e3405H
	DD	imagerel $LN178@OnImGuiRen
	DD	imagerel $LN178@OnImGuiRen+66
	DD	imagerel $unwind$?OnImGuiRender@BoidScene@Scene@Application@@UEAAXXZ
xdata	ENDS
;	COMDAT xdata
xdata	SEGMENT
$unwind$?OnImGuiRender@BoidScene@Scene@Application@@UEAAXXZ DD 020601H
	DD	05002b206H
xdata	ENDS
;	COMDAT xdata
xdata	SEGMENT
$unwind$?ResetBoids@BoidScene@Scene@Application@@AEAAXXZ DD 0102f01H
	DD	02982fH
	DD	03882aH
	DD	047825H
	DD	05681eH
	DD	0116414H
	DD	0105414H
	DD	0f3414H
	DD	07010b214H
xdata	ENDS
;	COMDAT xdata
xdata	SEGMENT
$unwind$??1?$vector@U?$tmat4x4@M$0A@@glm@@V?$allocator@U?$tmat4x4@M$0A@@glm@@@std@@@std@@QEAA@XZ DD 020601H
	DD	030023206H
xdata	ENDS
;	COMDAT xdata
xdata	SEGMENT
$unwind$?_Tidy@?$vector@U?$tmat4x4@M$0A@@glm@@V?$allocator@U?$tmat4x4@M$0A@@glm@@@std@@@std@@AEAAXXZ DD 020601H
	DD	030023206H
xdata	ENDS
;	COMDAT xdata
xdata	SEGMENT
$unwind$?deallocate@?$allocator@U?$tmat4x4@M$0A@@glm@@@std@@QEAAXQEAU?$tmat4x4@M$0A@@glm@@_K@Z DD 010401H
	DD	04204H
xdata	ENDS
;	COMDAT xdata
xdata	SEGMENT
$chain$5$??$_Emplace_reallocate@PEAVBoid@1Application@@@?$vector@PEAVBoid@1Application@@V?$allocator@PEAVBoid@1Application@@@std@@@std@@QEAAPEAPEAVBoid@2Application@@QEAPEAV223@$$QEAPEAV223@@Z DD 021H
	DD	imagerel $LN313@Emplace_re
	DD	imagerel $LN313@Emplace_re+70
	DD	imagerel $unwind$??$_Emplace_reallocate@PEAVBoid@1Application@@@?$vector@PEAVBoid@1Application@@V?$allocator@PEAVBoid@1Application@@@std@@@std@@QEAAPEAPEAVBoid@2Application@@QEAPEAV223@$$QEAPEAV223@@Z
xdata	ENDS
;	COMDAT xdata
xdata	SEGMENT
$chain$4$??$_Emplace_reallocate@PEAVBoid@1Application@@@?$vector@PEAVBoid@1Application@@V?$allocator@PEAVBoid@1Application@@@std@@@std@@QEAAPEAPEAVBoid@2Application@@QEAPEAV223@$$QEAPEAV223@@Z DD 060021H
	DD	04f400H
	DD	0d6400H
	DD	0c3400H
	DD	imagerel $LN313@Emplace_re
	DD	imagerel $LN313@Emplace_re+70
	DD	imagerel $unwind$??$_Emplace_reallocate@PEAVBoid@1Application@@@?$vector@PEAVBoid@1Application@@V?$allocator@PEAVBoid@1Application@@@std@@@std@@QEAAPEAPEAVBoid@2Application@@QEAPEAV223@$$QEAPEAV223@@Z
xdata	ENDS
;	COMDAT xdata
xdata	SEGMENT
$chain$2$??$_Emplace_reallocate@PEAVBoid@1Application@@@?$vector@PEAVBoid@1Application@@V?$allocator@PEAVBoid@1Application@@@std@@@std@@QEAAPEAPEAVBoid@2Application@@QEAPEAV223@$$QEAPEAV223@@Z DD 063821H
	DD	0c3438H
	DD	04f415H
	DD	0d6405H
	DD	imagerel $LN313@Emplace_re
	DD	imagerel $LN313@Emplace_re+70
	DD	imagerel $unwind$??$_Emplace_reallocate@PEAVBoid@1Application@@@?$vector@PEAVBoid@1Application@@V?$allocator@PEAVBoid@1Application@@@std@@@std@@QEAAPEAPEAVBoid@2Application@@QEAPEAV223@$$QEAPEAV223@@Z
xdata	ENDS
;	COMDAT xdata
xdata	SEGMENT
$unwind$??$_Emplace_reallocate@PEAVBoid@1Application@@@?$vector@PEAVBoid@1Application@@V?$allocator@PEAVBoid@1Application@@@std@@@std@@QEAAPEAPEAVBoid@2Application@@QEAPEAV223@$$QEAPEAV223@@Z DD 050b01H
	DD	0e007420bH
	DD	07003c005H
	DD	05002H
END
