; Listing generated by Microsoft (R) Optimizing Compiler Version 19.14.26433.0 

include listing.inc

INCLUDELIB OLDNAMES

PUBLIC	??_R0?AVRenderable2D@graphics@core@@@8		; core::graphics::Renderable2D `RTTI Type Descriptor'
PUBLIC	??_R2Renderable2D@graphics@core@@8		; core::graphics::Renderable2D::`RTTI Base Class Array'
PUBLIC	??_R1A@?0A@EA@Renderable2D@graphics@core@@8	; core::graphics::Renderable2D::`RTTI Base Class Descriptor at (0,-1,0,64)'
PUBLIC	??_R4Boid@0Application@@6B@			; Application::Boid::Boid::`RTTI Complete Object Locator'
PUBLIC	??_7Boid@0Application@@6B@			; Application::Boid::Boid::`vftable'
PUBLIC	??_R1A@?0A@EA@Boid@0Application@@8		; Application::Boid::Boid::`RTTI Base Class Descriptor at (0,-1,0,64)'
PUBLIC	??_R3Boid@0Application@@8			; Application::Boid::Boid::`RTTI Class Hierarchy Descriptor'
PUBLIC	??_R2Boid@0Application@@8			; Application::Boid::Boid::`RTTI Base Class Array'
PUBLIC	??_R3Renderable2D@graphics@core@@8		; core::graphics::Renderable2D::`RTTI Class Hierarchy Descriptor'
PUBLIC	??_R0?AVBoid@0Application@@@8			; Application::Boid::Boid `RTTI Type Descriptor'
EXTRN	__imp_rand:PROC
;	COMDAT ??_R0?AVBoid@0Application@@@8
data$r	SEGMENT
??_R0?AVBoid@0Application@@@8 DQ FLAT:??_7type_info@@6B@ ; Application::Boid::Boid `RTTI Type Descriptor'
	DQ	0000000000000000H
	DB	'.?AVBoid@0Application@@', 00H
data$r	ENDS
;	COMDAT ??_R3Renderable2D@graphics@core@@8
rdata$r	SEGMENT
??_R3Renderable2D@graphics@core@@8 DD 00H		; core::graphics::Renderable2D::`RTTI Class Hierarchy Descriptor'
	DD	00H
	DD	01H
	DD	imagerel ??_R2Renderable2D@graphics@core@@8
rdata$r	ENDS
;	COMDAT ??_R2Boid@0Application@@8
rdata$r	SEGMENT
??_R2Boid@0Application@@8 DD imagerel ??_R1A@?0A@EA@Boid@0Application@@8 ; Application::Boid::Boid::`RTTI Base Class Array'
	DD	imagerel ??_R1A@?0A@EA@Renderable2D@graphics@core@@8
	ORG $+3
rdata$r	ENDS
;	COMDAT ??_R3Boid@0Application@@8
rdata$r	SEGMENT
??_R3Boid@0Application@@8 DD 00H			; Application::Boid::Boid::`RTTI Class Hierarchy Descriptor'
	DD	00H
	DD	02H
	DD	imagerel ??_R2Boid@0Application@@8
rdata$r	ENDS
;	COMDAT ??_R1A@?0A@EA@Boid@0Application@@8
rdata$r	SEGMENT
??_R1A@?0A@EA@Boid@0Application@@8 DD imagerel ??_R0?AVBoid@0Application@@@8 ; Application::Boid::Boid::`RTTI Base Class Descriptor at (0,-1,0,64)'
	DD	01H
	DD	00H
	DD	0ffffffffH
	DD	00H
	DD	040H
	DD	imagerel ??_R3Boid@0Application@@8
rdata$r	ENDS
;	COMDAT ??_7Boid@0Application@@6B@
CONST	SEGMENT
??_7Boid@0Application@@6B@ DQ FLAT:??_R4Boid@0Application@@6B@ ; Application::Boid::Boid::`vftable'
	DQ	FLAT:??_EBoid@0Application@@UEAAPEAXI@Z
CONST	ENDS
;	COMDAT ??_R4Boid@0Application@@6B@
rdata$r	SEGMENT
??_R4Boid@0Application@@6B@ DD 01H			; Application::Boid::Boid::`RTTI Complete Object Locator'
	DD	00H
	DD	00H
	DD	imagerel ??_R0?AVBoid@0Application@@@8
	DD	imagerel ??_R3Boid@0Application@@8
	DD	imagerel ??_R4Boid@0Application@@6B@
rdata$r	ENDS
;	COMDAT ??_R1A@?0A@EA@Renderable2D@graphics@core@@8
rdata$r	SEGMENT
??_R1A@?0A@EA@Renderable2D@graphics@core@@8 DD imagerel ??_R0?AVRenderable2D@graphics@core@@@8 ; core::graphics::Renderable2D::`RTTI Base Class Descriptor at (0,-1,0,64)'
	DD	00H
	DD	00H
	DD	0ffffffffH
	DD	00H
	DD	040H
	DD	imagerel ??_R3Renderable2D@graphics@core@@8
rdata$r	ENDS
;	COMDAT ??_R2Renderable2D@graphics@core@@8
rdata$r	SEGMENT
??_R2Renderable2D@graphics@core@@8 DD imagerel ??_R1A@?0A@EA@Renderable2D@graphics@core@@8 ; core::graphics::Renderable2D::`RTTI Base Class Array'
	ORG $+3
rdata$r	ENDS
;	COMDAT ??_R0?AVRenderable2D@graphics@core@@@8
data$r	SEGMENT
??_R0?AVRenderable2D@graphics@core@@@8 DQ FLAT:??_7type_info@@6B@ ; core::graphics::Renderable2D `RTTI Type Descriptor'
	DQ	0000000000000000H
	DB	'.?AVRenderable2D@graphics@core@@', 00H
PUBLIC	??$?XM@?$tvec4@M$0A@@glm@@QEAAAEAU01@AEBU01@@Z	; glm::tvec4<float,0>::operator*=<float>
PUBLIC	??$_Copy_memmove@PEAPEAVBoid@1Application@@PEAPEAV112@@std@@YAPEAPEAVBoid@1Application@@PEAPEAV112@00@Z ; std::_Copy_memmove<Application::Boid::Boid * *,Application::Boid::Boid * *>
PUBLIC	??$?DM$0A@@glm@@YA?AU?$tvec3@M$0A@@0@AEBU10@0@Z	; glm::operator*<float,0>
PUBLIC	??$?DM$0A@@glm@@YA?AU?$tvec4@M$0A@@0@AEBU10@0@Z	; glm::operator*<float,0>
PUBLIC	??$?DM$0A@@glm@@YA?AU?$tvec2@M$0A@@0@AEBU10@0@Z	; glm::operator*<float,0>
PUBLIC	??$_Rechecked@PEAPEAVBoid@1Application@@PEAPEAV112@@std@@YAAEAPEAPEAVBoid@1Application@@AEAPEAPEAV112@QEAPEAV112@@Z ; std::_Rechecked<Application::Boid::Boid * *,Application::Boid::Boid * *>
PUBLIC	??$_Uninitialized_move_al_unchecked@PEAVBoid@1Application@@PEAV112@V?$allocator@PEAVBoid@1Application@@@std@@@std@@YAPEAPEAVBoid@1Application@@QEAPEAV112@00AEAV?$allocator@PEAVBoid@1Application@@@0@U_Really_trivial_ptr_iterator_tag@0@U?$integral_constant@_N$00@0@@Z ; std::_Uninitialized_move_al_unchecked<Application::Boid::Boid *,Application::Boid::Boid *,std::allocator<Application::Boid::Boid *> >
PUBLIC	??$_Ptr_move_cat@PEAVBoid@1Application@@PEAV112@@std@@YA?AU_Really_trivial_ptr_iterator_tag@0@AEBQEAPEAVBoid@2Application@@0@Z ; std::_Ptr_move_cat<Application::Boid::Boid *,Application::Boid::Boid *>
PUBLIC	??$_Unchecked@PEAPEAVBoid@1Application@@@std@@YAPEAPEAVBoid@1Application@@PEAPEAV112@@Z ; std::_Unchecked<Application::Boid::Boid * *>
PUBLIC	?call@?$compute_vec4_mul@M$0A@$0A@@detail@glm@@SA?AU?$tvec4@M$0A@@3@AEBU43@0@Z ; glm::detail::compute_vec4_mul<float,0,0>::call
PUBLIC	?call@?$compute_vec4_sub@M$0A@$0A@@detail@glm@@SA?AU?$tvec4@M$0A@@3@AEBU43@0@Z ; glm::detail::compute_vec4_sub<float,0,0>::call
PUBLIC	?call@?$compute_dot@Utvec3@glm@@M$0A@$0A@@detail@glm@@SAMAEBU?$tvec3@M$0A@@3@0@Z ; glm::detail::compute_dot<glm::tvec3,float,0,0>::call
PUBLIC	?call@?$compute_dot@Utvec4@glm@@M$0A@$0A@@detail@glm@@SAMAEBU?$tvec4@M$0A@@3@0@Z ; glm::detail::compute_dot<glm::tvec4,float,0,0>::call
PUBLIC	?call@?$compute_dot@Utvec2@glm@@M$0A@$0A@@detail@glm@@SAMAEBU?$tvec2@M$0A@@3@0@Z ; glm::detail::compute_dot<glm::tvec2,float,0,0>::call
PUBLIC	??$_Get_size_of_n@$07@std@@YA_K_K@Z		; std::_Get_size_of_n<8>
PUBLIC	??$_Uninitialized_move@PEAPEAVBoid@1Application@@PEAPEAV112@V?$allocator@PEAVBoid@1Application@@@std@@@std@@YAPEAPEAVBoid@1Application@@QEAPEAV112@0PEAPEAV112@AEAV?$allocator@PEAVBoid@1Application@@@0@@Z ; std::_Uninitialized_move<Application::Boid::Boid * *,Application::Boid::Boid * *,std::allocator<Application::Boid::Boid *> >
PUBLIC	??$dot@M$0A@Utvec2@glm@@@glm@@YAMAEBU?$tvec2@M$0A@@0@0@Z ; glm::dot<float,0,glm::tvec2>
PUBLIC	??$dot@M$0A@Utvec4@glm@@@glm@@YAMAEBU?$tvec4@M$0A@@0@0@Z ; glm::dot<float,0,glm::tvec4>
PUBLIC	??$dot@M$0A@Utvec3@glm@@@glm@@YAMAEBU?$tvec3@M$0A@@0@0@Z ; glm::dot<float,0,glm::tvec3>
PUBLIC	??$_Destroy_range1@V?$allocator@PEAVBoid@1Application@@@std@@@std@@YAXPEAPEAVBoid@1Application@@0AEAV?$allocator@PEAVBoid@1Application@@@0@U?$integral_constant@_N$00@0@@Z ; std::_Destroy_range1<std::allocator<Application::Boid::Boid *> >
PUBLIC	??$?ZM@?$tvec4@M$0A@@glm@@QEAAAEAU01@AEBU01@@Z	; glm::tvec4<float,0>::operator-=<float>
PUBLIC	??0?$tvec4@M$0A@@glm@@QEAA@M@Z			; glm::tvec4<float,0>::tvec4<float,0>
PUBLIC	?_Get_first@?$_Compressed_pair@V?$allocator@PEAVBoid@1Application@@@std@@V?$_Vector_val@U?$_Simple_types@PEAVBoid@1Application@@@std@@@2@$00@std@@QEBAAEBV?$allocator@PEAVBoid@1Application@@@2@XZ ; std::_Compressed_pair<std::allocator<Application::Boid::Boid *>,std::_Vector_val<std::_Simple_types<Application::Boid::Boid *> >,1>::_Get_first
PUBLIC	?_Umove_if_noexcept1@?$vector@PEAVBoid@1Application@@V?$allocator@PEAVBoid@1Application@@@std@@@std@@AEAAXPEAPEAVBoid@3Application@@00U?$integral_constant@_N$00@2@@Z ; std::vector<Application::Boid::Boid *,std::allocator<Application::Boid::Boid *> >::_Umove_if_noexcept1
PUBLIC	?_Getal@?$_Vector_alloc@U?$_Vec_base_types@PEAVBoid@1Application@@V?$allocator@PEAVBoid@1Application@@@std@@@std@@@std@@QEBAAEBV?$allocator@PEAVBoid@1Application@@@2@XZ ; std::_Vector_alloc<std::_Vec_base_types<Application::Boid::Boid *,std::allocator<Application::Boid::Boid *> > >::_Getal
PUBLIC	?max_size@?$_Default_allocator_traits@V?$allocator@PEAVBoid@1Application@@@std@@@std@@SA_KAEBV?$allocator@PEAVBoid@1Application@@@2@@Z ; std::_Default_allocator_traits<std::allocator<Application::Boid::Boid *> >::max_size
PUBLIC	??0?$allocator@PEAVBoid@1Application@@@std@@QEAA@XZ ; std::allocator<Application::Boid::Boid *>::allocator<Application::Boid::Boid *>
PUBLIC	?allocate@?$allocator@PEAVBoid@1Application@@@std@@QEAAPEAPEAVBoid@3Application@@_K@Z ; std::allocator<Application::Boid::Boid *>::allocate
PUBLIC	?max_size@?$vector@PEAVBoid@1Application@@V?$allocator@PEAVBoid@1Application@@@std@@@std@@QEBA_KXZ ; std::vector<Application::Boid::Boid *,std::allocator<Application::Boid::Boid *> >::max_size
PUBLIC	?_Umove@?$vector@PEAVBoid@1Application@@V?$allocator@PEAVBoid@1Application@@@std@@@std@@AEAAPEAPEAVBoid@3Application@@PEAPEAV334@00@Z ; std::vector<Application::Boid::Boid *,std::allocator<Application::Boid::Boid *> >::_Umove
PUBLIC	?_Umove_if_noexcept@?$vector@PEAVBoid@1Application@@V?$allocator@PEAVBoid@1Application@@@std@@@std@@AEAAXPEAPEAVBoid@3Application@@00@Z ; std::vector<Application::Boid::Boid *,std::allocator<Application::Boid::Boid *> >::_Umove_if_noexcept
PUBLIC	?_Calculate_growth@?$vector@PEAVBoid@1Application@@V?$allocator@PEAVBoid@1Application@@@std@@@std@@AEBA_K_K@Z ; std::vector<Application::Boid::Boid *,std::allocator<Application::Boid::Boid *> >::_Calculate_growth
PUBLIC	?_Change_array@?$vector@PEAVBoid@1Application@@V?$allocator@PEAVBoid@1Application@@@std@@@std@@AEAAXQEAPEAVBoid@3Application@@_K1@Z ; std::vector<Application::Boid::Boid *,std::allocator<Application::Boid::Boid *> >::_Change_array
PUBLIC	?_Xlength@?$vector@PEAVBoid@1Application@@V?$allocator@PEAVBoid@1Application@@@std@@@std@@CAXXZ ; std::vector<Application::Boid::Boid *,std::allocator<Application::Boid::Boid *> >::_Xlength
PUBLIC	??0?$_Vector_val@U?$_Simple_types@PEAVBoid@1Application@@@std@@@std@@QEAA@XZ ; std::_Vector_val<std::_Simple_types<Application::Boid::Boid *> >::_Vector_val<std::_Simple_types<Application::Boid::Boid *> >
PUBLIC	?call@?$compute_length@Utvec2@glm@@M$0A@$0A@@detail@glm@@SAMAEBU?$tvec2@M$0A@@3@@Z ; glm::detail::compute_length<glm::tvec2,float,0,0>::call
PUBLIC	?call@?$compute_length@Utvec4@glm@@M$0A@$0A@@detail@glm@@SAMAEBU?$tvec4@M$0A@@3@@Z ; glm::detail::compute_length<glm::tvec4,float,0,0>::call
PUBLIC	?call@?$compute_length@Utvec3@glm@@M$0A@$0A@@detail@glm@@SAMAEBU?$tvec3@M$0A@@3@@Z ; glm::detail::compute_length<glm::tvec3,float,0,0>::call
PUBLIC	?call@?$compute_vec4_add@M$0A@$0A@@detail@glm@@SA?AU?$tvec4@M$0A@@3@AEBU43@0@Z ; glm::detail::compute_vec4_add<float,0,0>::call
PUBLIC	?call@?$compute_vec4_div@M$0A@$0A@@detail@glm@@SA?AU?$tvec4@M$0A@@3@AEBU43@0@Z ; glm::detail::compute_vec4_div<float,0,0>::call
PUBLIC	??$_Destroy_range@V?$allocator@PEAVBoid@1Application@@@std@@@std@@YAXPEAPEAVBoid@1Application@@0AEAV?$allocator@PEAVBoid@1Application@@@0@@Z ; std::_Destroy_range<std::allocator<Application::Boid::Boid *> >
PUBLIC	??$?0$$V@?$_Compressed_pair@V?$allocator@PEAVBoid@1Application@@@std@@V?$_Vector_val@U?$_Simple_types@PEAVBoid@1Application@@@std@@@2@$00@std@@QEAA@U_Zero_then_variadic_args_t@1@@Z ; std::_Compressed_pair<std::allocator<Application::Boid::Boid *>,std::_Vector_val<std::_Simple_types<Application::Boid::Boid *> >,1>::_Compressed_pair<std::allocator<Application::Boid::Boid *>,std::_Vector_val<std::_Simple_types<Application::Boid::Boid *> >,1><>
PUBLIC	??$_Emplace_reallocate@AEBQEAVBoid@1Application@@@?$vector@PEAVBoid@1Application@@V?$allocator@PEAVBoid@1Application@@@std@@@std@@QEAAPEAPEAVBoid@2Application@@QEAPEAV223@AEBQEAV223@@Z ; std::vector<Application::Boid::Boid *,std::allocator<Application::Boid::Boid *> >::_Emplace_reallocate<Application::Boid::Boid * const &>
PUBLIC	??$construct@PEAVBoid@1Application@@AEBQEAV112@@?$_Default_allocator_traits@V?$allocator@PEAVBoid@1Application@@@std@@@std@@SAXAEAV?$allocator@PEAVBoid@1Application@@@1@QEAPEAVBoid@3Application@@AEBQEAV334@@Z ; std::_Default_allocator_traits<std::allocator<Application::Boid::Boid *> >::construct<Application::Boid::Boid *,Application::Boid::Boid * const &>
PUBLIC	??$_Unfancy@PEAVBoid@1Application@@@std@@YAPEAPEAVBoid@1Application@@PEAPEAV112@@Z ; std::_Unfancy<Application::Boid::Boid *>
PUBLIC	??$forward@AEBQEAVBoid@1Application@@@std@@YAAEBQEAVBoid@1Application@@AEBQEAV112@@Z ; std::forward<Application::Boid::Boid * const &>
PUBLIC	??$?_0M@?$tvec4@M$0A@@glm@@QEAAAEAU01@M@Z	; glm::tvec4<float,0>::operator/=<float>
PUBLIC	??$?_0_K@?$tvec4@M$0A@@glm@@QEAAAEAU01@_K@Z	; glm::tvec4<float,0>::operator/=<unsigned __int64>
PUBLIC	??$?YM@?$tvec4@M$0A@@glm@@QEAAAEAU01@AEBU01@@Z	; glm::tvec4<float,0>::operator+=<float>
PUBLIC	??$?XH@?$tvec3@M$0A@@glm@@QEAAAEAU01@H@Z	; glm::tvec3<float,0>::operator*=<int>
PUBLIC	??$?YM@?$tvec3@M$0A@@glm@@QEAAAEAU01@AEBU01@@Z	; glm::tvec3<float,0>::operator+=<float>
PUBLIC	??$?_0M@?$tvec3@M$0A@@glm@@QEAAAEAU01@M@Z	; glm::tvec3<float,0>::operator/=<float>
PUBLIC	??$length@M$0A@Utvec3@glm@@@glm@@YAMAEBU?$tvec3@M$0A@@0@@Z ; glm::length<float,0,glm::tvec3>
PUBLIC	??$?0M$0A@@?$tvec3@M$0A@@glm@@QEAA@AEBU?$tvec4@M$0A@@1@@Z ; glm::tvec3<float,0>::tvec3<float,0><float,0>
PUBLIC	??$length@M$0A@Utvec4@glm@@@glm@@YAMAEBU?$tvec4@M$0A@@0@@Z ; glm::length<float,0,glm::tvec4>
PUBLIC	??$?GM$0A@@glm@@YA?AU?$tvec4@M$0A@@0@AEBU10@0@Z	; glm::operator-<float,0>
PUBLIC	??$?_0M@?$tvec2@M$0A@@glm@@QEAAAEAU01@M@Z	; glm::tvec2<float,0>::operator/=<float>
PUBLIC	??$length@M$0A@Utvec2@glm@@@glm@@YAMAEBU?$tvec2@M$0A@@0@@Z ; glm::length<float,0,glm::tvec2>
PUBLIC	??$?YM@?$tvec2@M$0A@@glm@@QEAAAEAU01@AEBU01@@Z	; glm::tvec2<float,0>::operator+=<float>
PUBLIC	??0?$tvec4@M$0A@@glm@@QEAA@MMMM@Z		; glm::tvec4<float,0>::tvec4<float,0>
PUBLIC	??0?$tvec3@M$0A@@glm@@QEAA@MMM@Z		; glm::tvec3<float,0>::tvec3<float,0>
PUBLIC	??0?$tvec2@M$0A@@glm@@QEAA@MM@Z			; glm::tvec2<float,0>::tvec2<float,0>
PUBLIC	?_Get_second@?$_Compressed_pair@V?$allocator@PEAVBoid@1Application@@@std@@V?$_Vector_val@U?$_Simple_types@PEAVBoid@1Application@@@std@@@2@$00@std@@QEAAAEAV?$_Vector_val@U?$_Simple_types@PEAVBoid@1Application@@@std@@@2@XZ ; std::_Compressed_pair<std::allocator<Application::Boid::Boid *>,std::_Vector_val<std::_Simple_types<Application::Boid::Boid *> >,1>::_Get_second
PUBLIC	?_Get_second@?$_Compressed_pair@V?$allocator@PEAVBoid@1Application@@@std@@V?$_Vector_val@U?$_Simple_types@PEAVBoid@1Application@@@std@@@2@$00@std@@QEBAAEBV?$_Vector_val@U?$_Simple_types@PEAVBoid@1Application@@@std@@@2@XZ ; std::_Compressed_pair<std::allocator<Application::Boid::Boid *>,std::_Vector_val<std::_Simple_types<Application::Boid::Boid *> >,1>::_Get_second
PUBLIC	?deallocate@?$allocator@PEAVBoid@1Application@@@std@@QEAAXQEAPEAVBoid@3Application@@_K@Z ; std::allocator<Application::Boid::Boid *>::deallocate
PUBLIC	?capacity@?$vector@PEAVBoid@1Application@@V?$allocator@PEAVBoid@1Application@@@std@@@std@@QEBA_KXZ ; std::vector<Application::Boid::Boid *,std::allocator<Application::Boid::Boid *> >::capacity
PUBLIC	?_Get_data@?$_Vector_alloc@U?$_Vec_base_types@PEAVBoid@1Application@@V?$allocator@PEAVBoid@1Application@@@std@@@std@@@std@@QEAAAEAV?$_Vector_val@U?$_Simple_types@PEAVBoid@1Application@@@std@@@2@XZ ; std::_Vector_alloc<std::_Vec_base_types<Application::Boid::Boid *,std::allocator<Application::Boid::Boid *> > >::_Get_data
PUBLIC	?_Get_data@?$_Vector_alloc@U?$_Vec_base_types@PEAVBoid@1Application@@V?$allocator@PEAVBoid@1Application@@@std@@@std@@@std@@QEBAAEBV?$_Vector_val@U?$_Simple_types@PEAVBoid@1Application@@@std@@@2@XZ ; std::_Vector_alloc<std::_Vec_base_types<Application::Boid::Boid *,std::allocator<Application::Boid::Boid *> > >::_Get_data
PUBLIC	?_Myend@?$_Vector_alloc@U?$_Vec_base_types@PEAVBoid@1Application@@V?$allocator@PEAVBoid@1Application@@@std@@@std@@@std@@QEAAAEAPEAPEAVBoid@3Application@@XZ ; std::_Vector_alloc<std::_Vec_base_types<Application::Boid::Boid *,std::allocator<Application::Boid::Boid *> > >::_Myend
PUBLIC	?_Myend@?$_Vector_alloc@U?$_Vec_base_types@PEAVBoid@1Application@@V?$allocator@PEAVBoid@1Application@@@std@@@std@@@std@@QEBAAEBQEAPEAVBoid@3Application@@XZ ; std::_Vector_alloc<std::_Vec_base_types<Application::Boid::Boid *,std::allocator<Application::Boid::Boid *> > >::_Myend
PUBLIC	?_Get_first@?$_Compressed_pair@V?$allocator@PEAVBoid@1Application@@@std@@V?$_Vector_val@U?$_Simple_types@PEAVBoid@1Application@@@std@@@2@$00@std@@QEAAAEAV?$allocator@PEAVBoid@1Application@@@2@XZ ; std::_Compressed_pair<std::allocator<Application::Boid::Boid *>,std::_Vector_val<std::_Simple_types<Application::Boid::Boid *> >,1>::_Get_first
PUBLIC	?_Has_unused_capacity@?$vector@PEAVBoid@1Application@@V?$allocator@PEAVBoid@1Application@@@std@@@std@@AEBA_NXZ ; std::vector<Application::Boid::Boid *,std::allocator<Application::Boid::Boid *> >::_Has_unused_capacity
PUBLIC	?_Destroy@?$vector@PEAVBoid@1Application@@V?$allocator@PEAVBoid@1Application@@@std@@@std@@AEAAXPEAPEAVBoid@3Application@@0@Z ; std::vector<Application::Boid::Boid *,std::allocator<Application::Boid::Boid *> >::_Destroy
PUBLIC	?_Tidy@?$vector@PEAVBoid@1Application@@V?$allocator@PEAVBoid@1Application@@@std@@@std@@AEAAXXZ ; std::vector<Application::Boid::Boid *,std::allocator<Application::Boid::Boid *> >::_Tidy
PUBLIC	?_Orphan_range@?$vector@PEAVBoid@1Application@@V?$allocator@PEAVBoid@1Application@@@std@@@std@@AEBAXPEAPEAVBoid@3Application@@0@Z ; std::vector<Application::Boid::Boid *,std::allocator<Application::Boid::Boid *> >::_Orphan_range
PUBLIC	??0?$_Vector_alloc@U?$_Vec_base_types@PEAVBoid@1Application@@V?$allocator@PEAVBoid@1Application@@@std@@@std@@@std@@QEAA@XZ ; std::_Vector_alloc<std::_Vec_base_types<Application::Boid::Boid *,std::allocator<Application::Boid::Boid *> > >::_Vector_alloc<std::_Vec_base_types<Application::Boid::Boid *,std::allocator<Application::Boid::Boid *> > >
PUBLIC	?_Orphan_all@?$_Vector_alloc@U?$_Vec_base_types@PEAVBoid@1Application@@V?$allocator@PEAVBoid@1Application@@@std@@@std@@@std@@QEAAXXZ ; std::_Vector_alloc<std::_Vec_base_types<Application::Boid::Boid *,std::allocator<Application::Boid::Boid *> > >::_Orphan_all
PUBLIC	?_Getal@?$_Vector_alloc@U?$_Vec_base_types@PEAVBoid@1Application@@V?$allocator@PEAVBoid@1Application@@@std@@@std@@@std@@QEAAAEAV?$allocator@PEAVBoid@1Application@@@2@XZ ; std::_Vector_alloc<std::_Vec_base_types<Application::Boid::Boid *,std::allocator<Application::Boid::Boid *> > >::_Getal
PUBLIC	?_Myfirst@?$_Vector_alloc@U?$_Vec_base_types@PEAVBoid@1Application@@V?$allocator@PEAVBoid@1Application@@@std@@@std@@@std@@QEAAAEAPEAPEAVBoid@3Application@@XZ ; std::_Vector_alloc<std::_Vec_base_types<Application::Boid::Boid *,std::allocator<Application::Boid::Boid *> > >::_Myfirst
PUBLIC	?_Myfirst@?$_Vector_alloc@U?$_Vec_base_types@PEAVBoid@1Application@@V?$allocator@PEAVBoid@1Application@@@std@@@std@@@std@@QEBAAEBQEAPEAVBoid@3Application@@XZ ; std::_Vector_alloc<std::_Vec_base_types<Application::Boid::Boid *,std::allocator<Application::Boid::Boid *> > >::_Myfirst
PUBLIC	?_Mylast@?$_Vector_alloc@U?$_Vec_base_types@PEAVBoid@1Application@@V?$allocator@PEAVBoid@1Application@@@std@@@std@@@std@@QEAAAEAPEAPEAVBoid@3Application@@XZ ; std::_Vector_alloc<std::_Vec_base_types<Application::Boid::Boid *,std::allocator<Application::Boid::Boid *> > >::_Mylast
PUBLIC	?_Mylast@?$_Vector_alloc@U?$_Vec_base_types@PEAVBoid@1Application@@V?$allocator@PEAVBoid@1Application@@@std@@@std@@@std@@QEBAAEBQEAPEAVBoid@3Application@@XZ ; std::_Vector_alloc<std::_Vec_base_types<Application::Boid::Boid *,std::allocator<Application::Boid::Boid *> > >::_Mylast
PUBLIC	??0?$vector@PEAVBoid@1Application@@V?$allocator@PEAVBoid@1Application@@@std@@@std@@QEAA@XZ ; std::vector<Application::Boid::Boid *,std::allocator<Application::Boid::Boid *> >::vector<Application::Boid::Boid *,std::allocator<Application::Boid::Boid *> >
PUBLIC	??1?$vector@PEAVBoid@1Application@@V?$allocator@PEAVBoid@1Application@@@std@@@std@@QEAA@XZ ; std::vector<Application::Boid::Boid *,std::allocator<Application::Boid::Boid *> >::~vector<Application::Boid::Boid *,std::allocator<Application::Boid::Boid *> >
PUBLIC	??$_Emplace_back_with_unused_capacity@AEBQEAVBoid@1Application@@@?$vector@PEAVBoid@1Application@@V?$allocator@PEAVBoid@1Application@@@std@@@std@@AEAAXAEBQEAVBoid@2Application@@@Z ; std::vector<Application::Boid::Boid *,std::allocator<Application::Boid::Boid *> >::_Emplace_back_with_unused_capacity<Application::Boid::Boid * const &>
PUBLIC	??$emplace_back@AEBQEAVBoid@1Application@@@?$vector@PEAVBoid@1Application@@V?$allocator@PEAVBoid@1Application@@@std@@@std@@QEAAXAEBQEAVBoid@2Application@@@Z ; std::vector<Application::Boid::Boid *,std::allocator<Application::Boid::Boid *> >::emplace_back<Application::Boid::Boid * const &>
PUBLIC	?push_back@?$vector@PEAVBoid@1Application@@V?$allocator@PEAVBoid@1Application@@@std@@@std@@QEAAXAEBQEAVBoid@3Application@@@Z ; std::vector<Application::Boid::Boid *,std::allocator<Application::Boid::Boid *> >::push_back
PUBLIC	?clear@?$vector@PEAVBoid@1Application@@V?$allocator@PEAVBoid@1Application@@@std@@@std@@QEAAXXZ ; std::vector<Application::Boid::Boid *,std::allocator<Application::Boid::Boid *> >::clear
PUBLIC	?size@?$vector@PEAVBoid@1Application@@V?$allocator@PEAVBoid@1Application@@@std@@@std@@QEBA_KXZ ; std::vector<Application::Boid::Boid *,std::allocator<Application::Boid::Boid *> >::size
PUBLIC	??A?$vector@PEAVBoid@1Application@@V?$allocator@PEAVBoid@1Application@@@std@@@std@@QEAAAEAPEAVBoid@2Application@@_K@Z ; std::vector<Application::Boid::Boid *,std::allocator<Application::Boid::Boid *> >::operator[]
PUBLIC	??A?$vector@PEAVBoid@1Application@@V?$allocator@PEAVBoid@1Application@@@std@@@std@@QEBAAEBQEAVBoid@2Application@@_K@Z ; std::vector<Application::Boid::Boid *,std::allocator<Application::Boid::Boid *> >::operator[]
PUBLIC	?inRadius@Boid@1Application@@AEBA_NPEBV112@@Z	; Application::Boid::Boid::inRadius
PUBLIC	?updateSteer@Boid@1Application@@QEAAXXZ		; Application::Boid::Boid::updateSteer
PUBLIC	?updateFlockMates@Boid@1Application@@QEAAXAEBV?$vector@PEAVBoid@1Application@@V?$allocator@PEAVBoid@1Application@@@std@@@std@@@Z ; Application::Boid::Boid::updateFlockMates
PUBLIC	?updatePos@Boid@1Application@@QEAAXXZ		; Application::Boid::Boid::updatePos
PUBLIC	??1Boid@0Application@@UEAA@XZ			; Application::Boid::Boid::~Boid
PUBLIC	??0Boid@0Application@@QEAA@MMI@Z		; Application::Boid::Boid::Boid
PUBLIC	??_GBoid@0Application@@UEAAPEAXI@Z		; Application::Boid::Boid::`scalar deleting destructor'
PUBLIC	?sqrt@@YAMM@Z					; sqrt
EXTRN	??_EBoid@0Application@@UEAAPEAXI@Z:PROC		; Application::Boid::Boid::`vector deleting destructor'
;	COMDAT pdata
pdata	SEGMENT
$pdata$??$?XM@?$tvec4@M$0A@@glm@@QEAAAEAU01@AEBU01@@Z DD imagerel $LN8@operator
	DD	imagerel $LN8@operator+86
	DD	imagerel $unwind$??$?XM@?$tvec4@M$0A@@glm@@QEAAAEAU01@AEBU01@@Z
pdata	ENDS
;	COMDAT pdata
pdata	SEGMENT
$pdata$??$_Copy_memmove@PEAPEAVBoid@1Application@@PEAPEAV112@@std@@YAPEAPEAVBoid@1Application@@PEAPEAV112@00@Z DD imagerel $LN4@Copy_memmo
	DD	imagerel $LN4@Copy_memmo+48
	DD	imagerel $unwind$??$_Copy_memmove@PEAPEAVBoid@1Application@@PEAPEAV112@@std@@YAPEAPEAVBoid@1Application@@PEAPEAV112@00@Z
pdata	ENDS
;	COMDAT pdata
pdata	SEGMENT
$pdata$??$?DM$0A@@glm@@YA?AU?$tvec4@M$0A@@0@AEBU10@0@Z DD imagerel $LN10@operator
	DD	imagerel $LN10@operator+105
	DD	imagerel $unwind$??$?DM$0A@@glm@@YA?AU?$tvec4@M$0A@@0@AEBU10@0@Z
pdata	ENDS
;	COMDAT pdata
pdata	SEGMENT
$pdata$??$_Uninitialized_move_al_unchecked@PEAVBoid@1Application@@PEAV112@V?$allocator@PEAVBoid@1Application@@@std@@@std@@YAPEAPEAVBoid@1Application@@QEAPEAV112@00AEAV?$allocator@PEAVBoid@1Application@@@0@U_Really_trivial_ptr_iterator_tag@0@U?$integral_constant@_N$00@0@@Z DD imagerel $LN6@Uninitiali
	DD	imagerel $LN6@Uninitiali+48
	DD	imagerel $unwind$??$_Uninitialized_move_al_unchecked@PEAVBoid@1Application@@PEAV112@V?$allocator@PEAVBoid@1Application@@@std@@@std@@YAPEAPEAVBoid@1Application@@QEAPEAV112@00AEAV?$allocator@PEAVBoid@1Application@@@0@U_Really_trivial_ptr_iterator_tag@0@U?$integral_constant@_N$00@0@@Z
pdata	ENDS
;	COMDAT pdata
pdata	SEGMENT
$pdata$??$_Uninitialized_move@PEAPEAVBoid@1Application@@PEAPEAV112@V?$allocator@PEAVBoid@1Application@@@std@@@std@@YAPEAPEAVBoid@1Application@@QEAPEAV112@0PEAPEAV112@AEAV?$allocator@PEAVBoid@1Application@@@0@@Z DD imagerel $LN18@Uninitiali
	DD	imagerel $LN18@Uninitiali+48
	DD	imagerel $unwind$??$_Uninitialized_move@PEAPEAVBoid@1Application@@PEAPEAV112@V?$allocator@PEAVBoid@1Application@@@std@@@std@@YAPEAPEAVBoid@1Application@@QEAPEAV112@0PEAPEAV112@AEAV?$allocator@PEAVBoid@1Application@@@0@@Z
pdata	ENDS
;	COMDAT pdata
pdata	SEGMENT
$pdata$??$?ZM@?$tvec4@M$0A@@glm@@QEAAAEAU01@AEBU01@@Z DD imagerel $LN8@operator
	DD	imagerel $LN8@operator+99
	DD	imagerel $unwind$??$?ZM@?$tvec4@M$0A@@glm@@QEAAAEAU01@AEBU01@@Z
pdata	ENDS
;	COMDAT pdata
pdata	SEGMENT
$pdata$?allocate@?$allocator@PEAVBoid@1Application@@@std@@QEAAPEAPEAVBoid@3Application@@_K@Z DD imagerel $LN23@allocate
	DD	imagerel $LN23@allocate+117
	DD	imagerel $unwind$?allocate@?$allocator@PEAVBoid@1Application@@@std@@QEAAPEAPEAVBoid@3Application@@_K@Z
pdata	ENDS
;	COMDAT pdata
pdata	SEGMENT
$pdata$?_Umove@?$vector@PEAVBoid@1Application@@V?$allocator@PEAVBoid@1Application@@@std@@@std@@AEAAPEAPEAVBoid@3Application@@PEAPEAV334@00@Z DD imagerel $LN25@Umove
	DD	imagerel $LN25@Umove+45
	DD	imagerel $unwind$?_Umove@?$vector@PEAVBoid@1Application@@V?$allocator@PEAVBoid@1Application@@@std@@@std@@AEAAPEAPEAVBoid@3Application@@PEAPEAV334@00@Z
pdata	ENDS
;	COMDAT pdata
pdata	SEGMENT
$pdata$?_Umove_if_noexcept@?$vector@PEAVBoid@1Application@@V?$allocator@PEAVBoid@1Application@@@std@@@std@@AEAAXPEAPEAVBoid@3Application@@00@Z DD imagerel $LN27@Umove_if_n
	DD	imagerel $LN27@Umove_if_n+48
	DD	imagerel $unwind$?_Umove_if_noexcept@?$vector@PEAVBoid@1Application@@V?$allocator@PEAVBoid@1Application@@@std@@@std@@AEAAXPEAPEAVBoid@3Application@@00@Z
pdata	ENDS
;	COMDAT pdata
pdata	SEGMENT
$pdata$?_Change_array@?$vector@PEAVBoid@1Application@@V?$allocator@PEAVBoid@1Application@@@std@@@std@@AEAAXQEAPEAVBoid@3Application@@_K1@Z DD imagerel $LN97@Change_arr
	DD	imagerel $LN97@Change_arr+136
	DD	imagerel $unwind$?_Change_array@?$vector@PEAVBoid@1Application@@V?$allocator@PEAVBoid@1Application@@@std@@@std@@AEAAXQEAPEAVBoid@3Application@@_K1@Z
pdata	ENDS
;	COMDAT pdata
pdata	SEGMENT
$pdata$?_Xlength@?$vector@PEAVBoid@1Application@@V?$allocator@PEAVBoid@1Application@@@std@@@std@@CAXXZ DD imagerel $LN4@Xlength
	DD	imagerel $LN4@Xlength+18
	DD	imagerel $unwind$?_Xlength@?$vector@PEAVBoid@1Application@@V?$allocator@PEAVBoid@1Application@@@std@@@std@@CAXXZ
pdata	ENDS
;	COMDAT pdata
pdata	SEGMENT
$pdata$??$_Emplace_reallocate@AEBQEAVBoid@1Application@@@?$vector@PEAVBoid@1Application@@V?$allocator@PEAVBoid@1Application@@@std@@@std@@QEAAPEAPEAVBoid@2Application@@QEAPEAV223@AEBQEAV223@@Z DD imagerel $LN313@Emplace_re
	DD	imagerel $LN313@Emplace_re+70
	DD	imagerel $unwind$??$_Emplace_reallocate@AEBQEAVBoid@1Application@@@?$vector@PEAVBoid@1Application@@V?$allocator@PEAVBoid@1Application@@@std@@@std@@QEAAPEAPEAVBoid@2Application@@QEAPEAV223@AEBQEAV223@@Z
pdata	ENDS
;	COMDAT pdata
pdata	SEGMENT
$pdata$2$??$_Emplace_reallocate@AEBQEAVBoid@1Application@@@?$vector@PEAVBoid@1Application@@V?$allocator@PEAVBoid@1Application@@@std@@@std@@QEAAPEAPEAVBoid@2Application@@QEAPEAV223@AEBQEAV223@@Z DD imagerel $LN313@Emplace_re+70
	DD	imagerel $LN313@Emplace_re+393
	DD	imagerel $chain$2$??$_Emplace_reallocate@AEBQEAVBoid@1Application@@@?$vector@PEAVBoid@1Application@@V?$allocator@PEAVBoid@1Application@@@std@@@std@@QEAAPEAPEAVBoid@2Application@@QEAPEAV223@AEBQEAV223@@Z
pdata	ENDS
;	COMDAT pdata
pdata	SEGMENT
$pdata$4$??$_Emplace_reallocate@AEBQEAVBoid@1Application@@@?$vector@PEAVBoid@1Application@@V?$allocator@PEAVBoid@1Application@@@std@@@std@@QEAAPEAPEAVBoid@2Application@@QEAPEAV223@AEBQEAV223@@Z DD imagerel $LN313@Emplace_re+393
	DD	imagerel $LN313@Emplace_re+400
	DD	imagerel $chain$4$??$_Emplace_reallocate@AEBQEAVBoid@1Application@@@?$vector@PEAVBoid@1Application@@V?$allocator@PEAVBoid@1Application@@@std@@@std@@QEAAPEAPEAVBoid@2Application@@QEAPEAV223@AEBQEAV223@@Z
pdata	ENDS
;	COMDAT pdata
pdata	SEGMENT
$pdata$5$??$_Emplace_reallocate@AEBQEAVBoid@1Application@@@?$vector@PEAVBoid@1Application@@V?$allocator@PEAVBoid@1Application@@@std@@@std@@QEAAPEAPEAVBoid@2Application@@QEAPEAV223@AEBQEAV223@@Z DD imagerel $LN313@Emplace_re+400
	DD	imagerel $LN313@Emplace_re+406
	DD	imagerel $chain$5$??$_Emplace_reallocate@AEBQEAVBoid@1Application@@@?$vector@PEAVBoid@1Application@@V?$allocator@PEAVBoid@1Application@@@std@@@std@@QEAAPEAPEAVBoid@2Application@@QEAPEAV223@AEBQEAV223@@Z
pdata	ENDS
;	COMDAT pdata
pdata	SEGMENT
$pdata$??$?_0M@?$tvec4@M$0A@@glm@@QEAAAEAU01@M@Z DD imagerel $LN10@operator
	DD	imagerel $LN10@operator+83
	DD	imagerel $unwind$??$?_0M@?$tvec4@M$0A@@glm@@QEAAAEAU01@M@Z
pdata	ENDS
;	COMDAT pdata
pdata	SEGMENT
$pdata$??$?_0_K@?$tvec4@M$0A@@glm@@QEAAAEAU01@_K@Z DD imagerel $LN11@operator
	DD	imagerel $LN11@operator+104
	DD	imagerel $unwind$??$?_0_K@?$tvec4@M$0A@@glm@@QEAAAEAU01@_K@Z
pdata	ENDS
;	COMDAT pdata
pdata	SEGMENT
$pdata$??$?YM@?$tvec4@M$0A@@glm@@QEAAAEAU01@AEBU01@@Z DD imagerel $LN8@operator
	DD	imagerel $LN8@operator+86
	DD	imagerel $unwind$??$?YM@?$tvec4@M$0A@@glm@@QEAAAEAU01@AEBU01@@Z
pdata	ENDS
;	COMDAT pdata
pdata	SEGMENT
$pdata$??$?GM$0A@@glm@@YA?AU?$tvec4@M$0A@@0@AEBU10@0@Z DD imagerel $LN10@operator
	DD	imagerel $LN10@operator+105
	DD	imagerel $unwind$??$?GM$0A@@glm@@YA?AU?$tvec4@M$0A@@0@AEBU10@0@Z
pdata	ENDS
;	COMDAT pdata
pdata	SEGMENT
$pdata$?deallocate@?$allocator@PEAVBoid@1Application@@@std@@QEAAXQEAPEAVBoid@3Application@@_K@Z DD imagerel $LN14@deallocate
	DD	imagerel $LN14@deallocate+67
	DD	imagerel $unwind$?deallocate@?$allocator@PEAVBoid@1Application@@@std@@QEAAXQEAPEAVBoid@3Application@@_K@Z
pdata	ENDS
;	COMDAT pdata
pdata	SEGMENT
$pdata$?_Tidy@?$vector@PEAVBoid@1Application@@V?$allocator@PEAVBoid@1Application@@@std@@@std@@AEAAXXZ DD imagerel $LN97@Tidy
	DD	imagerel $LN97@Tidy+92
	DD	imagerel $unwind$?_Tidy@?$vector@PEAVBoid@1Application@@V?$allocator@PEAVBoid@1Application@@@std@@@std@@AEAAXXZ
pdata	ENDS
;	COMDAT pdata
pdata	SEGMENT
$pdata$??1?$vector@PEAVBoid@1Application@@V?$allocator@PEAVBoid@1Application@@@std@@@std@@QEAA@XZ DD imagerel $LN100@vector
	DD	imagerel $LN100@vector+92
	DD	imagerel $unwind$??1?$vector@PEAVBoid@1Application@@V?$allocator@PEAVBoid@1Application@@@std@@@std@@QEAA@XZ
pdata	ENDS
;	COMDAT pdata
pdata	SEGMENT
$pdata$?updateSteer@Boid@1Application@@QEAAXXZ DD imagerel $LN472@updateStee
	DD	imagerel $LN472@updateStee+1489
	DD	imagerel $unwind$?updateSteer@Boid@1Application@@QEAAXXZ
pdata	ENDS
;	COMDAT pdata
pdata	SEGMENT
$pdata$?updateFlockMates@Boid@1Application@@QEAAXAEBV?$vector@PEAVBoid@1Application@@V?$allocator@PEAVBoid@1Application@@@std@@@std@@@Z DD imagerel $LN175@updateFloc
	DD	imagerel $LN175@updateFloc+60
	DD	imagerel $unwind$?updateFlockMates@Boid@1Application@@QEAAXAEBV?$vector@PEAVBoid@1Application@@V?$allocator@PEAVBoid@1Application@@@std@@@std@@@Z
pdata	ENDS
;	COMDAT pdata
pdata	SEGMENT
$pdata$1$?updateFlockMates@Boid@1Application@@QEAAXAEBV?$vector@PEAVBoid@1Application@@V?$allocator@PEAVBoid@1Application@@@std@@@std@@@Z DD imagerel $LN175@updateFloc+60
	DD	imagerel $LN175@updateFloc+195
	DD	imagerel $chain$1$?updateFlockMates@Boid@1Application@@QEAAXAEBV?$vector@PEAVBoid@1Application@@V?$allocator@PEAVBoid@1Application@@@std@@@std@@@Z
pdata	ENDS
;	COMDAT pdata
pdata	SEGMENT
$pdata$2$?updateFlockMates@Boid@1Application@@QEAAXAEBV?$vector@PEAVBoid@1Application@@V?$allocator@PEAVBoid@1Application@@@std@@@std@@@Z DD imagerel $LN175@updateFloc+195
	DD	imagerel $LN175@updateFloc+217
	DD	imagerel $chain$2$?updateFlockMates@Boid@1Application@@QEAAXAEBV?$vector@PEAVBoid@1Application@@V?$allocator@PEAVBoid@1Application@@@std@@@std@@@Z
pdata	ENDS
;	COMDAT pdata
pdata	SEGMENT
$pdata$??1Boid@0Application@@UEAA@XZ DD imagerel $LN105@Boid
	DD	imagerel $LN105@Boid+114
	DD	imagerel $unwind$??1Boid@0Application@@UEAA@XZ
pdata	ENDS
;	COMDAT pdata
pdata	SEGMENT
$pdata$??0Boid@0Application@@QEAA@MMI@Z DD imagerel $LN53@Boid
	DD	imagerel $LN53@Boid+400
	DD	imagerel $unwind$??0Boid@0Application@@QEAA@MMI@Z
pdata	ENDS
;	COMDAT pdata
pdata	SEGMENT
$pdata$??_GBoid@0Application@@UEAAPEAXI@Z DD imagerel $LN110@scalar
	DD	imagerel $LN110@scalar+147
	DD	imagerel $unwind$??_GBoid@0Application@@UEAAPEAXI@Z
;	COMDAT xdata
xdata	SEGMENT
$unwind$??_GBoid@0Application@@UEAAPEAXI@Z DD 040a01H
	DD	07340aH
	DD	07006320aH
xdata	ENDS
;	COMDAT xdata
xdata	SEGMENT
$unwind$??0Boid@0Application@@QEAA@MMI@Z DD 048b01H
	DD	03888bH
	DD	030027206H
xdata	ENDS
;	COMDAT xdata
xdata	SEGMENT
$unwind$??1Boid@0Application@@UEAA@XZ DD 020601H
	DD	030023206H
xdata	ENDS
;	COMDAT xdata
xdata	SEGMENT
$chain$2$?updateFlockMates@Boid@1Application@@QEAAXAEBV?$vector@PEAVBoid@1Application@@V?$allocator@PEAVBoid@1Application@@@std@@@std@@@Z DD 021H
	DD	imagerel $LN175@updateFloc
	DD	imagerel $LN175@updateFloc+60
	DD	imagerel $unwind$?updateFlockMates@Boid@1Application@@QEAAXAEBV?$vector@PEAVBoid@1Application@@V?$allocator@PEAVBoid@1Application@@@std@@@std@@@Z
xdata	ENDS
;	COMDAT xdata
xdata	SEGMENT
$chain$1$?updateFlockMates@Boid@1Application@@QEAAXAEBV?$vector@PEAVBoid@1Application@@V?$allocator@PEAVBoid@1Application@@@std@@@std@@@Z DD 040c21H
	DD	02680cH
	DD	087405H
	DD	imagerel $LN175@updateFloc
	DD	imagerel $LN175@updateFloc+60
	DD	imagerel $unwind$?updateFlockMates@Boid@1Application@@QEAAXAEBV?$vector@PEAVBoid@1Application@@V?$allocator@PEAVBoid@1Application@@@std@@@std@@@Z
xdata	ENDS
;	COMDAT xdata
xdata	SEGMENT
$unwind$?updateFlockMates@Boid@1Application@@QEAAXAEBV?$vector@PEAVBoid@1Application@@V?$allocator@PEAVBoid@1Application@@@std@@@std@@@Z DD 081501H
	DD	0b6415H
	DD	0a5415H
	DD	093415H
	DD	0e0115215H
xdata	ENDS
;	COMDAT xdata
xdata	SEGMENT
$unwind$?updateSteer@Boid@1Application@@QEAAXXZ DD 0176a01H
	DD	03f86aH
	DD	04e864H
	DD	05d856H
	DD	06c84cH
	DD	07b847H
	DD	08a839H
	DD	099831H
	DD	0a8825H
	DD	0b781dH
	DD	0c680fH
	DD	01a010bH
	DD	03004H
xdata	ENDS
;	COMDAT xdata
xdata	SEGMENT
$unwind$??1?$vector@PEAVBoid@1Application@@V?$allocator@PEAVBoid@1Application@@@std@@@std@@QEAA@XZ DD 020601H
	DD	030023206H
xdata	ENDS
;	COMDAT xdata
xdata	SEGMENT
$unwind$?_Tidy@?$vector@PEAVBoid@1Application@@V?$allocator@PEAVBoid@1Application@@@std@@@std@@AEAAXXZ DD 020601H
	DD	030023206H
xdata	ENDS
;	COMDAT xdata
xdata	SEGMENT
$unwind$?deallocate@?$allocator@PEAVBoid@1Application@@@std@@QEAAXQEAPEAVBoid@3Application@@_K@Z DD 010401H
	DD	04204H
xdata	ENDS
;	COMDAT xdata
xdata	SEGMENT
$unwind$??$?GM$0A@@glm@@YA?AU?$tvec4@M$0A@@0@AEBU10@0@Z DD 010401H
	DD	02204H
xdata	ENDS
;	COMDAT xdata
xdata	SEGMENT
$unwind$??$?YM@?$tvec4@M$0A@@glm@@QEAAAEAU01@AEBU01@@Z DD 010401H
	DD	02204H
xdata	ENDS
;	COMDAT xdata
xdata	SEGMENT
$unwind$??$?_0_K@?$tvec4@M$0A@@glm@@QEAAAEAU01@_K@Z DD 010401H
	DD	02204H
xdata	ENDS
;	COMDAT xdata
xdata	SEGMENT
$unwind$??$?_0M@?$tvec4@M$0A@@glm@@QEAAAEAU01@M@Z DD 010401H
	DD	02204H
xdata	ENDS
;	COMDAT xdata
xdata	SEGMENT
$chain$5$??$_Emplace_reallocate@AEBQEAVBoid@1Application@@@?$vector@PEAVBoid@1Application@@V?$allocator@PEAVBoid@1Application@@@std@@@std@@QEAAPEAPEAVBoid@2Application@@QEAPEAV223@AEBQEAV223@@Z DD 021H
	DD	imagerel $LN313@Emplace_re
	DD	imagerel $LN313@Emplace_re+70
	DD	imagerel $unwind$??$_Emplace_reallocate@AEBQEAVBoid@1Application@@@?$vector@PEAVBoid@1Application@@V?$allocator@PEAVBoid@1Application@@@std@@@std@@QEAAPEAPEAVBoid@2Application@@QEAPEAV223@AEBQEAV223@@Z
xdata	ENDS
;	COMDAT xdata
xdata	SEGMENT
$chain$4$??$_Emplace_reallocate@AEBQEAVBoid@1Application@@@?$vector@PEAVBoid@1Application@@V?$allocator@PEAVBoid@1Application@@@std@@@std@@QEAAPEAPEAVBoid@2Application@@QEAPEAV223@AEBQEAV223@@Z DD 060021H
	DD	04f400H
	DD	0d6400H
	DD	0c3400H
	DD	imagerel $LN313@Emplace_re
	DD	imagerel $LN313@Emplace_re+70
	DD	imagerel $unwind$??$_Emplace_reallocate@AEBQEAVBoid@1Application@@@?$vector@PEAVBoid@1Application@@V?$allocator@PEAVBoid@1Application@@@std@@@std@@QEAAPEAPEAVBoid@2Application@@QEAPEAV223@AEBQEAV223@@Z
xdata	ENDS
;	COMDAT xdata
xdata	SEGMENT
$chain$2$??$_Emplace_reallocate@AEBQEAVBoid@1Application@@@?$vector@PEAVBoid@1Application@@V?$allocator@PEAVBoid@1Application@@@std@@@std@@QEAAPEAPEAVBoid@2Application@@QEAPEAV223@AEBQEAV223@@Z DD 063821H
	DD	0c3438H
	DD	04f415H
	DD	0d6405H
	DD	imagerel $LN313@Emplace_re
	DD	imagerel $LN313@Emplace_re+70
	DD	imagerel $unwind$??$_Emplace_reallocate@AEBQEAVBoid@1Application@@@?$vector@PEAVBoid@1Application@@V?$allocator@PEAVBoid@1Application@@@std@@@std@@QEAAPEAPEAVBoid@2Application@@QEAPEAV223@AEBQEAV223@@Z
xdata	ENDS
;	COMDAT xdata
xdata	SEGMENT
$unwind$??$_Emplace_reallocate@AEBQEAVBoid@1Application@@@?$vector@PEAVBoid@1Application@@V?$allocator@PEAVBoid@1Application@@@std@@@std@@QEAAPEAPEAVBoid@2Application@@QEAPEAV223@AEBQEAV223@@Z DD 050b01H
	DD	0e007420bH
	DD	07003c005H
	DD	05002H
xdata	ENDS
;	COMDAT xdata
xdata	SEGMENT
$unwind$?_Xlength@?$vector@PEAVBoid@1Application@@V?$allocator@PEAVBoid@1Application@@@std@@@std@@CAXXZ DD 010401H
	DD	04204H
xdata	ENDS
;	COMDAT xdata
xdata	SEGMENT
$unwind$?_Change_array@?$vector@PEAVBoid@1Application@@V?$allocator@PEAVBoid@1Application@@@std@@@std@@AEAAXQEAPEAVBoid@3Application@@_K1@Z DD 081401H
	DD	096414H
	DD	085414H
	DD	073414H
	DD	070103214H
xdata	ENDS
;	COMDAT xdata
xdata	SEGMENT
$unwind$?_Umove_if_noexcept@?$vector@PEAVBoid@1Application@@V?$allocator@PEAVBoid@1Application@@@std@@@std@@AEAAXPEAPEAVBoid@3Application@@00@Z DD 011319H
	DD	06204H
	DD	imagerel __GSHandlerCheck
	DD	020H
xdata	ENDS
;	COMDAT xdata
xdata	SEGMENT
$unwind$?_Umove@?$vector@PEAVBoid@1Application@@V?$allocator@PEAVBoid@1Application@@@std@@@std@@AEAAPEAPEAVBoid@3Application@@PEAPEAV334@00@Z DD 040a01H
	DD	06340aH
	DD	07006320aH
xdata	ENDS
;	COMDAT xdata
xdata	SEGMENT
$unwind$?allocate@?$allocator@PEAVBoid@1Application@@@std@@QEAAPEAPEAVBoid@3Application@@_K@Z DD 010401H
	DD	04204H
xdata	ENDS
;	COMDAT xdata
xdata	SEGMENT
$unwind$??$?ZM@?$tvec4@M$0A@@glm@@QEAAAEAU01@AEBU01@@Z DD 010401H
	DD	02204H
xdata	ENDS
;	COMDAT xdata
xdata	SEGMENT
$unwind$??$_Uninitialized_move@PEAPEAVBoid@1Application@@PEAPEAV112@V?$allocator@PEAVBoid@1Application@@@std@@@std@@YAPEAPEAVBoid@1Application@@QEAPEAV112@0PEAPEAV112@AEAV?$allocator@PEAVBoid@1Application@@@0@@Z DD 040a01H
	DD	09340aH
	DD	07006320aH
xdata	ENDS
;	COMDAT xdata
xdata	SEGMENT
$unwind$??$_Uninitialized_move_al_unchecked@PEAVBoid@1Application@@PEAV112@V?$allocator@PEAVBoid@1Application@@@std@@@std@@YAPEAPEAVBoid@1Application@@QEAPEAV112@00AEAV?$allocator@PEAVBoid@1Application@@@0@U_Really_trivial_ptr_iterator_tag@0@U?$integral_constant@_N$00@0@@Z DD 040a01H
	DD	06340aH
	DD	07006320aH
xdata	ENDS
;	COMDAT xdata
xdata	SEGMENT
$unwind$??$?DM$0A@@glm@@YA?AU?$tvec4@M$0A@@0@AEBU10@0@Z DD 010401H
	DD	02204H
xdata	ENDS
;	COMDAT xdata
xdata	SEGMENT
$unwind$??$_Copy_memmove@PEAPEAVBoid@1Application@@PEAPEAV112@@std@@YAPEAPEAVBoid@1Application@@PEAPEAV112@00@Z DD 040a01H
	DD	06340aH
	DD	07006320aH
xdata	ENDS
;	COMDAT xdata
xdata	SEGMENT
$unwind$??$?XM@?$tvec4@M$0A@@glm@@QEAAAEAU01@AEBU01@@Z DD 010401H
	DD	02204H
END
