; Listing generated by Microsoft (R) Optimizing Compiler Version 19.14.26433.0 

include listing.inc

INCLUDELIB OLDNAMES

PUBLIC	??_R2BuffersTestScene@Scene@Application@@8	; Application::Scene::BuffersTestScene::`RTTI Base Class Array'
PUBLIC	??_R1A@?0A@EA@BuffersTestScene@Scene@Application@@8 ; Application::Scene::BuffersTestScene::`RTTI Base Class Descriptor at (0,-1,0,64)'
PUBLIC	??_C@_1JI@GBFJJCLG@?$AAf?$AA?3?$AA?2?$AAd?$AAe?$AAv?$AA?2?$AAf?$AAe?$AAa?$AAt?$AAh?$AAe?$AAr?$AAf?$AAa?$AAl?$AAl?$AAe?$AAn?$AAg?$AAi?$AAn?$AAe?$AA?2?$AAf?$AAe?$AAa?$AAt?$AAh?$AAe?$AAr@ ; `string'
PUBLIC	??_C@_1M@HLGKFCJM@?$AAf?$AAa?$AAl?$AAs?$AAe?$AA?$AA@ ; `string'
PUBLIC	??_C@_0BP@JENBDHCO@res?1shaders?1BuffersTest?4shader?$AA@ ; `string'
PUBLIC	??_C@_0O@DCJPAMCJ@Buffers?5Test?$CB?$AA@	; `string'
PUBLIC	??_R3BuffersTestScene@Scene@Application@@8	; Application::Scene::BuffersTestScene::`RTTI Class Hierarchy Descriptor'
PUBLIC	??_R0?AVBuffersTestScene@Scene@Application@@@8	; Application::Scene::BuffersTestScene `RTTI Type Descriptor'
PUBLIC	??_R4BuffersTestScene@Scene@Application@@6B@	; Application::Scene::BuffersTestScene::`RTTI Complete Object Locator'
PUBLIC	??_7BuffersTestScene@Scene@Application@@6B@	; Application::Scene::BuffersTestScene::`vftable'
EXTRN	__imp_glDrawElements:PROC
;	COMDAT ??_7BuffersTestScene@Scene@Application@@6B@
CONST	SEGMENT
??_7BuffersTestScene@Scene@Application@@6B@ DQ FLAT:??_R4BuffersTestScene@Scene@Application@@6B@ ; Application::Scene::BuffersTestScene::`vftable'
	DQ	FLAT:??_EBuffersTestScene@Scene@Application@@UEAAPEAXI@Z
	DQ	FLAT:?OnUpdate@BuffersTestScene@Scene@Application@@UEAAXM@Z
	DQ	FLAT:?OnRender@BuffersTestScene@Scene@Application@@UEAAXXZ
	DQ	FLAT:?OnImGuiRender@BuffersTestScene@Scene@Application@@UEAAXXZ
CONST	ENDS
;	COMDAT ??_R4BuffersTestScene@Scene@Application@@6B@
rdata$r	SEGMENT
??_R4BuffersTestScene@Scene@Application@@6B@ DD 01H	; Application::Scene::BuffersTestScene::`RTTI Complete Object Locator'
	DD	00H
	DD	00H
	DD	imagerel ??_R0?AVBuffersTestScene@Scene@Application@@@8
	DD	imagerel ??_R3BuffersTestScene@Scene@Application@@8
	DD	imagerel ??_R4BuffersTestScene@Scene@Application@@6B@
rdata$r	ENDS
;	COMDAT ??_R0?AVBuffersTestScene@Scene@Application@@@8
data$r	SEGMENT
??_R0?AVBuffersTestScene@Scene@Application@@@8 DQ FLAT:??_7type_info@@6B@ ; Application::Scene::BuffersTestScene `RTTI Type Descriptor'
	DQ	0000000000000000H
	DB	'.?AVBuffersTestScene@Scene@Application@@', 00H
data$r	ENDS
;	COMDAT ??_R3BuffersTestScene@Scene@Application@@8
rdata$r	SEGMENT
??_R3BuffersTestScene@Scene@Application@@8 DD 00H	; Application::Scene::BuffersTestScene::`RTTI Class Hierarchy Descriptor'
	DD	00H
	DD	02H
	DD	imagerel ??_R2BuffersTestScene@Scene@Application@@8
rdata$r	ENDS
;	COMDAT ??_C@_0O@DCJPAMCJ@Buffers?5Test?$CB?$AA@
CONST	SEGMENT
??_C@_0O@DCJPAMCJ@Buffers?5Test?$CB?$AA@ DB 'Buffers Test!', 00H ; `string'
CONST	ENDS
;	COMDAT ??_C@_0BP@JENBDHCO@res?1shaders?1BuffersTest?4shader?$AA@
CONST	SEGMENT
??_C@_0BP@JENBDHCO@res?1shaders?1BuffersTest?4shader?$AA@ DB 'res/shaders'
	DB	'/BuffersTest.shader', 00H			; `string'
CONST	ENDS
;	COMDAT ??_C@_1M@HLGKFCJM@?$AAf?$AAa?$AAl?$AAs?$AAe?$AA?$AA@
CONST	SEGMENT
??_C@_1M@HLGKFCJM@?$AAf?$AAa?$AAl?$AAs?$AAe?$AA?$AA@ DB 'f', 00H, 'a', 00H
	DB	'l', 00H, 's', 00H, 'e', 00H, 00H, 00H	; `string'
CONST	ENDS
;	COMDAT ??_C@_1JI@GBFJJCLG@?$AAf?$AA?3?$AA?2?$AAd?$AAe?$AAv?$AA?2?$AAf?$AAe?$AAa?$AAt?$AAh?$AAe?$AAr?$AAf?$AAa?$AAl?$AAl?$AAe?$AAn?$AAg?$AAi?$AAn?$AAe?$AA?2?$AAf?$AAe?$AAa?$AAt?$AAh?$AAe?$AAr@
CONST	SEGMENT
??_C@_1JI@GBFJJCLG@?$AAf?$AA?3?$AA?2?$AAd?$AAe?$AAv?$AA?2?$AAf?$AAe?$AAa?$AAt?$AAh?$AAe?$AAr?$AAf?$AAa?$AAl?$AAl?$AAe?$AAn?$AAg?$AAi?$AAn?$AAe?$AA?2?$AAf?$AAe?$AAa?$AAt?$AAh?$AAe?$AAr@ DB 'f'
	DB	00H, ':', 00H, '\', 00H, 'd', 00H, 'e', 00H, 'v', 00H, '\', 00H
	DB	'f', 00H, 'e', 00H, 'a', 00H, 't', 00H, 'h', 00H, 'e', 00H, 'r'
	DB	00H, 'f', 00H, 'a', 00H, 'l', 00H, 'l', 00H, 'e', 00H, 'n', 00H
	DB	'g', 00H, 'i', 00H, 'n', 00H, 'e', 00H, '\', 00H, 'f', 00H, 'e'
	DB	00H, 'a', 00H, 't', 00H, 'h', 00H, 'e', 00H, 'r', 00H, 'f', 00H
	DB	'a', 00H, 'l', 00H, 'l', 00H, '_', 00H, 'e', 00H, 'n', 00H, 'g'
	DB	00H, 'i', 00H, 'n', 00H, 'e', 00H, '-', 00H, 'c', 00H, 'o', 00H
	DB	'r', 00H, 'e', 00H, '\', 00H, 's', 00H, 'r', 00H, 'c', 00H, '\'
	DB	00H, 'b', 00H, 'u', 00H, 'f', 00H, 'f', 00H, 'e', 00H, 'r', 00H
	DB	's', 00H, '\', 00H, 'b', 00H, 'u', 00H, 'f', 00H, 'f', 00H, 'e'
	DB	00H, 'r', 00H, 'l', 00H, 'a', 00H, 'y', 00H, 'o', 00H, 'u', 00H
	DB	't', 00H, '.', 00H, 'h', 00H, 00H, 00H	; `string'
CONST	ENDS
;	COMDAT ??_R1A@?0A@EA@BuffersTestScene@Scene@Application@@8
rdata$r	SEGMENT
??_R1A@?0A@EA@BuffersTestScene@Scene@Application@@8 DD imagerel ??_R0?AVBuffersTestScene@Scene@Application@@@8 ; Application::Scene::BuffersTestScene::`RTTI Base Class Descriptor at (0,-1,0,64)'
	DD	01H
	DD	00H
	DD	0ffffffffH
	DD	00H
	DD	040H
	DD	imagerel ??_R3BuffersTestScene@Scene@Application@@8
rdata$r	ENDS
;	COMDAT ??_R2BuffersTestScene@Scene@Application@@8
rdata$r	SEGMENT
??_R2BuffersTestScene@Scene@Application@@8 DD imagerel ??_R1A@?0A@EA@BuffersTestScene@Scene@Application@@8 ; Application::Scene::BuffersTestScene::`RTTI Base Class Array'
	DD	imagerel ??_R1A@?0A@EA@Scene@0Application@@8
	ORG $+3
PUBLIC	??$_Copy_memmove@PEAUBufferElement@buffers@core@@PEAU123@@std@@YAPEAUBufferElement@buffers@core@@PEAU123@00@Z ; std::_Copy_memmove<core::buffers::BufferElement *,core::buffers::BufferElement *>
PUBLIC	??$_Rechecked@PEAUBufferElement@buffers@core@@PEAU123@@std@@YAAEAPEAUBufferElement@buffers@core@@AEAPEAU123@QEAU123@@Z ; std::_Rechecked<core::buffers::BufferElement *,core::buffers::BufferElement *>
PUBLIC	??$_Uninitialized_move_al_unchecked@UBufferElement@buffers@core@@U123@V?$allocator@UBufferElement@buffers@core@@@std@@@std@@YAPEAUBufferElement@buffers@core@@QEAU123@00AEAV?$allocator@UBufferElement@buffers@core@@@0@U_Really_trivial_ptr_iterator_tag@0@U?$integral_constant@_N$00@0@@Z ; std::_Uninitialized_move_al_unchecked<core::buffers::BufferElement,core::buffers::BufferElement,std::allocator<core::buffers::BufferElement> >
PUBLIC	??$_Ptr_move_cat@UBufferElement@buffers@core@@U123@@std@@YA?AU_Really_trivial_ptr_iterator_tag@0@AEBQEAUBufferElement@buffers@core@@0@Z ; std::_Ptr_move_cat<core::buffers::BufferElement,core::buffers::BufferElement>
PUBLIC	??$_Unchecked@PEAUBufferElement@buffers@core@@@std@@YAPEAUBufferElement@buffers@core@@PEAU123@@Z ; std::_Unchecked<core::buffers::BufferElement *>
PUBLIC	??$_Get_size_of_n@$0M@@std@@YA_K_K@Z		; std::_Get_size_of_n<12>
PUBLIC	??$_Uninitialized_move@PEAUBufferElement@buffers@core@@PEAU123@V?$allocator@UBufferElement@buffers@core@@@std@@@std@@YAPEAUBufferElement@buffers@core@@QEAU123@0PEAU123@AEAV?$allocator@UBufferElement@buffers@core@@@0@@Z ; std::_Uninitialized_move<core::buffers::BufferElement *,core::buffers::BufferElement *,std::allocator<core::buffers::BufferElement> >
PUBLIC	??$_Destroy_range1@V?$allocator@UBufferElement@buffers@core@@@std@@@std@@YAXPEAUBufferElement@buffers@core@@0AEAV?$allocator@UBufferElement@buffers@core@@@0@U?$integral_constant@_N$00@0@@Z ; std::_Destroy_range1<std::allocator<core::buffers::BufferElement> >
PUBLIC	?_Get_first@?$_Compressed_pair@V?$allocator@UBufferElement@buffers@core@@@std@@V?$_Vector_val@U?$_Simple_types@UBufferElement@buffers@core@@@std@@@2@$00@std@@QEBAAEBV?$allocator@UBufferElement@buffers@core@@@2@XZ ; std::_Compressed_pair<std::allocator<core::buffers::BufferElement>,std::_Vector_val<std::_Simple_types<core::buffers::BufferElement> >,1>::_Get_first
PUBLIC	?_Umove_if_noexcept1@?$vector@UBufferElement@buffers@core@@V?$allocator@UBufferElement@buffers@core@@@std@@@std@@AEAAXPEAUBufferElement@buffers@core@@00U?$integral_constant@_N$00@2@@Z ; std::vector<core::buffers::BufferElement,std::allocator<core::buffers::BufferElement> >::_Umove_if_noexcept1
PUBLIC	?_Getal@?$_Vector_alloc@U?$_Vec_base_types@UBufferElement@buffers@core@@V?$allocator@UBufferElement@buffers@core@@@std@@@std@@@std@@QEBAAEBV?$allocator@UBufferElement@buffers@core@@@2@XZ ; std::_Vector_alloc<std::_Vec_base_types<core::buffers::BufferElement,std::allocator<core::buffers::BufferElement> > >::_Getal
PUBLIC	?max_size@?$_Default_allocator_traits@V?$allocator@UBufferElement@buffers@core@@@std@@@std@@SA_KAEBV?$allocator@UBufferElement@buffers@core@@@2@@Z ; std::_Default_allocator_traits<std::allocator<core::buffers::BufferElement> >::max_size
PUBLIC	??0?$allocator@UBufferElement@buffers@core@@@std@@QEAA@XZ ; std::allocator<core::buffers::BufferElement>::allocator<core::buffers::BufferElement>
PUBLIC	?allocate@?$allocator@UBufferElement@buffers@core@@@std@@QEAAPEAUBufferElement@buffers@core@@_K@Z ; std::allocator<core::buffers::BufferElement>::allocate
PUBLIC	?size@?$vector@UBufferElement@buffers@core@@V?$allocator@UBufferElement@buffers@core@@@std@@@std@@QEBA_KXZ ; std::vector<core::buffers::BufferElement,std::allocator<core::buffers::BufferElement> >::size
PUBLIC	?max_size@?$vector@UBufferElement@buffers@core@@V?$allocator@UBufferElement@buffers@core@@@std@@@std@@QEBA_KXZ ; std::vector<core::buffers::BufferElement,std::allocator<core::buffers::BufferElement> >::max_size
PUBLIC	?_Umove@?$vector@UBufferElement@buffers@core@@V?$allocator@UBufferElement@buffers@core@@@std@@@std@@AEAAPEAUBufferElement@buffers@core@@PEAU345@00@Z ; std::vector<core::buffers::BufferElement,std::allocator<core::buffers::BufferElement> >::_Umove
PUBLIC	?_Umove_if_noexcept@?$vector@UBufferElement@buffers@core@@V?$allocator@UBufferElement@buffers@core@@@std@@@std@@AEAAXPEAUBufferElement@buffers@core@@00@Z ; std::vector<core::buffers::BufferElement,std::allocator<core::buffers::BufferElement> >::_Umove_if_noexcept
PUBLIC	?_Calculate_growth@?$vector@UBufferElement@buffers@core@@V?$allocator@UBufferElement@buffers@core@@@std@@@std@@AEBA_K_K@Z ; std::vector<core::buffers::BufferElement,std::allocator<core::buffers::BufferElement> >::_Calculate_growth
PUBLIC	?_Change_array@?$vector@UBufferElement@buffers@core@@V?$allocator@UBufferElement@buffers@core@@@std@@@std@@AEAAXQEAUBufferElement@buffers@core@@_K1@Z ; std::vector<core::buffers::BufferElement,std::allocator<core::buffers::BufferElement> >::_Change_array
PUBLIC	?_Xlength@?$vector@UBufferElement@buffers@core@@V?$allocator@UBufferElement@buffers@core@@@std@@@std@@CAXXZ ; std::vector<core::buffers::BufferElement,std::allocator<core::buffers::BufferElement> >::_Xlength
PUBLIC	??0?$_Vector_val@U?$_Simple_types@UBufferElement@buffers@core@@@std@@@std@@QEAA@XZ ; std::_Vector_val<std::_Simple_types<core::buffers::BufferElement> >::_Vector_val<std::_Simple_types<core::buffers::BufferElement> >
PUBLIC	??$_Destroy_range@V?$allocator@UBufferElement@buffers@core@@@std@@@std@@YAXPEAUBufferElement@buffers@core@@0AEAV?$allocator@UBufferElement@buffers@core@@@0@@Z ; std::_Destroy_range<std::allocator<core::buffers::BufferElement> >
PUBLIC	??$?0$$V@?$_Compressed_pair@V?$allocator@UBufferElement@buffers@core@@@std@@V?$_Vector_val@U?$_Simple_types@UBufferElement@buffers@core@@@std@@@2@$00@std@@QEAA@U_Zero_then_variadic_args_t@1@@Z ; std::_Compressed_pair<std::allocator<core::buffers::BufferElement>,std::_Vector_val<std::_Simple_types<core::buffers::BufferElement> >,1>::_Compressed_pair<std::allocator<core::buffers::BufferElement>,std::_Vector_val<std::_Simple_types<core::buffers::BufferElement> >,1><>
PUBLIC	??$_Emplace_reallocate@UBufferElement@buffers@core@@@?$vector@UBufferElement@buffers@core@@V?$allocator@UBufferElement@buffers@core@@@std@@@std@@QEAAPEAUBufferElement@buffers@core@@QEAU234@$$QEAU234@@Z ; std::vector<core::buffers::BufferElement,std::allocator<core::buffers::BufferElement> >::_Emplace_reallocate<core::buffers::BufferElement>
PUBLIC	??$construct@UBufferElement@buffers@core@@U123@@?$_Default_allocator_traits@V?$allocator@UBufferElement@buffers@core@@@std@@@std@@SAXAEAV?$allocator@UBufferElement@buffers@core@@@1@QEAUBufferElement@buffers@core@@$$QEAU345@@Z ; std::_Default_allocator_traits<std::allocator<core::buffers::BufferElement> >::construct<core::buffers::BufferElement,core::buffers::BufferElement>
PUBLIC	??$_Unfancy@UBufferElement@buffers@core@@@std@@YAPEAUBufferElement@buffers@core@@PEAU123@@Z ; std::_Unfancy<core::buffers::BufferElement>
PUBLIC	??$forward@UBufferElement@buffers@core@@@std@@YA$$QEAUBufferElement@buffers@core@@AEAU123@@Z ; std::forward<core::buffers::BufferElement>
PUBLIC	??$move@AEAUBufferElement@buffers@core@@@std@@YA$$QEAUBufferElement@buffers@core@@AEAU123@@Z ; std::move<core::buffers::BufferElement &>
PUBLIC	?_Get_second@?$_Compressed_pair@V?$allocator@UBufferElement@buffers@core@@@std@@V?$_Vector_val@U?$_Simple_types@UBufferElement@buffers@core@@@std@@@2@$00@std@@QEBAAEBV?$_Vector_val@U?$_Simple_types@UBufferElement@buffers@core@@@std@@@2@XZ ; std::_Compressed_pair<std::allocator<core::buffers::BufferElement>,std::_Vector_val<std::_Simple_types<core::buffers::BufferElement> >,1>::_Get_second
PUBLIC	?_Get_data@?$_Vector_alloc@U?$_Vec_base_types@UBufferElement@buffers@core@@V?$allocator@UBufferElement@buffers@core@@@std@@@std@@@std@@QEBAAEBV?$_Vector_val@U?$_Simple_types@UBufferElement@buffers@core@@@std@@@2@XZ ; std::_Vector_alloc<std::_Vec_base_types<core::buffers::BufferElement,std::allocator<core::buffers::BufferElement> > >::_Get_data
PUBLIC	?_Myfirst@?$_Vector_alloc@U?$_Vec_base_types@UBufferElement@buffers@core@@V?$allocator@UBufferElement@buffers@core@@@std@@@std@@@std@@QEBAAEBQEAUBufferElement@buffers@core@@XZ ; std::_Vector_alloc<std::_Vec_base_types<core::buffers::BufferElement,std::allocator<core::buffers::BufferElement> > >::_Myfirst
PUBLIC	?_Get_second@?$_Compressed_pair@V?$allocator@UBufferElement@buffers@core@@@std@@V?$_Vector_val@U?$_Simple_types@UBufferElement@buffers@core@@@std@@@2@$00@std@@QEAAAEAV?$_Vector_val@U?$_Simple_types@UBufferElement@buffers@core@@@std@@@2@XZ ; std::_Compressed_pair<std::allocator<core::buffers::BufferElement>,std::_Vector_val<std::_Simple_types<core::buffers::BufferElement> >,1>::_Get_second
PUBLIC	?deallocate@?$allocator@UBufferElement@buffers@core@@@std@@QEAAXQEAUBufferElement@buffers@core@@_K@Z ; std::allocator<core::buffers::BufferElement>::deallocate
PUBLIC	?capacity@?$vector@UBufferElement@buffers@core@@V?$allocator@UBufferElement@buffers@core@@@std@@@std@@QEBA_KXZ ; std::vector<core::buffers::BufferElement,std::allocator<core::buffers::BufferElement> >::capacity
PUBLIC	?_Destroy@?$vector@UBufferElement@buffers@core@@V?$allocator@UBufferElement@buffers@core@@@std@@@std@@AEAAXPEAUBufferElement@buffers@core@@0@Z ; std::vector<core::buffers::BufferElement,std::allocator<core::buffers::BufferElement> >::_Destroy
PUBLIC	?_Orphan_all@?$_Vector_alloc@U?$_Vec_base_types@UBufferElement@buffers@core@@V?$allocator@UBufferElement@buffers@core@@@std@@@std@@@std@@QEAAXXZ ; std::_Vector_alloc<std::_Vec_base_types<core::buffers::BufferElement,std::allocator<core::buffers::BufferElement> > >::_Orphan_all
PUBLIC	?_Get_data@?$_Vector_alloc@U?$_Vec_base_types@UBufferElement@buffers@core@@V?$allocator@UBufferElement@buffers@core@@@std@@@std@@@std@@QEAAAEAV?$_Vector_val@U?$_Simple_types@UBufferElement@buffers@core@@@std@@@2@XZ ; std::_Vector_alloc<std::_Vec_base_types<core::buffers::BufferElement,std::allocator<core::buffers::BufferElement> > >::_Get_data
PUBLIC	?_Myfirst@?$_Vector_alloc@U?$_Vec_base_types@UBufferElement@buffers@core@@V?$allocator@UBufferElement@buffers@core@@@std@@@std@@@std@@QEAAAEAPEAUBufferElement@buffers@core@@XZ ; std::_Vector_alloc<std::_Vec_base_types<core::buffers::BufferElement,std::allocator<core::buffers::BufferElement> > >::_Myfirst
PUBLIC	?_Mylast@?$_Vector_alloc@U?$_Vec_base_types@UBufferElement@buffers@core@@V?$allocator@UBufferElement@buffers@core@@@std@@@std@@@std@@QEBAAEBQEAUBufferElement@buffers@core@@XZ ; std::_Vector_alloc<std::_Vec_base_types<core::buffers::BufferElement,std::allocator<core::buffers::BufferElement> > >::_Mylast
PUBLIC	?_Myend@?$_Vector_alloc@U?$_Vec_base_types@UBufferElement@buffers@core@@V?$allocator@UBufferElement@buffers@core@@@std@@@std@@@std@@QEAAAEAPEAUBufferElement@buffers@core@@XZ ; std::_Vector_alloc<std::_Vec_base_types<core::buffers::BufferElement,std::allocator<core::buffers::BufferElement> > >::_Myend
PUBLIC	?_Myend@?$_Vector_alloc@U?$_Vec_base_types@UBufferElement@buffers@core@@V?$allocator@UBufferElement@buffers@core@@@std@@@std@@@std@@QEBAAEBQEAUBufferElement@buffers@core@@XZ ; std::_Vector_alloc<std::_Vec_base_types<core::buffers::BufferElement,std::allocator<core::buffers::BufferElement> > >::_Myend
PUBLIC	?_Get_first@?$_Compressed_pair@V?$allocator@UBufferElement@buffers@core@@@std@@V?$_Vector_val@U?$_Simple_types@UBufferElement@buffers@core@@@std@@@2@$00@std@@QEAAAEAV?$allocator@UBufferElement@buffers@core@@@2@XZ ; std::_Compressed_pair<std::allocator<core::buffers::BufferElement>,std::_Vector_val<std::_Simple_types<core::buffers::BufferElement> >,1>::_Get_first
PUBLIC	?_Has_unused_capacity@?$vector@UBufferElement@buffers@core@@V?$allocator@UBufferElement@buffers@core@@@std@@@std@@AEBA_NXZ ; std::vector<core::buffers::BufferElement,std::allocator<core::buffers::BufferElement> >::_Has_unused_capacity
PUBLIC	?_Tidy@?$vector@UBufferElement@buffers@core@@V?$allocator@UBufferElement@buffers@core@@@std@@@std@@AEAAXXZ ; std::vector<core::buffers::BufferElement,std::allocator<core::buffers::BufferElement> >::_Tidy
PUBLIC	?_Orphan_range@?$vector@UBufferElement@buffers@core@@V?$allocator@UBufferElement@buffers@core@@@std@@@std@@AEBAXPEAUBufferElement@buffers@core@@0@Z ; std::vector<core::buffers::BufferElement,std::allocator<core::buffers::BufferElement> >::_Orphan_range
PUBLIC	??0?$_Vector_alloc@U?$_Vec_base_types@UBufferElement@buffers@core@@V?$allocator@UBufferElement@buffers@core@@@std@@@std@@@std@@QEAA@XZ ; std::_Vector_alloc<std::_Vec_base_types<core::buffers::BufferElement,std::allocator<core::buffers::BufferElement> > >::_Vector_alloc<std::_Vec_base_types<core::buffers::BufferElement,std::allocator<core::buffers::BufferElement> > >
PUBLIC	?_Getal@?$_Vector_alloc@U?$_Vec_base_types@UBufferElement@buffers@core@@V?$allocator@UBufferElement@buffers@core@@@std@@@std@@@std@@QEAAAEAV?$allocator@UBufferElement@buffers@core@@@2@XZ ; std::_Vector_alloc<std::_Vec_base_types<core::buffers::BufferElement,std::allocator<core::buffers::BufferElement> > >::_Getal
PUBLIC	?_Mylast@?$_Vector_alloc@U?$_Vec_base_types@UBufferElement@buffers@core@@V?$allocator@UBufferElement@buffers@core@@@std@@@std@@@std@@QEAAAEAPEAUBufferElement@buffers@core@@XZ ; std::_Vector_alloc<std::_Vec_base_types<core::buffers::BufferElement,std::allocator<core::buffers::BufferElement> > >::_Mylast
PUBLIC	??0?$vector@UBufferElement@buffers@core@@V?$allocator@UBufferElement@buffers@core@@@std@@@std@@QEAA@XZ ; std::vector<core::buffers::BufferElement,std::allocator<core::buffers::BufferElement> >::vector<core::buffers::BufferElement,std::allocator<core::buffers::BufferElement> >
PUBLIC	??1?$vector@UBufferElement@buffers@core@@V?$allocator@UBufferElement@buffers@core@@@std@@@std@@QEAA@XZ ; std::vector<core::buffers::BufferElement,std::allocator<core::buffers::BufferElement> >::~vector<core::buffers::BufferElement,std::allocator<core::buffers::BufferElement> >
PUBLIC	??$_Emplace_back_with_unused_capacity@UBufferElement@buffers@core@@@?$vector@UBufferElement@buffers@core@@V?$allocator@UBufferElement@buffers@core@@@std@@@std@@AEAAX$$QEAUBufferElement@buffers@core@@@Z ; std::vector<core::buffers::BufferElement,std::allocator<core::buffers::BufferElement> >::_Emplace_back_with_unused_capacity<core::buffers::BufferElement>
PUBLIC	??$emplace_back@UBufferElement@buffers@core@@@?$vector@UBufferElement@buffers@core@@V?$allocator@UBufferElement@buffers@core@@@std@@@std@@QEAAX$$QEAUBufferElement@buffers@core@@@Z ; std::vector<core::buffers::BufferElement,std::allocator<core::buffers::BufferElement> >::emplace_back<core::buffers::BufferElement>
PUBLIC	?push_back@?$vector@UBufferElement@buffers@core@@V?$allocator@UBufferElement@buffers@core@@@std@@@std@@QEAAX$$QEAUBufferElement@buffers@core@@@Z ; std::vector<core::buffers::BufferElement,std::allocator<core::buffers::BufferElement> >::push_back
PUBLIC	?OnImGuiRender@BuffersTestScene@Scene@Application@@UEAAXXZ ; Application::Scene::BuffersTestScene::OnImGuiRender
PUBLIC	?OnRender@BuffersTestScene@Scene@Application@@UEAAXXZ ; Application::Scene::BuffersTestScene::OnRender
PUBLIC	?OnUpdate@BuffersTestScene@Scene@Application@@UEAAXM@Z ; Application::Scene::BuffersTestScene::OnUpdate
PUBLIC	??1BufferLayout@buffers@core@@QEAA@XZ		; core::buffers::BufferLayout::~BufferLayout
PUBLIC	??_GBufferLayout@buffers@core@@QEAAPEAXI@Z	; core::buffers::BufferLayout::`scalar deleting destructor'
PUBLIC	??_GIBO@buffers@core@@QEAAPEAXI@Z		; core::buffers::IBO::`scalar deleting destructor'
PUBLIC	??_GVBO@buffers@core@@QEAAPEAXI@Z		; core::buffers::VBO::`scalar deleting destructor'
PUBLIC	??_GVAO@buffers@core@@QEAAPEAXI@Z		; core::buffers::VAO::`scalar deleting destructor'
PUBLIC	??1BuffersTestScene@Scene@Application@@UEAA@XZ	; Application::Scene::BuffersTestScene::~BuffersTestScene
PUBLIC	?__autoclassinit2@BufferLayout@buffers@core@@QEAAX_K@Z ; core::buffers::BufferLayout::__autoclassinit2
PUBLIC	??_GBuffersTestScene@Scene@Application@@UEAAPEAXI@Z ; Application::Scene::BuffersTestScene::`scalar deleting destructor'
PUBLIC	?getCount@IBO@buffers@core@@QEBAHXZ		; core::buffers::IBO::getCount
PUBLIC	??$push@M@BufferLayout@buffers@core@@QEAAXI@Z	; core::buffers::BufferLayout::push<float>
PUBLIC	??0BufferLayout@buffers@core@@QEAA@XZ		; core::buffers::BufferLayout::BufferLayout
PUBLIC	?SizeOfType@BufferElement@buffers@core@@SAII@Z	; core::buffers::BufferElement::SizeOfType
PUBLIC	??0BuffersTestScene@Scene@Application@@QEAA@XZ	; Application::Scene::BuffersTestScene::BuffersTestScene
EXTRN	??_EBuffersTestScene@Scene@Application@@UEAAPEAXI@Z:PROC ; Application::Scene::BuffersTestScene::`vector deleting destructor'
;	COMDAT pdata
pdata	SEGMENT
$pdata$??$_Copy_memmove@PEAUBufferElement@buffers@core@@PEAU123@@std@@YAPEAUBufferElement@buffers@core@@PEAU123@00@Z DD imagerel $LN4@Copy_memmo
	DD	imagerel $LN4@Copy_memmo+48
	DD	imagerel $unwind$??$_Copy_memmove@PEAUBufferElement@buffers@core@@PEAU123@@std@@YAPEAUBufferElement@buffers@core@@PEAU123@00@Z
pdata	ENDS
;	COMDAT pdata
pdata	SEGMENT
$pdata$??$_Uninitialized_move_al_unchecked@UBufferElement@buffers@core@@U123@V?$allocator@UBufferElement@buffers@core@@@std@@@std@@YAPEAUBufferElement@buffers@core@@QEAU123@00AEAV?$allocator@UBufferElement@buffers@core@@@0@U_Really_trivial_ptr_iterator_tag@0@U?$integral_constant@_N$00@0@@Z DD imagerel $LN6@Uninitiali
	DD	imagerel $LN6@Uninitiali+48
	DD	imagerel $unwind$??$_Uninitialized_move_al_unchecked@UBufferElement@buffers@core@@U123@V?$allocator@UBufferElement@buffers@core@@@std@@@std@@YAPEAUBufferElement@buffers@core@@QEAU123@00AEAV?$allocator@UBufferElement@buffers@core@@@0@U_Really_trivial_ptr_iterator_tag@0@U?$integral_constant@_N$00@0@@Z
pdata	ENDS
;	COMDAT pdata
pdata	SEGMENT
$pdata$??$_Uninitialized_move@PEAUBufferElement@buffers@core@@PEAU123@V?$allocator@UBufferElement@buffers@core@@@std@@@std@@YAPEAUBufferElement@buffers@core@@QEAU123@0PEAU123@AEAV?$allocator@UBufferElement@buffers@core@@@0@@Z DD imagerel $LN18@Uninitiali
	DD	imagerel $LN18@Uninitiali+48
	DD	imagerel $unwind$??$_Uninitialized_move@PEAUBufferElement@buffers@core@@PEAU123@V?$allocator@UBufferElement@buffers@core@@@std@@@std@@YAPEAUBufferElement@buffers@core@@QEAU123@0PEAU123@AEAV?$allocator@UBufferElement@buffers@core@@@0@@Z
pdata	ENDS
;	COMDAT pdata
pdata	SEGMENT
$pdata$?allocate@?$allocator@UBufferElement@buffers@core@@@std@@QEAAPEAUBufferElement@buffers@core@@_K@Z DD imagerel $LN23@allocate
	DD	imagerel $LN23@allocate+117
	DD	imagerel $unwind$?allocate@?$allocator@UBufferElement@buffers@core@@@std@@QEAAPEAUBufferElement@buffers@core@@_K@Z
pdata	ENDS
;	COMDAT pdata
pdata	SEGMENT
$pdata$?_Umove@?$vector@UBufferElement@buffers@core@@V?$allocator@UBufferElement@buffers@core@@@std@@@std@@AEAAPEAUBufferElement@buffers@core@@PEAU345@00@Z DD imagerel $LN25@Umove
	DD	imagerel $LN25@Umove+45
	DD	imagerel $unwind$?_Umove@?$vector@UBufferElement@buffers@core@@V?$allocator@UBufferElement@buffers@core@@@std@@@std@@AEAAPEAUBufferElement@buffers@core@@PEAU345@00@Z
pdata	ENDS
;	COMDAT pdata
pdata	SEGMENT
$pdata$?_Umove_if_noexcept@?$vector@UBufferElement@buffers@core@@V?$allocator@UBufferElement@buffers@core@@@std@@@std@@AEAAXPEAUBufferElement@buffers@core@@00@Z DD imagerel $LN27@Umove_if_n
	DD	imagerel $LN27@Umove_if_n+48
	DD	imagerel $unwind$?_Umove_if_noexcept@?$vector@UBufferElement@buffers@core@@V?$allocator@UBufferElement@buffers@core@@@std@@@std@@AEAAXPEAUBufferElement@buffers@core@@00@Z
pdata	ENDS
;	COMDAT pdata
pdata	SEGMENT
$pdata$?_Change_array@?$vector@UBufferElement@buffers@core@@V?$allocator@UBufferElement@buffers@core@@@std@@@std@@AEAAXQEAUBufferElement@buffers@core@@_K1@Z DD imagerel $LN97@Change_arr
	DD	imagerel $LN97@Change_arr+176
	DD	imagerel $unwind$?_Change_array@?$vector@UBufferElement@buffers@core@@V?$allocator@UBufferElement@buffers@core@@@std@@@std@@AEAAXQEAUBufferElement@buffers@core@@_K1@Z
pdata	ENDS
;	COMDAT pdata
pdata	SEGMENT
$pdata$?_Xlength@?$vector@UBufferElement@buffers@core@@V?$allocator@UBufferElement@buffers@core@@@std@@@std@@CAXXZ DD imagerel $LN4@Xlength
	DD	imagerel $LN4@Xlength+18
	DD	imagerel $unwind$?_Xlength@?$vector@UBufferElement@buffers@core@@V?$allocator@UBufferElement@buffers@core@@@std@@@std@@CAXXZ
pdata	ENDS
;	COMDAT pdata
pdata	SEGMENT
$pdata$??$_Emplace_reallocate@UBufferElement@buffers@core@@@?$vector@UBufferElement@buffers@core@@V?$allocator@UBufferElement@buffers@core@@@std@@@std@@QEAAPEAUBufferElement@buffers@core@@QEAU234@$$QEAU234@@Z DD imagerel $LN313@Emplace_re
	DD	imagerel $LN313@Emplace_re+115
	DD	imagerel $unwind$??$_Emplace_reallocate@UBufferElement@buffers@core@@@?$vector@UBufferElement@buffers@core@@V?$allocator@UBufferElement@buffers@core@@@std@@@std@@QEAAPEAUBufferElement@buffers@core@@QEAU234@$$QEAU234@@Z
pdata	ENDS
;	COMDAT pdata
pdata	SEGMENT
$pdata$2$??$_Emplace_reallocate@UBufferElement@buffers@core@@@?$vector@UBufferElement@buffers@core@@V?$allocator@UBufferElement@buffers@core@@@std@@@std@@QEAAPEAUBufferElement@buffers@core@@QEAU234@$$QEAU234@@Z DD imagerel $LN313@Emplace_re+115
	DD	imagerel $LN313@Emplace_re+507
	DD	imagerel $chain$2$??$_Emplace_reallocate@UBufferElement@buffers@core@@@?$vector@UBufferElement@buffers@core@@V?$allocator@UBufferElement@buffers@core@@@std@@@std@@QEAAPEAUBufferElement@buffers@core@@QEAU234@$$QEAU234@@Z
pdata	ENDS
;	COMDAT pdata
pdata	SEGMENT
$pdata$4$??$_Emplace_reallocate@UBufferElement@buffers@core@@@?$vector@UBufferElement@buffers@core@@V?$allocator@UBufferElement@buffers@core@@@std@@@std@@QEAAPEAUBufferElement@buffers@core@@QEAU234@$$QEAU234@@Z DD imagerel $LN313@Emplace_re+507
	DD	imagerel $LN313@Emplace_re+514
	DD	imagerel $chain$4$??$_Emplace_reallocate@UBufferElement@buffers@core@@@?$vector@UBufferElement@buffers@core@@V?$allocator@UBufferElement@buffers@core@@@std@@@std@@QEAAPEAUBufferElement@buffers@core@@QEAU234@$$QEAU234@@Z
pdata	ENDS
;	COMDAT pdata
pdata	SEGMENT
$pdata$5$??$_Emplace_reallocate@UBufferElement@buffers@core@@@?$vector@UBufferElement@buffers@core@@V?$allocator@UBufferElement@buffers@core@@@std@@@std@@QEAAPEAUBufferElement@buffers@core@@QEAU234@$$QEAU234@@Z DD imagerel $LN313@Emplace_re+514
	DD	imagerel $LN313@Emplace_re+520
	DD	imagerel $chain$5$??$_Emplace_reallocate@UBufferElement@buffers@core@@@?$vector@UBufferElement@buffers@core@@V?$allocator@UBufferElement@buffers@core@@@std@@@std@@QEAAPEAUBufferElement@buffers@core@@QEAU234@$$QEAU234@@Z
pdata	ENDS
;	COMDAT pdata
pdata	SEGMENT
$pdata$?deallocate@?$allocator@UBufferElement@buffers@core@@@std@@QEAAXQEAUBufferElement@buffers@core@@_K@Z DD imagerel $LN14@deallocate
	DD	imagerel $LN14@deallocate+67
	DD	imagerel $unwind$?deallocate@?$allocator@UBufferElement@buffers@core@@@std@@QEAAXQEAUBufferElement@buffers@core@@_K@Z
pdata	ENDS
;	COMDAT pdata
pdata	SEGMENT
$pdata$?_Tidy@?$vector@UBufferElement@buffers@core@@V?$allocator@UBufferElement@buffers@core@@@std@@@std@@AEAAXXZ DD imagerel $LN97@Tidy
	DD	imagerel $LN97@Tidy+122
	DD	imagerel $unwind$?_Tidy@?$vector@UBufferElement@buffers@core@@V?$allocator@UBufferElement@buffers@core@@@std@@@std@@AEAAXXZ
pdata	ENDS
;	COMDAT pdata
pdata	SEGMENT
$pdata$??1?$vector@UBufferElement@buffers@core@@V?$allocator@UBufferElement@buffers@core@@@std@@@std@@QEAA@XZ DD imagerel $LN100@vector
	DD	imagerel $LN100@vector+122
	DD	imagerel $unwind$??1?$vector@UBufferElement@buffers@core@@V?$allocator@UBufferElement@buffers@core@@@std@@@std@@QEAA@XZ
pdata	ENDS
;	COMDAT pdata
pdata	SEGMENT
$pdata$?OnRender@BuffersTestScene@Scene@Application@@UEAAXXZ DD imagerel $LN12@OnRender
	DD	imagerel $LN12@OnRender+91
	DD	imagerel $unwind$?OnRender@BuffersTestScene@Scene@Application@@UEAAXXZ
pdata	ENDS
;	COMDAT pdata
pdata	SEGMENT
$pdata$??1BufferLayout@buffers@core@@QEAA@XZ DD imagerel $LN103@BufferLayo
	DD	imagerel $LN103@BufferLayo+122
	DD	imagerel $unwind$??1BufferLayout@buffers@core@@QEAA@XZ
pdata	ENDS
;	COMDAT pdata
pdata	SEGMENT
$pdata$??_GBufferLayout@buffers@core@@QEAAPEAXI@Z DD imagerel $LN108@scalar
	DD	imagerel $LN108@scalar+141
	DD	imagerel $unwind$??_GBufferLayout@buffers@core@@QEAAPEAXI@Z
pdata	ENDS
;	COMDAT pdata
pdata	SEGMENT
$pdata$??_GIBO@buffers@core@@QEAAPEAXI@Z DD imagerel $LN9@scalar
	DD	imagerel $LN9@scalar+59
	DD	imagerel $unwind$??_GIBO@buffers@core@@QEAAPEAXI@Z
pdata	ENDS
;	COMDAT pdata
pdata	SEGMENT
$pdata$??_GVBO@buffers@core@@QEAAPEAXI@Z DD imagerel $LN9@scalar
	DD	imagerel $LN9@scalar+59
	DD	imagerel $unwind$??_GVBO@buffers@core@@QEAAPEAXI@Z
pdata	ENDS
;	COMDAT pdata
pdata	SEGMENT
$pdata$??_GVAO@buffers@core@@QEAAPEAXI@Z DD imagerel $LN9@scalar
	DD	imagerel $LN9@scalar+59
	DD	imagerel $unwind$??_GVAO@buffers@core@@QEAAPEAXI@Z
pdata	ENDS
;	COMDAT pdata
pdata	SEGMENT
$pdata$??1BuffersTestScene@Scene@Application@@UEAA@XZ DD imagerel $LN42@BuffersTes
	DD	imagerel $LN42@BuffersTes+227
	DD	imagerel $unwind$??1BuffersTestScene@Scene@Application@@UEAA@XZ
pdata	ENDS
;	COMDAT pdata
pdata	SEGMENT
$pdata$??_GBuffersTestScene@Scene@Application@@UEAAPEAXI@Z DD imagerel $LN46@scalar
	DD	imagerel $LN46@scalar+262
	DD	imagerel $unwind$??_GBuffersTestScene@Scene@Application@@UEAAPEAXI@Z
pdata	ENDS
;	COMDAT pdata
pdata	SEGMENT
$pdata$??$push@M@BufferLayout@buffers@core@@QEAAXI@Z DD imagerel $LN92@push
	DD	imagerel $LN92@push+94
	DD	imagerel $unwind$??$push@M@BufferLayout@buffers@core@@QEAAXI@Z
pdata	ENDS
;	COMDAT pdata
pdata	SEGMENT
$pdata$?SizeOfType@BufferElement@buffers@core@@SAII@Z DD imagerel $LN10@SizeOfType
	DD	imagerel $LN10@SizeOfType+75
	DD	imagerel $unwind$?SizeOfType@BufferElement@buffers@core@@SAII@Z
pdata	ENDS
;	COMDAT pdata
pdata	SEGMENT
$pdata$??0BuffersTestScene@Scene@Application@@QEAA@XZ DD imagerel $LN215@BuffersTes
	DD	imagerel $LN215@BuffersTes+624
	DD	imagerel $unwind$??0BuffersTestScene@Scene@Application@@QEAA@XZ
pdata	ENDS
;	COMDAT pdata
pdata	SEGMENT
$pdata$?dtor$1@?0???0BuffersTestScene@Scene@Application@@QEAA@XZ@4HA DD imagerel ?dtor$1@?0???0BuffersTestScene@Scene@Application@@QEAA@XZ@4HA
	DD	imagerel ?dtor$1@?0???0BuffersTestScene@Scene@Application@@QEAA@XZ@4HA+29
	DD	imagerel $unwind$?dtor$1@?0???0BuffersTestScene@Scene@Application@@QEAA@XZ@4HA
pdata	ENDS
;	COMDAT pdata
pdata	SEGMENT
$pdata$?dtor$2@?0???0BuffersTestScene@Scene@Application@@QEAA@XZ@4HA DD imagerel ?dtor$2@?0???0BuffersTestScene@Scene@Application@@QEAA@XZ@4HA
	DD	imagerel ?dtor$2@?0???0BuffersTestScene@Scene@Application@@QEAA@XZ@4HA+29
	DD	imagerel $unwind$?dtor$2@?0???0BuffersTestScene@Scene@Application@@QEAA@XZ@4HA
pdata	ENDS
;	COMDAT pdata
pdata	SEGMENT
$pdata$?dtor$3@?0???0BuffersTestScene@Scene@Application@@QEAA@XZ@4HA DD imagerel ?dtor$3@?0???0BuffersTestScene@Scene@Application@@QEAA@XZ@4HA
	DD	imagerel ?dtor$3@?0???0BuffersTestScene@Scene@Application@@QEAA@XZ@4HA+29
	DD	imagerel $unwind$?dtor$3@?0???0BuffersTestScene@Scene@Application@@QEAA@XZ@4HA
pdata	ENDS
;	COMDAT pdata
pdata	SEGMENT
$pdata$?dtor$5@?0???0BuffersTestScene@Scene@Application@@QEAA@XZ@4HA DD imagerel ?dtor$5@?0???0BuffersTestScene@Scene@Application@@QEAA@XZ@4HA
	DD	imagerel ?dtor$5@?0???0BuffersTestScene@Scene@Application@@QEAA@XZ@4HA+29
	DD	imagerel $unwind$?dtor$5@?0???0BuffersTestScene@Scene@Application@@QEAA@XZ@4HA
pdata	ENDS
;	COMDAT pdata
pdata	SEGMENT
$pdata$?dtor$6@?0???0BuffersTestScene@Scene@Application@@QEAA@XZ@4HA DD imagerel ?dtor$6@?0???0BuffersTestScene@Scene@Application@@QEAA@XZ@4HA
	DD	imagerel ?dtor$6@?0???0BuffersTestScene@Scene@Application@@QEAA@XZ@4HA+38
	DD	imagerel $unwind$?dtor$6@?0???0BuffersTestScene@Scene@Application@@QEAA@XZ@4HA
;	COMDAT xdata
xdata	SEGMENT
$unwind$?dtor$6@?0???0BuffersTestScene@Scene@Application@@QEAA@XZ@4HA DD 020601H
	DD	050023206H
xdata	ENDS
;	COMDAT xdata
xdata	SEGMENT
$unwind$?dtor$5@?0???0BuffersTestScene@Scene@Application@@QEAA@XZ@4HA DD 020601H
	DD	050023206H
xdata	ENDS
;	COMDAT xdata
xdata	SEGMENT
$unwind$?dtor$3@?0???0BuffersTestScene@Scene@Application@@QEAA@XZ@4HA DD 020601H
	DD	050023206H
xdata	ENDS
;	COMDAT xdata
xdata	SEGMENT
$unwind$?dtor$2@?0???0BuffersTestScene@Scene@Application@@QEAA@XZ@4HA DD 020601H
	DD	050023206H
xdata	ENDS
;	COMDAT xdata
xdata	SEGMENT
$unwind$?dtor$1@?0???0BuffersTestScene@Scene@Application@@QEAA@XZ@4HA DD 020601H
	DD	050023206H
xdata	ENDS
;	COMDAT xdata
xdata	SEGMENT
$ip2state$??0BuffersTestScene@Scene@Application@@QEAA@XZ DD imagerel ??0BuffersTestScene@Scene@Application@@QEAA@XZ+74
	DD	00H
	DD	imagerel ??0BuffersTestScene@Scene@Application@@QEAA@XZ+99
	DD	01H
	DD	imagerel ??0BuffersTestScene@Scene@Application@@QEAA@XZ+131
	DD	00H
	DD	imagerel ??0BuffersTestScene@Scene@Application@@QEAA@XZ+156
	DD	02H
	DD	imagerel ??0BuffersTestScene@Scene@Application@@QEAA@XZ+201
	DD	00H
	DD	imagerel ??0BuffersTestScene@Scene@Application@@QEAA@XZ+252
	DD	03H
	DD	imagerel ??0BuffersTestScene@Scene@Application@@QEAA@XZ+321
	DD	00H
	DD	imagerel ??0BuffersTestScene@Scene@Application@@QEAA@XZ+458
	DD	04H
	DD	imagerel ??0BuffersTestScene@Scene@Application@@QEAA@XZ+497
	DD	05H
	DD	imagerel ??0BuffersTestScene@Scene@Application@@QEAA@XZ+517
	DD	06H
	DD	imagerel ??0BuffersTestScene@Scene@Application@@QEAA@XZ+594
	DD	0ffffffffH
xdata	ENDS
;	COMDAT xdata
xdata	SEGMENT
$stateUnwindMap$??0BuffersTestScene@Scene@Application@@QEAA@XZ DD 0ffffffffH
	DD	imagerel ?dtor$0@?0???0BuffersTestScene@Scene@Application@@QEAA@XZ@4HA
	DD	00H
	DD	imagerel ?dtor$1@?0???0BuffersTestScene@Scene@Application@@QEAA@XZ@4HA
	DD	00H
	DD	imagerel ?dtor$2@?0???0BuffersTestScene@Scene@Application@@QEAA@XZ@4HA
	DD	00H
	DD	imagerel ?dtor$3@?0???0BuffersTestScene@Scene@Application@@QEAA@XZ@4HA
	DD	00H
	DD	imagerel ?dtor$5@?0???0BuffersTestScene@Scene@Application@@QEAA@XZ@4HA
	DD	04H
	DD	imagerel ?dtor$6@?0???0BuffersTestScene@Scene@Application@@QEAA@XZ@4HA
	DD	00H
	DD	imagerel ?dtor$6@?0???0BuffersTestScene@Scene@Application@@QEAA@XZ@4HA
xdata	ENDS
;	COMDAT CONST
CONST	SEGMENT
$cppxdata$??0BuffersTestScene@Scene@Application@@QEAA@XZ DQ 00000000719930522r ; 1.5066e-313
	DD	imagerel $stateUnwindMap$??0BuffersTestScene@Scene@Application@@QEAA@XZ
	DQ	00000000000000000r		; 0
	DD	0bH
	DD	imagerel $ip2state$??0BuffersTestScene@Scene@Application@@QEAA@XZ
	DQ	00000000000000058r		; 4.34778e-322
	DD	01H
CONST	ENDS
;	COMDAT xdata
xdata	SEGMENT
$unwind$??0BuffersTestScene@Scene@Application@@QEAA@XZ DD 093119H
	DD	01b7423H
	DD	01a641fH
	DD	019341bH
	DD	016010fH
	DD	05004H
	DD	imagerel __GSHandlerCheck_EH
	DD	imagerel $cppxdata$??0BuffersTestScene@Scene@Application@@QEAA@XZ
	DD	0a2H
xdata	ENDS
;	COMDAT xdata
xdata	SEGMENT
$unwind$?SizeOfType@BufferElement@buffers@core@@SAII@Z DD 010401H
	DD	04204H
xdata	ENDS
;	COMDAT xdata
xdata	SEGMENT
$unwind$??$push@M@BufferLayout@buffers@core@@QEAAXI@Z DD 040a01H
	DD	08340aH
	DD	07006520aH
xdata	ENDS
;	COMDAT xdata
xdata	SEGMENT
$ip2state$??_GBuffersTestScene@Scene@Application@@UEAAPEAXI@Z DD imagerel ??_GBuffersTestScene@Scene@Application@@UEAAPEAXI@Z+64
	DD	00H
	DD	imagerel ??_GBuffersTestScene@Scene@Application@@UEAAPEAXI@Z+108
	DD	0ffffffffH
	DD	imagerel ??_GBuffersTestScene@Scene@Application@@UEAAPEAXI@Z+146
	DD	00H
	DD	imagerel ??_GBuffersTestScene@Scene@Application@@UEAAPEAXI@Z+199
	DD	0ffffffffH
xdata	ENDS
;	COMDAT xdata
xdata	SEGMENT
$stateUnwindMap$??_GBuffersTestScene@Scene@Application@@UEAAPEAXI@Z DD 0ffffffffH
	DD	imagerel __std_terminate
xdata	ENDS
;	COMDAT CONST
CONST	SEGMENT
$cppxdata$??_GBuffersTestScene@Scene@Application@@UEAAPEAXI@Z DQ 00000000119930522r ; 2.33398e-314
	DD	imagerel $stateUnwindMap$??_GBuffersTestScene@Scene@Application@@UEAAPEAXI@Z
	DQ	00000000000000000r		; 0
	DD	04H
	DD	imagerel $ip2state$??_GBuffersTestScene@Scene@Application@@UEAAPEAXI@Z
	DQ	00000000000000020r		; 1.58101e-322
	DD	05H
CONST	ENDS
;	COMDAT xdata
xdata	SEGMENT
$unwind$??_GBuffersTestScene@Scene@Application@@UEAAPEAXI@Z DD 061919H
	DD	096419H
	DD	083414H
	DD	070025206H
	DD	imagerel __CxxFrameHandler3
	DD	imagerel $cppxdata$??_GBuffersTestScene@Scene@Application@@UEAAPEAXI@Z
xdata	ENDS
;	COMDAT xdata
xdata	SEGMENT
$ip2state$??1BuffersTestScene@Scene@Application@@UEAA@XZ DD imagerel ??1BuffersTestScene@Scene@Application@@UEAA@XZ+57
	DD	00H
	DD	imagerel ??1BuffersTestScene@Scene@Application@@UEAA@XZ+101
	DD	0ffffffffH
	DD	imagerel ??1BuffersTestScene@Scene@Application@@UEAA@XZ+139
	DD	00H
	DD	imagerel ??1BuffersTestScene@Scene@Application@@UEAA@XZ+192
	DD	0ffffffffH
xdata	ENDS
;	COMDAT xdata
xdata	SEGMENT
$stateUnwindMap$??1BuffersTestScene@Scene@Application@@UEAA@XZ DD 0ffffffffH
	DD	imagerel __std_terminate
xdata	ENDS
;	COMDAT CONST
CONST	SEGMENT
$cppxdata$??1BuffersTestScene@Scene@Application@@UEAA@XZ DQ 00000000119930522r ; 2.33398e-314
	DD	imagerel $stateUnwindMap$??1BuffersTestScene@Scene@Application@@UEAA@XZ
	DQ	00000000000000000r		; 0
	DD	04H
	DD	imagerel $ip2state$??1BuffersTestScene@Scene@Application@@UEAA@XZ
	DQ	00000000000000020r		; 1.58101e-322
	DD	05H
CONST	ENDS
;	COMDAT xdata
xdata	SEGMENT
$unwind$??1BuffersTestScene@Scene@Application@@UEAA@XZ DD 041419H
	DD	083414H
	DD	070025206H
	DD	imagerel __CxxFrameHandler3
	DD	imagerel $cppxdata$??1BuffersTestScene@Scene@Application@@UEAA@XZ
xdata	ENDS
;	COMDAT xdata
xdata	SEGMENT
$ip2state$??_GVAO@buffers@core@@QEAAPEAXI@Z DD imagerel ??_GVAO@buffers@core@@QEAAPEAXI@Z+33
	DD	00H
xdata	ENDS
;	COMDAT xdata
xdata	SEGMENT
$stateUnwindMap$??_GVAO@buffers@core@@QEAAPEAXI@Z DD 0ffffffffH
	DD	imagerel __std_terminate
xdata	ENDS
;	COMDAT CONST
CONST	SEGMENT
$cppxdata$??_GVAO@buffers@core@@QEAAPEAXI@Z DQ 00000000119930522r ; 2.33398e-314
	DD	imagerel $stateUnwindMap$??_GVAO@buffers@core@@QEAAPEAXI@Z
	DQ	00000000000000000r		; 0
	DD	01H
	DD	imagerel $ip2state$??_GVAO@buffers@core@@QEAAPEAXI@Z
	DQ	00000000000000020r		; 1.58101e-322
	DD	05H
CONST	ENDS
;	COMDAT xdata
xdata	SEGMENT
$unwind$??_GVAO@buffers@core@@QEAAPEAXI@Z DD 020f19H
	DD	030025206H
	DD	imagerel __CxxFrameHandler3
	DD	imagerel $cppxdata$??_GVAO@buffers@core@@QEAAPEAXI@Z
xdata	ENDS
;	COMDAT xdata
xdata	SEGMENT
$ip2state$??_GVBO@buffers@core@@QEAAPEAXI@Z DD imagerel ??_GVBO@buffers@core@@QEAAPEAXI@Z+33
	DD	00H
xdata	ENDS
;	COMDAT xdata
xdata	SEGMENT
$stateUnwindMap$??_GVBO@buffers@core@@QEAAPEAXI@Z DD 0ffffffffH
	DD	imagerel __std_terminate
xdata	ENDS
;	COMDAT CONST
CONST	SEGMENT
$cppxdata$??_GVBO@buffers@core@@QEAAPEAXI@Z DQ 00000000119930522r ; 2.33398e-314
	DD	imagerel $stateUnwindMap$??_GVBO@buffers@core@@QEAAPEAXI@Z
	DQ	00000000000000000r		; 0
	DD	01H
	DD	imagerel $ip2state$??_GVBO@buffers@core@@QEAAPEAXI@Z
	DQ	00000000000000020r		; 1.58101e-322
	DD	05H
CONST	ENDS
;	COMDAT xdata
xdata	SEGMENT
$unwind$??_GVBO@buffers@core@@QEAAPEAXI@Z DD 020f19H
	DD	030025206H
	DD	imagerel __CxxFrameHandler3
	DD	imagerel $cppxdata$??_GVBO@buffers@core@@QEAAPEAXI@Z
xdata	ENDS
;	COMDAT xdata
xdata	SEGMENT
$ip2state$??_GIBO@buffers@core@@QEAAPEAXI@Z DD imagerel ??_GIBO@buffers@core@@QEAAPEAXI@Z+33
	DD	00H
xdata	ENDS
;	COMDAT xdata
xdata	SEGMENT
$stateUnwindMap$??_GIBO@buffers@core@@QEAAPEAXI@Z DD 0ffffffffH
	DD	imagerel __std_terminate
xdata	ENDS
;	COMDAT CONST
CONST	SEGMENT
$cppxdata$??_GIBO@buffers@core@@QEAAPEAXI@Z DQ 00000000119930522r ; 2.33398e-314
	DD	imagerel $stateUnwindMap$??_GIBO@buffers@core@@QEAAPEAXI@Z
	DQ	00000000000000000r		; 0
	DD	01H
	DD	imagerel $ip2state$??_GIBO@buffers@core@@QEAAPEAXI@Z
	DQ	00000000000000020r		; 1.58101e-322
	DD	05H
CONST	ENDS
;	COMDAT xdata
xdata	SEGMENT
$unwind$??_GIBO@buffers@core@@QEAAPEAXI@Z DD 020f19H
	DD	030025206H
	DD	imagerel __CxxFrameHandler3
	DD	imagerel $cppxdata$??_GIBO@buffers@core@@QEAAPEAXI@Z
xdata	ENDS
;	COMDAT xdata
xdata	SEGMENT
$unwind$??_GBufferLayout@buffers@core@@QEAAPEAXI@Z DD 020601H
	DD	030023206H
xdata	ENDS
;	COMDAT xdata
xdata	SEGMENT
$unwind$??1BufferLayout@buffers@core@@QEAA@XZ DD 020601H
	DD	030023206H
xdata	ENDS
;	COMDAT xdata
xdata	SEGMENT
$unwind$?OnRender@BuffersTestScene@Scene@Application@@UEAAXXZ DD 020601H
	DD	030023206H
xdata	ENDS
;	COMDAT xdata
xdata	SEGMENT
$unwind$??1?$vector@UBufferElement@buffers@core@@V?$allocator@UBufferElement@buffers@core@@@std@@@std@@QEAA@XZ DD 020601H
	DD	030023206H
xdata	ENDS
;	COMDAT xdata
xdata	SEGMENT
$unwind$?_Tidy@?$vector@UBufferElement@buffers@core@@V?$allocator@UBufferElement@buffers@core@@@std@@@std@@AEAAXXZ DD 020601H
	DD	030023206H
xdata	ENDS
;	COMDAT xdata
xdata	SEGMENT
$unwind$?deallocate@?$allocator@UBufferElement@buffers@core@@@std@@QEAAXQEAUBufferElement@buffers@core@@_K@Z DD 010401H
	DD	04204H
xdata	ENDS
;	COMDAT xdata
xdata	SEGMENT
$chain$5$??$_Emplace_reallocate@UBufferElement@buffers@core@@@?$vector@UBufferElement@buffers@core@@V?$allocator@UBufferElement@buffers@core@@@std@@@std@@QEAAPEAUBufferElement@buffers@core@@QEAU234@$$QEAU234@@Z DD 021H
	DD	imagerel $LN313@Emplace_re
	DD	imagerel $LN313@Emplace_re+115
	DD	imagerel $unwind$??$_Emplace_reallocate@UBufferElement@buffers@core@@@?$vector@UBufferElement@buffers@core@@V?$allocator@UBufferElement@buffers@core@@@std@@@std@@QEAAPEAUBufferElement@buffers@core@@QEAU234@$$QEAU234@@Z
xdata	ENDS
;	COMDAT xdata
xdata	SEGMENT
$chain$4$??$_Emplace_reallocate@UBufferElement@buffers@core@@@?$vector@UBufferElement@buffers@core@@V?$allocator@UBufferElement@buffers@core@@@std@@@std@@QEAAPEAUBufferElement@buffers@core@@QEAU234@$$QEAU234@@Z DD 060021H
	DD	04f400H
	DD	056400H
	DD	0e3400H
	DD	imagerel $LN313@Emplace_re
	DD	imagerel $LN313@Emplace_re+115
	DD	imagerel $unwind$??$_Emplace_reallocate@UBufferElement@buffers@core@@@?$vector@UBufferElement@buffers@core@@V?$allocator@UBufferElement@buffers@core@@@std@@@std@@QEAAPEAUBufferElement@buffers@core@@QEAU234@$$QEAU234@@Z
xdata	ENDS
;	COMDAT xdata
xdata	SEGMENT
$chain$2$??$_Emplace_reallocate@UBufferElement@buffers@core@@@?$vector@UBufferElement@buffers@core@@V?$allocator@UBufferElement@buffers@core@@@std@@@std@@QEAAPEAUBufferElement@buffers@core@@QEAU234@$$QEAU234@@Z DD 064321H
	DD	0e3443H
	DD	04f40eH
	DD	056405H
	DD	imagerel $LN313@Emplace_re
	DD	imagerel $LN313@Emplace_re+115
	DD	imagerel $unwind$??$_Emplace_reallocate@UBufferElement@buffers@core@@@?$vector@UBufferElement@buffers@core@@V?$allocator@UBufferElement@buffers@core@@@std@@@std@@QEAAPEAUBufferElement@buffers@core@@QEAU234@$$QEAU234@@Z
xdata	ENDS
;	COMDAT xdata
xdata	SEGMENT
$unwind$??$_Emplace_reallocate@UBufferElement@buffers@core@@@?$vector@UBufferElement@buffers@core@@V?$allocator@UBufferElement@buffers@core@@@std@@@std@@QEAAPEAUBufferElement@buffers@core@@QEAU234@$$QEAU234@@Z DD 060d01H
	DD	0e009520dH
	DD	0c005d007H
	DD	050027003H
xdata	ENDS
;	COMDAT xdata
xdata	SEGMENT
$unwind$?_Xlength@?$vector@UBufferElement@buffers@core@@V?$allocator@UBufferElement@buffers@core@@@std@@@std@@CAXXZ DD 010401H
	DD	04204H
xdata	ENDS
;	COMDAT xdata
xdata	SEGMENT
$unwind$?_Change_array@?$vector@UBufferElement@buffers@core@@V?$allocator@UBufferElement@buffers@core@@@std@@@std@@AEAAXQEAUBufferElement@buffers@core@@_K1@Z DD 081501H
	DD	097415H
	DD	086415H
	DD	073415H
	DD	0e0113215H
xdata	ENDS
;	COMDAT xdata
xdata	SEGMENT
$unwind$?_Umove_if_noexcept@?$vector@UBufferElement@buffers@core@@V?$allocator@UBufferElement@buffers@core@@@std@@@std@@AEAAXPEAUBufferElement@buffers@core@@00@Z DD 011319H
	DD	06204H
	DD	imagerel __GSHandlerCheck
	DD	020H
xdata	ENDS
;	COMDAT xdata
xdata	SEGMENT
$unwind$?_Umove@?$vector@UBufferElement@buffers@core@@V?$allocator@UBufferElement@buffers@core@@@std@@@std@@AEAAPEAUBufferElement@buffers@core@@PEAU345@00@Z DD 040a01H
	DD	06340aH
	DD	07006320aH
xdata	ENDS
;	COMDAT xdata
xdata	SEGMENT
$unwind$?allocate@?$allocator@UBufferElement@buffers@core@@@std@@QEAAPEAUBufferElement@buffers@core@@_K@Z DD 010401H
	DD	04204H
xdata	ENDS
;	COMDAT xdata
xdata	SEGMENT
$unwind$??$_Uninitialized_move@PEAUBufferElement@buffers@core@@PEAU123@V?$allocator@UBufferElement@buffers@core@@@std@@@std@@YAPEAUBufferElement@buffers@core@@QEAU123@0PEAU123@AEAV?$allocator@UBufferElement@buffers@core@@@0@@Z DD 040a01H
	DD	09340aH
	DD	07006320aH
xdata	ENDS
;	COMDAT xdata
xdata	SEGMENT
$unwind$??$_Uninitialized_move_al_unchecked@UBufferElement@buffers@core@@U123@V?$allocator@UBufferElement@buffers@core@@@std@@@std@@YAPEAUBufferElement@buffers@core@@QEAU123@00AEAV?$allocator@UBufferElement@buffers@core@@@0@U_Really_trivial_ptr_iterator_tag@0@U?$integral_constant@_N$00@0@@Z DD 040a01H
	DD	06340aH
	DD	07006320aH
xdata	ENDS
;	COMDAT xdata
xdata	SEGMENT
$unwind$??$_Copy_memmove@PEAUBufferElement@buffers@core@@PEAU123@@std@@YAPEAUBufferElement@buffers@core@@PEAU123@00@Z DD 040a01H
	DD	06340aH
	DD	07006320aH
END
