; Listing generated by Microsoft (R) Optimizing Compiler Version 19.14.26433.0 

include listing.inc

INCLUDELIB OLDNAMES

PUBLIC	??_C@_0CC@NJGOLNKK@res?1shaders?1LayerSceneTest?4shade@ ; `string'
PUBLIC	??_C@_0BC@GAONNNEG@2D?5Layer?5Support?$CB?$AA@	; `string'
PUBLIC	??_R0?AVLayerScene@Scene@Application@@@8	; Application::Scene::LayerScene `RTTI Type Descriptor'
PUBLIC	??_7LayerScene@Scene@Application@@6B@		; Application::Scene::LayerScene::`vftable'
PUBLIC	??_R2LayerScene@Scene@Application@@8		; Application::Scene::LayerScene::`RTTI Base Class Array'
PUBLIC	??_R4LayerScene@Scene@Application@@6B@		; Application::Scene::LayerScene::`RTTI Complete Object Locator'
PUBLIC	??_R3LayerScene@Scene@Application@@8		; Application::Scene::LayerScene::`RTTI Class Hierarchy Descriptor'
PUBLIC	??_R1A@?0A@EA@LayerScene@Scene@Application@@8	; Application::Scene::LayerScene::`RTTI Base Class Descriptor at (0,-1,0,64)'
;	COMDAT ??_R1A@?0A@EA@LayerScene@Scene@Application@@8
rdata$r	SEGMENT
??_R1A@?0A@EA@LayerScene@Scene@Application@@8 DD imagerel ??_R0?AVLayerScene@Scene@Application@@@8 ; Application::Scene::LayerScene::`RTTI Base Class Descriptor at (0,-1,0,64)'
	DD	01H
	DD	00H
	DD	0ffffffffH
	DD	00H
	DD	040H
	DD	imagerel ??_R3LayerScene@Scene@Application@@8
rdata$r	ENDS
;	COMDAT ??_R3LayerScene@Scene@Application@@8
rdata$r	SEGMENT
??_R3LayerScene@Scene@Application@@8 DD 00H		; Application::Scene::LayerScene::`RTTI Class Hierarchy Descriptor'
	DD	00H
	DD	02H
	DD	imagerel ??_R2LayerScene@Scene@Application@@8
rdata$r	ENDS
;	COMDAT ??_R4LayerScene@Scene@Application@@6B@
rdata$r	SEGMENT
??_R4LayerScene@Scene@Application@@6B@ DD 01H		; Application::Scene::LayerScene::`RTTI Complete Object Locator'
	DD	00H
	DD	00H
	DD	imagerel ??_R0?AVLayerScene@Scene@Application@@@8
	DD	imagerel ??_R3LayerScene@Scene@Application@@8
	DD	imagerel ??_R4LayerScene@Scene@Application@@6B@
rdata$r	ENDS
;	COMDAT ??_R2LayerScene@Scene@Application@@8
rdata$r	SEGMENT
??_R2LayerScene@Scene@Application@@8 DD imagerel ??_R1A@?0A@EA@LayerScene@Scene@Application@@8 ; Application::Scene::LayerScene::`RTTI Base Class Array'
	DD	imagerel ??_R1A@?0A@EA@Scene@0Application@@8
	ORG $+3
rdata$r	ENDS
;	COMDAT ??_7LayerScene@Scene@Application@@6B@
CONST	SEGMENT
??_7LayerScene@Scene@Application@@6B@ DQ FLAT:??_R4LayerScene@Scene@Application@@6B@ ; Application::Scene::LayerScene::`vftable'
	DQ	FLAT:??_ELayerScene@Scene@Application@@UEAAPEAXI@Z
	DQ	FLAT:?OnUpdate@LayerScene@Scene@Application@@UEAAXM@Z
	DQ	FLAT:?OnRender@LayerScene@Scene@Application@@UEAAXXZ
	DQ	FLAT:?OnImGuiRender@LayerScene@Scene@Application@@UEAAXXZ
CONST	ENDS
;	COMDAT ??_R0?AVLayerScene@Scene@Application@@@8
data$r	SEGMENT
??_R0?AVLayerScene@Scene@Application@@@8 DQ FLAT:??_7type_info@@6B@ ; Application::Scene::LayerScene `RTTI Type Descriptor'
	DQ	0000000000000000H
	DB	'.?AVLayerScene@Scene@Application@@', 00H
data$r	ENDS
;	COMDAT ??_C@_0BC@GAONNNEG@2D?5Layer?5Support?$CB?$AA@
CONST	SEGMENT
??_C@_0BC@GAONNNEG@2D?5Layer?5Support?$CB?$AA@ DB '2D Layer Support!', 00H ; `string'
CONST	ENDS
;	COMDAT ??_C@_0CC@NJGOLNKK@res?1shaders?1LayerSceneTest?4shade@
CONST	SEGMENT
??_C@_0CC@NJGOLNKK@res?1shaders?1LayerSceneTest?4shade@ DB 'res/shaders/L'
	DB	'ayerSceneTest.shader', 00H			; `string'
PUBLIC	?OnImGuiRender@LayerScene@Scene@Application@@UEAAXXZ ; Application::Scene::LayerScene::OnImGuiRender
PUBLIC	?OnRender@LayerScene@Scene@Application@@UEAAXXZ	; Application::Scene::LayerScene::OnRender
PUBLIC	?OnUpdate@LayerScene@Scene@Application@@UEAAXM@Z ; Application::Scene::LayerScene::OnUpdate
PUBLIC	??_GLayer2D@core@@QEAAPEAXI@Z			; core::Layer2D::`scalar deleting destructor'
PUBLIC	??1LayerScene@Scene@Application@@UEAA@XZ	; Application::Scene::LayerScene::~LayerScene
PUBLIC	??_GLayerScene@Scene@Application@@UEAAPEAXI@Z	; Application::Scene::LayerScene::`scalar deleting destructor'
PUBLIC	?__autoclassinit2@Layer2D@core@@QEAAX_K@Z	; core::Layer2D::__autoclassinit2
PUBLIC	??0LayerScene@Scene@Application@@QEAA@XZ	; Application::Scene::LayerScene::LayerScene
EXTRN	??_ELayerScene@Scene@Application@@UEAAPEAXI@Z:PROC ; Application::Scene::LayerScene::`vector deleting destructor'
;	COMDAT pdata
pdata	SEGMENT
$pdata$?OnRender@LayerScene@Scene@Application@@UEAAXXZ DD imagerel $LN30@OnRender
	DD	imagerel $LN30@OnRender+129
	DD	imagerel $unwind$?OnRender@LayerScene@Scene@Application@@UEAAXXZ
pdata	ENDS
;	COMDAT pdata
pdata	SEGMENT
$pdata$??_GLayer2D@core@@QEAAPEAXI@Z DD imagerel $LN9@scalar
	DD	imagerel $LN9@scalar+36
	DD	imagerel $unwind$??_GLayer2D@core@@QEAAPEAXI@Z
pdata	ENDS
;	COMDAT pdata
pdata	SEGMENT
$pdata$??1LayerScene@Scene@Application@@UEAA@XZ DD imagerel $LN24@LayerScene
	DD	imagerel $LN24@LayerScene+136
	DD	imagerel $unwind$??1LayerScene@Scene@Application@@UEAA@XZ
pdata	ENDS
;	COMDAT pdata
pdata	SEGMENT
$pdata$??_GLayerScene@Scene@Application@@UEAAPEAXI@Z DD imagerel $LN28@scalar
	DD	imagerel $LN28@scalar+171
	DD	imagerel $unwind$??_GLayerScene@Scene@Application@@UEAAPEAXI@Z
pdata	ENDS
;	COMDAT pdata
pdata	SEGMENT
$pdata$??0LayerScene@Scene@Application@@QEAA@XZ DD imagerel $LN337@LayerScene
	DD	imagerel $LN337@LayerScene+829
	DD	imagerel $unwind$??0LayerScene@Scene@Application@@QEAA@XZ
pdata	ENDS
;	COMDAT pdata
pdata	SEGMENT
$pdata$?dtor$1@?0???0LayerScene@Scene@Application@@QEAA@XZ@4HA DD imagerel ?dtor$1@?0???0LayerScene@Scene@Application@@QEAA@XZ@4HA
	DD	imagerel ?dtor$1@?0???0LayerScene@Scene@Application@@QEAA@XZ@4HA+29
	DD	imagerel $unwind$?dtor$1@?0???0LayerScene@Scene@Application@@QEAA@XZ@4HA
pdata	ENDS
;	COMDAT pdata
pdata	SEGMENT
$pdata$?dtor$6@?0???0LayerScene@Scene@Application@@QEAA@XZ@4HA DD imagerel ?dtor$6@?0???0LayerScene@Scene@Application@@QEAA@XZ@4HA
	DD	imagerel ?dtor$6@?0???0LayerScene@Scene@Application@@QEAA@XZ@4HA+29
	DD	imagerel $unwind$?dtor$6@?0???0LayerScene@Scene@Application@@QEAA@XZ@4HA
pdata	ENDS
;	COMDAT pdata
pdata	SEGMENT
$pdata$?dtor$3@?0???0LayerScene@Scene@Application@@QEAA@XZ@4HA DD imagerel ?dtor$3@?0???0LayerScene@Scene@Application@@QEAA@XZ@4HA
	DD	imagerel ?dtor$3@?0???0LayerScene@Scene@Application@@QEAA@XZ@4HA+29
	DD	imagerel $unwind$?dtor$3@?0???0LayerScene@Scene@Application@@QEAA@XZ@4HA
pdata	ENDS
;	COMDAT pdata
pdata	SEGMENT
$pdata$?dtor$4@?0???0LayerScene@Scene@Application@@QEAA@XZ@4HA DD imagerel ?dtor$4@?0???0LayerScene@Scene@Application@@QEAA@XZ@4HA
	DD	imagerel ?dtor$4@?0???0LayerScene@Scene@Application@@QEAA@XZ@4HA+38
	DD	imagerel $unwind$?dtor$4@?0???0LayerScene@Scene@Application@@QEAA@XZ@4HA
;	COMDAT xdata
xdata	SEGMENT
$unwind$?dtor$4@?0???0LayerScene@Scene@Application@@QEAA@XZ@4HA DD 020601H
	DD	050023206H
xdata	ENDS
;	COMDAT xdata
xdata	SEGMENT
$unwind$?dtor$3@?0???0LayerScene@Scene@Application@@QEAA@XZ@4HA DD 020601H
	DD	050023206H
xdata	ENDS
;	COMDAT xdata
xdata	SEGMENT
$unwind$?dtor$6@?0???0LayerScene@Scene@Application@@QEAA@XZ@4HA DD 020601H
	DD	050023206H
xdata	ENDS
;	COMDAT xdata
xdata	SEGMENT
$unwind$?dtor$1@?0???0LayerScene@Scene@Application@@QEAA@XZ@4HA DD 020601H
	DD	050023206H
xdata	ENDS
;	COMDAT xdata
xdata	SEGMENT
$ip2state$??0LayerScene@Scene@Application@@QEAA@XZ DD imagerel ??0LayerScene@Scene@Application@@QEAA@XZ+107
	DD	00H
	DD	imagerel ??0LayerScene@Scene@Application@@QEAA@XZ+140
	DD	01H
	DD	imagerel ??0LayerScene@Scene@Application@@QEAA@XZ+170
	DD	02H
	DD	imagerel ??0LayerScene@Scene@Application@@QEAA@XZ+198
	DD	00H
	DD	imagerel ??0LayerScene@Scene@Application@@QEAA@XZ+312
	DD	03H
	DD	imagerel ??0LayerScene@Scene@Application@@QEAA@XZ+353
	DD	04H
	DD	imagerel ??0LayerScene@Scene@Application@@QEAA@XZ+375
	DD	05H
	DD	imagerel ??0LayerScene@Scene@Application@@QEAA@XZ+581
	DD	00H
	DD	imagerel ??0LayerScene@Scene@Application@@QEAA@XZ+753
	DD	0ffffffffH
xdata	ENDS
;	COMDAT xdata
xdata	SEGMENT
$stateUnwindMap$??0LayerScene@Scene@Application@@QEAA@XZ DD 0ffffffffH
	DD	imagerel ?dtor$0@?0???0LayerScene@Scene@Application@@QEAA@XZ@4HA
	DD	00H
	DD	imagerel ?dtor$1@?0???0LayerScene@Scene@Application@@QEAA@XZ@4HA
	DD	01H
	DD	imagerel ?dtor$6@?0???0LayerScene@Scene@Application@@QEAA@XZ@4HA
	DD	00H
	DD	imagerel ?dtor$3@?0???0LayerScene@Scene@Application@@QEAA@XZ@4HA
	DD	03H
	DD	imagerel ?dtor$4@?0???0LayerScene@Scene@Application@@QEAA@XZ@4HA
	DD	00H
	DD	imagerel ?dtor$4@?0???0LayerScene@Scene@Application@@QEAA@XZ@4HA
xdata	ENDS
;	COMDAT CONST
CONST	SEGMENT
$cppxdata$??0LayerScene@Scene@Application@@QEAA@XZ DQ 00000000619930522r ; 1.2944e-313
	DD	imagerel $stateUnwindMap$??0LayerScene@Scene@Application@@QEAA@XZ
	DQ	00000000000000000r		; 0
	DD	09H
	DD	imagerel $ip2state$??0LayerScene@Scene@Application@@QEAA@XZ
	DQ	00000000000000048r		; 3.55727e-322
	DD	01H
CONST	ENDS
;	COMDAT xdata
xdata	SEGMENT
$unwind$??0LayerScene@Scene@Application@@QEAA@XZ DD 0175019H
	DD	07c841H
	DD	08b83cH
	DD	09a837H
	DD	0a9832H
	DD	0b882dH
	DD	0c7828H
	DD	0d6824H
	DD	0216420H
	DD	020541cH
	DD	01f3418H
	DD	01c010bH
	DD	07004H
	DD	imagerel __GSHandlerCheck_EH
	DD	imagerel $cppxdata$??0LayerScene@Scene@Application@@QEAA@XZ
	DD	062H
xdata	ENDS
;	COMDAT xdata
xdata	SEGMENT
$ip2state$??_GLayerScene@Scene@Application@@UEAAPEAXI@Z DD imagerel ??_GLayerScene@Scene@Application@@UEAAPEAXI@Z+105
	DD	00H
xdata	ENDS
;	COMDAT xdata
xdata	SEGMENT
$stateUnwindMap$??_GLayerScene@Scene@Application@@UEAAPEAXI@Z DD 0ffffffffH
	DD	imagerel __std_terminate
xdata	ENDS
;	COMDAT CONST
CONST	SEGMENT
$cppxdata$??_GLayerScene@Scene@Application@@UEAAPEAXI@Z DQ 00000000119930522r ; 2.33398e-314
	DD	imagerel $stateUnwindMap$??_GLayerScene@Scene@Application@@UEAAPEAXI@Z
	DQ	00000000000000000r		; 0
	DD	01H
	DD	imagerel $ip2state$??_GLayerScene@Scene@Application@@UEAAPEAXI@Z
	DQ	00000000000000020r		; 1.58101e-322
	DD	05H
CONST	ENDS
;	COMDAT xdata
xdata	SEGMENT
$unwind$??_GLayerScene@Scene@Application@@UEAAPEAXI@Z DD 061919H
	DD	096419H
	DD	083414H
	DD	070025206H
	DD	imagerel __CxxFrameHandler3
	DD	imagerel $cppxdata$??_GLayerScene@Scene@Application@@UEAAPEAXI@Z
xdata	ENDS
;	COMDAT xdata
xdata	SEGMENT
$ip2state$??1LayerScene@Scene@Application@@UEAA@XZ DD imagerel ??1LayerScene@Scene@Application@@UEAA@XZ+98
	DD	00H
xdata	ENDS
;	COMDAT xdata
xdata	SEGMENT
$stateUnwindMap$??1LayerScene@Scene@Application@@UEAA@XZ DD 0ffffffffH
	DD	imagerel __std_terminate
xdata	ENDS
;	COMDAT CONST
CONST	SEGMENT
$cppxdata$??1LayerScene@Scene@Application@@UEAA@XZ DQ 00000000119930522r ; 2.33398e-314
	DD	imagerel $stateUnwindMap$??1LayerScene@Scene@Application@@UEAA@XZ
	DQ	00000000000000000r		; 0
	DD	01H
	DD	imagerel $ip2state$??1LayerScene@Scene@Application@@UEAA@XZ
	DQ	00000000000000020r		; 1.58101e-322
	DD	05H
CONST	ENDS
;	COMDAT xdata
xdata	SEGMENT
$unwind$??1LayerScene@Scene@Application@@UEAA@XZ DD 041419H
	DD	083414H
	DD	070025206H
	DD	imagerel __CxxFrameHandler3
	DD	imagerel $cppxdata$??1LayerScene@Scene@Application@@UEAA@XZ
xdata	ENDS
;	COMDAT xdata
xdata	SEGMENT
$unwind$??_GLayer2D@core@@QEAAPEAXI@Z DD 020601H
	DD	030023206H
xdata	ENDS
;	COMDAT xdata
xdata	SEGMENT
$unwind$?OnRender@LayerScene@Scene@Application@@UEAAXXZ DD 081401H
	DD	086414H
	DD	075414H
	DD	063414H
	DD	070103214H
END
