; Listing generated by Microsoft (R) Optimizing Compiler Version 19.14.26433.0 

include listing.inc

INCLUDELIB OLDNAMES

PUBLIC	??_7MainMenuScene@Scene@Application@@6B@	; Application::Scene::MainMenuScene::`vftable'
PUBLIC	??_R3MainMenuScene@Scene@Application@@8		; Application::Scene::MainMenuScene::`RTTI Class Hierarchy Descriptor'
PUBLIC	??_R2MainMenuScene@Scene@Application@@8		; Application::Scene::MainMenuScene::`RTTI Base Class Array'
PUBLIC	??_R0?AVMainMenuScene@Scene@Application@@@8	; Application::Scene::MainMenuScene `RTTI Type Descriptor'
PUBLIC	??_R1A@?0A@EA@MainMenuScene@Scene@Application@@8 ; Application::Scene::MainMenuScene::`RTTI Base Class Descriptor at (0,-1,0,64)'
PUBLIC	??_C@_0BM@BFJKNBFF@res?1shaders?1MainMenu?4shader?$AA@ ; `string'
PUBLIC	??_C@_0CG@DAJJAFE@res?1textures?1FeatherFall?9MainMen@ ; `string'
PUBLIC	??_C@_0CB@MPFGBK@res?1textures?1FeatherFall?9Owl?4png@ ; `string'
PUBLIC	??_C@_0L@OMAPAGJJ@percentage?$AA@		; `string'
PUBLIC	??_C@_0BJ@IDPKMNNF@Select?5a?5Scene?5to?5load?3?5?$AA@ ; `string'
PUBLIC	??_C@_0BD@KHMMBBJK@BG?5Texture?5Control?$AA@	; `string'
PUBLIC	??_C@_04GFJLOHHD@?$CF?43f?$AA@			; `string'
PUBLIC	??_C@_0P@MEGNHCCD@Texure?5Control?$AA@		; `string'
PUBLIC	??_C@_0BI@LDGJAANB@TODO?3?5Make?5Gradient?5BG?$CB?$AA@ ; `string'
PUBLIC	??_C@_05GLHHFCDG@ffTex?$AA@			; `string'
PUBLIC	??_C@_07NNBCNLBN@iconTex?$AA@			; `string'
PUBLIC	??_R4MainMenuScene@Scene@Application@@6B@	; Application::Scene::MainMenuScene::`RTTI Complete Object Locator'
EXTRN	__imp_glClearColor:PROC
EXTRN	__imp_?_Xbad_function_call@std@@YAXXZ:PROC
;	COMDAT ??_R4MainMenuScene@Scene@Application@@6B@
rdata$r	SEGMENT
??_R4MainMenuScene@Scene@Application@@6B@ DD 01H	; Application::Scene::MainMenuScene::`RTTI Complete Object Locator'
	DD	00H
	DD	00H
	DD	imagerel ??_R0?AVMainMenuScene@Scene@Application@@@8
	DD	imagerel ??_R3MainMenuScene@Scene@Application@@8
	DD	imagerel ??_R4MainMenuScene@Scene@Application@@6B@
rdata$r	ENDS
;	COMDAT ??_C@_07NNBCNLBN@iconTex?$AA@
CONST	SEGMENT
??_C@_07NNBCNLBN@iconTex?$AA@ DB 'iconTex', 00H		; `string'
CONST	ENDS
;	COMDAT ??_C@_05GLHHFCDG@ffTex?$AA@
CONST	SEGMENT
??_C@_05GLHHFCDG@ffTex?$AA@ DB 'ffTex', 00H		; `string'
CONST	ENDS
;	COMDAT ??_C@_0BI@LDGJAANB@TODO?3?5Make?5Gradient?5BG?$CB?$AA@
CONST	SEGMENT
??_C@_0BI@LDGJAANB@TODO?3?5Make?5Gradient?5BG?$CB?$AA@ DB 'TODO: Make Gra'
	DB	'dient BG!', 00H				; `string'
CONST	ENDS
;	COMDAT ??_C@_0P@MEGNHCCD@Texure?5Control?$AA@
CONST	SEGMENT
??_C@_0P@MEGNHCCD@Texure?5Control?$AA@ DB 'Texure Control', 00H ; `string'
CONST	ENDS
;	COMDAT ??_C@_04GFJLOHHD@?$CF?43f?$AA@
CONST	SEGMENT
??_C@_04GFJLOHHD@?$CF?43f?$AA@ DB '%.3f', 00H		; `string'
CONST	ENDS
;	COMDAT ??_C@_0BD@KHMMBBJK@BG?5Texture?5Control?$AA@
CONST	SEGMENT
??_C@_0BD@KHMMBBJK@BG?5Texture?5Control?$AA@ DB 'BG Texture Control', 00H ; `string'
CONST	ENDS
;	COMDAT ??_C@_0BJ@IDPKMNNF@Select?5a?5Scene?5to?5load?3?5?$AA@
CONST	SEGMENT
??_C@_0BJ@IDPKMNNF@Select?5a?5Scene?5to?5load?3?5?$AA@ DB 'Select a Scene'
	DB	' to load: ', 00H				; `string'
CONST	ENDS
;	COMDAT ??_C@_0L@OMAPAGJJ@percentage?$AA@
CONST	SEGMENT
??_C@_0L@OMAPAGJJ@percentage?$AA@ DB 'percentage', 00H	; `string'
CONST	ENDS
;	COMDAT ??_C@_0CB@MPFGBK@res?1textures?1FeatherFall?9Owl?4png@
CONST	SEGMENT
??_C@_0CB@MPFGBK@res?1textures?1FeatherFall?9Owl?4png@ DB 'res/textures/F'
	DB	'eatherFall-Owl.png', 00H			; `string'
CONST	ENDS
;	COMDAT ??_C@_0CG@DAJJAFE@res?1textures?1FeatherFall?9MainMen@
CONST	SEGMENT
??_C@_0CG@DAJJAFE@res?1textures?1FeatherFall?9MainMen@ DB 'res/textures/F'
	DB	'eatherFall-MainMenu.png', 00H		; `string'
CONST	ENDS
;	COMDAT ??_C@_0BM@BFJKNBFF@res?1shaders?1MainMenu?4shader?$AA@
CONST	SEGMENT
??_C@_0BM@BFJKNBFF@res?1shaders?1MainMenu?4shader?$AA@ DB 'res/shaders/Ma'
	DB	'inMenu.shader', 00H				; `string'
CONST	ENDS
;	COMDAT ??_R1A@?0A@EA@MainMenuScene@Scene@Application@@8
rdata$r	SEGMENT
??_R1A@?0A@EA@MainMenuScene@Scene@Application@@8 DD imagerel ??_R0?AVMainMenuScene@Scene@Application@@@8 ; Application::Scene::MainMenuScene::`RTTI Base Class Descriptor at (0,-1,0,64)'
	DD	01H
	DD	00H
	DD	0ffffffffH
	DD	00H
	DD	040H
	DD	imagerel ??_R3MainMenuScene@Scene@Application@@8
rdata$r	ENDS
;	COMDAT ??_R0?AVMainMenuScene@Scene@Application@@@8
data$r	SEGMENT
??_R0?AVMainMenuScene@Scene@Application@@@8 DQ FLAT:??_7type_info@@6B@ ; Application::Scene::MainMenuScene `RTTI Type Descriptor'
	DQ	0000000000000000H
	DB	'.?AVMainMenuScene@Scene@Application@@', 00H
data$r	ENDS
;	COMDAT ??_R2MainMenuScene@Scene@Application@@8
rdata$r	SEGMENT
??_R2MainMenuScene@Scene@Application@@8 DD imagerel ??_R1A@?0A@EA@MainMenuScene@Scene@Application@@8 ; Application::Scene::MainMenuScene::`RTTI Base Class Array'
	DD	imagerel ??_R1A@?0A@EA@Scene@0Application@@8
	ORG $+3
rdata$r	ENDS
;	COMDAT ??_R3MainMenuScene@Scene@Application@@8
rdata$r	SEGMENT
??_R3MainMenuScene@Scene@Application@@8 DD 00H		; Application::Scene::MainMenuScene::`RTTI Class Hierarchy Descriptor'
	DD	00H
	DD	02H
	DD	imagerel ??_R2MainMenuScene@Scene@Application@@8
rdata$r	ENDS
;	COMDAT ??_7MainMenuScene@Scene@Application@@6B@
CONST	SEGMENT
??_7MainMenuScene@Scene@Application@@6B@ DQ FLAT:??_R4MainMenuScene@Scene@Application@@6B@ ; Application::Scene::MainMenuScene::`vftable'
	DQ	FLAT:??_EMainMenuScene@Scene@Application@@UEAAPEAXI@Z
	DQ	FLAT:?OnUpdate@MainMenuScene@Scene@Application@@UEAAXM@Z
	DQ	FLAT:?OnRender@MainMenuScene@Scene@Application@@UEAAXXZ
	DQ	FLAT:?OnImGuiRender@MainMenuScene@Scene@Application@@UEAAXXZ
PUBLIC	??0?$allocator@U?$pair@PEBDV?$function@$$A6APEAVScene@1Application@@XZ@std@@@std@@@std@@QEAA@XZ ; std::allocator<std::pair<char const *,std::function<Application::Scene::Scene * __cdecl(void)> > >::allocator<std::pair<char const *,std::function<Application::Scene::Scene * __cdecl(void)> > >
PUBLIC	??0?$_Vector_val@U?$_Simple_types@U?$pair@PEBDV?$function@$$A6APEAVScene@1Application@@XZ@std@@@std@@@std@@@std@@QEAA@XZ ; std::_Vector_val<std::_Simple_types<std::pair<char const *,std::function<Application::Scene::Scene * __cdecl(void)> > > >::_Vector_val<std::_Simple_types<std::pair<char const *,std::function<Application::Scene::Scene * __cdecl(void)> > > >
PUBLIC	??$?0$$V@?$_Compressed_pair@V?$allocator@U?$pair@PEBDV?$function@$$A6APEAVScene@1Application@@XZ@std@@@std@@@std@@V?$_Vector_val@U?$_Simple_types@U?$pair@PEBDV?$function@$$A6APEAVScene@1Application@@XZ@std@@@std@@@std@@@2@$00@std@@QEAA@U_Zero_then_variadic_args_t@1@@Z ; std::_Compressed_pair<std::allocator<std::pair<char const *,std::function<Application::Scene::Scene * __cdecl(void)> > >,std::_Vector_val<std::_Simple_types<std::pair<char const *,std::function<Application::Scene::Scene * __cdecl(void)> > > >,1>::_Compressed_pair<std::allocator<std::pair<char const *,std::function<Application::Scene::Scene * __cdecl(void)> > >,std::_Vector_val<std::_Simple_types<std::pair<char const *,std::function<Application::Scene::Scene * __cdecl(void)> > > >,1><>
PUBLIC	??R?$_Func_class@PEAVScene@1Application@@$$V@std@@QEBAPEAVScene@2Application@@XZ ; std::_Func_class<Application::Scene::Scene *>::operator()
PUBLIC	?_Tidy@?$vector@U?$pair@PEBDV?$function@$$A6APEAVScene@1Application@@XZ@std@@@std@@V?$allocator@U?$pair@PEBDV?$function@$$A6APEAVScene@1Application@@XZ@std@@@std@@@2@@std@@AEAAXXZ ; std::vector<std::pair<char const *,std::function<Application::Scene::Scene * __cdecl(void)> >,std::allocator<std::pair<char const *,std::function<Application::Scene::Scene * __cdecl(void)> > > >::_Tidy
PUBLIC	??0?$_Vector_alloc@U?$_Vec_base_types@U?$pair@PEBDV?$function@$$A6APEAVScene@1Application@@XZ@std@@@std@@V?$allocator@U?$pair@PEBDV?$function@$$A6APEAVScene@1Application@@XZ@std@@@std@@@2@@std@@@std@@QEAA@XZ ; std::_Vector_alloc<std::_Vec_base_types<std::pair<char const *,std::function<Application::Scene::Scene * __cdecl(void)> >,std::allocator<std::pair<char const *,std::function<Application::Scene::Scene * __cdecl(void)> > > > >::_Vector_alloc<std::_Vec_base_types<std::pair<char const *,std::function<Application::Scene::Scene * __cdecl(void)> >,std::allocator<std::pair<char const *,std::function<Application::Scene::Scene * __cdecl(void)> > > > >
PUBLIC	??0?$vector@U?$pair@PEBDV?$function@$$A6APEAVScene@1Application@@XZ@std@@@std@@V?$allocator@U?$pair@PEBDV?$function@$$A6APEAVScene@1Application@@XZ@std@@@std@@@2@@std@@QEAA@XZ ; std::vector<std::pair<char const *,std::function<Application::Scene::Scene * __cdecl(void)> >,std::allocator<std::pair<char const *,std::function<Application::Scene::Scene * __cdecl(void)> > > >::vector<std::pair<char const *,std::function<Application::Scene::Scene * __cdecl(void)> >,std::allocator<std::pair<char const *,std::function<Application::Scene::Scene * __cdecl(void)> > > >
PUBLIC	??1?$vector@U?$pair@PEBDV?$function@$$A6APEAVScene@1Application@@XZ@std@@@std@@V?$allocator@U?$pair@PEBDV?$function@$$A6APEAVScene@1Application@@XZ@std@@@std@@@2@@std@@QEAA@XZ ; std::vector<std::pair<char const *,std::function<Application::Scene::Scene * __cdecl(void)> >,std::allocator<std::pair<char const *,std::function<Application::Scene::Scene * __cdecl(void)> > > >::~vector<std::pair<char const *,std::function<Application::Scene::Scene * __cdecl(void)> >,std::allocator<std::pair<char const *,std::function<Application::Scene::Scene * __cdecl(void)> > > >
PUBLIC	?_Unchecked_begin@?$vector@U?$pair@PEBDV?$function@$$A6APEAVScene@1Application@@XZ@std@@@std@@V?$allocator@U?$pair@PEBDV?$function@$$A6APEAVScene@1Application@@XZ@std@@@std@@@2@@std@@QEAAPEAU?$pair@PEBDV?$function@$$A6APEAVScene@1Application@@XZ@std@@@2@XZ ; std::vector<std::pair<char const *,std::function<Application::Scene::Scene * __cdecl(void)> >,std::allocator<std::pair<char const *,std::function<Application::Scene::Scene * __cdecl(void)> > > >::_Unchecked_begin
PUBLIC	?_Unchecked_end@?$vector@U?$pair@PEBDV?$function@$$A6APEAVScene@1Application@@XZ@std@@@std@@V?$allocator@U?$pair@PEBDV?$function@$$A6APEAVScene@1Application@@XZ@std@@@std@@@2@@std@@QEAAPEAU?$pair@PEBDV?$function@$$A6APEAVScene@1Application@@XZ@std@@@2@XZ ; std::vector<std::pair<char const *,std::function<Application::Scene::Scene * __cdecl(void)> >,std::allocator<std::pair<char const *,std::function<Application::Scene::Scene * __cdecl(void)> > > >::_Unchecked_end
PUBLIC	?OnImGuiRender@MainMenuScene@Scene@Application@@UEAAXXZ ; Application::Scene::MainMenuScene::OnImGuiRender
PUBLIC	?OnRender@MainMenuScene@Scene@Application@@UEAAXXZ ; Application::Scene::MainMenuScene::OnRender
PUBLIC	?OnUpdate@MainMenuScene@Scene@Application@@UEAAXM@Z ; Application::Scene::MainMenuScene::OnUpdate
PUBLIC	??_GTexture@graphics@core@@QEAAPEAXI@Z		; core::graphics::Texture::`scalar deleting destructor'
PUBLIC	??1MainMenuScene@Scene@Application@@UEAA@XZ	; Application::Scene::MainMenuScene::~MainMenuScene
PUBLIC	?__autoclassinit2@Texture@graphics@core@@QEAAX_K@Z ; core::graphics::Texture::__autoclassinit2
PUBLIC	??_GMainMenuScene@Scene@Application@@UEAAPEAXI@Z ; Application::Scene::MainMenuScene::`scalar deleting destructor'
PUBLIC	?OnReloadScene@MainMenuScene@Scene@Application@@QEAAXXZ ; Application::Scene::MainMenuScene::OnReloadScene
PUBLIC	??0MainMenuScene@Scene@Application@@QEAA@AEAPEAV112@@Z ; Application::Scene::MainMenuScene::MainMenuScene
EXTRN	??_EMainMenuScene@Scene@Application@@UEAAPEAXI@Z:PROC ; Application::Scene::MainMenuScene::`vector deleting destructor'
;	COMDAT pdata
pdata	SEGMENT
$pdata$??R?$_Func_class@PEAVScene@1Application@@$$V@std@@QEBAPEAVScene@2Application@@XZ DD imagerel $LN13@operator
	DD	imagerel $LN13@operator+31
	DD	imagerel $unwind$??R?$_Func_class@PEAVScene@1Application@@$$V@std@@QEBAPEAVScene@2Application@@XZ
pdata	ENDS
;	COMDAT pdata
pdata	SEGMENT
$pdata$?_Tidy@?$vector@U?$pair@PEBDV?$function@$$A6APEAVScene@1Application@@XZ@std@@@std@@V?$allocator@U?$pair@PEBDV?$function@$$A6APEAVScene@1Application@@XZ@std@@@std@@@2@@std@@AEAAXXZ DD imagerel $LN139@Tidy
	DD	imagerel $LN139@Tidy+228
	DD	imagerel $unwind$?_Tidy@?$vector@U?$pair@PEBDV?$function@$$A6APEAVScene@1Application@@XZ@std@@@std@@V?$allocator@U?$pair@PEBDV?$function@$$A6APEAVScene@1Application@@XZ@std@@@std@@@2@@std@@AEAAXXZ
pdata	ENDS
;	COMDAT pdata
pdata	SEGMENT
$pdata$??1?$vector@U?$pair@PEBDV?$function@$$A6APEAVScene@1Application@@XZ@std@@@std@@V?$allocator@U?$pair@PEBDV?$function@$$A6APEAVScene@1Application@@XZ@std@@@std@@@2@@std@@QEAA@XZ DD imagerel $LN142@vector
	DD	imagerel $LN142@vector+230
	DD	imagerel $unwind$??1?$vector@U?$pair@PEBDV?$function@$$A6APEAVScene@1Application@@XZ@std@@@std@@V?$allocator@U?$pair@PEBDV?$function@$$A6APEAVScene@1Application@@XZ@std@@@std@@@2@@std@@QEAA@XZ
pdata	ENDS
;	COMDAT pdata
pdata	SEGMENT
$pdata$?OnImGuiRender@MainMenuScene@Scene@Application@@UEAAXXZ DD imagerel $LN46@OnImGuiRen
	DD	imagerel $LN46@OnImGuiRen+178
	DD	imagerel $unwind$?OnImGuiRender@MainMenuScene@Scene@Application@@UEAAXXZ
pdata	ENDS
;	COMDAT pdata
pdata	SEGMENT
$pdata$?OnRender@MainMenuScene@Scene@Application@@UEAAXXZ DD imagerel $LN10@OnRender
	DD	imagerel $LN10@OnRender+92
	DD	imagerel $unwind$?OnRender@MainMenuScene@Scene@Application@@UEAAXXZ
pdata	ENDS
;	COMDAT pdata
pdata	SEGMENT
$pdata$??_GTexture@graphics@core@@QEAAPEAXI@Z DD imagerel $LN67@scalar
	DD	imagerel $LN67@scalar+154
	DD	imagerel $unwind$??_GTexture@graphics@core@@QEAAPEAXI@Z
pdata	ENDS
;	COMDAT pdata
pdata	SEGMENT
$pdata$??1MainMenuScene@Scene@Application@@UEAA@XZ DD imagerel $LN183@MainMenuSc
	DD	imagerel $LN183@MainMenuSc+451
	DD	imagerel $unwind$??1MainMenuScene@Scene@Application@@UEAA@XZ
pdata	ENDS
;	COMDAT pdata
pdata	SEGMENT
$pdata$??_GMainMenuScene@Scene@Application@@UEAAPEAXI@Z DD imagerel $LN7@scalar
	DD	imagerel $LN7@scalar+52
	DD	imagerel $unwind$??_GMainMenuScene@Scene@Application@@UEAAPEAXI@Z
pdata	ENDS
;	COMDAT pdata
pdata	SEGMENT
$pdata$?OnReloadScene@MainMenuScene@Scene@Application@@QEAAXXZ DD imagerel $LN45@OnReloadSc
	DD	imagerel $LN45@OnReloadSc+279
	DD	imagerel $unwind$?OnReloadScene@MainMenuScene@Scene@Application@@QEAAXXZ
pdata	ENDS
;	COMDAT pdata
pdata	SEGMENT
$pdata$??0MainMenuScene@Scene@Application@@QEAA@AEAPEAV112@@Z DD imagerel $LN472@MainMenuSc
	DD	imagerel $LN472@MainMenuSc+1081
	DD	imagerel $unwind$??0MainMenuScene@Scene@Application@@QEAA@AEAPEAV112@@Z
pdata	ENDS
;	COMDAT pdata
pdata	SEGMENT
$pdata$?dtor$2@?0???0MainMenuScene@Scene@Application@@QEAA@AEAPEAV112@@Z@4HA DD imagerel ?dtor$2@?0???0MainMenuScene@Scene@Application@@QEAA@AEAPEAV112@@Z@4HA
	DD	imagerel ?dtor$2@?0???0MainMenuScene@Scene@Application@@QEAA@AEAPEAV112@@Z@4HA+29
	DD	imagerel $unwind$?dtor$2@?0???0MainMenuScene@Scene@Application@@QEAA@AEAPEAV112@@Z@4HA
pdata	ENDS
;	COMDAT pdata
pdata	SEGMENT
$pdata$?dtor$3@?0???0MainMenuScene@Scene@Application@@QEAA@AEAPEAV112@@Z@4HA DD imagerel ?dtor$3@?0???0MainMenuScene@Scene@Application@@QEAA@AEAPEAV112@@Z@4HA
	DD	imagerel ?dtor$3@?0???0MainMenuScene@Scene@Application@@QEAA@AEAPEAV112@@Z@4HA+29
	DD	imagerel $unwind$?dtor$3@?0???0MainMenuScene@Scene@Application@@QEAA@AEAPEAV112@@Z@4HA
pdata	ENDS
;	COMDAT pdata
pdata	SEGMENT
$pdata$?dtor$4@?0???0MainMenuScene@Scene@Application@@QEAA@AEAPEAV112@@Z@4HA DD imagerel ?dtor$4@?0???0MainMenuScene@Scene@Application@@QEAA@AEAPEAV112@@Z@4HA
	DD	imagerel ?dtor$4@?0???0MainMenuScene@Scene@Application@@QEAA@AEAPEAV112@@Z@4HA+29
	DD	imagerel $unwind$?dtor$4@?0???0MainMenuScene@Scene@Application@@QEAA@AEAPEAV112@@Z@4HA
pdata	ENDS
;	COMDAT pdata
pdata	SEGMENT
$pdata$?dtor$6@?0???0MainMenuScene@Scene@Application@@QEAA@AEAPEAV112@@Z@4HA DD imagerel ?dtor$6@?0???0MainMenuScene@Scene@Application@@QEAA@AEAPEAV112@@Z@4HA
	DD	imagerel ?dtor$6@?0???0MainMenuScene@Scene@Application@@QEAA@AEAPEAV112@@Z@4HA+29
	DD	imagerel $unwind$?dtor$6@?0???0MainMenuScene@Scene@Application@@QEAA@AEAPEAV112@@Z@4HA
pdata	ENDS
;	COMDAT pdata
pdata	SEGMENT
$pdata$?dtor$7@?0???0MainMenuScene@Scene@Application@@QEAA@AEAPEAV112@@Z@4HA DD imagerel ?dtor$7@?0???0MainMenuScene@Scene@Application@@QEAA@AEAPEAV112@@Z@4HA
	DD	imagerel ?dtor$7@?0???0MainMenuScene@Scene@Application@@QEAA@AEAPEAV112@@Z@4HA+38
	DD	imagerel $unwind$?dtor$7@?0???0MainMenuScene@Scene@Application@@QEAA@AEAPEAV112@@Z@4HA
pdata	ENDS
;	COMDAT pdata
pdata	SEGMENT
$pdata$?dtor$8@?0???0MainMenuScene@Scene@Application@@QEAA@AEAPEAV112@@Z@4HA DD imagerel ?dtor$8@?0???0MainMenuScene@Scene@Application@@QEAA@AEAPEAV112@@Z@4HA
	DD	imagerel ?dtor$8@?0???0MainMenuScene@Scene@Application@@QEAA@AEAPEAV112@@Z@4HA+29
	DD	imagerel $unwind$?dtor$8@?0???0MainMenuScene@Scene@Application@@QEAA@AEAPEAV112@@Z@4HA
pdata	ENDS
;	COMDAT pdata
pdata	SEGMENT
$pdata$?dtor$10@?0???0MainMenuScene@Scene@Application@@QEAA@AEAPEAV112@@Z@4HA DD imagerel ?dtor$10@?0???0MainMenuScene@Scene@Application@@QEAA@AEAPEAV112@@Z@4HA
	DD	imagerel ?dtor$10@?0???0MainMenuScene@Scene@Application@@QEAA@AEAPEAV112@@Z@4HA+29
	DD	imagerel $unwind$?dtor$10@?0???0MainMenuScene@Scene@Application@@QEAA@AEAPEAV112@@Z@4HA
;	COMDAT xdata
xdata	SEGMENT
$unwind$?dtor$10@?0???0MainMenuScene@Scene@Application@@QEAA@AEAPEAV112@@Z@4HA DD 020601H
	DD	050023206H
xdata	ENDS
;	COMDAT xdata
xdata	SEGMENT
$unwind$?dtor$8@?0???0MainMenuScene@Scene@Application@@QEAA@AEAPEAV112@@Z@4HA DD 020601H
	DD	050023206H
xdata	ENDS
;	COMDAT xdata
xdata	SEGMENT
$unwind$?dtor$7@?0???0MainMenuScene@Scene@Application@@QEAA@AEAPEAV112@@Z@4HA DD 020601H
	DD	050023206H
xdata	ENDS
;	COMDAT xdata
xdata	SEGMENT
$unwind$?dtor$6@?0???0MainMenuScene@Scene@Application@@QEAA@AEAPEAV112@@Z@4HA DD 020601H
	DD	050023206H
xdata	ENDS
;	COMDAT xdata
xdata	SEGMENT
$unwind$?dtor$4@?0???0MainMenuScene@Scene@Application@@QEAA@AEAPEAV112@@Z@4HA DD 020601H
	DD	050023206H
xdata	ENDS
;	COMDAT xdata
xdata	SEGMENT
$unwind$?dtor$3@?0???0MainMenuScene@Scene@Application@@QEAA@AEAPEAV112@@Z@4HA DD 020601H
	DD	050023206H
xdata	ENDS
;	COMDAT xdata
xdata	SEGMENT
$unwind$?dtor$2@?0???0MainMenuScene@Scene@Application@@QEAA@AEAPEAV112@@Z@4HA DD 020601H
	DD	050023206H
xdata	ENDS
;	COMDAT xdata
xdata	SEGMENT
$ip2state$??0MainMenuScene@Scene@Application@@QEAA@AEAPEAV112@@Z DD imagerel ??0MainMenuScene@Scene@Application@@QEAA@AEAPEAV112@@Z+118
	DD	01H
	DD	imagerel ??0MainMenuScene@Scene@Application@@QEAA@AEAPEAV112@@Z+143
	DD	02H
	DD	imagerel ??0MainMenuScene@Scene@Application@@QEAA@AEAPEAV112@@Z+208
	DD	01H
	DD	imagerel ??0MainMenuScene@Scene@Application@@QEAA@AEAPEAV112@@Z+233
	DD	03H
	DD	imagerel ??0MainMenuScene@Scene@Application@@QEAA@AEAPEAV112@@Z+280
	DD	01H
	DD	imagerel ??0MainMenuScene@Scene@Application@@QEAA@AEAPEAV112@@Z+331
	DD	04H
	DD	imagerel ??0MainMenuScene@Scene@Application@@QEAA@AEAPEAV112@@Z+400
	DD	01H
	DD	imagerel ??0MainMenuScene@Scene@Application@@QEAA@AEAPEAV112@@Z+601
	DD	05H
	DD	imagerel ??0MainMenuScene@Scene@Application@@QEAA@AEAPEAV112@@Z+640
	DD	06H
	DD	imagerel ??0MainMenuScene@Scene@Application@@QEAA@AEAPEAV112@@Z+660
	DD	07H
	DD	imagerel ??0MainMenuScene@Scene@Application@@QEAA@AEAPEAV112@@Z+731
	DD	01H
	DD	imagerel ??0MainMenuScene@Scene@Application@@QEAA@AEAPEAV112@@Z+806
	DD	08H
	DD	imagerel ??0MainMenuScene@Scene@Application@@QEAA@AEAPEAV112@@Z+824
	DD	01H
	DD	imagerel ??0MainMenuScene@Scene@Application@@QEAA@AEAPEAV112@@Z+845
	DD	09H
	DD	imagerel ??0MainMenuScene@Scene@Application@@QEAA@AEAPEAV112@@Z+926
	DD	01H
	DD	imagerel ??0MainMenuScene@Scene@Application@@QEAA@AEAPEAV112@@Z+1041
	DD	0ffffffffH
xdata	ENDS
;	COMDAT xdata
xdata	SEGMENT
$stateUnwindMap$??0MainMenuScene@Scene@Application@@QEAA@AEAPEAV112@@Z DD 0ffffffffH
	DD	imagerel ?dtor$0@?0???0MainMenuScene@Scene@Application@@QEAA@AEAPEAV112@@Z@4HA
	DD	00H
	DD	imagerel ?dtor$1@?0???0MainMenuScene@Scene@Application@@QEAA@AEAPEAV112@@Z@4HA
	DD	01H
	DD	imagerel ?dtor$2@?0???0MainMenuScene@Scene@Application@@QEAA@AEAPEAV112@@Z@4HA
	DD	01H
	DD	imagerel ?dtor$3@?0???0MainMenuScene@Scene@Application@@QEAA@AEAPEAV112@@Z@4HA
	DD	01H
	DD	imagerel ?dtor$4@?0???0MainMenuScene@Scene@Application@@QEAA@AEAPEAV112@@Z@4HA
	DD	01H
	DD	imagerel ?dtor$6@?0???0MainMenuScene@Scene@Application@@QEAA@AEAPEAV112@@Z@4HA
	DD	05H
	DD	imagerel ?dtor$7@?0???0MainMenuScene@Scene@Application@@QEAA@AEAPEAV112@@Z@4HA
	DD	01H
	DD	imagerel ?dtor$7@?0???0MainMenuScene@Scene@Application@@QEAA@AEAPEAV112@@Z@4HA
	DD	01H
	DD	imagerel ?dtor$8@?0???0MainMenuScene@Scene@Application@@QEAA@AEAPEAV112@@Z@4HA
	DD	01H
	DD	imagerel ?dtor$10@?0???0MainMenuScene@Scene@Application@@QEAA@AEAPEAV112@@Z@4HA
xdata	ENDS
;	COMDAT CONST
CONST	SEGMENT
$cppxdata$??0MainMenuScene@Scene@Application@@QEAA@AEAPEAV112@@Z DQ 00000000a19930522r ; 2.14319e-313
	DD	imagerel $stateUnwindMap$??0MainMenuScene@Scene@Application@@QEAA@AEAPEAV112@@Z
	DQ	00000000000000000r		; 0
	DD	010H
	DD	imagerel $ip2state$??0MainMenuScene@Scene@Application@@QEAA@AEAPEAV112@@Z
	DQ	00000000000000058r		; 4.34778e-322
	DD	01H
CONST	ENDS
;	COMDAT xdata
xdata	SEGMENT
$unwind$??0MainMenuScene@Scene@Application@@QEAA@AEAPEAV112@@Z DD 093119H
	DD	0217423H
	DD	020641fH
	DD	01f341bH
	DD	01c010fH
	DD	05004H
	DD	imagerel __GSHandlerCheck_EH
	DD	imagerel $cppxdata$??0MainMenuScene@Scene@Application@@QEAA@AEAPEAV112@@Z
	DD	0d2H
xdata	ENDS
;	COMDAT xdata
xdata	SEGMENT
$unwind$?OnReloadScene@MainMenuScene@Scene@Application@@QEAAXXZ DD 040a01H
	DD	06340aH
	DD	07006320aH
xdata	ENDS
;	COMDAT xdata
xdata	SEGMENT
$unwind$??_GMainMenuScene@Scene@Application@@UEAAPEAXI@Z DD 040a01H
	DD	06340aH
	DD	07006320aH
xdata	ENDS
;	COMDAT xdata
xdata	SEGMENT
$ip2state$??1MainMenuScene@Scene@Application@@UEAA@XZ DD imagerel ??1MainMenuScene@Scene@Application@@UEAA@XZ+65
	DD	00H
	DD	imagerel ??1MainMenuScene@Scene@Application@@UEAA@XZ+109
	DD	0ffffffffH
	DD	imagerel ??1MainMenuScene@Scene@Application@@UEAA@XZ+147
	DD	00H
	DD	imagerel ??1MainMenuScene@Scene@Application@@UEAA@XZ+215
	DD	0ffffffffH
	DD	imagerel ??1MainMenuScene@Scene@Application@@UEAA@XZ+294
	DD	00H
xdata	ENDS
;	COMDAT xdata
xdata	SEGMENT
$stateUnwindMap$??1MainMenuScene@Scene@Application@@UEAA@XZ DD 0ffffffffH
	DD	imagerel __std_terminate
xdata	ENDS
;	COMDAT CONST
CONST	SEGMENT
$cppxdata$??1MainMenuScene@Scene@Application@@UEAA@XZ DQ 00000000119930522r ; 2.33398e-314
	DD	imagerel $stateUnwindMap$??1MainMenuScene@Scene@Application@@UEAA@XZ
	DQ	00000000000000000r		; 0
	DD	05H
	DD	imagerel $ip2state$??1MainMenuScene@Scene@Application@@UEAA@XZ
	DQ	00000000000000020r		; 1.58101e-322
	DD	05H
CONST	ENDS
;	COMDAT xdata
xdata	SEGMENT
$unwind$??1MainMenuScene@Scene@Application@@UEAA@XZ DD 081c19H
	DD	0c541cH
	DD	0b3417H
	DD	0e0055209H
	DD	060027003H
	DD	imagerel __CxxFrameHandler3
	DD	imagerel $cppxdata$??1MainMenuScene@Scene@Application@@UEAA@XZ
xdata	ENDS
;	COMDAT xdata
xdata	SEGMENT
$unwind$??_GTexture@graphics@core@@QEAAPEAXI@Z DD 020601H
	DD	030023206H
xdata	ENDS
;	COMDAT xdata
xdata	SEGMENT
$unwind$?OnRender@MainMenuScene@Scene@Application@@UEAAXXZ DD 041901H
	DD	026819H
	DD	030025206H
xdata	ENDS
;	COMDAT xdata
xdata	SEGMENT
$unwind$?OnImGuiRender@MainMenuScene@Scene@Application@@UEAAXXZ DD 060f01H
	DD	0a640fH
	DD	09340fH
	DD	0700b520fH
xdata	ENDS
;	COMDAT xdata
xdata	SEGMENT
$ip2state$??1?$vector@U?$pair@PEBDV?$function@$$A6APEAVScene@1Application@@XZ@std@@@std@@V?$allocator@U?$pair@PEBDV?$function@$$A6APEAVScene@1Application@@XZ@std@@@std@@@2@@std@@QEAA@XZ DD imagerel ??1?$vector@U?$pair@PEBDV?$function@$$A6APEAVScene@1Application@@XZ@std@@@std@@V?$allocator@U?$pair@PEBDV?$function@$$A6APEAVScene@1Application@@XZ@std@@@std@@@2@@std@@QEAA@XZ+85
	DD	00H
xdata	ENDS
;	COMDAT xdata
xdata	SEGMENT
$stateUnwindMap$??1?$vector@U?$pair@PEBDV?$function@$$A6APEAVScene@1Application@@XZ@std@@@std@@V?$allocator@U?$pair@PEBDV?$function@$$A6APEAVScene@1Application@@XZ@std@@@std@@@2@@std@@QEAA@XZ DD 0ffffffffH
	DD	imagerel __std_terminate
xdata	ENDS
;	COMDAT CONST
CONST	SEGMENT
$cppxdata$??1?$vector@U?$pair@PEBDV?$function@$$A6APEAVScene@1Application@@XZ@std@@@std@@V?$allocator@U?$pair@PEBDV?$function@$$A6APEAVScene@1Application@@XZ@std@@@std@@@2@@std@@QEAA@XZ DQ 00000000119930522r ; 2.33398e-314
	DD	imagerel $stateUnwindMap$??1?$vector@U?$pair@PEBDV?$function@$$A6APEAVScene@1Application@@XZ@std@@@std@@V?$allocator@U?$pair@PEBDV?$function@$$A6APEAVScene@1Application@@XZ@std@@@std@@@2@@std@@QEAA@XZ
	DQ	00000000000000000r		; 0
	DD	01H
	DD	imagerel $ip2state$??1?$vector@U?$pair@PEBDV?$function@$$A6APEAVScene@1Application@@XZ@std@@@std@@V?$allocator@U?$pair@PEBDV?$function@$$A6APEAVScene@1Application@@XZ@std@@@std@@@2@@std@@QEAA@XZ
	DQ	00000000000000020r		; 1.58101e-322
	DD	05H
CONST	ENDS
;	COMDAT xdata
xdata	SEGMENT
$unwind$??1?$vector@U?$pair@PEBDV?$function@$$A6APEAVScene@1Application@@XZ@std@@@std@@V?$allocator@U?$pair@PEBDV?$function@$$A6APEAVScene@1Application@@XZ@std@@@std@@@2@@std@@QEAA@XZ DD 081c19H
	DD	0c541cH
	DD	0b3417H
	DD	0e0055209H
	DD	060027003H
	DD	imagerel __CxxFrameHandler3
	DD	imagerel $cppxdata$??1?$vector@U?$pair@PEBDV?$function@$$A6APEAVScene@1Application@@XZ@std@@@std@@V?$allocator@U?$pair@PEBDV?$function@$$A6APEAVScene@1Application@@XZ@std@@@std@@@2@@std@@QEAA@XZ
xdata	ENDS
;	COMDAT xdata
xdata	SEGMENT
$ip2state$?_Tidy@?$vector@U?$pair@PEBDV?$function@$$A6APEAVScene@1Application@@XZ@std@@@std@@V?$allocator@U?$pair@PEBDV?$function@$$A6APEAVScene@1Application@@XZ@std@@@std@@@2@@std@@AEAAXXZ DD imagerel ?_Tidy@?$vector@U?$pair@PEBDV?$function@$$A6APEAVScene@1Application@@XZ@std@@@std@@V?$allocator@U?$pair@PEBDV?$function@$$A6APEAVScene@1Application@@XZ@std@@@std@@@2@@std@@AEAAXXZ+85
	DD	00H
xdata	ENDS
;	COMDAT xdata
xdata	SEGMENT
$stateUnwindMap$?_Tidy@?$vector@U?$pair@PEBDV?$function@$$A6APEAVScene@1Application@@XZ@std@@@std@@V?$allocator@U?$pair@PEBDV?$function@$$A6APEAVScene@1Application@@XZ@std@@@std@@@2@@std@@AEAAXXZ DD 0ffffffffH
	DD	imagerel __std_terminate
xdata	ENDS
;	COMDAT CONST
CONST	SEGMENT
$cppxdata$?_Tidy@?$vector@U?$pair@PEBDV?$function@$$A6APEAVScene@1Application@@XZ@std@@@std@@V?$allocator@U?$pair@PEBDV?$function@$$A6APEAVScene@1Application@@XZ@std@@@std@@@2@@std@@AEAAXXZ DQ 00000000119930522r ; 2.33398e-314
	DD	imagerel $stateUnwindMap$?_Tidy@?$vector@U?$pair@PEBDV?$function@$$A6APEAVScene@1Application@@XZ@std@@@std@@V?$allocator@U?$pair@PEBDV?$function@$$A6APEAVScene@1Application@@XZ@std@@@std@@@2@@std@@AEAAXXZ
	DQ	00000000000000000r		; 0
	DD	01H
	DD	imagerel $ip2state$?_Tidy@?$vector@U?$pair@PEBDV?$function@$$A6APEAVScene@1Application@@XZ@std@@@std@@V?$allocator@U?$pair@PEBDV?$function@$$A6APEAVScene@1Application@@XZ@std@@@std@@@2@@std@@AEAAXXZ
	DQ	00000000000000020r		; 1.58101e-322
	DD	01H
CONST	ENDS
;	COMDAT xdata
xdata	SEGMENT
$unwind$?_Tidy@?$vector@U?$pair@PEBDV?$function@$$A6APEAVScene@1Application@@XZ@std@@@std@@V?$allocator@U?$pair@PEBDV?$function@$$A6APEAVScene@1Application@@XZ@std@@@std@@@2@@std@@AEAAXXZ DD 081c11H
	DD	0c541cH
	DD	0b3417H
	DD	0e0055209H
	DD	060027003H
	DD	imagerel __CxxFrameHandler3
	DD	imagerel $cppxdata$?_Tidy@?$vector@U?$pair@PEBDV?$function@$$A6APEAVScene@1Application@@XZ@std@@@std@@V?$allocator@U?$pair@PEBDV?$function@$$A6APEAVScene@1Application@@XZ@std@@@std@@@2@@std@@AEAAXXZ
xdata	ENDS
;	COMDAT xdata
xdata	SEGMENT
$unwind$??R?$_Func_class@PEAVScene@1Application@@$$V@std@@QEBAPEAVScene@2Application@@XZ DD 010401H
	DD	04204H
END
