; Listing generated by Microsoft (R) Optimizing Compiler Version 19.14.26433.0 

include listing.inc

INCLUDELIB OLDNAMES

PUBLIC	??_C@_0BO@FHPINEDD@res?1shaders?1Mandelbrot?4shader?$AA@ ; `string'
PUBLIC	??_C@_08KJKODJKB@max_iter?$AA@			; `string'
PUBLIC	??_C@_0BF@OFOMGDGN@res?1textures?1pal?4png?$AA@	; `string'
PUBLIC	??_C@_07JKIHKJOO@palette?$AA@			; `string'
PUBLIC	??_C@_02ILJGCOMJ@vC?$AA@			; `string'
PUBLIC	??_C@_08MMFBID@vMaxIter?$AA@			; `string'
PUBLIC	??_C@_0BB@EDPHFHLG@Filled?5Julia?5Set?$AA@	; `string'
PUBLIC	??_C@_04DNPGJOMD@flag?$AA@			; `string'
PUBLIC	??_C@_05FDINCMKF@Angle?$AA@			; `string'
PUBLIC	??_C@_0N@HJABLJFE@Rotate?5Speed?$AA@		; `string'
PUBLIC	??_C@_06GJMFONGK@Radius?$AA@			; `string'
PUBLIC	??_C@_0M@KMMFPJGJ@Auto?5Rotate?$AA@		; `string'
PUBLIC	??_C@_0BA@LHLHABPO@Iteration?5Depth?$AA@	; `string'
PUBLIC	??_C@_0O@HMEGAKPC@Zoom?5Controls?$AA@		; `string'
PUBLIC	??_C@_09KMILOHFO@Translate?$AA@			; `string'
PUBLIC	??_C@_04LLODKBCK@Zoom?$AA@			; `string'
PUBLIC	??_C@_09HEPHCBF@Auto?5Zoom?$AA@			; `string'
PUBLIC	??_C@_1JE@CKCLFEGN@?$AAf?$AA?3?$AA?2?$AAd?$AAe?$AAv?$AA?2?$AAf?$AAe?$AAa?$AAt?$AAh?$AAe?$AAr?$AAf?$AAa?$AAl?$AAl?$AAe?$AAn?$AAg?$AAi?$AAn?$AAe?$AA?2?$AAd?$AAe?$AAp?$AAe?$AAn?$AAd?$AAs@ ; `string'
PUBLIC	??_R2MandelbrotScene@Scene@Application@@8	; Application::Scene::MandelbrotScene::`RTTI Base Class Array'
PUBLIC	??_R4MandelbrotScene@Scene@Application@@6B@	; Application::Scene::MandelbrotScene::`RTTI Complete Object Locator'
PUBLIC	??_R0?AVMandelbrotScene@Scene@Application@@@8	; Application::Scene::MandelbrotScene `RTTI Type Descriptor'
PUBLIC	??_R1A@?0A@EA@MandelbrotScene@Scene@Application@@8 ; Application::Scene::MandelbrotScene::`RTTI Base Class Descriptor at (0,-1,0,64)'
PUBLIC	??_R3MandelbrotScene@Scene@Application@@8	; Application::Scene::MandelbrotScene::`RTTI Class Hierarchy Descriptor'
PUBLIC	??_7MandelbrotScene@Scene@Application@@6B@	; Application::Scene::MandelbrotScene::`vftable'
EXTRN	_Init_thread_header:PROC
EXTRN	_Init_thread_footer:PROC
EXTRN	_Init_thread_epoch:DWORD
;	COMDAT ?acc@?4??OnUpdate@MandelbrotScene@Scene@Application@@UEAAXM@Z@4MA
CONST	SEGMENT
?acc@?4??OnUpdate@MandelbrotScene@Scene@Application@@UEAAXM@Z@4MA DD 03dcccccdr ; 0.1 ; `Application::Scene::MandelbrotScene::OnUpdate'::`5'::acc
CONST	ENDS
;	COMDAT ??_7MandelbrotScene@Scene@Application@@6B@
CONST	SEGMENT
??_7MandelbrotScene@Scene@Application@@6B@ DQ FLAT:??_R4MandelbrotScene@Scene@Application@@6B@ ; Application::Scene::MandelbrotScene::`vftable'
	DQ	FLAT:??_EMandelbrotScene@Scene@Application@@UEAAPEAXI@Z
	DQ	FLAT:?OnUpdate@MandelbrotScene@Scene@Application@@UEAAXM@Z
	DQ	FLAT:?OnRender@MandelbrotScene@Scene@Application@@UEAAXXZ
	DQ	FLAT:?OnImGuiRender@MandelbrotScene@Scene@Application@@UEAAXXZ
CONST	ENDS
;	COMDAT ??_R3MandelbrotScene@Scene@Application@@8
rdata$r	SEGMENT
??_R3MandelbrotScene@Scene@Application@@8 DD 00H	; Application::Scene::MandelbrotScene::`RTTI Class Hierarchy Descriptor'
	DD	00H
	DD	02H
	DD	imagerel ??_R2MandelbrotScene@Scene@Application@@8
rdata$r	ENDS
;	COMDAT ??_R1A@?0A@EA@MandelbrotScene@Scene@Application@@8
rdata$r	SEGMENT
??_R1A@?0A@EA@MandelbrotScene@Scene@Application@@8 DD imagerel ??_R0?AVMandelbrotScene@Scene@Application@@@8 ; Application::Scene::MandelbrotScene::`RTTI Base Class Descriptor at (0,-1,0,64)'
	DD	01H
	DD	00H
	DD	0ffffffffH
	DD	00H
	DD	040H
	DD	imagerel ??_R3MandelbrotScene@Scene@Application@@8
rdata$r	ENDS
;	COMDAT ??_R0?AVMandelbrotScene@Scene@Application@@@8
data$r	SEGMENT
??_R0?AVMandelbrotScene@Scene@Application@@@8 DQ FLAT:??_7type_info@@6B@ ; Application::Scene::MandelbrotScene `RTTI Type Descriptor'
	DQ	0000000000000000H
	DB	'.?AVMandelbrotScene@Scene@Application@@', 00H
data$r	ENDS
;	COMDAT ??_R4MandelbrotScene@Scene@Application@@6B@
rdata$r	SEGMENT
??_R4MandelbrotScene@Scene@Application@@6B@ DD 01H	; Application::Scene::MandelbrotScene::`RTTI Complete Object Locator'
	DD	00H
	DD	00H
	DD	imagerel ??_R0?AVMandelbrotScene@Scene@Application@@@8
	DD	imagerel ??_R3MandelbrotScene@Scene@Application@@8
	DD	imagerel ??_R4MandelbrotScene@Scene@Application@@6B@
rdata$r	ENDS
;	COMDAT ??_R2MandelbrotScene@Scene@Application@@8
rdata$r	SEGMENT
??_R2MandelbrotScene@Scene@Application@@8 DD imagerel ??_R1A@?0A@EA@MandelbrotScene@Scene@Application@@8 ; Application::Scene::MandelbrotScene::`RTTI Base Class Array'
	DD	imagerel ??_R1A@?0A@EA@Scene@0Application@@8
	ORG $+3
rdata$r	ENDS
;	COMDAT ??_C@_1JE@CKCLFEGN@?$AAf?$AA?3?$AA?2?$AAd?$AAe?$AAv?$AA?2?$AAf?$AAe?$AAa?$AAt?$AAh?$AAe?$AAr?$AAf?$AAa?$AAl?$AAl?$AAe?$AAn?$AAg?$AAi?$AAn?$AAe?$AA?2?$AAd?$AAe?$AAp?$AAe?$AAn?$AAd?$AAs@
CONST	SEGMENT
??_C@_1JE@CKCLFEGN@?$AAf?$AA?3?$AA?2?$AAd?$AAe?$AAv?$AA?2?$AAf?$AAe?$AAa?$AAt?$AAh?$AAe?$AAr?$AAf?$AAa?$AAl?$AAl?$AAe?$AAn?$AAg?$AAi?$AAn?$AAe?$AA?2?$AAd?$AAe?$AAp?$AAe?$AAn?$AAd?$AAs@ DB 'f'
	DB	00H, ':', 00H, '\', 00H, 'd', 00H, 'e', 00H, 'v', 00H, '\', 00H
	DB	'f', 00H, 'e', 00H, 'a', 00H, 't', 00H, 'h', 00H, 'e', 00H, 'r'
	DB	00H, 'f', 00H, 'a', 00H, 'l', 00H, 'l', 00H, 'e', 00H, 'n', 00H
	DB	'g', 00H, 'i', 00H, 'n', 00H, 'e', 00H, '\', 00H, 'd', 00H, 'e'
	DB	00H, 'p', 00H, 'e', 00H, 'n', 00H, 'd', 00H, 's', 00H, '\', 00H
	DB	'i', 00H, 'n', 00H, 's', 00H, 't', 00H, 'a', 00H, 'l', 00H, 'l'
	DB	00H, '\', 00H, 'i', 00H, 'n', 00H, 'c', 00H, 'l', 00H, 'u', 00H
	DB	'd', 00H, 'e', 00H, '\', 00H, 'g', 00H, 'l', 00H, 'm', 00H, '\'
	DB	00H, 'd', 00H, 'e', 00H, 't', 00H, 'a', 00H, 'i', 00H, 'l', 00H
	DB	'\', 00H, 't', 00H, 'y', 00H, 'p', 00H, 'e', 00H, '_', 00H, 'v'
	DB	00H, 'e', 00H, 'c', 00H, '3', 00H, '.', 00H, 'i', 00H, 'n', 00H
	DB	'l', 00H, 00H, 00H				; `string'
CONST	ENDS
;	COMDAT ??_C@_09HEPHCBF@Auto?5Zoom?$AA@
CONST	SEGMENT
??_C@_09HEPHCBF@Auto?5Zoom?$AA@ DB 'Auto Zoom', 00H	; `string'
CONST	ENDS
;	COMDAT ??_C@_04LLODKBCK@Zoom?$AA@
CONST	SEGMENT
??_C@_04LLODKBCK@Zoom?$AA@ DB 'Zoom', 00H		; `string'
CONST	ENDS
;	COMDAT ??_C@_09KMILOHFO@Translate?$AA@
CONST	SEGMENT
??_C@_09KMILOHFO@Translate?$AA@ DB 'Translate', 00H	; `string'
CONST	ENDS
;	COMDAT ??_C@_0O@HMEGAKPC@Zoom?5Controls?$AA@
CONST	SEGMENT
??_C@_0O@HMEGAKPC@Zoom?5Controls?$AA@ DB 'Zoom Controls', 00H ; `string'
CONST	ENDS
;	COMDAT ??_C@_0BA@LHLHABPO@Iteration?5Depth?$AA@
CONST	SEGMENT
??_C@_0BA@LHLHABPO@Iteration?5Depth?$AA@ DB 'Iteration Depth', 00H ; `string'
CONST	ENDS
;	COMDAT ??_C@_0M@KMMFPJGJ@Auto?5Rotate?$AA@
CONST	SEGMENT
??_C@_0M@KMMFPJGJ@Auto?5Rotate?$AA@ DB 'Auto Rotate', 00H ; `string'
CONST	ENDS
;	COMDAT ??_C@_06GJMFONGK@Radius?$AA@
CONST	SEGMENT
??_C@_06GJMFONGK@Radius?$AA@ DB 'Radius', 00H		; `string'
CONST	ENDS
;	COMDAT ??_C@_0N@HJABLJFE@Rotate?5Speed?$AA@
CONST	SEGMENT
??_C@_0N@HJABLJFE@Rotate?5Speed?$AA@ DB 'Rotate Speed', 00H ; `string'
CONST	ENDS
;	COMDAT ??_C@_05FDINCMKF@Angle?$AA@
CONST	SEGMENT
??_C@_05FDINCMKF@Angle?$AA@ DB 'Angle', 00H		; `string'
CONST	ENDS
;	COMDAT ??_C@_04DNPGJOMD@flag?$AA@
CONST	SEGMENT
??_C@_04DNPGJOMD@flag?$AA@ DB 'flag', 00H		; `string'
CONST	ENDS
;	COMDAT ??_C@_0BB@EDPHFHLG@Filled?5Julia?5Set?$AA@
CONST	SEGMENT
??_C@_0BB@EDPHFHLG@Filled?5Julia?5Set?$AA@ DB 'Filled Julia Set', 00H ; `string'
CONST	ENDS
;	COMDAT ??_C@_08MMFBID@vMaxIter?$AA@
CONST	SEGMENT
??_C@_08MMFBID@vMaxIter?$AA@ DB 'vMaxIter', 00H		; `string'
CONST	ENDS
;	COMDAT ??_C@_02ILJGCOMJ@vC?$AA@
CONST	SEGMENT
??_C@_02ILJGCOMJ@vC?$AA@ DB 'vC', 00H			; `string'
CONST	ENDS
;	COMDAT ??_C@_07JKIHKJOO@palette?$AA@
CONST	SEGMENT
??_C@_07JKIHKJOO@palette?$AA@ DB 'palette', 00H		; `string'
CONST	ENDS
;	COMDAT ??_C@_0BF@OFOMGDGN@res?1textures?1pal?4png?$AA@
CONST	SEGMENT
??_C@_0BF@OFOMGDGN@res?1textures?1pal?4png?$AA@ DB 'res/textures/pal.png', 00H ; `string'
CONST	ENDS
;	COMDAT ??_C@_08KJKODJKB@max_iter?$AA@
CONST	SEGMENT
??_C@_08KJKODJKB@max_iter?$AA@ DB 'max_iter', 00H	; `string'
CONST	ENDS
;	COMDAT ??_C@_0BO@FHPINEDD@res?1shaders?1Mandelbrot?4shader?$AA@
CONST	SEGMENT
??_C@_0BO@FHPINEDD@res?1shaders?1Mandelbrot?4shader?$AA@ DB 'res/shaders/'
	DB	'Mandelbrot.shader', 00H			; `string'
PUBLIC	?length@?$tvec3@M$0A@@glm@@SAHXZ		; glm::tvec3<float,0>::length
PUBLIC	??A?$tvec3@M$0A@@glm@@QEBAAEBMH@Z		; glm::tvec3<float,0>::operator[]
PUBLIC	??$scale@M$0A@@glm@@YA?AU?$tmat4x4@M$0A@@0@AEBU10@AEBU?$tvec3@M$0A@@0@@Z ; glm::scale<float,0>
PUBLIC	??$translate@M$0A@@glm@@YA?AU?$tmat4x4@M$0A@@0@AEBU10@AEBU?$tvec3@M$0A@@0@@Z ; glm::translate<float,0>
PUBLIC	??$?XM@?$tvec4@M$0A@@glm@@QEAAAEAU01@M@Z	; glm::tvec4<float,0>::operator*=<float>
PUBLIC	??$?HM$0A@@glm@@YA?AU?$tvec4@M$0A@@0@AEBU10@0@Z	; glm::operator+<float,0>
PUBLIC	??A?$tmat4x4@M$0A@@glm@@QEBAAEBU?$tvec4@M$0A@@1@H@Z ; glm::tmat4x4<float,0>::operator[]
PUBLIC	??0?$tmat4x4@M$0A@@glm@@QEAA@W4ctor@1@@Z	; glm::tmat4x4<float,0>::tmat4x4<float,0>
PUBLIC	??A?$tvec4@M$0A@@glm@@QEBAAEBMH@Z		; glm::tvec4<float,0>::operator[]
PUBLIC	??$scale@M$0A@@glm@@YA?AU?$tmat4x4@M$0A@@0@AEBU?$tvec3@M$0A@@0@@Z ; glm::scale<float,0>
PUBLIC	??$translate@M$0A@@glm@@YA?AU?$tmat4x4@M$0A@@0@AEBU?$tvec3@M$0A@@0@@Z ; glm::translate<float,0>
PUBLIC	??$?DM$0A@@glm@@YA?AU?$tvec4@M$0A@@0@AEBU10@M@Z	; glm::operator*<float,0>
PUBLIC	??$?DM$0A@@glm@@YA?AU?$tmat4x4@M$0A@@0@AEBU10@0@Z ; glm::operator*<float,0>
PUBLIC	?OnImGuiRender@MandelbrotScene@Scene@Application@@UEAAXXZ ; Application::Scene::MandelbrotScene::OnImGuiRender
PUBLIC	?OnRender@MandelbrotScene@Scene@Application@@UEAAXXZ ; Application::Scene::MandelbrotScene::OnRender
PUBLIC	?OnUpdate@MandelbrotScene@Scene@Application@@UEAAXM@Z ; Application::Scene::MandelbrotScene::OnUpdate
PUBLIC	??1MandelbrotScene@Scene@Application@@UEAA@XZ	; Application::Scene::MandelbrotScene::~MandelbrotScene
PUBLIC	??_GMandelbrotScene@Scene@Application@@UEAAPEAXI@Z ; Application::Scene::MandelbrotScene::`scalar deleting destructor'
PUBLIC	?sin@@YAMM@Z					; sin
PUBLIC	?cos@@YAMM@Z					; cos
PUBLIC	??0MandelbrotScene@Scene@Application@@QEAA@XZ	; Application::Scene::MandelbrotScene::MandelbrotScene
EXTRN	??_EMandelbrotScene@Scene@Application@@UEAAPEAXI@Z:PROC ; Application::Scene::MandelbrotScene::`vector deleting destructor'
;	COMDAT ?vel@?4??OnUpdate@MandelbrotScene@Scene@Application@@UEAAXM@Z@4MA
_BSS	SEGMENT
?vel@?4??OnUpdate@MandelbrotScene@Scene@Application@@UEAAXM@Z@4MA DD 01H DUP (?) ; `Application::Scene::MandelbrotScene::OnUpdate'::`5'::vel
_BSS	ENDS
;	COMDAT ?$TSS0@?4??OnUpdate@MandelbrotScene@Scene@Application@@UEAAXM@Z@4HA
_BSS	SEGMENT
?$TSS0@?4??OnUpdate@MandelbrotScene@Scene@Application@@UEAAXM@Z@4HA DD 01H DUP (?) ; TSS0<`template-parameter-5',Application::Scene::MandelbrotScene::Update, ?? :: ?? ::HA::Application::Z::EAAXM>
_BSS	ENDS
;	COMDAT pdata
pdata	SEGMENT
$pdata$??A?$tvec3@M$0A@@glm@@QEBAAEBMH@Z DD imagerel $LN9@operator
	DD	imagerel $LN9@operator+62
	DD	imagerel $unwind$??A?$tvec3@M$0A@@glm@@QEBAAEBMH@Z
pdata	ENDS
;	COMDAT pdata
pdata	SEGMENT
$pdata$??$scale@M$0A@@glm@@YA?AU?$tmat4x4@M$0A@@0@AEBU10@AEBU?$tvec3@M$0A@@0@@Z DD imagerel $LN133@scale
	DD	imagerel $LN133@scale+315
	DD	imagerel $unwind$??$scale@M$0A@@glm@@YA?AU?$tmat4x4@M$0A@@0@AEBU10@AEBU?$tvec3@M$0A@@0@@Z
pdata	ENDS
;	COMDAT pdata
pdata	SEGMENT
$pdata$??$translate@M$0A@@glm@@YA?AU?$tmat4x4@M$0A@@0@AEBU10@AEBU?$tvec3@M$0A@@0@@Z DD imagerel $LN149@translate
	DD	imagerel $LN149@translate+351
	DD	imagerel $unwind$??$translate@M$0A@@glm@@YA?AU?$tmat4x4@M$0A@@0@AEBU10@AEBU?$tvec3@M$0A@@0@@Z
pdata	ENDS
;	COMDAT pdata
pdata	SEGMENT
$pdata$??$?XM@?$tvec4@M$0A@@glm@@QEAAAEAU01@M@Z DD imagerel $LN10@operator
	DD	imagerel $LN10@operator+71
	DD	imagerel $unwind$??$?XM@?$tvec4@M$0A@@glm@@QEAAAEAU01@M@Z
pdata	ENDS
;	COMDAT pdata
pdata	SEGMENT
$pdata$??$?HM$0A@@glm@@YA?AU?$tvec4@M$0A@@0@AEBU10@0@Z DD imagerel $LN10@operator
	DD	imagerel $LN10@operator+105
	DD	imagerel $unwind$??$?HM$0A@@glm@@YA?AU?$tvec4@M$0A@@0@AEBU10@0@Z
pdata	ENDS
;	COMDAT pdata
pdata	SEGMENT
$pdata$??A?$tmat4x4@M$0A@@glm@@QEBAAEBU?$tvec4@M$0A@@1@H@Z DD imagerel $LN7@operator
	DD	imagerel $LN7@operator+68
	DD	imagerel $unwind$??A?$tmat4x4@M$0A@@glm@@QEBAAEBU?$tvec4@M$0A@@1@H@Z
pdata	ENDS
;	COMDAT pdata
pdata	SEGMENT
$pdata$??A?$tvec4@M$0A@@glm@@QEBAAEBMH@Z DD imagerel $LN9@operator
	DD	imagerel $LN9@operator+62
	DD	imagerel $unwind$??A?$tvec4@M$0A@@glm@@QEBAAEBMH@Z
pdata	ENDS
;	COMDAT pdata
pdata	SEGMENT
$pdata$??$scale@M$0A@@glm@@YA?AU?$tmat4x4@M$0A@@0@AEBU?$tvec3@M$0A@@0@@Z DD imagerel $LN160@scale
	DD	imagerel $LN160@scale+154
	DD	imagerel $unwind$??$scale@M$0A@@glm@@YA?AU?$tmat4x4@M$0A@@0@AEBU?$tvec3@M$0A@@0@@Z
pdata	ENDS
;	COMDAT pdata
pdata	SEGMENT
$pdata$??$translate@M$0A@@glm@@YA?AU?$tmat4x4@M$0A@@0@AEBU?$tvec3@M$0A@@0@@Z DD imagerel $LN176@translate
	DD	imagerel $LN176@translate+109
	DD	imagerel $unwind$??$translate@M$0A@@glm@@YA?AU?$tmat4x4@M$0A@@0@AEBU?$tvec3@M$0A@@0@@Z
pdata	ENDS
;	COMDAT pdata
pdata	SEGMENT
$pdata$??$?DM$0A@@glm@@YA?AU?$tvec4@M$0A@@0@AEBU10@M@Z DD imagerel $LN12@operator
	DD	imagerel $LN12@operator+83
	DD	imagerel $unwind$??$?DM$0A@@glm@@YA?AU?$tvec4@M$0A@@0@AEBU10@M@Z
pdata	ENDS
;	COMDAT pdata
pdata	SEGMENT
$pdata$??$?DM$0A@@glm@@YA?AU?$tmat4x4@M$0A@@0@AEBU10@0@Z DD imagerel $LN432@operator
	DD	imagerel $LN432@operator+1549
	DD	imagerel $unwind$??$?DM$0A@@glm@@YA?AU?$tmat4x4@M$0A@@0@AEBU10@0@Z
pdata	ENDS
;	COMDAT pdata
pdata	SEGMENT
$pdata$?OnImGuiRender@MandelbrotScene@Scene@Application@@UEAAXXZ DD imagerel $LN38@OnImGuiRen
	DD	imagerel $LN38@OnImGuiRen+35
	DD	imagerel $unwind$?OnImGuiRender@MandelbrotScene@Scene@Application@@UEAAXXZ
pdata	ENDS
;	COMDAT pdata
pdata	SEGMENT
$pdata$0$?OnImGuiRender@MandelbrotScene@Scene@Application@@UEAAXXZ DD imagerel $LN38@OnImGuiRen+35
	DD	imagerel $LN38@OnImGuiRen+189
	DD	imagerel $chain$0$?OnImGuiRender@MandelbrotScene@Scene@Application@@UEAAXXZ
pdata	ENDS
;	COMDAT pdata
pdata	SEGMENT
$pdata$1$?OnImGuiRender@MandelbrotScene@Scene@Application@@UEAAXXZ DD imagerel $LN38@OnImGuiRen+189
	DD	imagerel $LN38@OnImGuiRen+363
	DD	imagerel $chain$1$?OnImGuiRender@MandelbrotScene@Scene@Application@@UEAAXXZ
pdata	ENDS
;	COMDAT pdata
pdata	SEGMENT
$pdata$2$?OnImGuiRender@MandelbrotScene@Scene@Application@@UEAAXXZ DD imagerel $LN38@OnImGuiRen+363
	DD	imagerel $LN38@OnImGuiRen+411
	DD	imagerel $chain$2$?OnImGuiRender@MandelbrotScene@Scene@Application@@UEAAXXZ
pdata	ENDS
;	COMDAT pdata
pdata	SEGMENT
$pdata$3$?OnImGuiRender@MandelbrotScene@Scene@Application@@UEAAXXZ DD imagerel $LN38@OnImGuiRen+411
	DD	imagerel $LN38@OnImGuiRen+675
	DD	imagerel $chain$3$?OnImGuiRender@MandelbrotScene@Scene@Application@@UEAAXXZ
pdata	ENDS
;	COMDAT pdata
pdata	SEGMENT
$pdata$?OnRender@MandelbrotScene@Scene@Application@@UEAAXXZ DD imagerel $LN4@OnRender
	DD	imagerel $LN4@OnRender+58
	DD	imagerel $unwind$?OnRender@MandelbrotScene@Scene@Application@@UEAAXXZ
pdata	ENDS
;	COMDAT pdata
pdata	SEGMENT
$pdata$?OnUpdate@MandelbrotScene@Scene@Application@@UEAAXM@Z DD imagerel $LN468@OnUpdate
	DD	imagerel $LN468@OnUpdate+808
	DD	imagerel $unwind$?OnUpdate@MandelbrotScene@Scene@Application@@UEAAXM@Z
pdata	ENDS
;	COMDAT pdata
pdata	SEGMENT
$pdata$??1MandelbrotScene@Scene@Application@@UEAA@XZ DD imagerel $LN22@Mandelbrot
	DD	imagerel $LN22@Mandelbrot+154
	DD	imagerel $unwind$??1MandelbrotScene@Scene@Application@@UEAA@XZ
pdata	ENDS
;	COMDAT pdata
pdata	SEGMENT
$pdata$??_GMandelbrotScene@Scene@Application@@UEAAPEAXI@Z DD imagerel $LN26@scalar
	DD	imagerel $LN26@scalar+189
	DD	imagerel $unwind$??_GMandelbrotScene@Scene@Application@@UEAAPEAXI@Z
pdata	ENDS
;	COMDAT pdata
pdata	SEGMENT
$pdata$??0MandelbrotScene@Scene@Application@@QEAA@XZ DD imagerel $LN274@Mandelbrot
	DD	imagerel $LN274@Mandelbrot+852
	DD	imagerel $unwind$??0MandelbrotScene@Scene@Application@@QEAA@XZ
pdata	ENDS
;	COMDAT pdata
pdata	SEGMENT
$pdata$?dtor$1@?0???0MandelbrotScene@Scene@Application@@QEAA@XZ@4HA DD imagerel ?dtor$1@?0???0MandelbrotScene@Scene@Application@@QEAA@XZ@4HA
	DD	imagerel ?dtor$1@?0???0MandelbrotScene@Scene@Application@@QEAA@XZ@4HA+29
	DD	imagerel $unwind$?dtor$1@?0???0MandelbrotScene@Scene@Application@@QEAA@XZ@4HA
pdata	ENDS
;	COMDAT pdata
pdata	SEGMENT
$pdata$?dtor$2@?0???0MandelbrotScene@Scene@Application@@QEAA@XZ@4HA DD imagerel ?dtor$2@?0???0MandelbrotScene@Scene@Application@@QEAA@XZ@4HA
	DD	imagerel ?dtor$2@?0???0MandelbrotScene@Scene@Application@@QEAA@XZ@4HA+29
	DD	imagerel $unwind$?dtor$2@?0???0MandelbrotScene@Scene@Application@@QEAA@XZ@4HA
pdata	ENDS
;	COMDAT pdata
pdata	SEGMENT
$pdata$?dtor$3@?0???0MandelbrotScene@Scene@Application@@QEAA@XZ@4HA DD imagerel ?dtor$3@?0???0MandelbrotScene@Scene@Application@@QEAA@XZ@4HA
	DD	imagerel ?dtor$3@?0???0MandelbrotScene@Scene@Application@@QEAA@XZ@4HA+38
	DD	imagerel $unwind$?dtor$3@?0???0MandelbrotScene@Scene@Application@@QEAA@XZ@4HA
pdata	ENDS
;	COMDAT pdata
pdata	SEGMENT
$pdata$?dtor$6@?0???0MandelbrotScene@Scene@Application@@QEAA@XZ@4HA DD imagerel ?dtor$6@?0???0MandelbrotScene@Scene@Application@@QEAA@XZ@4HA
	DD	imagerel ?dtor$6@?0???0MandelbrotScene@Scene@Application@@QEAA@XZ@4HA+29
	DD	imagerel $unwind$?dtor$6@?0???0MandelbrotScene@Scene@Application@@QEAA@XZ@4HA
;	COMDAT xdata
xdata	SEGMENT
$unwind$?dtor$6@?0???0MandelbrotScene@Scene@Application@@QEAA@XZ@4HA DD 020601H
	DD	050023206H
xdata	ENDS
;	COMDAT xdata
xdata	SEGMENT
$unwind$?dtor$3@?0???0MandelbrotScene@Scene@Application@@QEAA@XZ@4HA DD 020601H
	DD	050023206H
xdata	ENDS
;	COMDAT xdata
xdata	SEGMENT
$unwind$?dtor$2@?0???0MandelbrotScene@Scene@Application@@QEAA@XZ@4HA DD 020601H
	DD	050023206H
xdata	ENDS
;	COMDAT xdata
xdata	SEGMENT
$unwind$?dtor$1@?0???0MandelbrotScene@Scene@Application@@QEAA@XZ@4HA DD 020601H
	DD	050023206H
xdata	ENDS
;	COMDAT xdata
xdata	SEGMENT
$ip2state$??0MandelbrotScene@Scene@Application@@QEAA@XZ DD imagerel ??0MandelbrotScene@Scene@Application@@QEAA@XZ+49
	DD	00H
	DD	imagerel ??0MandelbrotScene@Scene@Application@@QEAA@XZ+79
	DD	01H
	DD	imagerel ??0MandelbrotScene@Scene@Application@@QEAA@XZ+92
	DD	00H
	DD	imagerel ??0MandelbrotScene@Scene@Application@@QEAA@XZ+140
	DD	02H
	DD	imagerel ??0MandelbrotScene@Scene@Application@@QEAA@XZ+162
	DD	03H
	DD	imagerel ??0MandelbrotScene@Scene@Application@@QEAA@XZ+241
	DD	00H
	DD	imagerel ??0MandelbrotScene@Scene@Application@@QEAA@XZ+671
	DD	05H
	DD	imagerel ??0MandelbrotScene@Scene@Application@@QEAA@XZ+759
	DD	00H
	DD	imagerel ??0MandelbrotScene@Scene@Application@@QEAA@XZ+831
	DD	0ffffffffH
xdata	ENDS
;	COMDAT xdata
xdata	SEGMENT
$stateUnwindMap$??0MandelbrotScene@Scene@Application@@QEAA@XZ DD 0ffffffffH
	DD	imagerel ?dtor$0@?0???0MandelbrotScene@Scene@Application@@QEAA@XZ@4HA
	DD	00H
	DD	imagerel ?dtor$1@?0???0MandelbrotScene@Scene@Application@@QEAA@XZ@4HA
	DD	00H
	DD	imagerel ?dtor$2@?0???0MandelbrotScene@Scene@Application@@QEAA@XZ@4HA
	DD	02H
	DD	imagerel ?dtor$3@?0???0MandelbrotScene@Scene@Application@@QEAA@XZ@4HA
	DD	00H
	DD	imagerel ?dtor$3@?0???0MandelbrotScene@Scene@Application@@QEAA@XZ@4HA
	DD	00H
	DD	imagerel ?dtor$6@?0???0MandelbrotScene@Scene@Application@@QEAA@XZ@4HA
xdata	ENDS
;	COMDAT CONST
CONST	SEGMENT
$cppxdata$??0MandelbrotScene@Scene@Application@@QEAA@XZ DQ 00000000619930522r ; 1.2944e-313
	DD	imagerel $stateUnwindMap$??0MandelbrotScene@Scene@Application@@QEAA@XZ
	DQ	00000000000000000r		; 0
	DD	09H
	DD	imagerel $ip2state$??0MandelbrotScene@Scene@Application@@QEAA@XZ
	DQ	00000000000000058r		; 4.34778e-322
	DD	01H
CONST	ENDS
;	COMDAT xdata
xdata	SEGMENT
$unwind$??0MandelbrotScene@Scene@Application@@QEAA@XZ DD 061811H
	DD	0126418H
	DD	0113414H
	DD	07004d208H
	DD	imagerel __CxxFrameHandler3
	DD	imagerel $cppxdata$??0MandelbrotScene@Scene@Application@@QEAA@XZ
xdata	ENDS
;	COMDAT xdata
xdata	SEGMENT
$ip2state$??_GMandelbrotScene@Scene@Application@@UEAAPEAXI@Z DD imagerel ??_GMandelbrotScene@Scene@Application@@UEAAPEAXI@Z+73
	DD	01H
	DD	imagerel ??_GMandelbrotScene@Scene@Application@@UEAAPEAXI@Z+122
	DD	00H
xdata	ENDS
;	COMDAT xdata
xdata	SEGMENT
$stateUnwindMap$??_GMandelbrotScene@Scene@Application@@UEAAPEAXI@Z DD 0ffffffffH
	DD	imagerel __std_terminate
	DD	00H
	DD	imagerel __std_terminate
xdata	ENDS
;	COMDAT CONST
CONST	SEGMENT
$cppxdata$??_GMandelbrotScene@Scene@Application@@UEAAPEAXI@Z DQ 00000000219930522r ; 4.45598e-314
	DD	imagerel $stateUnwindMap$??_GMandelbrotScene@Scene@Application@@UEAAPEAXI@Z
	DQ	00000000000000000r		; 0
	DD	02H
	DD	imagerel $ip2state$??_GMandelbrotScene@Scene@Application@@UEAAPEAXI@Z
	DQ	00000000000000020r		; 1.58101e-322
	DD	05H
CONST	ENDS
;	COMDAT xdata
xdata	SEGMENT
$unwind$??_GMandelbrotScene@Scene@Application@@UEAAPEAXI@Z DD 061919H
	DD	096419H
	DD	083414H
	DD	070025206H
	DD	imagerel __CxxFrameHandler3
	DD	imagerel $cppxdata$??_GMandelbrotScene@Scene@Application@@UEAAPEAXI@Z
xdata	ENDS
;	COMDAT xdata
xdata	SEGMENT
$ip2state$??1MandelbrotScene@Scene@Application@@UEAA@XZ DD imagerel ??1MandelbrotScene@Scene@Application@@UEAA@XZ+66
	DD	00H
	DD	imagerel ??1MandelbrotScene@Scene@Application@@UEAA@XZ+115
	DD	0ffffffffH
xdata	ENDS
;	COMDAT xdata
xdata	SEGMENT
$stateUnwindMap$??1MandelbrotScene@Scene@Application@@UEAA@XZ DD 0ffffffffH
	DD	imagerel __std_terminate
xdata	ENDS
;	COMDAT CONST
CONST	SEGMENT
$cppxdata$??1MandelbrotScene@Scene@Application@@UEAA@XZ DQ 00000000119930522r ; 2.33398e-314
	DD	imagerel $stateUnwindMap$??1MandelbrotScene@Scene@Application@@UEAA@XZ
	DQ	00000000000000000r		; 0
	DD	02H
	DD	imagerel $ip2state$??1MandelbrotScene@Scene@Application@@UEAA@XZ
	DQ	00000000000000020r		; 1.58101e-322
	DD	05H
CONST	ENDS
;	COMDAT xdata
xdata	SEGMENT
$unwind$??1MandelbrotScene@Scene@Application@@UEAA@XZ DD 041419H
	DD	083414H
	DD	070025206H
	DD	imagerel __CxxFrameHandler3
	DD	imagerel $cppxdata$??1MandelbrotScene@Scene@Application@@UEAA@XZ
xdata	ENDS
;	COMDAT xdata
xdata	SEGMENT
$unwind$?OnUpdate@MandelbrotScene@Scene@Application@@UEAAXM@Z DD 092919H
	DD	010681bH
	DD	0267417H
	DD	0253417H
	DD	0220117H
	DD	0500cH
	DD	imagerel __GSHandlerCheck
	DD	0f0H
xdata	ENDS
;	COMDAT xdata
xdata	SEGMENT
$unwind$?OnRender@MandelbrotScene@Scene@Application@@UEAAXXZ DD 020601H
	DD	030023206H
xdata	ENDS
;	COMDAT xdata
xdata	SEGMENT
$chain$3$?OnImGuiRender@MandelbrotScene@Scene@Application@@UEAAXXZ DD 021H
	DD	imagerel $LN38@OnImGuiRen
	DD	imagerel $LN38@OnImGuiRen+35
	DD	imagerel $unwind$?OnImGuiRender@MandelbrotScene@Scene@Application@@UEAAXXZ
xdata	ENDS
;	COMDAT xdata
xdata	SEGMENT
$chain$2$?OnImGuiRender@MandelbrotScene@Scene@Application@@UEAAXXZ DD 021H
	DD	imagerel $LN38@OnImGuiRen+35
	DD	imagerel $LN38@OnImGuiRen+189
	DD	imagerel $chain$0$?OnImGuiRender@MandelbrotScene@Scene@Application@@UEAAXXZ
xdata	ENDS
;	COMDAT xdata
xdata	SEGMENT
$chain$1$?OnImGuiRender@MandelbrotScene@Scene@Application@@UEAAXXZ DD 020821H
	DD	0126408H
	DD	imagerel $LN38@OnImGuiRen+35
	DD	imagerel $LN38@OnImGuiRen+189
	DD	imagerel $chain$0$?OnImGuiRender@MandelbrotScene@Scene@Application@@UEAAXXZ
xdata	ENDS
;	COMDAT xdata
xdata	SEGMENT
$chain$0$?OnImGuiRender@MandelbrotScene@Scene@Application@@UEAAXXZ DD 020421H
	DD	0113404H
	DD	imagerel $LN38@OnImGuiRen
	DD	imagerel $LN38@OnImGuiRen+35
	DD	imagerel $unwind$?OnImGuiRender@MandelbrotScene@Scene@Application@@UEAAXXZ
xdata	ENDS
;	COMDAT xdata
xdata	SEGMENT
$unwind$?OnImGuiRender@MandelbrotScene@Scene@Application@@UEAAXXZ DD 062019H
	DD	066811H
	DD	013540cH
	DD	07008d20cH
	DD	imagerel __GSHandlerCheck
	DD	050H
xdata	ENDS
;	COMDAT xdata
xdata	SEGMENT
$unwind$??$?DM$0A@@glm@@YA?AU?$tmat4x4@M$0A@@0@AEBU10@0@Z DD 0164f01H
	DD	013f84fH
	DD	014e843H
	DD	015d837H
	DD	016c82fH
	DD	017b826H
	DD	018a821H
	DD	019981cH
	DD	01a8817H
	DD	01b7812H
	DD	01c680eH
	DD	03b010aH
xdata	ENDS
;	COMDAT xdata
xdata	SEGMENT
$unwind$??$?DM$0A@@glm@@YA?AU?$tvec4@M$0A@@0@AEBU10@M@Z DD 010401H
	DD	02204H
xdata	ENDS
;	COMDAT xdata
xdata	SEGMENT
$unwind$??$translate@M$0A@@glm@@YA?AU?$tmat4x4@M$0A@@0@AEBU?$tvec3@M$0A@@0@@Z DD 010401H
	DD	02204H
xdata	ENDS
;	COMDAT xdata
xdata	SEGMENT
$unwind$??$scale@M$0A@@glm@@YA?AU?$tmat4x4@M$0A@@0@AEBU?$tvec3@M$0A@@0@@Z DD 010401H
	DD	02204H
xdata	ENDS
;	COMDAT xdata
xdata	SEGMENT
$unwind$??A?$tvec4@M$0A@@glm@@QEBAAEBMH@Z DD 040a01H
	DD	06340aH
	DD	07006320aH
xdata	ENDS
;	COMDAT xdata
xdata	SEGMENT
$unwind$??A?$tmat4x4@M$0A@@glm@@QEBAAEBU?$tvec4@M$0A@@1@H@Z DD 040a01H
	DD	06340aH
	DD	07006320aH
xdata	ENDS
;	COMDAT xdata
xdata	SEGMENT
$unwind$??$?HM$0A@@glm@@YA?AU?$tvec4@M$0A@@0@AEBU10@0@Z DD 010401H
	DD	02204H
xdata	ENDS
;	COMDAT xdata
xdata	SEGMENT
$unwind$??$?XM@?$tvec4@M$0A@@glm@@QEAAAEAU01@M@Z DD 010401H
	DD	02204H
xdata	ENDS
;	COMDAT xdata
xdata	SEGMENT
$unwind$??$translate@M$0A@@glm@@YA?AU?$tmat4x4@M$0A@@0@AEBU10@AEBU?$tvec3@M$0A@@0@@Z DD 0b5b01H
	DD	01a85bH
	DD	029851H
	DD	038845H
	DD	047834H
	DD	056821H
	DD	0c204H
xdata	ENDS
;	COMDAT xdata
xdata	SEGMENT
$unwind$??$scale@M$0A@@glm@@YA?AU?$tmat4x4@M$0A@@0@AEBU10@AEBU?$tvec3@M$0A@@0@@Z DD 030901H
	DD	016809H
	DD	04204H
xdata	ENDS
;	COMDAT xdata
xdata	SEGMENT
$unwind$??A?$tvec3@M$0A@@glm@@QEBAAEBMH@Z DD 040a01H
	DD	06340aH
	DD	07006320aH
END
