; Listing generated by Microsoft (R) Optimizing Compiler Version 19.14.26433.0 

include listing.inc

INCLUDELIB OLDNAMES

PUBLIC	??_C@_0BL@OOFMDA@res?1shaders?1Sandbox?4shader?$AA@ ; `string'
PUBLIC	??_C@_09GCGFNBLA@playerPos?$AA@			; `string'
PUBLIC	??_C@_0BF@FEFAANEH@This?5is?5the?5Sandbox?$CB?$AA@ ; `string'
PUBLIC	??_R1A@?0A@EA@SandboxScene@Scene@Application@@8	; Application::Scene::SandboxScene::`RTTI Base Class Descriptor at (0,-1,0,64)'
PUBLIC	??_R3SandboxScene@Scene@Application@@8		; Application::Scene::SandboxScene::`RTTI Class Hierarchy Descriptor'
PUBLIC	??_R2SandboxScene@Scene@Application@@8		; Application::Scene::SandboxScene::`RTTI Base Class Array'
PUBLIC	??_7SandboxScene@Scene@Application@@6B@		; Application::Scene::SandboxScene::`vftable'
PUBLIC	??_R0?AVSandboxScene@Scene@Application@@@8	; Application::Scene::SandboxScene `RTTI Type Descriptor'
PUBLIC	??_R4SandboxScene@Scene@Application@@6B@	; Application::Scene::SandboxScene::`RTTI Complete Object Locator'
;	COMDAT ??_R4SandboxScene@Scene@Application@@6B@
rdata$r	SEGMENT
??_R4SandboxScene@Scene@Application@@6B@ DD 01H		; Application::Scene::SandboxScene::`RTTI Complete Object Locator'
	DD	00H
	DD	00H
	DD	imagerel ??_R0?AVSandboxScene@Scene@Application@@@8
	DD	imagerel ??_R3SandboxScene@Scene@Application@@8
	DD	imagerel ??_R4SandboxScene@Scene@Application@@6B@
rdata$r	ENDS
;	COMDAT ??_R0?AVSandboxScene@Scene@Application@@@8
data$r	SEGMENT
??_R0?AVSandboxScene@Scene@Application@@@8 DQ FLAT:??_7type_info@@6B@ ; Application::Scene::SandboxScene `RTTI Type Descriptor'
	DQ	0000000000000000H
	DB	'.?AVSandboxScene@Scene@Application@@', 00H
data$r	ENDS
;	COMDAT ??_7SandboxScene@Scene@Application@@6B@
CONST	SEGMENT
??_7SandboxScene@Scene@Application@@6B@ DQ FLAT:??_R4SandboxScene@Scene@Application@@6B@ ; Application::Scene::SandboxScene::`vftable'
	DQ	FLAT:??_ESandboxScene@Scene@Application@@UEAAPEAXI@Z
	DQ	FLAT:?OnUpdate@SandboxScene@Scene@Application@@UEAAXM@Z
	DQ	FLAT:?OnRender@SandboxScene@Scene@Application@@UEAAXXZ
	DQ	FLAT:?OnImGuiRender@SandboxScene@Scene@Application@@UEAAXXZ
CONST	ENDS
;	COMDAT ??_R2SandboxScene@Scene@Application@@8
rdata$r	SEGMENT
??_R2SandboxScene@Scene@Application@@8 DD imagerel ??_R1A@?0A@EA@SandboxScene@Scene@Application@@8 ; Application::Scene::SandboxScene::`RTTI Base Class Array'
	DD	imagerel ??_R1A@?0A@EA@Scene@0Application@@8
	ORG $+3
rdata$r	ENDS
;	COMDAT ??_R3SandboxScene@Scene@Application@@8
rdata$r	SEGMENT
??_R3SandboxScene@Scene@Application@@8 DD 00H		; Application::Scene::SandboxScene::`RTTI Class Hierarchy Descriptor'
	DD	00H
	DD	02H
	DD	imagerel ??_R2SandboxScene@Scene@Application@@8
rdata$r	ENDS
;	COMDAT ??_R1A@?0A@EA@SandboxScene@Scene@Application@@8
rdata$r	SEGMENT
??_R1A@?0A@EA@SandboxScene@Scene@Application@@8 DD imagerel ??_R0?AVSandboxScene@Scene@Application@@@8 ; Application::Scene::SandboxScene::`RTTI Base Class Descriptor at (0,-1,0,64)'
	DD	01H
	DD	00H
	DD	0ffffffffH
	DD	00H
	DD	040H
	DD	imagerel ??_R3SandboxScene@Scene@Application@@8
rdata$r	ENDS
;	COMDAT ??_C@_0BF@FEFAANEH@This?5is?5the?5Sandbox?$CB?$AA@
CONST	SEGMENT
??_C@_0BF@FEFAANEH@This?5is?5the?5Sandbox?$CB?$AA@ DB 'This is the Sandbo'
	DB	'x!', 00H					; `string'
CONST	ENDS
;	COMDAT ??_C@_09GCGFNBLA@playerPos?$AA@
CONST	SEGMENT
??_C@_09GCGFNBLA@playerPos?$AA@ DB 'playerPos', 00H	; `string'
CONST	ENDS
;	COMDAT ??_C@_0BL@OOFMDA@res?1shaders?1Sandbox?4shader?$AA@
CONST	SEGMENT
??_C@_0BL@OOFMDA@res?1shaders?1Sandbox?4shader?$AA@ DB 'res/shaders/Sandb'
	DB	'ox.shader', 00H				; `string'
PUBLIC	??$?0HHHH@?$tvec4@M$0A@@glm@@QEAA@HHHH@Z	; glm::tvec4<float,0>::tvec4<float,0><int,int,int,int>
PUBLIC	?OnImGuiRender@SandboxScene@Scene@Application@@UEAAXXZ ; Application::Scene::SandboxScene::OnImGuiRender
PUBLIC	?OnRender@SandboxScene@Scene@Application@@UEAAXXZ ; Application::Scene::SandboxScene::OnRender
PUBLIC	?OnUpdate@SandboxScene@Scene@Application@@UEAAXM@Z ; Application::Scene::SandboxScene::OnUpdate
PUBLIC	??1SandboxScene@Scene@Application@@UEAA@XZ	; Application::Scene::SandboxScene::~SandboxScene
PUBLIC	??1Sprite@graphics@core@@UEAA@XZ		; core::graphics::Sprite::~Sprite
PUBLIC	??_GSandboxScene@Scene@Application@@UEAAPEAXI@Z	; Application::Scene::SandboxScene::`scalar deleting destructor'
PUBLIC	?getPosition@Renderable2D@graphics@core@@QEBAAEBU?$tvec4@M$0A@@glm@@XZ ; core::graphics::Renderable2D::getPosition
EXTRN	??_ESandboxScene@Scene@Application@@UEAAPEAXI@Z:PROC ; Application::Scene::SandboxScene::`vector deleting destructor'
;	COMDAT pdata
pdata	SEGMENT
$pdata$?OnRender@SandboxScene@Scene@Application@@UEAAXXZ DD imagerel $LN12
	DD	imagerel $LN12+128
	DD	imagerel $unwind$?OnRender@SandboxScene@Scene@Application@@UEAAXXZ
pdata	ENDS
;	COMDAT pdata
pdata	SEGMENT
$pdata$??1SandboxScene@Scene@Application@@UEAA@XZ DD imagerel $LN20
	DD	imagerel $LN20+85
	DD	imagerel $unwind$??1SandboxScene@Scene@Application@@UEAA@XZ
pdata	ENDS
;	COMDAT pdata
pdata	SEGMENT
$pdata$??_GSandboxScene@Scene@Application@@UEAAPEAXI@Z DD imagerel $LN25
	DD	imagerel $LN25+119
	DD	imagerel $unwind$??_GSandboxScene@Scene@Application@@UEAAPEAXI@Z
;	COMDAT xdata
xdata	SEGMENT
$ip2state$??_GSandboxScene@Scene@Application@@UEAAPEAXI@Z DD imagerel ??_GSandboxScene@Scene@Application@@UEAAPEAXI@Z+48
	DD	00H
xdata	ENDS
;	COMDAT xdata
xdata	SEGMENT
$stateUnwindMap$??_GSandboxScene@Scene@Application@@UEAAPEAXI@Z DD 0ffffffffH
	DD	imagerel __imp___std_terminate
xdata	ENDS
;	COMDAT CONST
CONST	SEGMENT
$cppxdata$??_GSandboxScene@Scene@Application@@UEAAPEAXI@Z DD 019930522H
	DD	01H
	DD	imagerel $stateUnwindMap$??_GSandboxScene@Scene@Application@@UEAAPEAXI@Z
	DD	00H
	DD	00H
	DD	01H
	DD	imagerel $ip2state$??_GSandboxScene@Scene@Application@@UEAAPEAXI@Z
	DD	020H
	DD	00H
	DD	05H
CONST	ENDS
;	COMDAT xdata
xdata	SEGMENT
$unwind$??_GSandboxScene@Scene@Application@@UEAAPEAXI@Z DD 041419H
	DD	083414H
	DD	070025206H
	DD	imagerel __CxxFrameHandler3
	DD	imagerel $cppxdata$??_GSandboxScene@Scene@Application@@UEAAPEAXI@Z
xdata	ENDS
;	COMDAT xdata
xdata	SEGMENT
$ip2state$??1SandboxScene@Scene@Application@@UEAA@XZ DD imagerel ??1SandboxScene@Scene@Application@@UEAA@XZ+41
	DD	00H
xdata	ENDS
;	COMDAT xdata
xdata	SEGMENT
$stateUnwindMap$??1SandboxScene@Scene@Application@@UEAA@XZ DD 0ffffffffH
	DD	imagerel __imp___std_terminate
xdata	ENDS
;	COMDAT CONST
CONST	SEGMENT
$cppxdata$??1SandboxScene@Scene@Application@@UEAA@XZ DD 019930522H
	DD	01H
	DD	imagerel $stateUnwindMap$??1SandboxScene@Scene@Application@@UEAA@XZ
	DD	00H
	DD	00H
	DD	01H
	DD	imagerel $ip2state$??1SandboxScene@Scene@Application@@UEAA@XZ
	DD	020H
	DD	00H
	DD	05H
CONST	ENDS
;	COMDAT xdata
xdata	SEGMENT
$unwind$??1SandboxScene@Scene@Application@@UEAA@XZ DD 020f19H
	DD	030025206H
	DD	imagerel __CxxFrameHandler3
	DD	imagerel $cppxdata$??1SandboxScene@Scene@Application@@UEAA@XZ
xdata	ENDS
;	COMDAT xdata
xdata	SEGMENT
$unwind$?OnRender@SandboxScene@Scene@Application@@UEAAXXZ DD 040a01H
	DD	06340aH
	DD	07006320aH
; Function compile flags: /Ogtpy
; File f:\dev\featherfallengine\featherfall_engine-core\src\graphics\renderable2d.h
;	COMDAT ?getPosition@Renderable2D@graphics@core@@QEBAAEBU?$tvec4@M$0A@@glm@@XZ
_TEXT	SEGMENT
this$ = 8
?getPosition@Renderable2D@graphics@core@@QEBAAEBU?$tvec4@M$0A@@glm@@XZ PROC ; core::graphics::Renderable2D::getPosition, COMDAT

; 26   : 		inline const glm::vec4& getPosition() const { return position; }

	lea	rax, QWORD PTR [rcx+8]
	ret	0
?getPosition@Renderable2D@graphics@core@@QEBAAEBU?$tvec4@M$0A@@glm@@XZ ENDP ; core::graphics::Renderable2D::getPosition
_TEXT	ENDS
; Function compile flags: /Ogtpy
; File f:\dev\featherfallengine\featherfall-examples\src\scene\sandboxscene.cpp
; File f:\dev\featherfallengine\featherfall_engine-core\src\graphics\shader.cpp
; File f:\dev\featherfallengine\featherfall-examples\src\scene\sandboxscene.cpp
; File f:\dev\featherfallengine\featherfall_engine-core\src\graphics\renderable2d.cpp
; File f:\dev\featherfallengine\featherfall-examples\src\scene\scene.cpp
;	COMDAT ??_GSandboxScene@Scene@Application@@UEAAPEAXI@Z
_TEXT	SEGMENT
$T1 = 32
this$ = 64
__flags$ = 72
??_GSandboxScene@Scene@Application@@UEAAPEAXI@Z PROC	; Application::Scene::SandboxScene::`scalar deleting destructor', COMDAT
$LN25:
	push	rdi
	sub	rsp, 48					; 00000030H
	mov	QWORD PTR $T1[rsp], -2
	mov	QWORD PTR [rsp+64], rbx
	mov	ebx, edx
	mov	rdi, rcx
; File f:\dev\featherfallengine\featherfall-examples\src\scene\sandboxscene.cpp

; 21   : 	SandboxScene::~SandboxScene() {}

	lea	rax, OFFSET FLAT:??_7SandboxScene@Scene@Application@@6B@
	mov	QWORD PTR [rcx], rax
; File f:\dev\featherfallengine\featherfall_engine-core\src\graphics\shader.cpp

; 165  : 		GLCall(glDeleteProgram(shaderID));

	mov	ecx, DWORD PTR [rcx+216]
	mov	rax, QWORD PTR __imp___glewDeleteProgram
	call	QWORD PTR [rax]
	npad	1
; File f:\dev\featherfallengine\featherfall-examples\src\scene\sandboxscene.cpp

; 21   : 	SandboxScene::~SandboxScene() {}

	lea	rcx, QWORD PTR [rdi+104]
	call	??1BatchRenderer2D@graphics@core@@QEAA@XZ ; core::graphics::BatchRenderer2D::~BatchRenderer2D
	npad	1
; File f:\dev\featherfallengine\featherfall_engine-core\src\graphics\renderable2d.cpp

; 28   : 	Renderable2D::~Renderable2D() { }

	lea	rax, OFFSET FLAT:??_7Renderable2D@graphics@core@@6B@
	mov	QWORD PTR [rdi+56], rax
	mov	QWORD PTR [rdi+8], rax
; File f:\dev\featherfallengine\featherfall-examples\src\scene\scene.cpp

; 6    : 	Scene::~Scene() {}

	lea	rax, OFFSET FLAT:??_7Scene@0Application@@6B@
	mov	QWORD PTR [rdi], rax
	test	bl, 1
	je	SHORT $LN22@scalar
	mov	edx, 288				; 00000120H
	mov	rcx, rdi
	call	??3@YAXPEAX_K@Z				; operator delete
	npad	1
$LN22@scalar:
	mov	rax, rdi
	mov	rbx, QWORD PTR [rsp+64]
	add	rsp, 48					; 00000030H
	pop	rdi
	ret	0
??_GSandboxScene@Scene@Application@@UEAAPEAXI@Z ENDP	; Application::Scene::SandboxScene::`scalar deleting destructor'
_TEXT	ENDS
; Function compile flags: /Ogtpy
; File f:\dev\featherfallengine\featherfall_engine-core\src\graphics\renderable2d.cpp
;	COMDAT ??1Sprite@graphics@core@@UEAA@XZ
_TEXT	SEGMENT
this$ = 8
??1Sprite@graphics@core@@UEAA@XZ PROC			; core::graphics::Sprite::~Sprite, COMDAT

; 28   : 	Renderable2D::~Renderable2D() { }

	lea	rax, OFFSET FLAT:??_7Renderable2D@graphics@core@@6B@
	mov	QWORD PTR [rcx], rax
	ret	0
??1Sprite@graphics@core@@UEAA@XZ ENDP			; core::graphics::Sprite::~Sprite
_TEXT	ENDS
; Function compile flags: /Ogtpy
; File f:\dev\featherfallengine\featherfall-examples\src\scene\sandboxscene.cpp
; File f:\dev\featherfallengine\featherfall_engine-core\src\graphics\shader.cpp
; File f:\dev\featherfallengine\featherfall-examples\src\scene\sandboxscene.cpp
; File f:\dev\featherfallengine\featherfall_engine-core\src\graphics\renderable2d.cpp
; File f:\dev\featherfallengine\featherfall-examples\src\scene\scene.cpp
; File f:\dev\featherfallengine\featherfall-examples\src\scene\sandboxscene.cpp
;	COMDAT ??1SandboxScene@Scene@Application@@UEAA@XZ
_TEXT	SEGMENT
$T1 = 32
this$ = 64
??1SandboxScene@Scene@Application@@UEAA@XZ PROC		; Application::Scene::SandboxScene::~SandboxScene, COMDAT

; 21   : 	SandboxScene::~SandboxScene() {}

$LN20:
	push	rbx
	sub	rsp, 48					; 00000030H
	mov	QWORD PTR $T1[rsp], -2
	mov	rbx, rcx
	lea	rax, OFFSET FLAT:??_7SandboxScene@Scene@Application@@6B@
	mov	QWORD PTR [rcx], rax
; File f:\dev\featherfallengine\featherfall_engine-core\src\graphics\shader.cpp

; 165  : 		GLCall(glDeleteProgram(shaderID));

	mov	ecx, DWORD PTR [rcx+216]
	mov	rax, QWORD PTR __imp___glewDeleteProgram
	call	QWORD PTR [rax]
	npad	1
; File f:\dev\featherfallengine\featherfall-examples\src\scene\sandboxscene.cpp

; 21   : 	SandboxScene::~SandboxScene() {}

	lea	rcx, QWORD PTR [rbx+104]
	call	??1BatchRenderer2D@graphics@core@@QEAA@XZ ; core::graphics::BatchRenderer2D::~BatchRenderer2D
	npad	1
; File f:\dev\featherfallengine\featherfall_engine-core\src\graphics\renderable2d.cpp

; 28   : 	Renderable2D::~Renderable2D() { }

	lea	rax, OFFSET FLAT:??_7Renderable2D@graphics@core@@6B@
	mov	QWORD PTR [rbx+56], rax
	mov	QWORD PTR [rbx+8], rax
; File f:\dev\featherfallengine\featherfall-examples\src\scene\scene.cpp

; 6    : 	Scene::~Scene() {}

	lea	rax, OFFSET FLAT:??_7Scene@0Application@@6B@
	mov	QWORD PTR [rbx], rax
; File f:\dev\featherfallengine\featherfall-examples\src\scene\sandboxscene.cpp

; 21   : 	SandboxScene::~SandboxScene() {}

	add	rsp, 48					; 00000030H
	pop	rbx
	ret	0
??1SandboxScene@Scene@Application@@UEAA@XZ ENDP		; Application::Scene::SandboxScene::~SandboxScene
_TEXT	ENDS
; Function compile flags: /Ogtpy
; File f:\dev\featherfallengine\featherfall-examples\src\scene\sandboxscene.cpp
; File f:\dev\featherfallengine\featherfall_engine-core\src\graphics\shader.cpp
; File f:\dev\featherfallengine\featherfall-examples\src\scene\sandboxscene.cpp
; File f:\dev\featherfallengine\featherfall_engine-core\src\graphics\shader.cpp
; File f:\dev\featherfallengine\depends\install\include\glm\gtc\type_ptr.inl
; File f:\dev\featherfallengine\featherfall_engine-core\src\graphics\shader.cpp
; File f:\dev\featherfallengine\featherfall-examples\src\scene\sandboxscene.cpp
;	COMDAT ?OnRender@SandboxScene@Scene@Application@@UEAAXXZ
_TEXT	SEGMENT
this$ = 48
?OnRender@SandboxScene@Scene@Application@@UEAAXXZ PROC	; Application::Scene::SandboxScene::OnRender, COMDAT

; 25   : 	void SandboxScene::OnRender() {

$LN12:
	mov	QWORD PTR [rsp+8], rbx
	push	rdi
	sub	rsp, 32					; 00000020H
; File f:\dev\featherfallengine\featherfall_engine-core\src\graphics\shader.cpp

; 179  : 		GLCall(out = glGetUniformLocation(shaderID, identifier));

	mov	rax, QWORD PTR __imp___glewGetUniformLocation
	lea	rdx, OFFSET FLAT:??_C@_09GCGFNBLA@playerPos?$AA@
; File f:\dev\featherfallengine\featherfall-examples\src\scene\sandboxscene.cpp

; 25   : 	void SandboxScene::OnRender() {

	mov	rdi, rcx
; File f:\dev\featherfallengine\featherfall_engine-core\src\graphics\shader.cpp

; 179  : 		GLCall(out = glGetUniformLocation(shaderID, identifier));

	mov	ecx, DWORD PTR [rcx+216]
	call	QWORD PTR [rax]
; File f:\dev\featherfallengine\depends\install\include\glm\gtc\type_ptr.inl

; 63   : 		return &(vec.x);

	lea	r8, QWORD PTR [rdi+16]
; File f:\dev\featherfallengine\featherfall_engine-core\src\graphics\shader.cpp

; 200  : 		GLCall(glUniform4fv(getUniformLocation(location), 1, glm::value_ptr(data)));

	mov	edx, 1
	mov	ecx, eax
	mov	rax, QWORD PTR __imp___glewUniform4fv
	call	QWORD PTR [rax]
; File f:\dev\featherfallengine\featherfall-examples\src\scene\sandboxscene.cpp

; 30   : 		renderer.begin();

	mov	rax, QWORD PTR [rdi+104]
	lea	rcx, QWORD PTR [rdi+104]
	call	QWORD PTR [rax]

; 31   : 
; 32   : 		renderer.submit(&playerSprite);

	mov	rax, QWORD PTR [rdi+104]
	lea	rdx, QWORD PTR [rdi+8]
	lea	rcx, QWORD PTR [rdi+104]
	call	QWORD PTR [rax+8]

; 33   : 		renderer.submit(&groundSprite);

	mov	rax, QWORD PTR [rdi+104]
	lea	rdx, QWORD PTR [rdi+56]
	lea	rcx, QWORD PTR [rdi+104]
	call	QWORD PTR [rax+8]

; 34   : 
; 35   : 		renderer.end();

	mov	rax, QWORD PTR [rdi+104]
	lea	rcx, QWORD PTR [rdi+104]
	call	QWORD PTR [rax+24]

; 36   : 
; 37   : 		renderer.flush();

	mov	rax, QWORD PTR [rdi+104]
	lea	rcx, QWORD PTR [rdi+104]

; 38   : 
; 39   : 	}

	mov	rbx, QWORD PTR [rsp+48]
	add	rsp, 32					; 00000020H
	pop	rdi

; 36   : 
; 37   : 		renderer.flush();

	rex_jmp	QWORD PTR [rax+16]
?OnRender@SandboxScene@Scene@Application@@UEAAXXZ ENDP	; Application::Scene::SandboxScene::OnRender
_TEXT	ENDS
; Function compile flags: /Ogtpy
; File f:\dev\featherfallengine\depends\install\include\glm\detail\type_vec4.inl
;	COMDAT ??$?0HHHH@?$tvec4@M$0A@@glm@@QEAA@HHHH@Z
_TEXT	SEGMENT
this$ = 8
a$ = 16
b$ = 24
c$ = 32
d$ = 40
??$?0HHHH@?$tvec4@M$0A@@glm@@QEAA@HHHH@Z PROC		; glm::tvec4<float,0>::tvec4<float,0><int,int,int,int>, COMDAT

; 204  : 	{}

	movd	xmm0, edx
	mov	rax, rcx
	cvtdq2ps xmm0, xmm0
	movd	xmm1, r8d
	cvtdq2ps xmm1, xmm1
	movss	DWORD PTR [rcx], xmm0
	movss	DWORD PTR [rcx+4], xmm1
	movd	xmm1, DWORD PTR d$[rsp]
	movd	xmm0, r9d
	cvtdq2ps xmm0, xmm0
	cvtdq2ps xmm1, xmm1
	movss	DWORD PTR [rcx+8], xmm0
	movss	DWORD PTR [rcx+12], xmm1
	ret	0
??$?0HHHH@?$tvec4@M$0A@@glm@@QEAA@HHHH@Z ENDP		; glm::tvec4<float,0>::tvec4<float,0><int,int,int,int>
_TEXT	ENDS
END
