; Listing generated by Microsoft (R) Optimizing Compiler Version 19.14.26433.0 

include listing.inc

INCLUDELIB OLDNAMES

PUBLIC	??_R3SimpleRendererScene@Scene@Application@@8	; Application::Scene::SimpleRendererScene::`RTTI Class Hierarchy Descriptor'
PUBLIC	??_R1A@?0A@EA@SimpleRendererScene@Scene@Application@@8 ; Application::Scene::SimpleRendererScene::`RTTI Base Class Descriptor at (0,-1,0,64)'
PUBLIC	??_R4SimpleRendererScene@Scene@Application@@6B@	; Application::Scene::SimpleRendererScene::`RTTI Complete Object Locator'
PUBLIC	??_7SimpleRendererScene@Scene@Application@@6B@	; Application::Scene::SimpleRendererScene::`vftable'
PUBLIC	??_R0?AVSimpleRendererScene@Scene@Application@@@8 ; Application::Scene::SimpleRendererScene `RTTI Type Descriptor'
PUBLIC	??_R2SimpleRendererScene@Scene@Application@@8	; Application::Scene::SimpleRendererScene::`RTTI Base Class Array'
PUBLIC	??_C@_0CG@GOLBIJHJ@res?1shaders?1SimpleRendererTest?4s@ ; `string'
PUBLIC	??_C@_0CM@HPDNAKJM@SimpleRenderer2D?5is?5BROKEN?$CB?5PLEA@ ; `string'
;	COMDAT ??_C@_0CM@HPDNAKJM@SimpleRenderer2D?5is?5BROKEN?$CB?5PLEA@
CONST	SEGMENT
??_C@_0CM@HPDNAKJM@SimpleRenderer2D?5is?5BROKEN?$CB?5PLEA@ DB 'SimpleRend'
	DB	'erer2D is BROKEN! PLEASE FIX ME!!', 00H	; `string'
CONST	ENDS
;	COMDAT ??_C@_0CG@GOLBIJHJ@res?1shaders?1SimpleRendererTest?4s@
CONST	SEGMENT
??_C@_0CG@GOLBIJHJ@res?1shaders?1SimpleRendererTest?4s@ DB 'res/shaders/S'
	DB	'impleRendererTest.shader', 00H		; `string'
CONST	ENDS
;	COMDAT ??_R2SimpleRendererScene@Scene@Application@@8
rdata$r	SEGMENT
??_R2SimpleRendererScene@Scene@Application@@8 DD imagerel ??_R1A@?0A@EA@SimpleRendererScene@Scene@Application@@8 ; Application::Scene::SimpleRendererScene::`RTTI Base Class Array'
	DD	imagerel ??_R1A@?0A@EA@Scene@0Application@@8
	ORG $+3
rdata$r	ENDS
;	COMDAT ??_R0?AVSimpleRendererScene@Scene@Application@@@8
data$r	SEGMENT
??_R0?AVSimpleRendererScene@Scene@Application@@@8 DQ FLAT:??_7type_info@@6B@ ; Application::Scene::SimpleRendererScene `RTTI Type Descriptor'
	DQ	0000000000000000H
	DB	'.?AVSimpleRendererScene@Scene@Application@@', 00H
data$r	ENDS
;	COMDAT ??_7SimpleRendererScene@Scene@Application@@6B@
CONST	SEGMENT
??_7SimpleRendererScene@Scene@Application@@6B@ DQ FLAT:??_R4SimpleRendererScene@Scene@Application@@6B@ ; Application::Scene::SimpleRendererScene::`vftable'
	DQ	FLAT:??_ESimpleRendererScene@Scene@Application@@UEAAPEAXI@Z
	DQ	FLAT:?OnUpdate@SimpleRendererScene@Scene@Application@@UEAAXM@Z
	DQ	FLAT:?OnRender@SimpleRendererScene@Scene@Application@@UEAAXXZ
	DQ	FLAT:?OnImGuiRender@SimpleRendererScene@Scene@Application@@UEAAXXZ
CONST	ENDS
;	COMDAT ??_R4SimpleRendererScene@Scene@Application@@6B@
rdata$r	SEGMENT
??_R4SimpleRendererScene@Scene@Application@@6B@ DD 01H	; Application::Scene::SimpleRendererScene::`RTTI Complete Object Locator'
	DD	00H
	DD	00H
	DD	imagerel ??_R0?AVSimpleRendererScene@Scene@Application@@@8
	DD	imagerel ??_R3SimpleRendererScene@Scene@Application@@8
	DD	imagerel ??_R4SimpleRendererScene@Scene@Application@@6B@
rdata$r	ENDS
;	COMDAT ??_R1A@?0A@EA@SimpleRendererScene@Scene@Application@@8
rdata$r	SEGMENT
??_R1A@?0A@EA@SimpleRendererScene@Scene@Application@@8 DD imagerel ??_R0?AVSimpleRendererScene@Scene@Application@@@8 ; Application::Scene::SimpleRendererScene::`RTTI Base Class Descriptor at (0,-1,0,64)'
	DD	01H
	DD	00H
	DD	0ffffffffH
	DD	00H
	DD	040H
	DD	imagerel ??_R3SimpleRendererScene@Scene@Application@@8
rdata$r	ENDS
;	COMDAT ??_R3SimpleRendererScene@Scene@Application@@8
rdata$r	SEGMENT
??_R3SimpleRendererScene@Scene@Application@@8 DD 00H	; Application::Scene::SimpleRendererScene::`RTTI Class Hierarchy Descriptor'
	DD	00H
	DD	02H
	DD	imagerel ??_R2SimpleRendererScene@Scene@Application@@8
PUBLIC	?OnImGuiRender@SimpleRendererScene@Scene@Application@@UEAAXXZ ; Application::Scene::SimpleRendererScene::OnImGuiRender
PUBLIC	?OnRender@SimpleRendererScene@Scene@Application@@UEAAXXZ ; Application::Scene::SimpleRendererScene::OnRender
PUBLIC	?OnUpdate@SimpleRendererScene@Scene@Application@@UEAAXM@Z ; Application::Scene::SimpleRendererScene::OnUpdate
PUBLIC	??_GSimpleRenderer2D@graphics@core@@QEAAPEAXI@Z	; core::graphics::SimpleRenderer2D::`scalar deleting destructor'
PUBLIC	??1SimpleRendererScene@Scene@Application@@UEAA@XZ ; Application::Scene::SimpleRendererScene::~SimpleRendererScene
PUBLIC	?__autoclassinit2@SimpleRenderer2D@graphics@core@@QEAAX_K@Z ; core::graphics::SimpleRenderer2D::__autoclassinit2
PUBLIC	??_GSimpleRendererScene@Scene@Application@@UEAAPEAXI@Z ; Application::Scene::SimpleRendererScene::`scalar deleting destructor'
PUBLIC	??0SimpleRendererScene@Scene@Application@@QEAA@XZ ; Application::Scene::SimpleRendererScene::SimpleRendererScene
EXTRN	??_ESimpleRendererScene@Scene@Application@@UEAAPEAXI@Z:PROC ; Application::Scene::SimpleRendererScene::`vector deleting destructor'
;	COMDAT pdata
pdata	SEGMENT
$pdata$?OnRender@SimpleRendererScene@Scene@Application@@UEAAXXZ DD imagerel $LN11@OnRender
	DD	imagerel $LN11@OnRender+84
	DD	imagerel $unwind$?OnRender@SimpleRendererScene@Scene@Application@@UEAAXXZ
pdata	ENDS
;	COMDAT pdata
pdata	SEGMENT
$pdata$??_GSimpleRenderer2D@graphics@core@@QEAAPEAXI@Z DD imagerel $LN6@scalar
	DD	imagerel $LN6@scalar+36
	DD	imagerel $unwind$??_GSimpleRenderer2D@graphics@core@@QEAAPEAXI@Z
pdata	ENDS
;	COMDAT pdata
pdata	SEGMENT
$pdata$??1SimpleRendererScene@Scene@Application@@UEAA@XZ DD imagerel $LN15@SimpleRend
	DD	imagerel $LN15@SimpleRend+106
	DD	imagerel $unwind$??1SimpleRendererScene@Scene@Application@@UEAA@XZ
pdata	ENDS
;	COMDAT pdata
pdata	SEGMENT
$pdata$??_GSimpleRendererScene@Scene@Application@@UEAAPEAXI@Z DD imagerel $LN19@scalar
	DD	imagerel $LN19@scalar+141
	DD	imagerel $unwind$??_GSimpleRendererScene@Scene@Application@@UEAAPEAXI@Z
pdata	ENDS
;	COMDAT pdata
pdata	SEGMENT
$pdata$??0SimpleRendererScene@Scene@Application@@QEAA@XZ DD imagerel $LN209@SimpleRend
	DD	imagerel $LN209@SimpleRend+658
	DD	imagerel $unwind$??0SimpleRendererScene@Scene@Application@@QEAA@XZ
pdata	ENDS
;	COMDAT pdata
pdata	SEGMENT
$pdata$?dtor$2@?0???0SimpleRendererScene@Scene@Application@@QEAA@XZ@4HA DD imagerel ?dtor$2@?0???0SimpleRendererScene@Scene@Application@@QEAA@XZ@4HA
	DD	imagerel ?dtor$2@?0???0SimpleRendererScene@Scene@Application@@QEAA@XZ@4HA+29
	DD	imagerel $unwind$?dtor$2@?0???0SimpleRendererScene@Scene@Application@@QEAA@XZ@4HA
pdata	ENDS
;	COMDAT pdata
pdata	SEGMENT
$pdata$?dtor$3@?0???0SimpleRendererScene@Scene@Application@@QEAA@XZ@4HA DD imagerel ?dtor$3@?0???0SimpleRendererScene@Scene@Application@@QEAA@XZ@4HA
	DD	imagerel ?dtor$3@?0???0SimpleRendererScene@Scene@Application@@QEAA@XZ@4HA+38
	DD	imagerel $unwind$?dtor$3@?0???0SimpleRendererScene@Scene@Application@@QEAA@XZ@4HA
pdata	ENDS
;	COMDAT pdata
pdata	SEGMENT
$pdata$?dtor$4@?0???0SimpleRendererScene@Scene@Application@@QEAA@XZ@4HA DD imagerel ?dtor$4@?0???0SimpleRendererScene@Scene@Application@@QEAA@XZ@4HA
	DD	imagerel ?dtor$4@?0???0SimpleRendererScene@Scene@Application@@QEAA@XZ@4HA+29
	DD	imagerel $unwind$?dtor$4@?0???0SimpleRendererScene@Scene@Application@@QEAA@XZ@4HA
;	COMDAT xdata
xdata	SEGMENT
$unwind$?dtor$4@?0???0SimpleRendererScene@Scene@Application@@QEAA@XZ@4HA DD 020601H
	DD	050023206H
xdata	ENDS
;	COMDAT xdata
xdata	SEGMENT
$unwind$?dtor$3@?0???0SimpleRendererScene@Scene@Application@@QEAA@XZ@4HA DD 020601H
	DD	050023206H
xdata	ENDS
;	COMDAT xdata
xdata	SEGMENT
$unwind$?dtor$2@?0???0SimpleRendererScene@Scene@Application@@QEAA@XZ@4HA DD 020601H
	DD	050023206H
xdata	ENDS
;	COMDAT xdata
xdata	SEGMENT
$ip2state$??0SimpleRendererScene@Scene@Application@@QEAA@XZ DD imagerel ??0SimpleRendererScene@Scene@Application@@QEAA@XZ+137
	DD	00H
	DD	imagerel ??0SimpleRendererScene@Scene@Application@@QEAA@XZ+249
	DD	01H
	DD	imagerel ??0SimpleRendererScene@Scene@Application@@QEAA@XZ+286
	DD	02H
	DD	imagerel ??0SimpleRendererScene@Scene@Application@@QEAA@XZ+308
	DD	00H
	DD	imagerel ??0SimpleRendererScene@Scene@Application@@QEAA@XZ+403
	DD	04H
	DD	imagerel ??0SimpleRendererScene@Scene@Application@@QEAA@XZ+434
	DD	00H
	DD	imagerel ??0SimpleRendererScene@Scene@Application@@QEAA@XZ+611
	DD	0ffffffffH
xdata	ENDS
;	COMDAT xdata
xdata	SEGMENT
$stateUnwindMap$??0SimpleRendererScene@Scene@Application@@QEAA@XZ DD 0ffffffffH
	DD	imagerel ?dtor$0@?0???0SimpleRendererScene@Scene@Application@@QEAA@XZ@4HA
	DD	00H
	DD	imagerel ?dtor$2@?0???0SimpleRendererScene@Scene@Application@@QEAA@XZ@4HA
	DD	01H
	DD	imagerel ?dtor$3@?0???0SimpleRendererScene@Scene@Application@@QEAA@XZ@4HA
	DD	00H
	DD	imagerel ?dtor$3@?0???0SimpleRendererScene@Scene@Application@@QEAA@XZ@4HA
	DD	00H
	DD	imagerel ?dtor$4@?0???0SimpleRendererScene@Scene@Application@@QEAA@XZ@4HA
xdata	ENDS
;	COMDAT CONST
CONST	SEGMENT
$cppxdata$??0SimpleRendererScene@Scene@Application@@QEAA@XZ DQ 00000000519930522r ; 1.0822e-313
	DD	imagerel $stateUnwindMap$??0SimpleRendererScene@Scene@Application@@QEAA@XZ
	DQ	00000000000000000r		; 0
	DD	07H
	DD	imagerel $ip2state$??0SimpleRendererScene@Scene@Application@@QEAA@XZ
	DQ	00000000000000058r		; 4.34778e-322
	DD	01H
CONST	ENDS
;	COMDAT xdata
xdata	SEGMENT
$unwind$??0SimpleRendererScene@Scene@Application@@QEAA@XZ DD 0113411H
	DD	078834H
	DD	08782fH
	DD	09682bH
	DD	01b7427H
	DD	01a6423H
	DD	019341fH
	DD	0140113H
	DD	0e006f008H
	DD	05004H
	DD	imagerel __CxxFrameHandler3
	DD	imagerel $cppxdata$??0SimpleRendererScene@Scene@Application@@QEAA@XZ
xdata	ENDS
;	COMDAT xdata
xdata	SEGMENT
$ip2state$??_GSimpleRendererScene@Scene@Application@@UEAAPEAXI@Z DD imagerel ??_GSimpleRendererScene@Scene@Application@@UEAAPEAXI@Z+89
	DD	00H
xdata	ENDS
;	COMDAT xdata
xdata	SEGMENT
$stateUnwindMap$??_GSimpleRendererScene@Scene@Application@@UEAAPEAXI@Z DD 0ffffffffH
	DD	imagerel __std_terminate
xdata	ENDS
;	COMDAT CONST
CONST	SEGMENT
$cppxdata$??_GSimpleRendererScene@Scene@Application@@UEAAPEAXI@Z DQ 00000000119930522r ; 2.33398e-314
	DD	imagerel $stateUnwindMap$??_GSimpleRendererScene@Scene@Application@@UEAAPEAXI@Z
	DQ	00000000000000000r		; 0
	DD	01H
	DD	imagerel $ip2state$??_GSimpleRendererScene@Scene@Application@@UEAAPEAXI@Z
	DQ	00000000000000020r		; 1.58101e-322
	DD	05H
CONST	ENDS
;	COMDAT xdata
xdata	SEGMENT
$unwind$??_GSimpleRendererScene@Scene@Application@@UEAAPEAXI@Z DD 061919H
	DD	096419H
	DD	083414H
	DD	070025206H
	DD	imagerel __CxxFrameHandler3
	DD	imagerel $cppxdata$??_GSimpleRendererScene@Scene@Application@@UEAAPEAXI@Z
xdata	ENDS
;	COMDAT xdata
xdata	SEGMENT
$ip2state$??1SimpleRendererScene@Scene@Application@@UEAA@XZ DD imagerel ??1SimpleRendererScene@Scene@Application@@UEAA@XZ+82
	DD	0ffffffffH
xdata	ENDS
;	COMDAT CONST
CONST	SEGMENT
$cppxdata$??1SimpleRendererScene@Scene@Application@@UEAA@XZ DQ 00000000019930522r ; 2.11987e-315
	DQ	00000000000000000r		; 0
	DQ	00000000100000000r		; 2.122e-314
	DD	imagerel $ip2state$??1SimpleRendererScene@Scene@Application@@UEAA@XZ
	DQ	00000000000000020r		; 1.58101e-322
	DD	05H
CONST	ENDS
;	COMDAT xdata
xdata	SEGMENT
$unwind$??1SimpleRendererScene@Scene@Application@@UEAA@XZ DD 041419H
	DD	083414H
	DD	070025206H
	DD	imagerel __CxxFrameHandler3
	DD	imagerel $cppxdata$??1SimpleRendererScene@Scene@Application@@UEAA@XZ
xdata	ENDS
;	COMDAT xdata
xdata	SEGMENT
$unwind$??_GSimpleRenderer2D@graphics@core@@QEAAPEAXI@Z DD 020601H
	DD	030023206H
xdata	ENDS
;	COMDAT xdata
xdata	SEGMENT
$unwind$?OnRender@SimpleRendererScene@Scene@Application@@UEAAXXZ DD 040a01H
	DD	06340aH
	DD	07006320aH
END
