; Listing generated by Microsoft (R) Optimizing Compiler Version 19.14.26433.0 

include listing.inc

INCLUDELIB OLDNAMES

PUBLIC	??_C@_0BP@FDJOMHHB@res?1shaders?1TextureTest?4shader?$AA@ ; `string'
PUBLIC	??_C@_0BN@MKLMCAKL@res?1textures?1TextureTest?4png?$AA@ ; `string'
PUBLIC	??_C@_08FDBNEJGE@uTexture?$AA@			; `string'
PUBLIC	??_C@_0O@JGCBCHIF@Texture?5Test?$CB?$AA@	; `string'
PUBLIC	??_R1A@?0A@EA@TextureTestScene@Scene@Application@@8 ; Application::Scene::TextureTestScene::`RTTI Base Class Descriptor at (0,-1,0,64)'
PUBLIC	??_7TextureTestScene@Scene@Application@@6B@	; Application::Scene::TextureTestScene::`vftable'
PUBLIC	??_R2TextureTestScene@Scene@Application@@8	; Application::Scene::TextureTestScene::`RTTI Base Class Array'
PUBLIC	??_R3TextureTestScene@Scene@Application@@8	; Application::Scene::TextureTestScene::`RTTI Class Hierarchy Descriptor'
PUBLIC	??_R0?AVTextureTestScene@Scene@Application@@@8	; Application::Scene::TextureTestScene `RTTI Type Descriptor'
PUBLIC	??_R4TextureTestScene@Scene@Application@@6B@	; Application::Scene::TextureTestScene::`RTTI Complete Object Locator'
;	COMDAT ??_R4TextureTestScene@Scene@Application@@6B@
rdata$r	SEGMENT
??_R4TextureTestScene@Scene@Application@@6B@ DD 01H	; Application::Scene::TextureTestScene::`RTTI Complete Object Locator'
	DD	00H
	DD	00H
	DD	imagerel ??_R0?AVTextureTestScene@Scene@Application@@@8
	DD	imagerel ??_R3TextureTestScene@Scene@Application@@8
	DD	imagerel ??_R4TextureTestScene@Scene@Application@@6B@
rdata$r	ENDS
;	COMDAT ??_R0?AVTextureTestScene@Scene@Application@@@8
data$r	SEGMENT
??_R0?AVTextureTestScene@Scene@Application@@@8 DQ FLAT:??_7type_info@@6B@ ; Application::Scene::TextureTestScene `RTTI Type Descriptor'
	DQ	0000000000000000H
	DB	'.?AVTextureTestScene@Scene@Application@@', 00H
data$r	ENDS
;	COMDAT ??_R3TextureTestScene@Scene@Application@@8
rdata$r	SEGMENT
??_R3TextureTestScene@Scene@Application@@8 DD 00H	; Application::Scene::TextureTestScene::`RTTI Class Hierarchy Descriptor'
	DD	00H
	DD	02H
	DD	imagerel ??_R2TextureTestScene@Scene@Application@@8
rdata$r	ENDS
;	COMDAT ??_R2TextureTestScene@Scene@Application@@8
rdata$r	SEGMENT
??_R2TextureTestScene@Scene@Application@@8 DD imagerel ??_R1A@?0A@EA@TextureTestScene@Scene@Application@@8 ; Application::Scene::TextureTestScene::`RTTI Base Class Array'
	DD	imagerel ??_R1A@?0A@EA@Scene@0Application@@8
	ORG $+3
rdata$r	ENDS
;	COMDAT ??_7TextureTestScene@Scene@Application@@6B@
CONST	SEGMENT
??_7TextureTestScene@Scene@Application@@6B@ DQ FLAT:??_R4TextureTestScene@Scene@Application@@6B@ ; Application::Scene::TextureTestScene::`vftable'
	DQ	FLAT:??_ETextureTestScene@Scene@Application@@UEAAPEAXI@Z
	DQ	FLAT:?OnUpdate@TextureTestScene@Scene@Application@@UEAAXM@Z
	DQ	FLAT:?OnRender@TextureTestScene@Scene@Application@@UEAAXXZ
	DQ	FLAT:?OnImGuiRender@TextureTestScene@Scene@Application@@UEAAXXZ
CONST	ENDS
;	COMDAT ??_R1A@?0A@EA@TextureTestScene@Scene@Application@@8
rdata$r	SEGMENT
??_R1A@?0A@EA@TextureTestScene@Scene@Application@@8 DD imagerel ??_R0?AVTextureTestScene@Scene@Application@@@8 ; Application::Scene::TextureTestScene::`RTTI Base Class Descriptor at (0,-1,0,64)'
	DD	01H
	DD	00H
	DD	0ffffffffH
	DD	00H
	DD	040H
	DD	imagerel ??_R3TextureTestScene@Scene@Application@@8
rdata$r	ENDS
;	COMDAT ??_C@_0O@JGCBCHIF@Texture?5Test?$CB?$AA@
CONST	SEGMENT
??_C@_0O@JGCBCHIF@Texture?5Test?$CB?$AA@ DB 'Texture Test!', 00H ; `string'
CONST	ENDS
;	COMDAT ??_C@_08FDBNEJGE@uTexture?$AA@
CONST	SEGMENT
??_C@_08FDBNEJGE@uTexture?$AA@ DB 'uTexture', 00H	; `string'
CONST	ENDS
;	COMDAT ??_C@_0BN@MKLMCAKL@res?1textures?1TextureTest?4png?$AA@
CONST	SEGMENT
??_C@_0BN@MKLMCAKL@res?1textures?1TextureTest?4png?$AA@ DB 'res/textures/'
	DB	'TextureTest.png', 00H			; `string'
CONST	ENDS
;	COMDAT ??_C@_0BP@FDJOMHHB@res?1shaders?1TextureTest?4shader?$AA@
CONST	SEGMENT
??_C@_0BP@FDJOMHHB@res?1shaders?1TextureTest?4shader?$AA@ DB 'res/shaders'
	DB	'/TextureTest.shader', 00H			; `string'
PUBLIC	?OnImGuiRender@TextureTestScene@Scene@Application@@UEAAXXZ ; Application::Scene::TextureTestScene::OnImGuiRender
PUBLIC	?OnRender@TextureTestScene@Scene@Application@@UEAAXXZ ; Application::Scene::TextureTestScene::OnRender
PUBLIC	?OnUpdate@TextureTestScene@Scene@Application@@UEAAXM@Z ; Application::Scene::TextureTestScene::OnUpdate
PUBLIC	??1TextureTestScene@Scene@Application@@UEAA@XZ	; Application::Scene::TextureTestScene::~TextureTestScene
PUBLIC	??_GTextureTestScene@Scene@Application@@UEAAPEAXI@Z ; Application::Scene::TextureTestScene::`scalar deleting destructor'
PUBLIC	??0TextureTestScene@Scene@Application@@QEAA@XZ	; Application::Scene::TextureTestScene::TextureTestScene
EXTRN	??_ETextureTestScene@Scene@Application@@UEAAPEAXI@Z:PROC ; Application::Scene::TextureTestScene::`vector deleting destructor'
;	COMDAT pdata
pdata	SEGMENT
$pdata$?OnRender@TextureTestScene@Scene@Application@@UEAAXXZ DD imagerel $LN24@OnRender
	DD	imagerel $LN24@OnRender+169
	DD	imagerel $unwind$?OnRender@TextureTestScene@Scene@Application@@UEAAXXZ
pdata	ENDS
;	COMDAT pdata
pdata	SEGMENT
$pdata$??1TextureTestScene@Scene@Application@@UEAA@XZ DD imagerel $LN44@TextureTes
	DD	imagerel $LN44@TextureTes+242
	DD	imagerel $unwind$??1TextureTestScene@Scene@Application@@UEAA@XZ
pdata	ENDS
;	COMDAT pdata
pdata	SEGMENT
$pdata$??_GTextureTestScene@Scene@Application@@UEAAPEAXI@Z DD imagerel $LN48@scalar
	DD	imagerel $LN48@scalar+277
	DD	imagerel $unwind$??_GTextureTestScene@Scene@Application@@UEAAPEAXI@Z
pdata	ENDS
;	COMDAT pdata
pdata	SEGMENT
$pdata$??0TextureTestScene@Scene@Application@@QEAA@XZ DD imagerel $LN334@TextureTes
	DD	imagerel $LN334@TextureTes+811
	DD	imagerel $unwind$??0TextureTestScene@Scene@Application@@QEAA@XZ
pdata	ENDS
;	COMDAT pdata
pdata	SEGMENT
$pdata$?dtor$1@?0???0TextureTestScene@Scene@Application@@QEAA@XZ@4HA DD imagerel ?dtor$1@?0???0TextureTestScene@Scene@Application@@QEAA@XZ@4HA
	DD	imagerel ?dtor$1@?0???0TextureTestScene@Scene@Application@@QEAA@XZ@4HA+29
	DD	imagerel $unwind$?dtor$1@?0???0TextureTestScene@Scene@Application@@QEAA@XZ@4HA
pdata	ENDS
;	COMDAT pdata
pdata	SEGMENT
$pdata$?dtor$2@?0???0TextureTestScene@Scene@Application@@QEAA@XZ@4HA DD imagerel ?dtor$2@?0???0TextureTestScene@Scene@Application@@QEAA@XZ@4HA
	DD	imagerel ?dtor$2@?0???0TextureTestScene@Scene@Application@@QEAA@XZ@4HA+29
	DD	imagerel $unwind$?dtor$2@?0???0TextureTestScene@Scene@Application@@QEAA@XZ@4HA
pdata	ENDS
;	COMDAT pdata
pdata	SEGMENT
$pdata$?dtor$3@?0???0TextureTestScene@Scene@Application@@QEAA@XZ@4HA DD imagerel ?dtor$3@?0???0TextureTestScene@Scene@Application@@QEAA@XZ@4HA
	DD	imagerel ?dtor$3@?0???0TextureTestScene@Scene@Application@@QEAA@XZ@4HA+29
	DD	imagerel $unwind$?dtor$3@?0???0TextureTestScene@Scene@Application@@QEAA@XZ@4HA
pdata	ENDS
;	COMDAT pdata
pdata	SEGMENT
$pdata$?dtor$5@?0???0TextureTestScene@Scene@Application@@QEAA@XZ@4HA DD imagerel ?dtor$5@?0???0TextureTestScene@Scene@Application@@QEAA@XZ@4HA
	DD	imagerel ?dtor$5@?0???0TextureTestScene@Scene@Application@@QEAA@XZ@4HA+29
	DD	imagerel $unwind$?dtor$5@?0???0TextureTestScene@Scene@Application@@QEAA@XZ@4HA
pdata	ENDS
;	COMDAT pdata
pdata	SEGMENT
$pdata$?dtor$6@?0???0TextureTestScene@Scene@Application@@QEAA@XZ@4HA DD imagerel ?dtor$6@?0???0TextureTestScene@Scene@Application@@QEAA@XZ@4HA
	DD	imagerel ?dtor$6@?0???0TextureTestScene@Scene@Application@@QEAA@XZ@4HA+38
	DD	imagerel $unwind$?dtor$6@?0???0TextureTestScene@Scene@Application@@QEAA@XZ@4HA
pdata	ENDS
;	COMDAT pdata
pdata	SEGMENT
$pdata$?dtor$7@?0???0TextureTestScene@Scene@Application@@QEAA@XZ@4HA DD imagerel ?dtor$7@?0???0TextureTestScene@Scene@Application@@QEAA@XZ@4HA
	DD	imagerel ?dtor$7@?0???0TextureTestScene@Scene@Application@@QEAA@XZ@4HA+29
	DD	imagerel $unwind$?dtor$7@?0???0TextureTestScene@Scene@Application@@QEAA@XZ@4HA
pdata	ENDS
;	COMDAT xdata
xdata	SEGMENT
$unwind$?dtor$7@?0???0TextureTestScene@Scene@Application@@QEAA@XZ@4HA DD 020601H
	DD	050023206H
xdata	ENDS
;	COMDAT xdata
xdata	SEGMENT
$unwind$?dtor$6@?0???0TextureTestScene@Scene@Application@@QEAA@XZ@4HA DD 020601H
	DD	050023206H
xdata	ENDS
;	COMDAT xdata
xdata	SEGMENT
$unwind$?dtor$5@?0???0TextureTestScene@Scene@Application@@QEAA@XZ@4HA DD 020601H
	DD	050023206H
xdata	ENDS
;	COMDAT xdata
xdata	SEGMENT
$unwind$?dtor$3@?0???0TextureTestScene@Scene@Application@@QEAA@XZ@4HA DD 020601H
	DD	050023206H
xdata	ENDS
;	COMDAT xdata
xdata	SEGMENT
$unwind$?dtor$2@?0???0TextureTestScene@Scene@Application@@QEAA@XZ@4HA DD 020601H
	DD	050023206H
xdata	ENDS
;	COMDAT xdata
xdata	SEGMENT
$unwind$?dtor$1@?0???0TextureTestScene@Scene@Application@@QEAA@XZ@4HA DD 020601H
	DD	050023206H
xdata	ENDS
;	COMDAT xdata
xdata	SEGMENT
$ip2state$??0TextureTestScene@Scene@Application@@QEAA@XZ DD imagerel ??0TextureTestScene@Scene@Application@@QEAA@XZ+74
	DD	00H
	DD	imagerel ??0TextureTestScene@Scene@Application@@QEAA@XZ+99
	DD	01H
	DD	imagerel ??0TextureTestScene@Scene@Application@@QEAA@XZ+153
	DD	00H
	DD	imagerel ??0TextureTestScene@Scene@Application@@QEAA@XZ+178
	DD	02H
	DD	imagerel ??0TextureTestScene@Scene@Application@@QEAA@XZ+223
	DD	00H
	DD	imagerel ??0TextureTestScene@Scene@Application@@QEAA@XZ+274
	DD	03H
	DD	imagerel ??0TextureTestScene@Scene@Application@@QEAA@XZ+343
	DD	00H
	DD	imagerel ??0TextureTestScene@Scene@Application@@QEAA@XZ+544
	DD	04H
	DD	imagerel ??0TextureTestScene@Scene@Application@@QEAA@XZ+583
	DD	05H
	DD	imagerel ??0TextureTestScene@Scene@Application@@QEAA@XZ+603
	DD	06H
	DD	imagerel ??0TextureTestScene@Scene@Application@@QEAA@XZ+674
	DD	00H
	DD	imagerel ??0TextureTestScene@Scene@Application@@QEAA@XZ+749
	DD	07H
	DD	imagerel ??0TextureTestScene@Scene@Application@@QEAA@XZ+767
	DD	00H
	DD	imagerel ??0TextureTestScene@Scene@Application@@QEAA@XZ+781
	DD	0ffffffffH
xdata	ENDS
;	COMDAT xdata
xdata	SEGMENT
$stateUnwindMap$??0TextureTestScene@Scene@Application@@QEAA@XZ DD 0ffffffffH
	DD	imagerel ?dtor$0@?0???0TextureTestScene@Scene@Application@@QEAA@XZ@4HA
	DD	00H
	DD	imagerel ?dtor$1@?0???0TextureTestScene@Scene@Application@@QEAA@XZ@4HA
	DD	00H
	DD	imagerel ?dtor$2@?0???0TextureTestScene@Scene@Application@@QEAA@XZ@4HA
	DD	00H
	DD	imagerel ?dtor$3@?0???0TextureTestScene@Scene@Application@@QEAA@XZ@4HA
	DD	00H
	DD	imagerel ?dtor$5@?0???0TextureTestScene@Scene@Application@@QEAA@XZ@4HA
	DD	04H
	DD	imagerel ?dtor$6@?0???0TextureTestScene@Scene@Application@@QEAA@XZ@4HA
	DD	00H
	DD	imagerel ?dtor$6@?0???0TextureTestScene@Scene@Application@@QEAA@XZ@4HA
	DD	00H
	DD	imagerel ?dtor$7@?0???0TextureTestScene@Scene@Application@@QEAA@XZ@4HA
xdata	ENDS
;	COMDAT CONST
CONST	SEGMENT
$cppxdata$??0TextureTestScene@Scene@Application@@QEAA@XZ DQ 00000000819930522r ; 1.7188e-313
	DD	imagerel $stateUnwindMap$??0TextureTestScene@Scene@Application@@QEAA@XZ
	DQ	00000000000000000r		; 0
	DD	0eH
	DD	imagerel $ip2state$??0TextureTestScene@Scene@Application@@QEAA@XZ
	DQ	00000000000000058r		; 4.34778e-322
	DD	01H
CONST	ENDS
;	COMDAT xdata
xdata	SEGMENT
$unwind$??0TextureTestScene@Scene@Application@@QEAA@XZ DD 093119H
	DD	01f7423H
	DD	01e641fH
	DD	01d341bH
	DD	01a010fH
	DD	05004H
	DD	imagerel __GSHandlerCheck_EH
	DD	imagerel $cppxdata$??0TextureTestScene@Scene@Application@@QEAA@XZ
	DD	0c2H
xdata	ENDS
;	COMDAT xdata
xdata	SEGMENT
$ip2state$??_GTextureTestScene@Scene@Application@@UEAAPEAXI@Z DD imagerel ??_GTextureTestScene@Scene@Application@@UEAAPEAXI@Z+64
	DD	00H
	DD	imagerel ??_GTextureTestScene@Scene@Application@@UEAAPEAXI@Z+108
	DD	0ffffffffH
	DD	imagerel ??_GTextureTestScene@Scene@Application@@UEAAPEAXI@Z+146
	DD	00H
	DD	imagerel ??_GTextureTestScene@Scene@Application@@UEAAPEAXI@Z+199
	DD	0ffffffffH
xdata	ENDS
;	COMDAT xdata
xdata	SEGMENT
$stateUnwindMap$??_GTextureTestScene@Scene@Application@@UEAAPEAXI@Z DD 0ffffffffH
	DD	imagerel __std_terminate
xdata	ENDS
;	COMDAT CONST
CONST	SEGMENT
$cppxdata$??_GTextureTestScene@Scene@Application@@UEAAPEAXI@Z DQ 00000000119930522r ; 2.33398e-314
	DD	imagerel $stateUnwindMap$??_GTextureTestScene@Scene@Application@@UEAAPEAXI@Z
	DQ	00000000000000000r		; 0
	DD	04H
	DD	imagerel $ip2state$??_GTextureTestScene@Scene@Application@@UEAAPEAXI@Z
	DQ	00000000000000020r		; 1.58101e-322
	DD	05H
CONST	ENDS
;	COMDAT xdata
xdata	SEGMENT
$unwind$??_GTextureTestScene@Scene@Application@@UEAAPEAXI@Z DD 061919H
	DD	096419H
	DD	083414H
	DD	070025206H
	DD	imagerel __CxxFrameHandler3
	DD	imagerel $cppxdata$??_GTextureTestScene@Scene@Application@@UEAAPEAXI@Z
xdata	ENDS
;	COMDAT xdata
xdata	SEGMENT
$ip2state$??1TextureTestScene@Scene@Application@@UEAA@XZ DD imagerel ??1TextureTestScene@Scene@Application@@UEAA@XZ+57
	DD	00H
	DD	imagerel ??1TextureTestScene@Scene@Application@@UEAA@XZ+101
	DD	0ffffffffH
	DD	imagerel ??1TextureTestScene@Scene@Application@@UEAA@XZ+139
	DD	00H
	DD	imagerel ??1TextureTestScene@Scene@Application@@UEAA@XZ+192
	DD	0ffffffffH
xdata	ENDS
;	COMDAT xdata
xdata	SEGMENT
$stateUnwindMap$??1TextureTestScene@Scene@Application@@UEAA@XZ DD 0ffffffffH
	DD	imagerel __std_terminate
xdata	ENDS
;	COMDAT CONST
CONST	SEGMENT
$cppxdata$??1TextureTestScene@Scene@Application@@UEAA@XZ DQ 00000000119930522r ; 2.33398e-314
	DD	imagerel $stateUnwindMap$??1TextureTestScene@Scene@Application@@UEAA@XZ
	DQ	00000000000000000r		; 0
	DD	04H
	DD	imagerel $ip2state$??1TextureTestScene@Scene@Application@@UEAA@XZ
	DQ	00000000000000020r		; 1.58101e-322
	DD	05H
CONST	ENDS
;	COMDAT xdata
xdata	SEGMENT
$unwind$??1TextureTestScene@Scene@Application@@UEAA@XZ DD 041419H
	DD	083414H
	DD	070025206H
	DD	imagerel __CxxFrameHandler3
	DD	imagerel $cppxdata$??1TextureTestScene@Scene@Application@@UEAA@XZ
xdata	ENDS
;	COMDAT xdata
xdata	SEGMENT
$unwind$?OnRender@TextureTestScene@Scene@Application@@UEAAXXZ DD 040a01H
	DD	06340aH
	DD	07006320aH
END
