; Listing generated by Microsoft (R) Optimizing Compiler Version 19.14.26433.0 

include listing.inc

INCLUDELIB MSVCRTD
INCLUDELIB OLDNAMES

PUBLIC	??_H@YAXPEAX_K1P6APEAX0@Z@Z			; `vector constructor iterator'
PUBLIC	?__empty_global_delete@@YAXPEAX@Z		; __empty_global_delete
PUBLIC	?__empty_global_delete@@YAXPEAX_K@Z		; __empty_global_delete
PUBLIC	?max@?$numeric_limits@_J@std@@SA_JXZ		; std::numeric_limits<__int64>::max
PUBLIC	??2@YAPEAX_KPEAX@Z				; operator new
PUBLIC	?_Getpfirst@_Container_base12@std@@QEBAPEAPEAU_Iterator_base12@2@XZ ; std::_Container_base12::_Getpfirst
PUBLIC	?_Orphan_all@_Container_base12@std@@QEAAXXZ	; std::_Container_base12::_Orphan_all
PUBLIC	?_Clrcont@_Iterator_base12@std@@QEAAXXZ		; std::_Iterator_base12::_Clrcont
PUBLIC	?_Getpnext@_Iterator_base12@std@@QEAAPEAPEAU12@XZ ; std::_Iterator_base12::_Getpnext
PUBLIC	?_Allocate@_Default_allocate_traits@std@@SAPEAX_K@Z ; std::_Default_allocate_traits::_Allocate
PUBLIC	?_Adjust_manually_vector_aligned@std@@YAXAEAPEAXAEA_K@Z ; std::_Adjust_manually_vector_aligned
PUBLIC	??$_Min_value@_K@std@@YAAEB_KAEB_K0@Z		; std::_Min_value<unsigned __int64>
PUBLIC	?__autoclassinit2@Window@graphics@core@@QEAAX_K@Z ; core::graphics::Window::__autoclassinit2
PUBLIC	??0ImVec2@@QEAA@MM@Z				; ImVec2::ImVec2
PUBLIC	?deallocate@?$allocator@U?$pair@PEBDV?$function@$$A6APEAVScene@1Application@@XZ@std@@@std@@@std@@QEAAXQEAU?$pair@PEBDV?$function@$$A6APEAVScene@1Application@@XZ@std@@@2@_K@Z ; std::allocator<std::pair<char const *,std::function<Application::Scene::Scene * __cdecl(void)> > >::deallocate
PUBLIC	?allocate@?$allocator@U?$pair@PEBDV?$function@$$A6APEAVScene@1Application@@XZ@std@@@std@@@std@@QEAAPEAU?$pair@PEBDV?$function@$$A6APEAVScene@1Application@@XZ@std@@@2@_K@Z ; std::allocator<std::pair<char const *,std::function<Application::Scene::Scene * __cdecl(void)> > >::allocate
PUBLIC	?max_size@?$_Default_allocator_traits@V?$allocator@U?$pair@PEBDV?$function@$$A6APEAVScene@1Application@@XZ@std@@@std@@@std@@@std@@SA_KAEBV?$allocator@U?$pair@PEBDV?$function@$$A6APEAVScene@1Application@@XZ@std@@@std@@@2@@Z ; std::_Default_allocator_traits<std::allocator<std::pair<char const *,std::function<Application::Scene::Scene * __cdecl(void)> > > >::max_size
PUBLIC	?_Getpfirst@?$_Vector_alloc@U?$_Vec_base_types@U?$pair@PEBDV?$function@$$A6APEAVScene@1Application@@XZ@std@@@std@@V?$allocator@U?$pair@PEBDV?$function@$$A6APEAVScene@1Application@@XZ@std@@@std@@@2@@std@@@std@@QEBAPEAPEAU_Iterator_base12@2@XZ ; std::_Vector_alloc<std::_Vec_base_types<std::pair<char const *,std::function<Application::Scene::Scene * __cdecl(void)> >,std::allocator<std::pair<char const *,std::function<Application::Scene::Scene * __cdecl(void)> > > > >::_Getpfirst
PUBLIC	?_Orphan_all@?$_Vector_alloc@U?$_Vec_base_types@U?$pair@PEBDV?$function@$$A6APEAVScene@1Application@@XZ@std@@@std@@V?$allocator@U?$pair@PEBDV?$function@$$A6APEAVScene@1Application@@XZ@std@@@std@@@2@@std@@@std@@QEAAXXZ ; std::_Vector_alloc<std::_Vec_base_types<std::pair<char const *,std::function<Application::Scene::Scene * __cdecl(void)> >,std::allocator<std::pair<char const *,std::function<Application::Scene::Scene * __cdecl(void)> > > > >::_Orphan_all
PUBLIC	?_Getal@?$_Vector_alloc@U?$_Vec_base_types@U?$pair@PEBDV?$function@$$A6APEAVScene@1Application@@XZ@std@@@std@@V?$allocator@U?$pair@PEBDV?$function@$$A6APEAVScene@1Application@@XZ@std@@@std@@@2@@std@@@std@@QEAAAEAV?$allocator@U?$pair@PEBDV?$function@$$A6APEAVScene@1Application@@XZ@std@@@std@@@2@XZ ; std::_Vector_alloc<std::_Vec_base_types<std::pair<char const *,std::function<Application::Scene::Scene * __cdecl(void)> >,std::allocator<std::pair<char const *,std::function<Application::Scene::Scene * __cdecl(void)> > > > >::_Getal
PUBLIC	?_Getal@?$_Vector_alloc@U?$_Vec_base_types@U?$pair@PEBDV?$function@$$A6APEAVScene@1Application@@XZ@std@@@std@@V?$allocator@U?$pair@PEBDV?$function@$$A6APEAVScene@1Application@@XZ@std@@@std@@@2@@std@@@std@@QEBAAEBV?$allocator@U?$pair@PEBDV?$function@$$A6APEAVScene@1Application@@XZ@std@@@std@@@2@XZ ; std::_Vector_alloc<std::_Vec_base_types<std::pair<char const *,std::function<Application::Scene::Scene * __cdecl(void)> >,std::allocator<std::pair<char const *,std::function<Application::Scene::Scene * __cdecl(void)> > > > >::_Getal
PUBLIC	?_Get_data@?$_Vector_alloc@U?$_Vec_base_types@U?$pair@PEBDV?$function@$$A6APEAVScene@1Application@@XZ@std@@@std@@V?$allocator@U?$pair@PEBDV?$function@$$A6APEAVScene@1Application@@XZ@std@@@std@@@2@@std@@@std@@QEAAAEAV?$_Vector_val@U?$_Simple_types@U?$pair@PEBDV?$function@$$A6APEAVScene@1Application@@XZ@std@@@std@@@std@@@2@XZ ; std::_Vector_alloc<std::_Vec_base_types<std::pair<char const *,std::function<Application::Scene::Scene * __cdecl(void)> >,std::allocator<std::pair<char const *,std::function<Application::Scene::Scene * __cdecl(void)> > > > >::_Get_data
PUBLIC	?_Get_data@?$_Vector_alloc@U?$_Vec_base_types@U?$pair@PEBDV?$function@$$A6APEAVScene@1Application@@XZ@std@@@std@@V?$allocator@U?$pair@PEBDV?$function@$$A6APEAVScene@1Application@@XZ@std@@@std@@@2@@std@@@std@@QEBAAEBV?$_Vector_val@U?$_Simple_types@U?$pair@PEBDV?$function@$$A6APEAVScene@1Application@@XZ@std@@@std@@@std@@@2@XZ ; std::_Vector_alloc<std::_Vec_base_types<std::pair<char const *,std::function<Application::Scene::Scene * __cdecl(void)> >,std::allocator<std::pair<char const *,std::function<Application::Scene::Scene * __cdecl(void)> > > > >::_Get_data
PUBLIC	?_Myfirst@?$_Vector_alloc@U?$_Vec_base_types@U?$pair@PEBDV?$function@$$A6APEAVScene@1Application@@XZ@std@@@std@@V?$allocator@U?$pair@PEBDV?$function@$$A6APEAVScene@1Application@@XZ@std@@@std@@@2@@std@@@std@@QEAAAEAPEAU?$pair@PEBDV?$function@$$A6APEAVScene@1Application@@XZ@std@@@2@XZ ; std::_Vector_alloc<std::_Vec_base_types<std::pair<char const *,std::function<Application::Scene::Scene * __cdecl(void)> >,std::allocator<std::pair<char const *,std::function<Application::Scene::Scene * __cdecl(void)> > > > >::_Myfirst
PUBLIC	?_Myfirst@?$_Vector_alloc@U?$_Vec_base_types@U?$pair@PEBDV?$function@$$A6APEAVScene@1Application@@XZ@std@@@std@@V?$allocator@U?$pair@PEBDV?$function@$$A6APEAVScene@1Application@@XZ@std@@@std@@@2@@std@@@std@@QEBAAEBQEAU?$pair@PEBDV?$function@$$A6APEAVScene@1Application@@XZ@std@@@2@XZ ; std::_Vector_alloc<std::_Vec_base_types<std::pair<char const *,std::function<Application::Scene::Scene * __cdecl(void)> >,std::allocator<std::pair<char const *,std::function<Application::Scene::Scene * __cdecl(void)> > > > >::_Myfirst
PUBLIC	?_Mylast@?$_Vector_alloc@U?$_Vec_base_types@U?$pair@PEBDV?$function@$$A6APEAVScene@1Application@@XZ@std@@@std@@V?$allocator@U?$pair@PEBDV?$function@$$A6APEAVScene@1Application@@XZ@std@@@std@@@2@@std@@@std@@QEAAAEAPEAU?$pair@PEBDV?$function@$$A6APEAVScene@1Application@@XZ@std@@@2@XZ ; std::_Vector_alloc<std::_Vec_base_types<std::pair<char const *,std::function<Application::Scene::Scene * __cdecl(void)> >,std::allocator<std::pair<char const *,std::function<Application::Scene::Scene * __cdecl(void)> > > > >::_Mylast
PUBLIC	?_Mylast@?$_Vector_alloc@U?$_Vec_base_types@U?$pair@PEBDV?$function@$$A6APEAVScene@1Application@@XZ@std@@@std@@V?$allocator@U?$pair@PEBDV?$function@$$A6APEAVScene@1Application@@XZ@std@@@std@@@2@@std@@@std@@QEBAAEBQEAU?$pair@PEBDV?$function@$$A6APEAVScene@1Application@@XZ@std@@@2@XZ ; std::_Vector_alloc<std::_Vec_base_types<std::pair<char const *,std::function<Application::Scene::Scene * __cdecl(void)> >,std::allocator<std::pair<char const *,std::function<Application::Scene::Scene * __cdecl(void)> > > > >::_Mylast
PUBLIC	?_Myend@?$_Vector_alloc@U?$_Vec_base_types@U?$pair@PEBDV?$function@$$A6APEAVScene@1Application@@XZ@std@@@std@@V?$allocator@U?$pair@PEBDV?$function@$$A6APEAVScene@1Application@@XZ@std@@@std@@@2@@std@@@std@@QEAAAEAPEAU?$pair@PEBDV?$function@$$A6APEAVScene@1Application@@XZ@std@@@2@XZ ; std::_Vector_alloc<std::_Vec_base_types<std::pair<char const *,std::function<Application::Scene::Scene * __cdecl(void)> >,std::allocator<std::pair<char const *,std::function<Application::Scene::Scene * __cdecl(void)> > > > >::_Myend
PUBLIC	?_Myend@?$_Vector_alloc@U?$_Vec_base_types@U?$pair@PEBDV?$function@$$A6APEAVScene@1Application@@XZ@std@@@std@@V?$allocator@U?$pair@PEBDV?$function@$$A6APEAVScene@1Application@@XZ@std@@@std@@@2@@std@@@std@@QEBAAEBQEAU?$pair@PEBDV?$function@$$A6APEAVScene@1Application@@XZ@std@@@2@XZ ; std::_Vector_alloc<std::_Vec_base_types<std::pair<char const *,std::function<Application::Scene::Scene * __cdecl(void)> >,std::allocator<std::pair<char const *,std::function<Application::Scene::Scene * __cdecl(void)> > > > >::_Myend
PUBLIC	?_Get_first@?$_Compressed_pair@V?$allocator@U?$pair@PEBDV?$function@$$A6APEAVScene@1Application@@XZ@std@@@std@@@std@@V?$_Vector_val@U?$_Simple_types@U?$pair@PEBDV?$function@$$A6APEAVScene@1Application@@XZ@std@@@std@@@std@@@2@$00@std@@QEAAAEAV?$allocator@U?$pair@PEBDV?$function@$$A6APEAVScene@1Application@@XZ@std@@@std@@@2@XZ ; std::_Compressed_pair<std::allocator<std::pair<char const *,std::function<Application::Scene::Scene * __cdecl(void)> > >,std::_Vector_val<std::_Simple_types<std::pair<char const *,std::function<Application::Scene::Scene * __cdecl(void)> > > >,1>::_Get_first
PUBLIC	?_Get_first@?$_Compressed_pair@V?$allocator@U?$pair@PEBDV?$function@$$A6APEAVScene@1Application@@XZ@std@@@std@@@std@@V?$_Vector_val@U?$_Simple_types@U?$pair@PEBDV?$function@$$A6APEAVScene@1Application@@XZ@std@@@std@@@std@@@2@$00@std@@QEBAAEBV?$allocator@U?$pair@PEBDV?$function@$$A6APEAVScene@1Application@@XZ@std@@@std@@@2@XZ ; std::_Compressed_pair<std::allocator<std::pair<char const *,std::function<Application::Scene::Scene * __cdecl(void)> > >,std::_Vector_val<std::_Simple_types<std::pair<char const *,std::function<Application::Scene::Scene * __cdecl(void)> > > >,1>::_Get_first
PUBLIC	?_Get_second@?$_Compressed_pair@V?$allocator@U?$pair@PEBDV?$function@$$A6APEAVScene@1Application@@XZ@std@@@std@@@std@@V?$_Vector_val@U?$_Simple_types@U?$pair@PEBDV?$function@$$A6APEAVScene@1Application@@XZ@std@@@std@@@std@@@2@$00@std@@QEAAAEAV?$_Vector_val@U?$_Simple_types@U?$pair@PEBDV?$function@$$A6APEAVScene@1Application@@XZ@std@@@std@@@std@@@2@XZ ; std::_Compressed_pair<std::allocator<std::pair<char const *,std::function<Application::Scene::Scene * __cdecl(void)> > >,std::_Vector_val<std::_Simple_types<std::pair<char const *,std::function<Application::Scene::Scene * __cdecl(void)> > > >,1>::_Get_second
PUBLIC	?_Get_second@?$_Compressed_pair@V?$allocator@U?$pair@PEBDV?$function@$$A6APEAVScene@1Application@@XZ@std@@@std@@@std@@V?$_Vector_val@U?$_Simple_types@U?$pair@PEBDV?$function@$$A6APEAVScene@1Application@@XZ@std@@@std@@@std@@@2@$00@std@@QEBAAEBV?$_Vector_val@U?$_Simple_types@U?$pair@PEBDV?$function@$$A6APEAVScene@1Application@@XZ@std@@@std@@@std@@@2@XZ ; std::_Compressed_pair<std::allocator<std::pair<char const *,std::function<Application::Scene::Scene * __cdecl(void)> > >,std::_Vector_val<std::_Simple_types<std::pair<char const *,std::function<Application::Scene::Scene * __cdecl(void)> > > >,1>::_Get_second
PUBLIC	?push_back@?$vector@U?$pair@PEBDV?$function@$$A6APEAVScene@1Application@@XZ@std@@@std@@V?$allocator@U?$pair@PEBDV?$function@$$A6APEAVScene@1Application@@XZ@std@@@std@@@2@@std@@QEAAX$$QEAU?$pair@PEBDV?$function@$$A6APEAVScene@1Application@@XZ@std@@@2@@Z ; std::vector<std::pair<char const *,std::function<Application::Scene::Scene * __cdecl(void)> >,std::allocator<std::pair<char const *,std::function<Application::Scene::Scene * __cdecl(void)> > > >::push_back
PUBLIC	?size@?$vector@U?$pair@PEBDV?$function@$$A6APEAVScene@1Application@@XZ@std@@@std@@V?$allocator@U?$pair@PEBDV?$function@$$A6APEAVScene@1Application@@XZ@std@@@std@@@2@@std@@QEBA_KXZ ; std::vector<std::pair<char const *,std::function<Application::Scene::Scene * __cdecl(void)> >,std::allocator<std::pair<char const *,std::function<Application::Scene::Scene * __cdecl(void)> > > >::size
PUBLIC	?max_size@?$vector@U?$pair@PEBDV?$function@$$A6APEAVScene@1Application@@XZ@std@@@std@@V?$allocator@U?$pair@PEBDV?$function@$$A6APEAVScene@1Application@@XZ@std@@@std@@@2@@std@@QEBA_KXZ ; std::vector<std::pair<char const *,std::function<Application::Scene::Scene * __cdecl(void)> >,std::allocator<std::pair<char const *,std::function<Application::Scene::Scene * __cdecl(void)> > > >::max_size
PUBLIC	?capacity@?$vector@U?$pair@PEBDV?$function@$$A6APEAVScene@1Application@@XZ@std@@@std@@V?$allocator@U?$pair@PEBDV?$function@$$A6APEAVScene@1Application@@XZ@std@@@std@@@2@@std@@QEBA_KXZ ; std::vector<std::pair<char const *,std::function<Application::Scene::Scene * __cdecl(void)> >,std::allocator<std::pair<char const *,std::function<Application::Scene::Scene * __cdecl(void)> > > >::capacity
PUBLIC	?_Has_unused_capacity@?$vector@U?$pair@PEBDV?$function@$$A6APEAVScene@1Application@@XZ@std@@@std@@V?$allocator@U?$pair@PEBDV?$function@$$A6APEAVScene@1Application@@XZ@std@@@std@@@2@@std@@AEBA_NXZ ; std::vector<std::pair<char const *,std::function<Application::Scene::Scene * __cdecl(void)> >,std::allocator<std::pair<char const *,std::function<Application::Scene::Scene * __cdecl(void)> > > >::_Has_unused_capacity
PUBLIC	?_Umove@?$vector@U?$pair@PEBDV?$function@$$A6APEAVScene@1Application@@XZ@std@@@std@@V?$allocator@U?$pair@PEBDV?$function@$$A6APEAVScene@1Application@@XZ@std@@@std@@@2@@std@@AEAAPEAU?$pair@PEBDV?$function@$$A6APEAVScene@1Application@@XZ@std@@@2@PEAU32@00@Z ; std::vector<std::pair<char const *,std::function<Application::Scene::Scene * __cdecl(void)> >,std::allocator<std::pair<char const *,std::function<Application::Scene::Scene * __cdecl(void)> > > >::_Umove
PUBLIC	?_Umove_if_noexcept1@?$vector@U?$pair@PEBDV?$function@$$A6APEAVScene@1Application@@XZ@std@@@std@@V?$allocator@U?$pair@PEBDV?$function@$$A6APEAVScene@1Application@@XZ@std@@@std@@@2@@std@@AEAAXPEAU?$pair@PEBDV?$function@$$A6APEAVScene@1Application@@XZ@std@@@2@00U?$integral_constant@_N$0A@@2@@Z ; std::vector<std::pair<char const *,std::function<Application::Scene::Scene * __cdecl(void)> >,std::allocator<std::pair<char const *,std::function<Application::Scene::Scene * __cdecl(void)> > > >::_Umove_if_noexcept1
PUBLIC	?_Umove_if_noexcept@?$vector@U?$pair@PEBDV?$function@$$A6APEAVScene@1Application@@XZ@std@@@std@@V?$allocator@U?$pair@PEBDV?$function@$$A6APEAVScene@1Application@@XZ@std@@@std@@@2@@std@@AEAAXPEAU?$pair@PEBDV?$function@$$A6APEAVScene@1Application@@XZ@std@@@2@00@Z ; std::vector<std::pair<char const *,std::function<Application::Scene::Scene * __cdecl(void)> >,std::allocator<std::pair<char const *,std::function<Application::Scene::Scene * __cdecl(void)> > > >::_Umove_if_noexcept
PUBLIC	?_Destroy@?$vector@U?$pair@PEBDV?$function@$$A6APEAVScene@1Application@@XZ@std@@@std@@V?$allocator@U?$pair@PEBDV?$function@$$A6APEAVScene@1Application@@XZ@std@@@std@@@2@@std@@AEAAXPEAU?$pair@PEBDV?$function@$$A6APEAVScene@1Application@@XZ@std@@@2@0@Z ; std::vector<std::pair<char const *,std::function<Application::Scene::Scene * __cdecl(void)> >,std::allocator<std::pair<char const *,std::function<Application::Scene::Scene * __cdecl(void)> > > >::_Destroy
PUBLIC	?_Calculate_growth@?$vector@U?$pair@PEBDV?$function@$$A6APEAVScene@1Application@@XZ@std@@@std@@V?$allocator@U?$pair@PEBDV?$function@$$A6APEAVScene@1Application@@XZ@std@@@std@@@2@@std@@AEBA_K_K@Z ; std::vector<std::pair<char const *,std::function<Application::Scene::Scene * __cdecl(void)> >,std::allocator<std::pair<char const *,std::function<Application::Scene::Scene * __cdecl(void)> > > >::_Calculate_growth
PUBLIC	?_Change_array@?$vector@U?$pair@PEBDV?$function@$$A6APEAVScene@1Application@@XZ@std@@@std@@V?$allocator@U?$pair@PEBDV?$function@$$A6APEAVScene@1Application@@XZ@std@@@std@@@2@@std@@AEAAXQEAU?$pair@PEBDV?$function@$$A6APEAVScene@1Application@@XZ@std@@@2@_K1@Z ; std::vector<std::pair<char const *,std::function<Application::Scene::Scene * __cdecl(void)> >,std::allocator<std::pair<char const *,std::function<Application::Scene::Scene * __cdecl(void)> > > >::_Change_array
PUBLIC	?_Xlength@?$vector@U?$pair@PEBDV?$function@$$A6APEAVScene@1Application@@XZ@std@@@std@@V?$allocator@U?$pair@PEBDV?$function@$$A6APEAVScene@1Application@@XZ@std@@@std@@@2@@std@@CAXXZ ; std::vector<std::pair<char const *,std::function<Application::Scene::Scene * __cdecl(void)> >,std::allocator<std::pair<char const *,std::function<Application::Scene::Scene * __cdecl(void)> > > >::_Xlength
PUBLIC	?_Orphan_range@?$vector@U?$pair@PEBDV?$function@$$A6APEAVScene@1Application@@XZ@std@@@std@@V?$allocator@U?$pair@PEBDV?$function@$$A6APEAVScene@1Application@@XZ@std@@@std@@@2@@std@@AEBAXPEAU?$pair@PEBDV?$function@$$A6APEAVScene@1Application@@XZ@std@@@2@0@Z ; std::vector<std::pair<char const *,std::function<Application::Scene::Scene * __cdecl(void)> >,std::allocator<std::pair<char const *,std::function<Application::Scene::Scene * __cdecl(void)> > > >::_Orphan_range
PUBLIC	?__autoclassinit2@MainMenuScene@Scene@Application@@QEAAX_K@Z ; Application::Scene::MainMenuScene::__autoclassinit2
PUBLIC	?__autoclassinit2@SandboxScene@Scene@Application@@QEAAX_K@Z ; Application::Scene::SandboxScene::__autoclassinit2
PUBLIC	?__autoclassinit2@BuffersTestScene@Scene@Application@@QEAAX_K@Z ; Application::Scene::BuffersTestScene::__autoclassinit2
PUBLIC	?__autoclassinit2@TextureTestScene@Scene@Application@@QEAAX_K@Z ; Application::Scene::TextureTestScene::__autoclassinit2
PUBLIC	?__autoclassinit2@SimpleRendererScene@Scene@Application@@QEAAX_K@Z ; Application::Scene::SimpleRendererScene::__autoclassinit2
PUBLIC	?__autoclassinit2@BatchRendererScene@Scene@Application@@QEAAX_K@Z ; Application::Scene::BatchRendererScene::__autoclassinit2
PUBLIC	?__autoclassinit2@BoidScene@Scene@Application@@QEAAX_K@Z ; Application::Scene::BoidScene::__autoclassinit2
PUBLIC	?__autoclassinit2@MandelbrotScene@Scene@Application@@QEAAX_K@Z ; Application::Scene::MandelbrotScene::__autoclassinit2
PUBLIC	?__autoclassinit2@ComputeShaderScene@Scene@Application@@QEAAX_K@Z ; Application::Scene::ComputeShaderScene::__autoclassinit2
PUBLIC	?__autoclassinit2@LayerScene@Scene@Application@@QEAAX_K@Z ; Application::Scene::LayerScene::__autoclassinit2
PUBLIC	main
PUBLIC	??$RegisterScene@VTestScene@Scene@Application@@@MainMenuScene@Scene@Application@@QEAAXPEBD@Z ; Application::Scene::MainMenuScene::RegisterScene<Application::Scene::TestScene>
PUBLIC	??$RegisterScene@VSandboxScene@Scene@Application@@@MainMenuScene@Scene@Application@@QEAAXPEBD@Z ; Application::Scene::MainMenuScene::RegisterScene<Application::Scene::SandboxScene>
PUBLIC	??$RegisterScene@VBuffersTestScene@Scene@Application@@@MainMenuScene@Scene@Application@@QEAAXPEBD@Z ; Application::Scene::MainMenuScene::RegisterScene<Application::Scene::BuffersTestScene>
PUBLIC	??$RegisterScene@VTextureTestScene@Scene@Application@@@MainMenuScene@Scene@Application@@QEAAXPEBD@Z ; Application::Scene::MainMenuScene::RegisterScene<Application::Scene::TextureTestScene>
PUBLIC	??$RegisterScene@VSimpleRendererScene@Scene@Application@@@MainMenuScene@Scene@Application@@QEAAXPEBD@Z ; Application::Scene::MainMenuScene::RegisterScene<Application::Scene::SimpleRendererScene>
PUBLIC	??$RegisterScene@VBatchRendererScene@Scene@Application@@@MainMenuScene@Scene@Application@@QEAAXPEBD@Z ; Application::Scene::MainMenuScene::RegisterScene<Application::Scene::BatchRendererScene>
PUBLIC	??$RegisterScene@VLayerScene@Scene@Application@@@MainMenuScene@Scene@Application@@QEAAXPEBD@Z ; Application::Scene::MainMenuScene::RegisterScene<Application::Scene::LayerScene>
PUBLIC	??$RegisterScene@VBoidScene@Scene@Application@@@MainMenuScene@Scene@Application@@QEAAXPEBD@Z ; Application::Scene::MainMenuScene::RegisterScene<Application::Scene::BoidScene>
PUBLIC	??$RegisterScene@VMandelbrotScene@Scene@Application@@@MainMenuScene@Scene@Application@@QEAAXPEBD@Z ; Application::Scene::MainMenuScene::RegisterScene<Application::Scene::MandelbrotScene>
PUBLIC	??$RegisterScene@VComputeShaderScene@Scene@Application@@@MainMenuScene@Scene@Application@@QEAAXPEBD@Z ; Application::Scene::MainMenuScene::RegisterScene<Application::Scene::ComputeShaderScene>
PUBLIC	??$_Allocate@$0BA@U_Default_allocate_traits@std@@$0A@@std@@YAPEAX_K@Z ; std::_Allocate<16,std::_Default_allocate_traits,0>
PUBLIC	??$_Deallocate@$0BA@$0A@@std@@YAXPEAX_K@Z	; std::_Deallocate<16,0>
PUBLIC	??0?$pair@PEBDV?$function@$$A6APEAVScene@1Application@@XZ@std@@@std@@QEAA@AEBU01@@Z ; std::pair<char const *,std::function<Application::Scene::Scene * __cdecl(void)> >::pair<char const *,std::function<Application::Scene::Scene * __cdecl(void)> >
PUBLIC	??0?$pair@PEBDV?$function@$$A6APEAVScene@1Application@@XZ@std@@@std@@QEAA@$$QEAU01@@Z ; std::pair<char const *,std::function<Application::Scene::Scene * __cdecl(void)> >::pair<char const *,std::function<Application::Scene::Scene * __cdecl(void)> >
PUBLIC	??0?$_Func_class@PEAVScene@1Application@@$$V@std@@QEAA@XZ ; std::_Func_class<Application::Scene::Scene *>::_Func_class<Application::Scene::Scene *>
PUBLIC	??1?$_Func_class@PEAVScene@1Application@@$$V@std@@QEAA@XZ ; std::_Func_class<Application::Scene::Scene *>::~_Func_class<Application::Scene::Scene *>
PUBLIC	?_Empty@?$_Func_class@PEAVScene@1Application@@$$V@std@@IEBA_NXZ ; std::_Func_class<Application::Scene::Scene *>::_Empty
PUBLIC	?_Reset_copy@?$_Func_class@PEAVScene@1Application@@$$V@std@@IEAAXAEBV12@@Z ; std::_Func_class<Application::Scene::Scene *>::_Reset_copy
PUBLIC	?_Reset_move@?$_Func_class@PEAVScene@1Application@@$$V@std@@IEAAX$$QEAV12@@Z ; std::_Func_class<Application::Scene::Scene *>::_Reset_move
PUBLIC	?_Tidy@?$_Func_class@PEAVScene@1Application@@$$V@std@@IEAAXXZ ; std::_Func_class<Application::Scene::Scene *>::_Tidy
PUBLIC	?_Local@?$_Func_class@PEAVScene@1Application@@$$V@std@@AEBA_NXZ ; std::_Func_class<Application::Scene::Scene *>::_Local
PUBLIC	?_Getimpl@?$_Func_class@PEAVScene@1Application@@$$V@std@@AEBAPEAV?$_Func_base@PEAVScene@1Application@@$$V@2@XZ ; std::_Func_class<Application::Scene::Scene *>::_Getimpl
PUBLIC	?_Set@?$_Func_class@PEAVScene@1Application@@$$V@std@@AEAAXPEAV?$_Func_base@PEAVScene@1Application@@$$V@2@@Z ; std::_Func_class<Application::Scene::Scene *>::_Set
PUBLIC	?_Getspace@?$_Func_class@PEAVScene@1Application@@$$V@std@@AEAAPEAXXZ ; std::_Func_class<Application::Scene::Scene *>::_Getspace
PUBLIC	?_Getspace@?$_Func_class@PEAVScene@1Application@@$$V@std@@AEBAPEBXXZ ; std::_Func_class<Application::Scene::Scene *>::_Getspace
PUBLIC	??0?$function@$$A6APEAVScene@1Application@@XZ@std@@QEAA@AEBV01@@Z ; std::function<Application::Scene::Scene * __cdecl(void)>::function<Application::Scene::Scene * __cdecl(void)>
PUBLIC	??0?$function@$$A6APEAVScene@1Application@@XZ@std@@QEAA@$$QEAV01@@Z ; std::function<Application::Scene::Scene * __cdecl(void)>::function<Application::Scene::Scene * __cdecl(void)>
PUBLIC	??1?$function@$$A6APEAVScene@1Application@@XZ@std@@QEAA@XZ ; std::function<Application::Scene::Scene * __cdecl(void)>::~function<Application::Scene::Scene * __cdecl(void)>
PUBLIC	??1?$pair@PEBDV?$function@$$A6APEAVScene@1Application@@XZ@std@@@std@@QEAA@XZ ; std::pair<char const *,std::function<Application::Scene::Scene * __cdecl(void)> >::~pair<char const *,std::function<Application::Scene::Scene * __cdecl(void)> >
PUBLIC	??_G?$pair@PEBDV?$function@$$A6APEAVScene@1Application@@XZ@std@@@std@@QEAAPEAXI@Z ; std::pair<char const *,std::function<Application::Scene::Scene * __cdecl(void)> >::`scalar deleting destructor'
PUBLIC	??$_Allocate_manually_vector_aligned@U_Default_allocate_traits@std@@@std@@YAPEAX_K@Z ; std::_Allocate_manually_vector_aligned<std::_Default_allocate_traits>
PUBLIC	??$move@AEAU?$pair@PEBDV?$function@$$A6APEAVScene@1Application@@XZ@std@@@std@@@std@@YA$$QEAU?$pair@PEBDV?$function@$$A6APEAVScene@1Application@@XZ@std@@@0@AEAU10@@Z ; std::move<std::pair<char const *,std::function<Application::Scene::Scene * __cdecl(void)> > &>
PUBLIC	??$emplace_back@U?$pair@PEBDV?$function@$$A6APEAVScene@1Application@@XZ@std@@@std@@@?$vector@U?$pair@PEBDV?$function@$$A6APEAVScene@1Application@@XZ@std@@@std@@V?$allocator@U?$pair@PEBDV?$function@$$A6APEAVScene@1Application@@XZ@std@@@std@@@2@@std@@QEAA@$$QEAU?$pair@PEBDV?$function@$$A6APEAVScene@1Application@@XZ@std@@@1@@Z ; std::vector<std::pair<char const *,std::function<Application::Scene::Scene * __cdecl(void)> >,std::allocator<std::pair<char const *,std::function<Application::Scene::Scene * __cdecl(void)> > > >::emplace_back<std::pair<char const *,std::function<Application::Scene::Scene * __cdecl(void)> > >
PUBLIC	??$forward@U?$pair@PEBDV?$function@$$A6APEAVScene@1Application@@XZ@std@@@std@@@std@@YA$$QEAU?$pair@PEBDV?$function@$$A6APEAVScene@1Application@@XZ@std@@@0@AEAU10@@Z ; std::forward<std::pair<char const *,std::function<Application::Scene::Scene * __cdecl(void)> > >
PUBLIC	??$_Emplace_back_with_unused_capacity@U?$pair@PEBDV?$function@$$A6APEAVScene@1Application@@XZ@std@@@std@@@?$vector@U?$pair@PEBDV?$function@$$A6APEAVScene@1Application@@XZ@std@@@std@@V?$allocator@U?$pair@PEBDV?$function@$$A6APEAVScene@1Application@@XZ@std@@@std@@@2@@std@@AEAA@$$QEAU?$pair@PEBDV?$function@$$A6APEAVScene@1Application@@XZ@std@@@1@@Z ; std::vector<std::pair<char const *,std::function<Application::Scene::Scene * __cdecl(void)> >,std::allocator<std::pair<char const *,std::function<Application::Scene::Scene * __cdecl(void)> > > >::_Emplace_back_with_unused_capacity<std::pair<char const *,std::function<Application::Scene::Scene * __cdecl(void)> > >
PUBLIC	??$_Unfancy@U?$pair@PEBDV?$function@$$A6APEAVScene@1Application@@XZ@std@@@std@@@std@@YAPEAU?$pair@PEBDV?$function@$$A6APEAVScene@1Application@@XZ@std@@@0@PEAU10@@Z ; std::_Unfancy<std::pair<char const *,std::function<Application::Scene::Scene * __cdecl(void)> > >
PUBLIC	??$construct@U?$pair@PEBDV?$function@$$A6APEAVScene@1Application@@XZ@std@@@std@@U12@@?$_Default_allocator_traits@V?$allocator@U?$pair@PEBDV?$function@$$A6APEAVScene@1Application@@XZ@std@@@std@@@std@@@std@@SAXAEAV?$allocator@U?$pair@PEBDV?$function@$$A6APEAVScene@1Application@@XZ@std@@@std@@@1@QEAU?$pair@PEBDV?$function@$$A6APEAVScene@1Application@@XZ@std@@@1@$$QEAU31@@Z ; std::_Default_allocator_traits<std::allocator<std::pair<char const *,std::function<Application::Scene::Scene * __cdecl(void)> > > >::construct<std::pair<char const *,std::function<Application::Scene::Scene * __cdecl(void)> >,std::pair<char const *,std::function<Application::Scene::Scene * __cdecl(void)> > >
PUBLIC	??$_Emplace_reallocate@U?$pair@PEBDV?$function@$$A6APEAVScene@1Application@@XZ@std@@@std@@@?$vector@U?$pair@PEBDV?$function@$$A6APEAVScene@1Application@@XZ@std@@@std@@V?$allocator@U?$pair@PEBDV?$function@$$A6APEAVScene@1Application@@XZ@std@@@std@@@2@@std@@QEAAPEAU?$pair@PEBDV?$function@$$A6APEAVScene@1Application@@XZ@std@@@1@QEAU21@$$QEAU21@@Z ; std::vector<std::pair<char const *,std::function<Application::Scene::Scene * __cdecl(void)> >,std::allocator<std::pair<char const *,std::function<Application::Scene::Scene * __cdecl(void)> > > >::_Emplace_reallocate<std::pair<char const *,std::function<Application::Scene::Scene * __cdecl(void)> > >
PUBLIC	??0?$_Func_base@PEAVScene@1Application@@$$V@std@@QEAA@XZ ; std::_Func_base<Application::Scene::Scene *>::_Func_base<Application::Scene::Scene *>
PUBLIC	??$forward@AEAPEBD@std@@YAAEAPEBDAEAPEBD@Z	; std::forward<char const * &>
PUBLIC	??$forward@PEBD@std@@YA$$QEAPEBDAEAPEBD@Z	; std::forward<char const *>
PUBLIC	??$?0U?$integral_constant@_N$00@std@@@_Unused_parameter@std@@QEAA@$$QEAU?$integral_constant@_N$00@1@@Z ; std::_Unused_parameter::_Unused_parameter<std::integral_constant<bool,1> >
PUBLIC	??$_Destroy_range@V?$allocator@U?$pair@PEBDV?$function@$$A6APEAVScene@1Application@@XZ@std@@@std@@@std@@@std@@YAXPEAU?$pair@PEBDV?$function@$$A6APEAVScene@1Application@@XZ@std@@@0@0AEAV?$allocator@U?$pair@PEBDV?$function@$$A6APEAVScene@1Application@@XZ@std@@@std@@@0@@Z ; std::_Destroy_range<std::allocator<std::pair<char const *,std::function<Application::Scene::Scene * __cdecl(void)> > > >
PUBLIC	??$_Uninitialized_move@PEAU?$pair@PEBDV?$function@$$A6APEAVScene@1Application@@XZ@std@@@std@@PEAU12@V?$allocator@U?$pair@PEBDV?$function@$$A6APEAVScene@1Application@@XZ@std@@@std@@@2@@std@@YAPEAU?$pair@PEBDV?$function@$$A6APEAVScene@1Application@@XZ@std@@@0@QEAU10@0PEAU10@AEAV?$allocator@U?$pair@PEBDV?$function@$$A6APEAVScene@1Application@@XZ@std@@@std@@@0@@Z ; std::_Uninitialized_move<std::pair<char const *,std::function<Application::Scene::Scene * __cdecl(void)> > *,std::pair<char const *,std::function<Application::Scene::Scene * __cdecl(void)> > *,std::allocator<std::pair<char const *,std::function<Application::Scene::Scene * __cdecl(void)> > > >
PUBLIC	??$_Get_size_of_n@$0EI@@std@@YA_K_K@Z		; std::_Get_size_of_n<72>
PUBLIC	??$move@AEAV?$function@$$A6APEAVScene@1Application@@XZ@std@@@std@@YA$$QEAV?$function@$$A6APEAVScene@1Application@@XZ@0@AEAV10@@Z ; std::move<std::function<Application::Scene::Scene * __cdecl(void)> &>
PUBLIC	??$_Uninitialized_copy@PEAU?$pair@PEBDV?$function@$$A6APEAVScene@1Application@@XZ@std@@@std@@PEAU12@V?$allocator@U?$pair@PEBDV?$function@$$A6APEAVScene@1Application@@XZ@std@@@std@@@2@@std@@YAPEAU?$pair@PEBDV?$function@$$A6APEAVScene@1Application@@XZ@std@@@0@QEAU10@0PEAU10@AEAV?$allocator@U?$pair@PEBDV?$function@$$A6APEAVScene@1Application@@XZ@std@@@std@@@0@@Z ; std::_Uninitialized_copy<std::pair<char const *,std::function<Application::Scene::Scene * __cdecl(void)> > *,std::pair<char const *,std::function<Application::Scene::Scene * __cdecl(void)> > *,std::allocator<std::pair<char const *,std::function<Application::Scene::Scene * __cdecl(void)> > > >
PUBLIC	??$_Destroy_range1@V?$allocator@U?$pair@PEBDV?$function@$$A6APEAVScene@1Application@@XZ@std@@@std@@@std@@@std@@YAXPEAU?$pair@PEBDV?$function@$$A6APEAVScene@1Application@@XZ@std@@@0@0AEAV?$allocator@U?$pair@PEBDV?$function@$$A6APEAVScene@1Application@@XZ@std@@@std@@@0@U?$integral_constant@_N$0A@@0@@Z ; std::_Destroy_range1<std::allocator<std::pair<char const *,std::function<Application::Scene::Scene * __cdecl(void)> > > >
PUBLIC	??$_Unchecked@PEAU?$pair@PEBDV?$function@$$A6APEAVScene@1Application@@XZ@std@@@std@@@std@@YAPEAU?$pair@PEBDV?$function@$$A6APEAVScene@1Application@@XZ@std@@@0@PEAU10@@Z ; std::_Unchecked<std::pair<char const *,std::function<Application::Scene::Scene * __cdecl(void)> > *>
PUBLIC	??$_Ptr_move_cat@U?$pair@PEBDV?$function@$$A6APEAVScene@1Application@@XZ@std@@@std@@U12@@std@@YA?AU_General_ptr_iterator_tag@0@AEBQEAU?$pair@PEBDV?$function@$$A6APEAVScene@1Application@@XZ@std@@@0@0@Z ; std::_Ptr_move_cat<std::pair<char const *,std::function<Application::Scene::Scene * __cdecl(void)> >,std::pair<char const *,std::function<Application::Scene::Scene * __cdecl(void)> > >
PUBLIC	??$_Uninitialized_move_al_unchecked@PEAU?$pair@PEBDV?$function@$$A6APEAVScene@1Application@@XZ@std@@@std@@PEAU12@V?$allocator@U?$pair@PEBDV?$function@$$A6APEAVScene@1Application@@XZ@std@@@std@@@2@@std@@YAPEAU?$pair@PEBDV?$function@$$A6APEAVScene@1Application@@XZ@std@@@0@PEAU10@QEAU10@1AEAV?$allocator@U?$pair@PEBDV?$function@$$A6APEAVScene@1Application@@XZ@std@@@std@@@0@U_General_ptr_iterator_tag@0@U_Unused_parameter@0@@Z ; std::_Uninitialized_move_al_unchecked<std::pair<char const *,std::function<Application::Scene::Scene * __cdecl(void)> > *,std::pair<char const *,std::function<Application::Scene::Scene * __cdecl(void)> > *,std::allocator<std::pair<char const *,std::function<Application::Scene::Scene * __cdecl(void)> > > >
PUBLIC	??$_Rechecked@PEAU?$pair@PEBDV?$function@$$A6APEAVScene@1Application@@XZ@std@@@std@@PEAU12@@std@@YAAEAPEAU?$pair@PEBDV?$function@$$A6APEAVScene@1Application@@XZ@std@@@0@AEAPEAU10@QEAU10@@Z ; std::_Rechecked<std::pair<char const *,std::function<Application::Scene::Scene * __cdecl(void)> > *,std::pair<char const *,std::function<Application::Scene::Scene * __cdecl(void)> > *>
PUBLIC	??$_Ptr_copy_cat@U?$pair@PEBDV?$function@$$A6APEAVScene@1Application@@XZ@std@@@std@@U12@@std@@YA?AU_General_ptr_iterator_tag@0@AEBQEAU?$pair@PEBDV?$function@$$A6APEAVScene@1Application@@XZ@std@@@0@0@Z ; std::_Ptr_copy_cat<std::pair<char const *,std::function<Application::Scene::Scene * __cdecl(void)> >,std::pair<char const *,std::function<Application::Scene::Scene * __cdecl(void)> > >
PUBLIC	??$_Uninitialized_copy_al_unchecked@PEAU?$pair@PEBDV?$function@$$A6APEAVScene@1Application@@XZ@std@@@std@@PEAU12@V?$allocator@U?$pair@PEBDV?$function@$$A6APEAVScene@1Application@@XZ@std@@@std@@@2@@std@@YAPEAU?$pair@PEBDV?$function@$$A6APEAVScene@1Application@@XZ@std@@@0@PEAU10@QEAU10@1AEAV?$allocator@U?$pair@PEBDV?$function@$$A6APEAVScene@1Application@@XZ@std@@@std@@@0@U_General_ptr_iterator_tag@0@U_Unused_parameter@0@@Z ; std::_Uninitialized_copy_al_unchecked<std::pair<char const *,std::function<Application::Scene::Scene * __cdecl(void)> > *,std::pair<char const *,std::function<Application::Scene::Scene * __cdecl(void)> > *,std::allocator<std::pair<char const *,std::function<Application::Scene::Scene * __cdecl(void)> > > >
PUBLIC	??$destroy@U?$pair@PEBDV?$function@$$A6APEAVScene@1Application@@XZ@std@@@std@@@?$_Default_allocator_traits@V?$allocator@U?$pair@PEBDV?$function@$$A6APEAVScene@1Application@@XZ@std@@@std@@@std@@@std@@SAXAEAV?$allocator@U?$pair@PEBDV?$function@$$A6APEAVScene@1Application@@XZ@std@@@std@@@1@QEAU?$pair@PEBDV?$function@$$A6APEAVScene@1Application@@XZ@std@@@1@@Z ; std::_Default_allocator_traits<std::allocator<std::pair<char const *,std::function<Application::Scene::Scene * __cdecl(void)> > > >::destroy<std::pair<char const *,std::function<Application::Scene::Scene * __cdecl(void)> > >
PUBLIC	??0?$_Uninitialized_backout_al@PEAU?$pair@PEBDV?$function@$$A6APEAVScene@1Application@@XZ@std@@@std@@V?$allocator@U?$pair@PEBDV?$function@$$A6APEAVScene@1Application@@XZ@std@@@std@@@2@@std@@QEAA@PEAU?$pair@PEBDV?$function@$$A6APEAVScene@1Application@@XZ@std@@@1@AEAV?$allocator@U?$pair@PEBDV?$function@$$A6APEAVScene@1Application@@XZ@std@@@std@@@1@@Z ; std::_Uninitialized_backout_al<std::pair<char const *,std::function<Application::Scene::Scene * __cdecl(void)> > *,std::allocator<std::pair<char const *,std::function<Application::Scene::Scene * __cdecl(void)> > > >::_Uninitialized_backout_al<std::pair<char const *,std::function<Application::Scene::Scene * __cdecl(void)> > *,std::allocator<std::pair<char const *,std::function<Application::Scene::Scene * __cdecl(void)> > > >
PUBLIC	??1?$_Uninitialized_backout_al@PEAU?$pair@PEBDV?$function@$$A6APEAVScene@1Application@@XZ@std@@@std@@V?$allocator@U?$pair@PEBDV?$function@$$A6APEAVScene@1Application@@XZ@std@@@std@@@2@@std@@QEAA@XZ ; std::_Uninitialized_backout_al<std::pair<char const *,std::function<Application::Scene::Scene * __cdecl(void)> > *,std::allocator<std::pair<char const *,std::function<Application::Scene::Scene * __cdecl(void)> > > >::~_Uninitialized_backout_al<std::pair<char const *,std::function<Application::Scene::Scene * __cdecl(void)> > *,std::allocator<std::pair<char const *,std::function<Application::Scene::Scene * __cdecl(void)> > > >
PUBLIC	?_Release@?$_Uninitialized_backout_al@PEAU?$pair@PEBDV?$function@$$A6APEAVScene@1Application@@XZ@std@@@std@@V?$allocator@U?$pair@PEBDV?$function@$$A6APEAVScene@1Application@@XZ@std@@@std@@@2@@std@@QEAAPEAU?$pair@PEBDV?$function@$$A6APEAVScene@1Application@@XZ@std@@@2@XZ ; std::_Uninitialized_backout_al<std::pair<char const *,std::function<Application::Scene::Scene * __cdecl(void)> > *,std::allocator<std::pair<char const *,std::function<Application::Scene::Scene * __cdecl(void)> > > >::_Release
PUBLIC	?__autoclassinit2@?$_Uninitialized_backout_al@PEAU?$pair@PEBDV?$function@$$A6APEAVScene@1Application@@XZ@std@@@std@@V?$allocator@U?$pair@PEBDV?$function@$$A6APEAVScene@1Application@@XZ@std@@@std@@@2@@std@@QEAAX_K@Z ; std::_Uninitialized_backout_al<std::pair<char const *,std::function<Application::Scene::Scene * __cdecl(void)> > *,std::allocator<std::pair<char const *,std::function<Application::Scene::Scene * __cdecl(void)> > > >::__autoclassinit2
PUBLIC	??$_Emplace_back@U?$pair@PEBDV?$function@$$A6APEAVScene@1Application@@XZ@std@@@std@@@?$_Uninitialized_backout_al@PEAU?$pair@PEBDV?$function@$$A6APEAVScene@1Application@@XZ@std@@@std@@V?$allocator@U?$pair@PEBDV?$function@$$A6APEAVScene@1Application@@XZ@std@@@std@@@2@@std@@QEAAX$$QEAU?$pair@PEBDV?$function@$$A6APEAVScene@1Application@@XZ@std@@@1@@Z ; std::_Uninitialized_backout_al<std::pair<char const *,std::function<Application::Scene::Scene * __cdecl(void)> > *,std::allocator<std::pair<char const *,std::function<Application::Scene::Scene * __cdecl(void)> > > >::_Emplace_back<std::pair<char const *,std::function<Application::Scene::Scene * __cdecl(void)> > >
PUBLIC	??$_Emplace_back@AEAU?$pair@PEBDV?$function@$$A6APEAVScene@1Application@@XZ@std@@@std@@@?$_Uninitialized_backout_al@PEAU?$pair@PEBDV?$function@$$A6APEAVScene@1Application@@XZ@std@@@std@@V?$allocator@U?$pair@PEBDV?$function@$$A6APEAVScene@1Application@@XZ@std@@@std@@@2@@std@@QEAAXAEAU?$pair@PEBDV?$function@$$A6APEAVScene@1Application@@XZ@std@@@1@@Z ; std::_Uninitialized_backout_al<std::pair<char const *,std::function<Application::Scene::Scene * __cdecl(void)> > *,std::allocator<std::pair<char const *,std::function<Application::Scene::Scene * __cdecl(void)> > > >::_Emplace_back<std::pair<char const *,std::function<Application::Scene::Scene * __cdecl(void)> > &>
PUBLIC	??$_Deallocate@$07$0A@@std@@YAXPEAX_K@Z		; std::_Deallocate<8,0>
PUBLIC	??$forward@AEAU?$pair@PEBDV?$function@$$A6APEAVScene@1Application@@XZ@std@@@std@@@std@@YAAEAU?$pair@PEBDV?$function@$$A6APEAVScene@1Application@@XZ@std@@@0@AEAU10@@Z ; std::forward<std::pair<char const *,std::function<Application::Scene::Scene * __cdecl(void)> > &>
PUBLIC	??$construct@U?$pair@PEBDV?$function@$$A6APEAVScene@1Application@@XZ@std@@@std@@AEAU12@@?$_Default_allocator_traits@V?$allocator@U?$pair@PEBDV?$function@$$A6APEAVScene@1Application@@XZ@std@@@std@@@std@@@std@@SAXAEAV?$allocator@U?$pair@PEBDV?$function@$$A6APEAVScene@1Application@@XZ@std@@@std@@@1@QEAU?$pair@PEBDV?$function@$$A6APEAVScene@1Application@@XZ@std@@@1@AEAU31@@Z ; std::_Default_allocator_traits<std::allocator<std::pair<char const *,std::function<Application::Scene::Scene * __cdecl(void)> > > >::construct<std::pair<char const *,std::function<Application::Scene::Scene * __cdecl(void)> >,std::pair<char const *,std::function<Application::Scene::Scene * __cdecl(void)> > &>
PUBLIC	?__LINE__Var@?0??_Adjust_manually_vector_aligned@std@@YAXAEAPEAXAEA_K@Z@4JA ; `std::_Adjust_manually_vector_aligned'::`1'::__LINE__Var
PUBLIC	??_C@_1NE@FCGGJAHE@?$AAc?$AA?3?$AA?2?$AAp?$AAr?$AAo?$AAg?$AAr?$AAa?$AAm?$AA?5?$AAf?$AAi?$AAl?$AAe?$AAs?$AA?5?$AA?$CI?$AAx?$AA8?$AA6?$AA?$CJ?$AA?2?$AAm?$AAi?$AAc?$AAr?$AAo?$AAs?$AAo?$AAf?$AAt@ ; `string'
PUBLIC	??_C@_1EK@NIFDJFDG@?$AAs?$AAt?$AAd?$AA?3?$AA?3?$AA_?$AAA?$AAd?$AAj?$AAu?$AAs?$AAt?$AA_?$AAm?$AAa?$AAn?$AAu?$AAa?$AAl?$AAl?$AAy?$AA_?$AAv?$AAe?$AAc?$AAt?$AAo?$AAr?$AA_?$AAa?$AAl?$AAi@ ; `string'
PUBLIC	??_C@_1CG@JNLFBNGN@?$AA?$CC?$AAi?$AAn?$AAv?$AAa?$AAl?$AAi?$AAd?$AA?5?$AAa?$AAr?$AAg?$AAu?$AAm?$AAe?$AAn?$AAt?$AA?$CC?$AA?$AA@ ; `string'
PUBLIC	??_C@_0BF@FMNCKNFP@FeatherFall?5Examples?$AA@	; `string'
PUBLIC	??_C@_0BB@HIFDMJDM@Clear?5Color?5Test?$AA@	; `string'
PUBLIC	??_C@_07HLLGMCO@Sandbox?$AA@			; `string'
PUBLIC	??_C@_07NIHFOFBK@Buffers?$AA@			; `string'
PUBLIC	??_C@_08FLHNKADJ@Textures?$AA@			; `string'
PUBLIC	??_C@_0BA@ELHODOCL@Simple?5Renderer?$AA@	; `string'
PUBLIC	??_C@_0P@JEPKLLKC@Batch?5Renderer?$AA@		; `string'
PUBLIC	??_C@_0M@BPMKEGOM@Layer?5Scene?$AA@		; `string'
PUBLIC	??_C@_0BB@GJJACBDL@Flocking?5?$CIBoids?$CJ?$AA@	; `string'
PUBLIC	??_C@_0P@FGIJLCEO@Mandelbrot?5Set?$AA@		; `string'
PUBLIC	??_C@_0BG@BIFNHANB@Simple?5Compute?5Shader?$AA@	; `string'
PUBLIC	??_C@_09JDDCPHDA@Main?5Menu?$AA@		; `string'
PUBLIC	??_C@_03HEPJOIKG@?$DM?9?9?$AA@			; `string'
PUBLIC	??_C@_0BG@KBOMGOII@Profiler?5?$CIDEBUG?5Mode?$CJ?$AA@ ; `string'
PUBLIC	??_C@_0CN@EIPBEGMP@Application?5average?5?$CF?43f?5ms?1fram@ ; `string'
PUBLIC	??_C@_0BD@OLBABOEK@vector?$DMT?$DO?5too?5long?$AA@ ; `string'
PUBLIC	??_C@_0BE@LMNLACIC@_Ptr_container?5?$CB?$DN?50?$AA@ ; `string'
PUBLIC	??_C@_1DG@HGDKEBPG@?$AA?$CC?$AA_?$AAP?$AAt?$AAr?$AA_?$AAc?$AAo?$AAn?$AAt?$AAa?$AAi?$AAn?$AAe?$AAr?$AA?5?$AA?$CB?$AA?$DN?$AA?5?$AA0?$AA?$CC?$AA?5?$AA?$CG?$AA?$CG?$AA?5?$AA0?$AA?$AA@ ; `string'
PUBLIC	??_C@_17CNPHIMPH@?$AA?$CF?$AAl?$AAs?$AA?$AA@	; `string'
PUBLIC	??_C@_1EO@GFNCMDLA@?$AAs?$AAt?$AAd?$AA?3?$AA?3?$AA_?$AAA?$AAl?$AAl?$AAo?$AAc?$AAa?$AAt?$AAe?$AA_?$AAm?$AAa?$AAn?$AAu?$AAa?$AAl?$AAl?$AAy?$AA_?$AAv?$AAe?$AAc?$AAt?$AAo?$AAr?$AA_?$AAa@ ; `string'
PUBLIC	??_R0?AV?$_Func_base@PEAVScene@1Application@@$$V@std@@@8 ; std::_Func_base<Application::Scene::Scene *> `RTTI Type Descriptor'
PUBLIC	??_R3?$_Func_base@PEAVScene@1Application@@$$V@std@@8 ; std::_Func_base<Application::Scene::Scene *>::`RTTI Class Hierarchy Descriptor'
PUBLIC	??_R2?$_Func_base@PEAVScene@1Application@@$$V@std@@8 ; std::_Func_base<Application::Scene::Scene *>::`RTTI Base Class Array'
PUBLIC	??_R1A@?0A@EA@?$_Func_base@PEAVScene@1Application@@$$V@std@@8 ; std::_Func_base<Application::Scene::Scene *>::`RTTI Base Class Descriptor at (0,-1,0,64)'
PUBLIC	__real@447a0000
EXTRN	??2@YAPEAX_K@Z:PROC				; operator new
EXTRN	??3@YAXPEAX_K@Z:PROC				; operator delete
EXTRN	__imp__invalid_parameter:PROC
EXTRN	__imp_??0_Lockit@std@@QEAA@H@Z:PROC
EXTRN	__imp_??1_Lockit@std@@QEAA@XZ:PROC
EXTRN	__imp__CrtDbgReportW:PROC
EXTRN	?_Xlength_error@std@@YAXPEBD@Z:PROC		; std::_Xlength_error
EXTRN	??0Window@graphics@core@@QEAA@AEBH0PEBD_N2@Z:PROC ; core::graphics::Window::Window
EXTRN	??1Window@graphics@core@@QEAA@XZ:PROC		; core::graphics::Window::~Window
EXTRN	?windowShouldClose@Window@graphics@core@@QEBA_NXZ:PROC ; core::graphics::Window::windowShouldClose
EXTRN	?update@Window@graphics@core@@QEBAXXZ:PROC	; core::graphics::Window::update
EXTRN	?clear@Window@graphics@core@@QEBAXXZ:PROC	; core::graphics::Window::clear
EXTRN	?CreateContext@ImGui@@YAPEAUImGuiContext@@PEAUImFontAtlas@@@Z:PROC ; ImGui::CreateContext
EXTRN	?DestroyContext@ImGui@@YAXPEAUImGuiContext@@@Z:PROC ; ImGui::DestroyContext
EXTRN	?GetIO@ImGui@@YAAEAUImGuiIO@@XZ:PROC		; ImGui::GetIO
EXTRN	?Render@ImGui@@YAXXZ:PROC			; ImGui::Render
EXTRN	?GetDrawData@ImGui@@YAPEAUImDrawData@@XZ:PROC	; ImGui::GetDrawData
EXTRN	?StyleColorsDark@ImGui@@YAXPEAUImGuiStyle@@@Z:PROC ; ImGui::StyleColorsDark
EXTRN	?Begin@ImGui@@YA_NPEBDPEA_NH@Z:PROC		; ImGui::Begin
EXTRN	?End@ImGui@@YAXXZ:PROC				; ImGui::End
EXTRN	?Text@ImGui@@YAXPEBDZZ:PROC			; ImGui::Text
EXTRN	?Button@ImGui@@YA_NPEBDAEBUImVec2@@@Z:PROC	; ImGui::Button
EXTRN	?ImGui_ImplGlfwGL3_Init@@YA_NPEAUGLFWwindow@@_NPEBD@Z:PROC ; ImGui_ImplGlfwGL3_Init
EXTRN	?ImGui_ImplGlfwGL3_Shutdown@@YAXXZ:PROC		; ImGui_ImplGlfwGL3_Shutdown
EXTRN	?ImGui_ImplGlfwGL3_NewFrame@@YAXXZ:PROC		; ImGui_ImplGlfwGL3_NewFrame
EXTRN	?ImGui_ImplGlfwGL3_RenderDrawData@@YAXPEAUImDrawData@@@Z:PROC ; ImGui_ImplGlfwGL3_RenderDrawData
EXTRN	??0MainMenuScene@Scene@Application@@QEAA@AEAPEAV112@@Z:PROC ; Application::Scene::MainMenuScene::MainMenuScene
EXTRN	?OnReloadScene@MainMenuScene@Scene@Application@@QEAAXXZ:PROC ; Application::Scene::MainMenuScene::OnReloadScene
EXTRN	??0TestScene@Scene@Application@@QEAA@XZ:PROC	; Application::Scene::TestScene::TestScene
EXTRN	??0SandboxScene@Scene@Application@@QEAA@XZ:PROC	; Application::Scene::SandboxScene::SandboxScene
EXTRN	??0BuffersTestScene@Scene@Application@@QEAA@XZ:PROC ; Application::Scene::BuffersTestScene::BuffersTestScene
EXTRN	??0TextureTestScene@Scene@Application@@QEAA@XZ:PROC ; Application::Scene::TextureTestScene::TextureTestScene
EXTRN	??0SimpleRendererScene@Scene@Application@@QEAA@XZ:PROC ; Application::Scene::SimpleRendererScene::SimpleRendererScene
EXTRN	??0BatchRendererScene@Scene@Application@@QEAA@XZ:PROC ; Application::Scene::BatchRendererScene::BatchRendererScene
EXTRN	??0BoidScene@Scene@Application@@QEAA@XZ:PROC	; Application::Scene::BoidScene::BoidScene
EXTRN	??0MandelbrotScene@Scene@Application@@QEAA@XZ:PROC ; Application::Scene::MandelbrotScene::MandelbrotScene
EXTRN	??0ComputeShaderScene@Scene@Application@@QEAA@XZ:PROC ; Application::Scene::ComputeShaderScene::ComputeShaderScene
EXTRN	??0LayerScene@Scene@Application@@QEAA@XZ:PROC	; Application::Scene::LayerScene::LayerScene
EXTRN	_CxxThrowException:PROC
EXTRN	_RTC_InitBase:PROC
EXTRN	_RTC_Shutdown:PROC
EXTRN	__CxxFrameHandler3:PROC
EXTRN	__GSHandlerCheck:PROC
EXTRN	__GSHandlerCheck_EH:PROC
EXTRN	__security_check_cookie:PROC
EXTRN	??_7type_info@@6B@:BYTE				; type_info::`vftable'
EXTRN	__security_cookie:QWORD
EXTRN	_fltused:DWORD
;	COMDAT pdata
pdata	SEGMENT
$pdata$??_H@YAXPEAX_K1P6APEAX0@Z@Z DD imagerel $LN7
	DD	imagerel $LN7+111
	DD	imagerel $unwind$??_H@YAXPEAX_K1P6APEAX0@Z@Z
pdata	ENDS
;	COMDAT pdata
pdata	SEGMENT
$pdata$?__empty_global_delete@@YAXPEAX@Z DD imagerel $LN3
	DD	imagerel $LN3+19
	DD	imagerel $unwind$?__empty_global_delete@@YAXPEAX@Z
pdata	ENDS
;	COMDAT pdata
pdata	SEGMENT
$pdata$?__empty_global_delete@@YAXPEAX_K@Z DD imagerel $LN3
	DD	imagerel $LN3+24
	DD	imagerel $unwind$?__empty_global_delete@@YAXPEAX_K@Z
pdata	ENDS
;	COMDAT pdata
pdata	SEGMENT
$pdata$?max@?$numeric_limits@_J@std@@SA_JXZ DD imagerel $LN3
	DD	imagerel $LN3+25
	DD	imagerel $unwind$?max@?$numeric_limits@_J@std@@SA_JXZ
pdata	ENDS
;	COMDAT pdata
pdata	SEGMENT
$pdata$??2@YAPEAX_KPEAX@Z DD imagerel $LN3
	DD	imagerel $LN3+28
	DD	imagerel $unwind$??2@YAPEAX_KPEAX@Z
pdata	ENDS
;	COMDAT pdata
pdata	SEGMENT
$pdata$?_Getpfirst@_Container_base12@std@@QEBAPEAPEAU_Iterator_base12@2@XZ DD imagerel $LN5
	DD	imagerel $LN5+58
	DD	imagerel $unwind$?_Getpfirst@_Container_base12@std@@QEBAPEAPEAU_Iterator_base12@2@XZ
pdata	ENDS
;	COMDAT pdata
pdata	SEGMENT
$pdata$?_Orphan_all@_Container_base12@std@@QEAAXXZ DD imagerel $LN7
	DD	imagerel $LN7+172
	DD	imagerel $unwind$?_Orphan_all@_Container_base12@std@@QEAAXXZ
pdata	ENDS
;	COMDAT pdata
pdata	SEGMENT
$pdata$?_Clrcont@_Iterator_base12@std@@QEAAXXZ DD imagerel $LN3
	DD	imagerel $LN3+30
	DD	imagerel $unwind$?_Clrcont@_Iterator_base12@std@@QEAAXXZ
pdata	ENDS
;	COMDAT pdata
pdata	SEGMENT
$pdata$?_Getpnext@_Iterator_base12@std@@QEAAPEAPEAU12@XZ DD imagerel $LN3
	DD	imagerel $LN3+27
	DD	imagerel $unwind$?_Getpnext@_Iterator_base12@std@@QEAAPEAPEAU12@XZ
pdata	ENDS
;	COMDAT pdata
pdata	SEGMENT
$pdata$?_Allocate@_Default_allocate_traits@std@@SAPEAX_K@Z DD imagerel $LN3
	DD	imagerel $LN3+30
	DD	imagerel $unwind$?_Allocate@_Default_allocate_traits@std@@SAPEAX_K@Z
pdata	ENDS
;	COMDAT pdata
pdata	SEGMENT
$pdata$?_Adjust_manually_vector_aligned@std@@YAXAEAPEAXAEA_K@Z DD imagerel $LN6
	DD	imagerel $LN6+255
	DD	imagerel $unwind$?_Adjust_manually_vector_aligned@std@@YAXAEAPEAXAEA_K@Z
pdata	ENDS
;	COMDAT pdata
pdata	SEGMENT
$pdata$??$_Min_value@_K@std@@YAAEB_KAEB_K0@Z DD imagerel $LN5
	DD	imagerel $LN5+70
	DD	imagerel $unwind$??$_Min_value@_K@std@@YAAEB_KAEB_K0@Z
pdata	ENDS
;	COMDAT pdata
pdata	SEGMENT
$pdata$?__autoclassinit2@Window@graphics@core@@QEAAX_K@Z DD imagerel $LN3
	DD	imagerel $LN3+38
	DD	imagerel $unwind$?__autoclassinit2@Window@graphics@core@@QEAAX_K@Z
pdata	ENDS
;	COMDAT pdata
pdata	SEGMENT
$pdata$??0ImVec2@@QEAA@MM@Z DD imagerel $LN3
	DD	imagerel $LN3+62
	DD	imagerel $unwind$??0ImVec2@@QEAA@MM@Z
pdata	ENDS
;	COMDAT pdata
pdata	SEGMENT
$pdata$?deallocate@?$allocator@U?$pair@PEBDV?$function@$$A6APEAVScene@1Application@@XZ@std@@@std@@@std@@QEAAXQEAU?$pair@PEBDV?$function@$$A6APEAVScene@1Application@@XZ@std@@@2@_K@Z DD imagerel $LN3
	DD	imagerel $LN3+48
	DD	imagerel $unwind$?deallocate@?$allocator@U?$pair@PEBDV?$function@$$A6APEAVScene@1Application@@XZ@std@@@std@@@std@@QEAAXQEAU?$pair@PEBDV?$function@$$A6APEAVScene@1Application@@XZ@std@@@2@_K@Z
pdata	ENDS
;	COMDAT pdata
pdata	SEGMENT
$pdata$?allocate@?$allocator@U?$pair@PEBDV?$function@$$A6APEAVScene@1Application@@XZ@std@@@std@@@std@@QEAAPEAU?$pair@PEBDV?$function@$$A6APEAVScene@1Application@@XZ@std@@@2@_K@Z DD imagerel $LN3
	DD	imagerel $LN3+43
	DD	imagerel $unwind$?allocate@?$allocator@U?$pair@PEBDV?$function@$$A6APEAVScene@1Application@@XZ@std@@@std@@@std@@QEAAPEAU?$pair@PEBDV?$function@$$A6APEAVScene@1Application@@XZ@std@@@2@_K@Z
pdata	ENDS
;	COMDAT pdata
pdata	SEGMENT
$pdata$?max_size@?$_Default_allocator_traits@V?$allocator@U?$pair@PEBDV?$function@$$A6APEAVScene@1Application@@XZ@std@@@std@@@std@@@std@@SA_KAEBV?$allocator@U?$pair@PEBDV?$function@$$A6APEAVScene@1Application@@XZ@std@@@std@@@2@@Z DD imagerel $LN3
	DD	imagerel $LN3+29
	DD	imagerel $unwind$?max_size@?$_Default_allocator_traits@V?$allocator@U?$pair@PEBDV?$function@$$A6APEAVScene@1Application@@XZ@std@@@std@@@std@@@std@@SA_KAEBV?$allocator@U?$pair@PEBDV?$function@$$A6APEAVScene@1Application@@XZ@std@@@std@@@2@@Z
pdata	ENDS
;	COMDAT pdata
pdata	SEGMENT
$pdata$?_Getpfirst@?$_Vector_alloc@U?$_Vec_base_types@U?$pair@PEBDV?$function@$$A6APEAVScene@1Application@@XZ@std@@@std@@V?$allocator@U?$pair@PEBDV?$function@$$A6APEAVScene@1Application@@XZ@std@@@std@@@2@@std@@@std@@QEBAPEAPEAU_Iterator_base12@2@XZ DD imagerel $LN3
	DD	imagerel $LN3+38
	DD	imagerel $unwind$?_Getpfirst@?$_Vector_alloc@U?$_Vec_base_types@U?$pair@PEBDV?$function@$$A6APEAVScene@1Application@@XZ@std@@@std@@V?$allocator@U?$pair@PEBDV?$function@$$A6APEAVScene@1Application@@XZ@std@@@std@@@2@@std@@@std@@QEBAPEAPEAU_Iterator_base12@2@XZ
pdata	ENDS
;	COMDAT pdata
pdata	SEGMENT
$pdata$?_Orphan_all@?$_Vector_alloc@U?$_Vec_base_types@U?$pair@PEBDV?$function@$$A6APEAVScene@1Application@@XZ@std@@@std@@V?$allocator@U?$pair@PEBDV?$function@$$A6APEAVScene@1Application@@XZ@std@@@std@@@2@@std@@@std@@QEAAXXZ DD imagerel $LN3
	DD	imagerel $LN3+38
	DD	imagerel $unwind$?_Orphan_all@?$_Vector_alloc@U?$_Vec_base_types@U?$pair@PEBDV?$function@$$A6APEAVScene@1Application@@XZ@std@@@std@@V?$allocator@U?$pair@PEBDV?$function@$$A6APEAVScene@1Application@@XZ@std@@@std@@@2@@std@@@std@@QEAAXXZ
pdata	ENDS
;	COMDAT pdata
pdata	SEGMENT
$pdata$?_Getal@?$_Vector_alloc@U?$_Vec_base_types@U?$pair@PEBDV?$function@$$A6APEAVScene@1Application@@XZ@std@@@std@@V?$allocator@U?$pair@PEBDV?$function@$$A6APEAVScene@1Application@@XZ@std@@@std@@@2@@std@@@std@@QEAAAEAV?$allocator@U?$pair@PEBDV?$function@$$A6APEAVScene@1Application@@XZ@std@@@std@@@2@XZ DD imagerel $LN3
	DD	imagerel $LN3+33
	DD	imagerel $unwind$?_Getal@?$_Vector_alloc@U?$_Vec_base_types@U?$pair@PEBDV?$function@$$A6APEAVScene@1Application@@XZ@std@@@std@@V?$allocator@U?$pair@PEBDV?$function@$$A6APEAVScene@1Application@@XZ@std@@@std@@@2@@std@@@std@@QEAAAEAV?$allocator@U?$pair@PEBDV?$function@$$A6APEAVScene@1Application@@XZ@std@@@std@@@2@XZ
pdata	ENDS
;	COMDAT pdata
pdata	SEGMENT
$pdata$?_Getal@?$_Vector_alloc@U?$_Vec_base_types@U?$pair@PEBDV?$function@$$A6APEAVScene@1Application@@XZ@std@@@std@@V?$allocator@U?$pair@PEBDV?$function@$$A6APEAVScene@1Application@@XZ@std@@@std@@@2@@std@@@std@@QEBAAEBV?$allocator@U?$pair@PEBDV?$function@$$A6APEAVScene@1Application@@XZ@std@@@std@@@2@XZ DD imagerel $LN3
	DD	imagerel $LN3+33
	DD	imagerel $unwind$?_Getal@?$_Vector_alloc@U?$_Vec_base_types@U?$pair@PEBDV?$function@$$A6APEAVScene@1Application@@XZ@std@@@std@@V?$allocator@U?$pair@PEBDV?$function@$$A6APEAVScene@1Application@@XZ@std@@@std@@@2@@std@@@std@@QEBAAEBV?$allocator@U?$pair@PEBDV?$function@$$A6APEAVScene@1Application@@XZ@std@@@std@@@2@XZ
pdata	ENDS
;	COMDAT pdata
pdata	SEGMENT
$pdata$?_Get_data@?$_Vector_alloc@U?$_Vec_base_types@U?$pair@PEBDV?$function@$$A6APEAVScene@1Application@@XZ@std@@@std@@V?$allocator@U?$pair@PEBDV?$function@$$A6APEAVScene@1Application@@XZ@std@@@std@@@2@@std@@@std@@QEAAAEAV?$_Vector_val@U?$_Simple_types@U?$pair@PEBDV?$function@$$A6APEAVScene@1Application@@XZ@std@@@std@@@std@@@2@XZ DD imagerel $LN3
	DD	imagerel $LN3+33
	DD	imagerel $unwind$?_Get_data@?$_Vector_alloc@U?$_Vec_base_types@U?$pair@PEBDV?$function@$$A6APEAVScene@1Application@@XZ@std@@@std@@V?$allocator@U?$pair@PEBDV?$function@$$A6APEAVScene@1Application@@XZ@std@@@std@@@2@@std@@@std@@QEAAAEAV?$_Vector_val@U?$_Simple_types@U?$pair@PEBDV?$function@$$A6APEAVScene@1Application@@XZ@std@@@std@@@std@@@2@XZ
pdata	ENDS
;	COMDAT pdata
pdata	SEGMENT
$pdata$?_Get_data@?$_Vector_alloc@U?$_Vec_base_types@U?$pair@PEBDV?$function@$$A6APEAVScene@1Application@@XZ@std@@@std@@V?$allocator@U?$pair@PEBDV?$function@$$A6APEAVScene@1Application@@XZ@std@@@std@@@2@@std@@@std@@QEBAAEBV?$_Vector_val@U?$_Simple_types@U?$pair@PEBDV?$function@$$A6APEAVScene@1Application@@XZ@std@@@std@@@std@@@2@XZ DD imagerel $LN3
	DD	imagerel $LN3+33
	DD	imagerel $unwind$?_Get_data@?$_Vector_alloc@U?$_Vec_base_types@U?$pair@PEBDV?$function@$$A6APEAVScene@1Application@@XZ@std@@@std@@V?$allocator@U?$pair@PEBDV?$function@$$A6APEAVScene@1Application@@XZ@std@@@std@@@2@@std@@@std@@QEBAAEBV?$_Vector_val@U?$_Simple_types@U?$pair@PEBDV?$function@$$A6APEAVScene@1Application@@XZ@std@@@std@@@std@@@2@XZ
pdata	ENDS
;	COMDAT pdata
pdata	SEGMENT
$pdata$?_Myfirst@?$_Vector_alloc@U?$_Vec_base_types@U?$pair@PEBDV?$function@$$A6APEAVScene@1Application@@XZ@std@@@std@@V?$allocator@U?$pair@PEBDV?$function@$$A6APEAVScene@1Application@@XZ@std@@@std@@@2@@std@@@std@@QEAAAEAPEAU?$pair@PEBDV?$function@$$A6APEAVScene@1Application@@XZ@std@@@2@XZ DD imagerel $LN3
	DD	imagerel $LN3+34
	DD	imagerel $unwind$?_Myfirst@?$_Vector_alloc@U?$_Vec_base_types@U?$pair@PEBDV?$function@$$A6APEAVScene@1Application@@XZ@std@@@std@@V?$allocator@U?$pair@PEBDV?$function@$$A6APEAVScene@1Application@@XZ@std@@@std@@@2@@std@@@std@@QEAAAEAPEAU?$pair@PEBDV?$function@$$A6APEAVScene@1Application@@XZ@std@@@2@XZ
pdata	ENDS
;	COMDAT pdata
pdata	SEGMENT
$pdata$?_Myfirst@?$_Vector_alloc@U?$_Vec_base_types@U?$pair@PEBDV?$function@$$A6APEAVScene@1Application@@XZ@std@@@std@@V?$allocator@U?$pair@PEBDV?$function@$$A6APEAVScene@1Application@@XZ@std@@@std@@@2@@std@@@std@@QEBAAEBQEAU?$pair@PEBDV?$function@$$A6APEAVScene@1Application@@XZ@std@@@2@XZ DD imagerel $LN3
	DD	imagerel $LN3+34
	DD	imagerel $unwind$?_Myfirst@?$_Vector_alloc@U?$_Vec_base_types@U?$pair@PEBDV?$function@$$A6APEAVScene@1Application@@XZ@std@@@std@@V?$allocator@U?$pair@PEBDV?$function@$$A6APEAVScene@1Application@@XZ@std@@@std@@@2@@std@@@std@@QEBAAEBQEAU?$pair@PEBDV?$function@$$A6APEAVScene@1Application@@XZ@std@@@2@XZ
pdata	ENDS
;	COMDAT pdata
pdata	SEGMENT
$pdata$?_Mylast@?$_Vector_alloc@U?$_Vec_base_types@U?$pair@PEBDV?$function@$$A6APEAVScene@1Application@@XZ@std@@@std@@V?$allocator@U?$pair@PEBDV?$function@$$A6APEAVScene@1Application@@XZ@std@@@std@@@2@@std@@@std@@QEAAAEAPEAU?$pair@PEBDV?$function@$$A6APEAVScene@1Application@@XZ@std@@@2@XZ DD imagerel $LN3
	DD	imagerel $LN3+34
	DD	imagerel $unwind$?_Mylast@?$_Vector_alloc@U?$_Vec_base_types@U?$pair@PEBDV?$function@$$A6APEAVScene@1Application@@XZ@std@@@std@@V?$allocator@U?$pair@PEBDV?$function@$$A6APEAVScene@1Application@@XZ@std@@@std@@@2@@std@@@std@@QEAAAEAPEAU?$pair@PEBDV?$function@$$A6APEAVScene@1Application@@XZ@std@@@2@XZ
pdata	ENDS
;	COMDAT pdata
pdata	SEGMENT
$pdata$?_Mylast@?$_Vector_alloc@U?$_Vec_base_types@U?$pair@PEBDV?$function@$$A6APEAVScene@1Application@@XZ@std@@@std@@V?$allocator@U?$pair@PEBDV?$function@$$A6APEAVScene@1Application@@XZ@std@@@std@@@2@@std@@@std@@QEBAAEBQEAU?$pair@PEBDV?$function@$$A6APEAVScene@1Application@@XZ@std@@@2@XZ DD imagerel $LN3
	DD	imagerel $LN3+34
	DD	imagerel $unwind$?_Mylast@?$_Vector_alloc@U?$_Vec_base_types@U?$pair@PEBDV?$function@$$A6APEAVScene@1Application@@XZ@std@@@std@@V?$allocator@U?$pair@PEBDV?$function@$$A6APEAVScene@1Application@@XZ@std@@@std@@@2@@std@@@std@@QEBAAEBQEAU?$pair@PEBDV?$function@$$A6APEAVScene@1Application@@XZ@std@@@2@XZ
pdata	ENDS
;	COMDAT pdata
pdata	SEGMENT
$pdata$?_Myend@?$_Vector_alloc@U?$_Vec_base_types@U?$pair@PEBDV?$function@$$A6APEAVScene@1Application@@XZ@std@@@std@@V?$allocator@U?$pair@PEBDV?$function@$$A6APEAVScene@1Application@@XZ@std@@@std@@@2@@std@@@std@@QEAAAEAPEAU?$pair@PEBDV?$function@$$A6APEAVScene@1Application@@XZ@std@@@2@XZ DD imagerel $LN3
	DD	imagerel $LN3+34
	DD	imagerel $unwind$?_Myend@?$_Vector_alloc@U?$_Vec_base_types@U?$pair@PEBDV?$function@$$A6APEAVScene@1Application@@XZ@std@@@std@@V?$allocator@U?$pair@PEBDV?$function@$$A6APEAVScene@1Application@@XZ@std@@@std@@@2@@std@@@std@@QEAAAEAPEAU?$pair@PEBDV?$function@$$A6APEAVScene@1Application@@XZ@std@@@2@XZ
pdata	ENDS
;	COMDAT pdata
pdata	SEGMENT
$pdata$?_Myend@?$_Vector_alloc@U?$_Vec_base_types@U?$pair@PEBDV?$function@$$A6APEAVScene@1Application@@XZ@std@@@std@@V?$allocator@U?$pair@PEBDV?$function@$$A6APEAVScene@1Application@@XZ@std@@@std@@@2@@std@@@std@@QEBAAEBQEAU?$pair@PEBDV?$function@$$A6APEAVScene@1Application@@XZ@std@@@2@XZ DD imagerel $LN3
	DD	imagerel $LN3+34
	DD	imagerel $unwind$?_Myend@?$_Vector_alloc@U?$_Vec_base_types@U?$pair@PEBDV?$function@$$A6APEAVScene@1Application@@XZ@std@@@std@@V?$allocator@U?$pair@PEBDV?$function@$$A6APEAVScene@1Application@@XZ@std@@@std@@@2@@std@@@std@@QEBAAEBQEAU?$pair@PEBDV?$function@$$A6APEAVScene@1Application@@XZ@std@@@2@XZ
pdata	ENDS
;	COMDAT pdata
pdata	SEGMENT
$pdata$?_Get_first@?$_Compressed_pair@V?$allocator@U?$pair@PEBDV?$function@$$A6APEAVScene@1Application@@XZ@std@@@std@@@std@@V?$_Vector_val@U?$_Simple_types@U?$pair@PEBDV?$function@$$A6APEAVScene@1Application@@XZ@std@@@std@@@std@@@2@$00@std@@QEAAAEAV?$allocator@U?$pair@PEBDV?$function@$$A6APEAVScene@1Application@@XZ@std@@@std@@@2@XZ DD imagerel $LN3
	DD	imagerel $LN3+23
	DD	imagerel $unwind$?_Get_first@?$_Compressed_pair@V?$allocator@U?$pair@PEBDV?$function@$$A6APEAVScene@1Application@@XZ@std@@@std@@@std@@V?$_Vector_val@U?$_Simple_types@U?$pair@PEBDV?$function@$$A6APEAVScene@1Application@@XZ@std@@@std@@@std@@@2@$00@std@@QEAAAEAV?$allocator@U?$pair@PEBDV?$function@$$A6APEAVScene@1Application@@XZ@std@@@std@@@2@XZ
pdata	ENDS
;	COMDAT pdata
pdata	SEGMENT
$pdata$?_Get_first@?$_Compressed_pair@V?$allocator@U?$pair@PEBDV?$function@$$A6APEAVScene@1Application@@XZ@std@@@std@@@std@@V?$_Vector_val@U?$_Simple_types@U?$pair@PEBDV?$function@$$A6APEAVScene@1Application@@XZ@std@@@std@@@std@@@2@$00@std@@QEBAAEBV?$allocator@U?$pair@PEBDV?$function@$$A6APEAVScene@1Application@@XZ@std@@@std@@@2@XZ DD imagerel $LN3
	DD	imagerel $LN3+23
	DD	imagerel $unwind$?_Get_first@?$_Compressed_pair@V?$allocator@U?$pair@PEBDV?$function@$$A6APEAVScene@1Application@@XZ@std@@@std@@@std@@V?$_Vector_val@U?$_Simple_types@U?$pair@PEBDV?$function@$$A6APEAVScene@1Application@@XZ@std@@@std@@@std@@@2@$00@std@@QEBAAEBV?$allocator@U?$pair@PEBDV?$function@$$A6APEAVScene@1Application@@XZ@std@@@std@@@2@XZ
pdata	ENDS
;	COMDAT pdata
pdata	SEGMENT
$pdata$?_Get_second@?$_Compressed_pair@V?$allocator@U?$pair@PEBDV?$function@$$A6APEAVScene@1Application@@XZ@std@@@std@@@std@@V?$_Vector_val@U?$_Simple_types@U?$pair@PEBDV?$function@$$A6APEAVScene@1Application@@XZ@std@@@std@@@std@@@2@$00@std@@QEAAAEAV?$_Vector_val@U?$_Simple_types@U?$pair@PEBDV?$function@$$A6APEAVScene@1Application@@XZ@std@@@std@@@std@@@2@XZ DD imagerel $LN3
	DD	imagerel $LN3+23
	DD	imagerel $unwind$?_Get_second@?$_Compressed_pair@V?$allocator@U?$pair@PEBDV?$function@$$A6APEAVScene@1Application@@XZ@std@@@std@@@std@@V?$_Vector_val@U?$_Simple_types@U?$pair@PEBDV?$function@$$A6APEAVScene@1Application@@XZ@std@@@std@@@std@@@2@$00@std@@QEAAAEAV?$_Vector_val@U?$_Simple_types@U?$pair@PEBDV?$function@$$A6APEAVScene@1Application@@XZ@std@@@std@@@std@@@2@XZ
pdata	ENDS
;	COMDAT pdata
pdata	SEGMENT
$pdata$?_Get_second@?$_Compressed_pair@V?$allocator@U?$pair@PEBDV?$function@$$A6APEAVScene@1Application@@XZ@std@@@std@@@std@@V?$_Vector_val@U?$_Simple_types@U?$pair@PEBDV?$function@$$A6APEAVScene@1Application@@XZ@std@@@std@@@std@@@2@$00@std@@QEBAAEBV?$_Vector_val@U?$_Simple_types@U?$pair@PEBDV?$function@$$A6APEAVScene@1Application@@XZ@std@@@std@@@std@@@2@XZ DD imagerel $LN3
	DD	imagerel $LN3+23
	DD	imagerel $unwind$?_Get_second@?$_Compressed_pair@V?$allocator@U?$pair@PEBDV?$function@$$A6APEAVScene@1Application@@XZ@std@@@std@@@std@@V?$_Vector_val@U?$_Simple_types@U?$pair@PEBDV?$function@$$A6APEAVScene@1Application@@XZ@std@@@std@@@std@@@2@$00@std@@QEBAAEBV?$_Vector_val@U?$_Simple_types@U?$pair@PEBDV?$function@$$A6APEAVScene@1Application@@XZ@std@@@std@@@std@@@2@XZ
pdata	ENDS
;	COMDAT pdata
pdata	SEGMENT
$pdata$?push_back@?$vector@U?$pair@PEBDV?$function@$$A6APEAVScene@1Application@@XZ@std@@@std@@V?$allocator@U?$pair@PEBDV?$function@$$A6APEAVScene@1Application@@XZ@std@@@std@@@2@@std@@QEAAX$$QEAU?$pair@PEBDV?$function@$$A6APEAVScene@1Application@@XZ@std@@@2@@Z DD imagerel $LN3
	DD	imagerel $LN3+47
	DD	imagerel $unwind$?push_back@?$vector@U?$pair@PEBDV?$function@$$A6APEAVScene@1Application@@XZ@std@@@std@@V?$allocator@U?$pair@PEBDV?$function@$$A6APEAVScene@1Application@@XZ@std@@@std@@@2@@std@@QEAAX$$QEAU?$pair@PEBDV?$function@$$A6APEAVScene@1Application@@XZ@std@@@2@@Z
pdata	ENDS
;	COMDAT pdata
pdata	SEGMENT
$pdata$?size@?$vector@U?$pair@PEBDV?$function@$$A6APEAVScene@1Application@@XZ@std@@@std@@V?$allocator@U?$pair@PEBDV?$function@$$A6APEAVScene@1Application@@XZ@std@@@std@@@2@@std@@QEBA_KXZ DD imagerel $LN3
	DD	imagerel $LN3+69
	DD	imagerel $unwind$?size@?$vector@U?$pair@PEBDV?$function@$$A6APEAVScene@1Application@@XZ@std@@@std@@V?$allocator@U?$pair@PEBDV?$function@$$A6APEAVScene@1Application@@XZ@std@@@std@@@2@@std@@QEBA_KXZ
pdata	ENDS
;	COMDAT pdata
pdata	SEGMENT
$pdata$?max_size@?$vector@U?$pair@PEBDV?$function@$$A6APEAVScene@1Application@@XZ@std@@@std@@V?$allocator@U?$pair@PEBDV?$function@$$A6APEAVScene@1Application@@XZ@std@@@std@@@2@@std@@QEBA_KXZ DD imagerel $LN3
	DD	imagerel $LN3+67
	DD	imagerel $unwind$?max_size@?$vector@U?$pair@PEBDV?$function@$$A6APEAVScene@1Application@@XZ@std@@@std@@V?$allocator@U?$pair@PEBDV?$function@$$A6APEAVScene@1Application@@XZ@std@@@std@@@2@@std@@QEBA_KXZ
pdata	ENDS
;	COMDAT pdata
pdata	SEGMENT
$pdata$?capacity@?$vector@U?$pair@PEBDV?$function@$$A6APEAVScene@1Application@@XZ@std@@@std@@V?$allocator@U?$pair@PEBDV?$function@$$A6APEAVScene@1Application@@XZ@std@@@std@@@2@@std@@QEBA_KXZ DD imagerel $LN3
	DD	imagerel $LN3+69
	DD	imagerel $unwind$?capacity@?$vector@U?$pair@PEBDV?$function@$$A6APEAVScene@1Application@@XZ@std@@@std@@V?$allocator@U?$pair@PEBDV?$function@$$A6APEAVScene@1Application@@XZ@std@@@std@@@2@@std@@QEBA_KXZ
pdata	ENDS
;	COMDAT pdata
pdata	SEGMENT
$pdata$?_Has_unused_capacity@?$vector@U?$pair@PEBDV?$function@$$A6APEAVScene@1Application@@XZ@std@@@std@@V?$allocator@U?$pair@PEBDV?$function@$$A6APEAVScene@1Application@@XZ@std@@@std@@@2@@std@@AEBA_NXZ DD imagerel $LN5
	DD	imagerel $LN5+75
	DD	imagerel $unwind$?_Has_unused_capacity@?$vector@U?$pair@PEBDV?$function@$$A6APEAVScene@1Application@@XZ@std@@@std@@V?$allocator@U?$pair@PEBDV?$function@$$A6APEAVScene@1Application@@XZ@std@@@std@@@2@@std@@AEBA_NXZ
pdata	ENDS
;	COMDAT pdata
pdata	SEGMENT
$pdata$?_Umove@?$vector@U?$pair@PEBDV?$function@$$A6APEAVScene@1Application@@XZ@std@@@std@@V?$allocator@U?$pair@PEBDV?$function@$$A6APEAVScene@1Application@@XZ@std@@@std@@@2@@std@@AEAAPEAU?$pair@PEBDV?$function@$$A6APEAVScene@1Application@@XZ@std@@@2@PEAU32@00@Z DD imagerel $LN3
	DD	imagerel $LN3+65
	DD	imagerel $unwind$?_Umove@?$vector@U?$pair@PEBDV?$function@$$A6APEAVScene@1Application@@XZ@std@@@std@@V?$allocator@U?$pair@PEBDV?$function@$$A6APEAVScene@1Application@@XZ@std@@@std@@@2@@std@@AEAAPEAU?$pair@PEBDV?$function@$$A6APEAVScene@1Application@@XZ@std@@@2@PEAU32@00@Z
pdata	ENDS
;	COMDAT pdata
pdata	SEGMENT
$pdata$?_Umove_if_noexcept1@?$vector@U?$pair@PEBDV?$function@$$A6APEAVScene@1Application@@XZ@std@@@std@@V?$allocator@U?$pair@PEBDV?$function@$$A6APEAVScene@1Application@@XZ@std@@@std@@@2@@std@@AEAAXPEAU?$pair@PEBDV?$function@$$A6APEAVScene@1Application@@XZ@std@@@2@00U?$integral_constant@_N$0A@@2@@Z DD imagerel $LN3
	DD	imagerel $LN3+65
	DD	imagerel $unwind$?_Umove_if_noexcept1@?$vector@U?$pair@PEBDV?$function@$$A6APEAVScene@1Application@@XZ@std@@@std@@V?$allocator@U?$pair@PEBDV?$function@$$A6APEAVScene@1Application@@XZ@std@@@std@@@2@@std@@AEAAXPEAU?$pair@PEBDV?$function@$$A6APEAVScene@1Application@@XZ@std@@@2@00U?$integral_constant@_N$0A@@2@@Z
pdata	ENDS
;	COMDAT pdata
pdata	SEGMENT
$pdata$?_Umove_if_noexcept@?$vector@U?$pair@PEBDV?$function@$$A6APEAVScene@1Application@@XZ@std@@@std@@V?$allocator@U?$pair@PEBDV?$function@$$A6APEAVScene@1Application@@XZ@std@@@std@@@2@@std@@AEAAXPEAU?$pair@PEBDV?$function@$$A6APEAVScene@1Application@@XZ@std@@@2@00@Z DD imagerel $LN3
	DD	imagerel $LN3+92
	DD	imagerel $unwind$?_Umove_if_noexcept@?$vector@U?$pair@PEBDV?$function@$$A6APEAVScene@1Application@@XZ@std@@@std@@V?$allocator@U?$pair@PEBDV?$function@$$A6APEAVScene@1Application@@XZ@std@@@std@@@2@@std@@AEAAXPEAU?$pair@PEBDV?$function@$$A6APEAVScene@1Application@@XZ@std@@@2@00@Z
pdata	ENDS
;	COMDAT pdata
pdata	SEGMENT
$pdata$?_Destroy@?$vector@U?$pair@PEBDV?$function@$$A6APEAVScene@1Application@@XZ@std@@@std@@V?$allocator@U?$pair@PEBDV?$function@$$A6APEAVScene@1Application@@XZ@std@@@std@@@2@@std@@AEAAXPEAU?$pair@PEBDV?$function@$$A6APEAVScene@1Application@@XZ@std@@@2@0@Z DD imagerel $LN3
	DD	imagerel $LN3+56
	DD	imagerel $unwind$?_Destroy@?$vector@U?$pair@PEBDV?$function@$$A6APEAVScene@1Application@@XZ@std@@@std@@V?$allocator@U?$pair@PEBDV?$function@$$A6APEAVScene@1Application@@XZ@std@@@std@@@2@@std@@AEAAXPEAU?$pair@PEBDV?$function@$$A6APEAVScene@1Application@@XZ@std@@@2@0@Z
pdata	ENDS
;	COMDAT pdata
pdata	SEGMENT
$pdata$?_Calculate_growth@?$vector@U?$pair@PEBDV?$function@$$A6APEAVScene@1Application@@XZ@std@@@std@@V?$allocator@U?$pair@PEBDV?$function@$$A6APEAVScene@1Application@@XZ@std@@@std@@@2@@std@@AEBA_K_K@Z DD imagerel $LN5
	DD	imagerel $LN5+139
	DD	imagerel $unwind$?_Calculate_growth@?$vector@U?$pair@PEBDV?$function@$$A6APEAVScene@1Application@@XZ@std@@@std@@V?$allocator@U?$pair@PEBDV?$function@$$A6APEAVScene@1Application@@XZ@std@@@std@@@2@@std@@AEBA_K_K@Z
pdata	ENDS
;	COMDAT pdata
pdata	SEGMENT
$pdata$?_Change_array@?$vector@U?$pair@PEBDV?$function@$$A6APEAVScene@1Application@@XZ@std@@@std@@V?$allocator@U?$pair@PEBDV?$function@$$A6APEAVScene@1Application@@XZ@std@@@std@@@2@@std@@AEAAXQEAU?$pair@PEBDV?$function@$$A6APEAVScene@1Application@@XZ@std@@@2@_K1@Z DD imagerel $LN4
	DD	imagerel $LN4+244
	DD	imagerel $unwind$?_Change_array@?$vector@U?$pair@PEBDV?$function@$$A6APEAVScene@1Application@@XZ@std@@@std@@V?$allocator@U?$pair@PEBDV?$function@$$A6APEAVScene@1Application@@XZ@std@@@std@@@2@@std@@AEAAXQEAU?$pair@PEBDV?$function@$$A6APEAVScene@1Application@@XZ@std@@@2@_K1@Z
pdata	ENDS
;	COMDAT pdata
pdata	SEGMENT
$pdata$?_Xlength@?$vector@U?$pair@PEBDV?$function@$$A6APEAVScene@1Application@@XZ@std@@@std@@V?$allocator@U?$pair@PEBDV?$function@$$A6APEAVScene@1Application@@XZ@std@@@std@@@2@@std@@CAXXZ DD imagerel $LN3
	DD	imagerel $LN3+29
	DD	imagerel $unwind$?_Xlength@?$vector@U?$pair@PEBDV?$function@$$A6APEAVScene@1Application@@XZ@std@@@std@@V?$allocator@U?$pair@PEBDV?$function@$$A6APEAVScene@1Application@@XZ@std@@@std@@@2@@std@@CAXXZ
pdata	ENDS
;	COMDAT pdata
pdata	SEGMENT
$pdata$?_Orphan_range@?$vector@U?$pair@PEBDV?$function@$$A6APEAVScene@1Application@@XZ@std@@@std@@V?$allocator@U?$pair@PEBDV?$function@$$A6APEAVScene@1Application@@XZ@std@@@std@@@2@@std@@AEBAXPEAU?$pair@PEBDV?$function@$$A6APEAVScene@1Application@@XZ@std@@@2@0@Z DD imagerel $LN10
	DD	imagerel $LN10+215
	DD	imagerel $unwind$?_Orphan_range@?$vector@U?$pair@PEBDV?$function@$$A6APEAVScene@1Application@@XZ@std@@@std@@V?$allocator@U?$pair@PEBDV?$function@$$A6APEAVScene@1Application@@XZ@std@@@std@@@2@@std@@AEBAXPEAU?$pair@PEBDV?$function@$$A6APEAVScene@1Application@@XZ@std@@@2@0@Z
pdata	ENDS
;	COMDAT pdata
pdata	SEGMENT
$pdata$?dtor$0@?0??_Orphan_range@?$vector@U?$pair@PEBDV?$function@$$A6APEAVScene@1Application@@XZ@std@@@std@@V?$allocator@U?$pair@PEBDV?$function@$$A6APEAVScene@1Application@@XZ@std@@@std@@@2@@std@@AEBAXPEAU?$pair@PEBDV?$function@$$A6APEAVScene@1Application@@XZ@std@@@2@0@Z@4HA DD imagerel ?dtor$0@?0??_Orphan_range@?$vector@U?$pair@PEBDV?$function@$$A6APEAVScene@1Application@@XZ@std@@@std@@V?$allocator@U?$pair@PEBDV?$function@$$A6APEAVScene@1Application@@XZ@std@@@std@@@2@@std@@AEBAXPEAU?$pair@PEBDV?$function@$$A6APEAVScene@1Application@@XZ@std@@@2@0@Z@4HA
	DD	imagerel ?dtor$0@?0??_Orphan_range@?$vector@U?$pair@PEBDV?$function@$$A6APEAVScene@1Application@@XZ@std@@@std@@V?$allocator@U?$pair@PEBDV?$function@$$A6APEAVScene@1Application@@XZ@std@@@std@@@2@@std@@AEBAXPEAU?$pair@PEBDV?$function@$$A6APEAVScene@1Application@@XZ@std@@@2@0@Z@4HA+26
	DD	imagerel $unwind$?dtor$0@?0??_Orphan_range@?$vector@U?$pair@PEBDV?$function@$$A6APEAVScene@1Application@@XZ@std@@@std@@V?$allocator@U?$pair@PEBDV?$function@$$A6APEAVScene@1Application@@XZ@std@@@std@@@2@@std@@AEBAXPEAU?$pair@PEBDV?$function@$$A6APEAVScene@1Application@@XZ@std@@@2@0@Z@4HA
pdata	ENDS
;	COMDAT pdata
pdata	SEGMENT
$pdata$?__autoclassinit2@MainMenuScene@Scene@Application@@QEAAX_K@Z DD imagerel $LN3
	DD	imagerel $LN3+38
	DD	imagerel $unwind$?__autoclassinit2@MainMenuScene@Scene@Application@@QEAAX_K@Z
pdata	ENDS
;	COMDAT pdata
pdata	SEGMENT
$pdata$?__autoclassinit2@SandboxScene@Scene@Application@@QEAAX_K@Z DD imagerel $LN3
	DD	imagerel $LN3+38
	DD	imagerel $unwind$?__autoclassinit2@SandboxScene@Scene@Application@@QEAAX_K@Z
pdata	ENDS
;	COMDAT pdata
pdata	SEGMENT
$pdata$?__autoclassinit2@BuffersTestScene@Scene@Application@@QEAAX_K@Z DD imagerel $LN3
	DD	imagerel $LN3+38
	DD	imagerel $unwind$?__autoclassinit2@BuffersTestScene@Scene@Application@@QEAAX_K@Z
pdata	ENDS
;	COMDAT pdata
pdata	SEGMENT
$pdata$?__autoclassinit2@TextureTestScene@Scene@Application@@QEAAX_K@Z DD imagerel $LN3
	DD	imagerel $LN3+38
	DD	imagerel $unwind$?__autoclassinit2@TextureTestScene@Scene@Application@@QEAAX_K@Z
pdata	ENDS
;	COMDAT pdata
pdata	SEGMENT
$pdata$?__autoclassinit2@SimpleRendererScene@Scene@Application@@QEAAX_K@Z DD imagerel $LN3
	DD	imagerel $LN3+38
	DD	imagerel $unwind$?__autoclassinit2@SimpleRendererScene@Scene@Application@@QEAAX_K@Z
pdata	ENDS
;	COMDAT pdata
pdata	SEGMENT
$pdata$?__autoclassinit2@BatchRendererScene@Scene@Application@@QEAAX_K@Z DD imagerel $LN3
	DD	imagerel $LN3+38
	DD	imagerel $unwind$?__autoclassinit2@BatchRendererScene@Scene@Application@@QEAAX_K@Z
pdata	ENDS
;	COMDAT pdata
pdata	SEGMENT
$pdata$?__autoclassinit2@BoidScene@Scene@Application@@QEAAX_K@Z DD imagerel $LN3
	DD	imagerel $LN3+38
	DD	imagerel $unwind$?__autoclassinit2@BoidScene@Scene@Application@@QEAAX_K@Z
pdata	ENDS
;	COMDAT pdata
pdata	SEGMENT
$pdata$?__autoclassinit2@MandelbrotScene@Scene@Application@@QEAAX_K@Z DD imagerel $LN3
	DD	imagerel $LN3+38
	DD	imagerel $unwind$?__autoclassinit2@MandelbrotScene@Scene@Application@@QEAAX_K@Z
pdata	ENDS
;	COMDAT pdata
pdata	SEGMENT
$pdata$?__autoclassinit2@ComputeShaderScene@Scene@Application@@QEAAX_K@Z DD imagerel $LN3
	DD	imagerel $LN3+38
	DD	imagerel $unwind$?__autoclassinit2@ComputeShaderScene@Scene@Application@@QEAAX_K@Z
pdata	ENDS
;	COMDAT pdata
pdata	SEGMENT
$pdata$?__autoclassinit2@LayerScene@Scene@Application@@QEAAX_K@Z DD imagerel $LN3
	DD	imagerel $LN3+38
	DD	imagerel $unwind$?__autoclassinit2@LayerScene@Scene@Application@@QEAAX_K@Z
pdata	ENDS
;	COMDAT pdata
pdata	SEGMENT
$pdata$main DD	imagerel $LN21
	DD	imagerel $LN21+1248
	DD	imagerel $unwind$main
pdata	ENDS
;	COMDAT pdata
pdata	SEGMENT
$pdata$main$dtor$0 DD imagerel main$dtor$0
	DD	imagerel main$dtor$0+25
	DD	imagerel $unwind$main$dtor$0
pdata	ENDS
;	COMDAT pdata
pdata	SEGMENT
$pdata$main$dtor$1 DD imagerel main$dtor$1
	DD	imagerel main$dtor$1+33
	DD	imagerel $unwind$main$dtor$1
pdata	ENDS
;	COMDAT pdata
pdata	SEGMENT
$pdata$??$RegisterScene@VTestScene@Scene@Application@@@MainMenuScene@Scene@Application@@QEAAXPEBD@Z DD imagerel $LN4
	DD	imagerel $LN4+136
	DD	imagerel $unwind$??$RegisterScene@VTestScene@Scene@Application@@@MainMenuScene@Scene@Application@@QEAAXPEBD@Z
pdata	ENDS
;	COMDAT pdata
pdata	SEGMENT
$pdata$?dtor$0@?0???$RegisterScene@VTestScene@Scene@Application@@@MainMenuScene@Scene@Application@@QEAAXPEBD@Z@4HA DD imagerel ?dtor$0@?0???$RegisterScene@VTestScene@Scene@Application@@@MainMenuScene@Scene@Application@@QEAAXPEBD@Z@4HA
	DD	imagerel ?dtor$0@?0???$RegisterScene@VTestScene@Scene@Application@@@MainMenuScene@Scene@Application@@QEAAXPEBD@Z@4HA+25
	DD	imagerel $unwind$?dtor$0@?0???$RegisterScene@VTestScene@Scene@Application@@@MainMenuScene@Scene@Application@@QEAAXPEBD@Z@4HA
pdata	ENDS
;	COMDAT pdata
pdata	SEGMENT
$pdata$??$RegisterScene@VSandboxScene@Scene@Application@@@MainMenuScene@Scene@Application@@QEAAXPEBD@Z DD imagerel $LN4
	DD	imagerel $LN4+136
	DD	imagerel $unwind$??$RegisterScene@VSandboxScene@Scene@Application@@@MainMenuScene@Scene@Application@@QEAAXPEBD@Z
pdata	ENDS
;	COMDAT pdata
pdata	SEGMENT
$pdata$?dtor$0@?0???$RegisterScene@VSandboxScene@Scene@Application@@@MainMenuScene@Scene@Application@@QEAAXPEBD@Z@4HA DD imagerel ?dtor$0@?0???$RegisterScene@VSandboxScene@Scene@Application@@@MainMenuScene@Scene@Application@@QEAAXPEBD@Z@4HA
	DD	imagerel ?dtor$0@?0???$RegisterScene@VSandboxScene@Scene@Application@@@MainMenuScene@Scene@Application@@QEAAXPEBD@Z@4HA+25
	DD	imagerel $unwind$?dtor$0@?0???$RegisterScene@VSandboxScene@Scene@Application@@@MainMenuScene@Scene@Application@@QEAAXPEBD@Z@4HA
pdata	ENDS
;	COMDAT pdata
pdata	SEGMENT
$pdata$??$RegisterScene@VBuffersTestScene@Scene@Application@@@MainMenuScene@Scene@Application@@QEAAXPEBD@Z DD imagerel $LN4
	DD	imagerel $LN4+136
	DD	imagerel $unwind$??$RegisterScene@VBuffersTestScene@Scene@Application@@@MainMenuScene@Scene@Application@@QEAAXPEBD@Z
pdata	ENDS
;	COMDAT pdata
pdata	SEGMENT
$pdata$?dtor$0@?0???$RegisterScene@VBuffersTestScene@Scene@Application@@@MainMenuScene@Scene@Application@@QEAAXPEBD@Z@4HA DD imagerel ?dtor$0@?0???$RegisterScene@VBuffersTestScene@Scene@Application@@@MainMenuScene@Scene@Application@@QEAAXPEBD@Z@4HA
	DD	imagerel ?dtor$0@?0???$RegisterScene@VBuffersTestScene@Scene@Application@@@MainMenuScene@Scene@Application@@QEAAXPEBD@Z@4HA+25
	DD	imagerel $unwind$?dtor$0@?0???$RegisterScene@VBuffersTestScene@Scene@Application@@@MainMenuScene@Scene@Application@@QEAAXPEBD@Z@4HA
pdata	ENDS
;	COMDAT pdata
pdata	SEGMENT
$pdata$??$RegisterScene@VTextureTestScene@Scene@Application@@@MainMenuScene@Scene@Application@@QEAAXPEBD@Z DD imagerel $LN4
	DD	imagerel $LN4+136
	DD	imagerel $unwind$??$RegisterScene@VTextureTestScene@Scene@Application@@@MainMenuScene@Scene@Application@@QEAAXPEBD@Z
pdata	ENDS
;	COMDAT pdata
pdata	SEGMENT
$pdata$?dtor$0@?0???$RegisterScene@VTextureTestScene@Scene@Application@@@MainMenuScene@Scene@Application@@QEAAXPEBD@Z@4HA DD imagerel ?dtor$0@?0???$RegisterScene@VTextureTestScene@Scene@Application@@@MainMenuScene@Scene@Application@@QEAAXPEBD@Z@4HA
	DD	imagerel ?dtor$0@?0???$RegisterScene@VTextureTestScene@Scene@Application@@@MainMenuScene@Scene@Application@@QEAAXPEBD@Z@4HA+25
	DD	imagerel $unwind$?dtor$0@?0???$RegisterScene@VTextureTestScene@Scene@Application@@@MainMenuScene@Scene@Application@@QEAAXPEBD@Z@4HA
pdata	ENDS
;	COMDAT pdata
pdata	SEGMENT
$pdata$??$RegisterScene@VSimpleRendererScene@Scene@Application@@@MainMenuScene@Scene@Application@@QEAAXPEBD@Z DD imagerel $LN4
	DD	imagerel $LN4+136
	DD	imagerel $unwind$??$RegisterScene@VSimpleRendererScene@Scene@Application@@@MainMenuScene@Scene@Application@@QEAAXPEBD@Z
pdata	ENDS
;	COMDAT pdata
pdata	SEGMENT
$pdata$?dtor$0@?0???$RegisterScene@VSimpleRendererScene@Scene@Application@@@MainMenuScene@Scene@Application@@QEAAXPEBD@Z@4HA DD imagerel ?dtor$0@?0???$RegisterScene@VSimpleRendererScene@Scene@Application@@@MainMenuScene@Scene@Application@@QEAAXPEBD@Z@4HA
	DD	imagerel ?dtor$0@?0???$RegisterScene@VSimpleRendererScene@Scene@Application@@@MainMenuScene@Scene@Application@@QEAAXPEBD@Z@4HA+25
	DD	imagerel $unwind$?dtor$0@?0???$RegisterScene@VSimpleRendererScene@Scene@Application@@@MainMenuScene@Scene@Application@@QEAAXPEBD@Z@4HA
pdata	ENDS
;	COMDAT pdata
pdata	SEGMENT
$pdata$??$RegisterScene@VBatchRendererScene@Scene@Application@@@MainMenuScene@Scene@Application@@QEAAXPEBD@Z DD imagerel $LN4
	DD	imagerel $LN4+136
	DD	imagerel $unwind$??$RegisterScene@VBatchRendererScene@Scene@Application@@@MainMenuScene@Scene@Application@@QEAAXPEBD@Z
pdata	ENDS
;	COMDAT pdata
pdata	SEGMENT
$pdata$?dtor$0@?0???$RegisterScene@VBatchRendererScene@Scene@Application@@@MainMenuScene@Scene@Application@@QEAAXPEBD@Z@4HA DD imagerel ?dtor$0@?0???$RegisterScene@VBatchRendererScene@Scene@Application@@@MainMenuScene@Scene@Application@@QEAAXPEBD@Z@4HA
	DD	imagerel ?dtor$0@?0???$RegisterScene@VBatchRendererScene@Scene@Application@@@MainMenuScene@Scene@Application@@QEAAXPEBD@Z@4HA+25
	DD	imagerel $unwind$?dtor$0@?0???$RegisterScene@VBatchRendererScene@Scene@Application@@@MainMenuScene@Scene@Application@@QEAAXPEBD@Z@4HA
pdata	ENDS
;	COMDAT pdata
pdata	SEGMENT
$pdata$??$RegisterScene@VLayerScene@Scene@Application@@@MainMenuScene@Scene@Application@@QEAAXPEBD@Z DD imagerel $LN4
	DD	imagerel $LN4+136
	DD	imagerel $unwind$??$RegisterScene@VLayerScene@Scene@Application@@@MainMenuScene@Scene@Application@@QEAAXPEBD@Z
pdata	ENDS
;	COMDAT pdata
pdata	SEGMENT
$pdata$?dtor$0@?0???$RegisterScene@VLayerScene@Scene@Application@@@MainMenuScene@Scene@Application@@QEAAXPEBD@Z@4HA DD imagerel ?dtor$0@?0???$RegisterScene@VLayerScene@Scene@Application@@@MainMenuScene@Scene@Application@@QEAAXPEBD@Z@4HA
	DD	imagerel ?dtor$0@?0???$RegisterScene@VLayerScene@Scene@Application@@@MainMenuScene@Scene@Application@@QEAAXPEBD@Z@4HA+25
	DD	imagerel $unwind$?dtor$0@?0???$RegisterScene@VLayerScene@Scene@Application@@@MainMenuScene@Scene@Application@@QEAAXPEBD@Z@4HA
pdata	ENDS
;	COMDAT pdata
pdata	SEGMENT
$pdata$??$RegisterScene@VBoidScene@Scene@Application@@@MainMenuScene@Scene@Application@@QEAAXPEBD@Z DD imagerel $LN4
	DD	imagerel $LN4+136
	DD	imagerel $unwind$??$RegisterScene@VBoidScene@Scene@Application@@@MainMenuScene@Scene@Application@@QEAAXPEBD@Z
pdata	ENDS
;	COMDAT pdata
pdata	SEGMENT
$pdata$?dtor$0@?0???$RegisterScene@VBoidScene@Scene@Application@@@MainMenuScene@Scene@Application@@QEAAXPEBD@Z@4HA DD imagerel ?dtor$0@?0???$RegisterScene@VBoidScene@Scene@Application@@@MainMenuScene@Scene@Application@@QEAAXPEBD@Z@4HA
	DD	imagerel ?dtor$0@?0???$RegisterScene@VBoidScene@Scene@Application@@@MainMenuScene@Scene@Application@@QEAAXPEBD@Z@4HA+25
	DD	imagerel $unwind$?dtor$0@?0???$RegisterScene@VBoidScene@Scene@Application@@@MainMenuScene@Scene@Application@@QEAAXPEBD@Z@4HA
pdata	ENDS
;	COMDAT pdata
pdata	SEGMENT
$pdata$??$RegisterScene@VMandelbrotScene@Scene@Application@@@MainMenuScene@Scene@Application@@QEAAXPEBD@Z DD imagerel $LN4
	DD	imagerel $LN4+136
	DD	imagerel $unwind$??$RegisterScene@VMandelbrotScene@Scene@Application@@@MainMenuScene@Scene@Application@@QEAAXPEBD@Z
pdata	ENDS
;	COMDAT pdata
pdata	SEGMENT
$pdata$?dtor$0@?0???$RegisterScene@VMandelbrotScene@Scene@Application@@@MainMenuScene@Scene@Application@@QEAAXPEBD@Z@4HA DD imagerel ?dtor$0@?0???$RegisterScene@VMandelbrotScene@Scene@Application@@@MainMenuScene@Scene@Application@@QEAAXPEBD@Z@4HA
	DD	imagerel ?dtor$0@?0???$RegisterScene@VMandelbrotScene@Scene@Application@@@MainMenuScene@Scene@Application@@QEAAXPEBD@Z@4HA+25
	DD	imagerel $unwind$?dtor$0@?0???$RegisterScene@VMandelbrotScene@Scene@Application@@@MainMenuScene@Scene@Application@@QEAAXPEBD@Z@4HA
pdata	ENDS
;	COMDAT pdata
pdata	SEGMENT
$pdata$??$RegisterScene@VComputeShaderScene@Scene@Application@@@MainMenuScene@Scene@Application@@QEAAXPEBD@Z DD imagerel $LN4
	DD	imagerel $LN4+136
	DD	imagerel $unwind$??$RegisterScene@VComputeShaderScene@Scene@Application@@@MainMenuScene@Scene@Application@@QEAAXPEBD@Z
pdata	ENDS
;	COMDAT pdata
pdata	SEGMENT
$pdata$?dtor$0@?0???$RegisterScene@VComputeShaderScene@Scene@Application@@@MainMenuScene@Scene@Application@@QEAAXPEBD@Z@4HA DD imagerel ?dtor$0@?0???$RegisterScene@VComputeShaderScene@Scene@Application@@@MainMenuScene@Scene@Application@@QEAAXPEBD@Z@4HA
	DD	imagerel ?dtor$0@?0???$RegisterScene@VComputeShaderScene@Scene@Application@@@MainMenuScene@Scene@Application@@QEAAXPEBD@Z@4HA+25
	DD	imagerel $unwind$?dtor$0@?0???$RegisterScene@VComputeShaderScene@Scene@Application@@@MainMenuScene@Scene@Application@@QEAAXPEBD@Z@4HA
pdata	ENDS
;	COMDAT pdata
pdata	SEGMENT
$pdata$??$_Allocate@$0BA@U_Default_allocate_traits@std@@$0A@@std@@YAPEAX_K@Z DD imagerel $LN5
	DD	imagerel $LN5+62
	DD	imagerel $unwind$??$_Allocate@$0BA@U_Default_allocate_traits@std@@$0A@@std@@YAPEAX_K@Z
pdata	ENDS
;	COMDAT pdata
pdata	SEGMENT
$pdata$??$_Deallocate@$0BA@$0A@@std@@YAXPEAX_K@Z DD imagerel $LN4
	DD	imagerel $LN4+62
	DD	imagerel $unwind$??$_Deallocate@$0BA@$0A@@std@@YAXPEAX_K@Z
pdata	ENDS
;	COMDAT pdata
pdata	SEGMENT
$pdata$??R<lambda_411dc79f4b3a863ac6e5ae55809472f9>@@QEBAPEAVTestScene@Scene@Application@@XZ DD imagerel ??R<lambda_411dc79f4b3a863ac6e5ae55809472f9>@@QEBAPEAVTestScene@Scene@Application@@XZ
	DD	imagerel ??R<lambda_411dc79f4b3a863ac6e5ae55809472f9>@@QEBAPEAVTestScene@Scene@Application@@XZ+88
	DD	imagerel $unwind$??R<lambda_411dc79f4b3a863ac6e5ae55809472f9>@@QEBAPEAVTestScene@Scene@Application@@XZ
pdata	ENDS
;	COMDAT pdata
pdata	SEGMENT
$pdata$?dtor$0@?0???R<lambda_411dc79f4b3a863ac6e5ae55809472f9>@@QEBAPEAVTestScene@Scene@Application@@XZ@4HA DD imagerel ?dtor$0@?0???R<lambda_411dc79f4b3a863ac6e5ae55809472f9>@@QEBAPEAVTestScene@Scene@Application@@XZ@4HA
	DD	imagerel ?dtor$0@?0???R<lambda_411dc79f4b3a863ac6e5ae55809472f9>@@QEBAPEAVTestScene@Scene@Application@@XZ@4HA+30
	DD	imagerel $unwind$?dtor$0@?0???R<lambda_411dc79f4b3a863ac6e5ae55809472f9>@@QEBAPEAVTestScene@Scene@Application@@XZ@4HA
pdata	ENDS
;	COMDAT pdata
pdata	SEGMENT
$pdata$??$make_pair@AEAPEBDV<lambda_411dc79f4b3a863ac6e5ae55809472f9>@@@std@@YA?AU?$pair@PEBDV<lambda_411dc79f4b3a863ac6e5ae55809472f9>@@@0@AEAPEBD$$QEAV<lambda_411dc79f4b3a863ac6e5ae55809472f9>@@@Z DD imagerel ??$make_pair@AEAPEBDV<lambda_411dc79f4b3a863ac6e5ae55809472f9>@@@std@@YA?AU?$pair@PEBDV<lambda_411dc79f4b3a863ac6e5ae55809472f9>@@@0@AEAPEBD$$QEAV<lambda_411dc79f4b3a863ac6e5ae55809472f9>@@@Z
	DD	imagerel ??$make_pair@AEAPEBDV<lambda_411dc79f4b3a863ac6e5ae55809472f9>@@@std@@YA?AU?$pair@PEBDV<lambda_411dc79f4b3a863ac6e5ae55809472f9>@@@0@AEAPEBD$$QEAV<lambda_411dc79f4b3a863ac6e5ae55809472f9>@@@Z+76
	DD	imagerel $unwind$??$make_pair@AEAPEBDV<lambda_411dc79f4b3a863ac6e5ae55809472f9>@@@std@@YA?AU?$pair@PEBDV<lambda_411dc79f4b3a863ac6e5ae55809472f9>@@@0@AEAPEBD$$QEAV<lambda_411dc79f4b3a863ac6e5ae55809472f9>@@@Z
pdata	ENDS
;	COMDAT pdata
pdata	SEGMENT
$pdata$??0?$pair@PEBDV?$function@$$A6APEAVScene@1Application@@XZ@std@@@std@@QEAA@AEBU01@@Z DD imagerel $LN4
	DD	imagerel $LN4+68
	DD	imagerel $unwind$??0?$pair@PEBDV?$function@$$A6APEAVScene@1Application@@XZ@std@@@std@@QEAA@AEBU01@@Z
pdata	ENDS
;	COMDAT pdata
pdata	SEGMENT
$pdata$??0?$pair@PEBDV?$function@$$A6APEAVScene@1Application@@XZ@std@@@std@@QEAA@$$QEAU01@@Z DD imagerel $LN4
	DD	imagerel $LN4+68
	DD	imagerel $unwind$??0?$pair@PEBDV?$function@$$A6APEAVScene@1Application@@XZ@std@@@std@@QEAA@$$QEAU01@@Z
pdata	ENDS
;	COMDAT pdata
pdata	SEGMENT
$pdata$??0?$_Func_class@PEAVScene@1Application@@$$V@std@@QEAA@XZ DD imagerel $LN3
	DD	imagerel $LN3+36
	DD	imagerel $unwind$??0?$_Func_class@PEAVScene@1Application@@$$V@std@@QEAA@XZ
pdata	ENDS
;	COMDAT pdata
pdata	SEGMENT
$pdata$??1?$_Func_class@PEAVScene@1Application@@$$V@std@@QEAA@XZ DD imagerel $LN3
	DD	imagerel $LN3+30
	DD	imagerel $unwind$??1?$_Func_class@PEAVScene@1Application@@$$V@std@@QEAA@XZ
pdata	ENDS
;	COMDAT pdata
pdata	SEGMENT
$pdata$?_Empty@?$_Func_class@PEAVScene@1Application@@$$V@std@@IEBA_NXZ DD imagerel $LN5
	DD	imagerel $LN5+55
	DD	imagerel $unwind$?_Empty@?$_Func_class@PEAVScene@1Application@@$$V@std@@IEBA_NXZ
pdata	ENDS
;	COMDAT pdata
pdata	SEGMENT
$pdata$?_Reset_copy@?$_Func_class@PEAVScene@1Application@@$$V@std@@IEAAXAEBV12@@Z DD imagerel $LN5
	DD	imagerel $LN5+102
	DD	imagerel $unwind$?_Reset_copy@?$_Func_class@PEAVScene@1Application@@$$V@std@@IEAAXAEBV12@@Z
pdata	ENDS
;	COMDAT pdata
pdata	SEGMENT
$pdata$?_Reset_move@?$_Func_class@PEAVScene@1Application@@$$V@std@@IEAAX$$QEAV12@@Z DD imagerel $LN7
	DD	imagerel $LN7+162
	DD	imagerel $unwind$?_Reset_move@?$_Func_class@PEAVScene@1Application@@$$V@std@@IEAAX$$QEAV12@@Z
pdata	ENDS
;	COMDAT pdata
pdata	SEGMENT
$pdata$?_Tidy@?$_Func_class@PEAVScene@1Application@@$$V@std@@IEAAXXZ DD imagerel $LN6
	DD	imagerel $LN6+105
	DD	imagerel $unwind$?_Tidy@?$_Func_class@PEAVScene@1Application@@$$V@std@@IEAAXXZ
pdata	ENDS
;	COMDAT pdata
pdata	SEGMENT
$pdata$?_Local@?$_Func_class@PEAVScene@1Application@@$$V@std@@AEBA_NXZ DD imagerel $LN5
	DD	imagerel $LN5+72
	DD	imagerel $unwind$?_Local@?$_Func_class@PEAVScene@1Application@@$$V@std@@AEBA_NXZ
pdata	ENDS
;	COMDAT pdata
pdata	SEGMENT
$pdata$?_Getimpl@?$_Func_class@PEAVScene@1Application@@$$V@std@@AEBAPEAV?$_Func_base@PEAVScene@1Application@@$$V@2@XZ DD imagerel $LN3
	DD	imagerel $LN3+36
	DD	imagerel $unwind$?_Getimpl@?$_Func_class@PEAVScene@1Application@@$$V@std@@AEBAPEAV?$_Func_base@PEAVScene@1Application@@$$V@2@XZ
pdata	ENDS
;	COMDAT pdata
pdata	SEGMENT
$pdata$?_Set@?$_Func_class@PEAVScene@1Application@@$$V@std@@AEAAXPEAV?$_Func_base@PEAVScene@1Application@@$$V@2@@Z DD imagerel $LN3
	DD	imagerel $LN3+45
	DD	imagerel $unwind$?_Set@?$_Func_class@PEAVScene@1Application@@$$V@std@@AEAAXPEAV?$_Func_base@PEAVScene@1Application@@$$V@2@@Z
pdata	ENDS
;	COMDAT pdata
pdata	SEGMENT
$pdata$?_Getspace@?$_Func_class@PEAVScene@1Application@@$$V@std@@AEAAPEAXXZ DD imagerel $LN3
	DD	imagerel $LN3+23
	DD	imagerel $unwind$?_Getspace@?$_Func_class@PEAVScene@1Application@@$$V@std@@AEAAPEAXXZ
pdata	ENDS
;	COMDAT pdata
pdata	SEGMENT
$pdata$?_Getspace@?$_Func_class@PEAVScene@1Application@@$$V@std@@AEBAPEBXXZ DD imagerel $LN3
	DD	imagerel $LN3+23
	DD	imagerel $unwind$?_Getspace@?$_Func_class@PEAVScene@1Application@@$$V@std@@AEBAPEBXXZ
pdata	ENDS
;	COMDAT pdata
pdata	SEGMENT
$pdata$??0?$function@$$A6APEAVScene@1Application@@XZ@std@@QEAA@AEBV01@@Z DD imagerel $LN4
	DD	imagerel $LN4+62
	DD	imagerel $unwind$??0?$function@$$A6APEAVScene@1Application@@XZ@std@@QEAA@AEBV01@@Z
pdata	ENDS
;	COMDAT pdata
pdata	SEGMENT
$pdata$?dtor$0@?0???0?$function@$$A6APEAVScene@1Application@@XZ@std@@QEAA@AEBV01@@Z@4HA DD imagerel ?dtor$0@?0???0?$function@$$A6APEAVScene@1Application@@XZ@std@@QEAA@AEBV01@@Z@4HA
	DD	imagerel ?dtor$0@?0???0?$function@$$A6APEAVScene@1Application@@XZ@std@@QEAA@AEBV01@@Z@4HA+25
	DD	imagerel $unwind$?dtor$0@?0???0?$function@$$A6APEAVScene@1Application@@XZ@std@@QEAA@AEBV01@@Z@4HA
pdata	ENDS
;	COMDAT pdata
pdata	SEGMENT
$pdata$??0?$function@$$A6APEAVScene@1Application@@XZ@std@@QEAA@$$QEAV01@@Z DD imagerel $LN4
	DD	imagerel $LN4+70
	DD	imagerel $unwind$??0?$function@$$A6APEAVScene@1Application@@XZ@std@@QEAA@$$QEAV01@@Z
pdata	ENDS
;	COMDAT pdata
pdata	SEGMENT
$pdata$?dtor$0@?0???0?$function@$$A6APEAVScene@1Application@@XZ@std@@QEAA@$$QEAV01@@Z@4HA DD imagerel ?dtor$0@?0???0?$function@$$A6APEAVScene@1Application@@XZ@std@@QEAA@$$QEAV01@@Z@4HA
	DD	imagerel ?dtor$0@?0???0?$function@$$A6APEAVScene@1Application@@XZ@std@@QEAA@$$QEAV01@@Z@4HA+25
	DD	imagerel $unwind$?dtor$0@?0???0?$function@$$A6APEAVScene@1Application@@XZ@std@@QEAA@$$QEAV01@@Z@4HA
pdata	ENDS
;	COMDAT pdata
pdata	SEGMENT
$pdata$??1?$function@$$A6APEAVScene@1Application@@XZ@std@@QEAA@XZ DD imagerel $LN3
	DD	imagerel $LN3+30
	DD	imagerel $unwind$??1?$function@$$A6APEAVScene@1Application@@XZ@std@@QEAA@XZ
pdata	ENDS
;	COMDAT pdata
pdata	SEGMENT
$pdata$??1?$pair@PEBDV?$function@$$A6APEAVScene@1Application@@XZ@std@@@std@@QEAA@XZ DD imagerel $LN3
	DD	imagerel $LN3+37
	DD	imagerel $unwind$??1?$pair@PEBDV?$function@$$A6APEAVScene@1Application@@XZ@std@@@std@@QEAA@XZ
pdata	ENDS
;	COMDAT pdata
pdata	SEGMENT
$pdata$??_G?$pair@PEBDV?$function@$$A6APEAVScene@1Application@@XZ@std@@@std@@QEAAPEAXI@Z DD imagerel $LN4
	DD	imagerel $LN4+62
	DD	imagerel $unwind$??_G?$pair@PEBDV?$function@$$A6APEAVScene@1Application@@XZ@std@@@std@@QEAAPEAXI@Z
pdata	ENDS
;	COMDAT pdata
pdata	SEGMENT
$pdata$??$forward@AEAV<lambda_411dc79f4b3a863ac6e5ae55809472f9>@@@std@@YAAEAV<lambda_411dc79f4b3a863ac6e5ae55809472f9>@@AEAV1@@Z DD imagerel ??$forward@AEAV<lambda_411dc79f4b3a863ac6e5ae55809472f9>@@@std@@YAAEAV<lambda_411dc79f4b3a863ac6e5ae55809472f9>@@AEAV1@@Z
	DD	imagerel ??$forward@AEAV<lambda_411dc79f4b3a863ac6e5ae55809472f9>@@@std@@YAAEAV<lambda_411dc79f4b3a863ac6e5ae55809472f9>@@AEAV1@@Z+23
	DD	imagerel $unwind$??$forward@AEAV<lambda_411dc79f4b3a863ac6e5ae55809472f9>@@@std@@YAAEAV<lambda_411dc79f4b3a863ac6e5ae55809472f9>@@AEAV1@@Z
pdata	ENDS
;	COMDAT pdata
pdata	SEGMENT
$pdata$??$_Call@AEAV<lambda_411dc79f4b3a863ac6e5ae55809472f9>@@$$V@_Invoker_functor@std@@SAPEAVTestScene@Scene@Application@@AEAV<lambda_411dc79f4b3a863ac6e5ae55809472f9>@@@Z DD imagerel ??$_Call@AEAV<lambda_411dc79f4b3a863ac6e5ae55809472f9>@@$$V@_Invoker_functor@std@@SAPEAVTestScene@Scene@Application@@AEAV<lambda_411dc79f4b3a863ac6e5ae55809472f9>@@@Z
	DD	imagerel ??$_Call@AEAV<lambda_411dc79f4b3a863ac6e5ae55809472f9>@@$$V@_Invoker_functor@std@@SAPEAVTestScene@Scene@Application@@AEAV<lambda_411dc79f4b3a863ac6e5ae55809472f9>@@@Z+38
	DD	imagerel $unwind$??$_Call@AEAV<lambda_411dc79f4b3a863ac6e5ae55809472f9>@@$$V@_Invoker_functor@std@@SAPEAVTestScene@Scene@Application@@AEAV<lambda_411dc79f4b3a863ac6e5ae55809472f9>@@@Z
pdata	ENDS
;	COMDAT pdata
pdata	SEGMENT
$pdata$??$invoke@AEAV<lambda_411dc79f4b3a863ac6e5ae55809472f9>@@$$V@std@@YAPEAVTestScene@Scene@Application@@AEAV<lambda_411dc79f4b3a863ac6e5ae55809472f9>@@@Z DD imagerel ??$invoke@AEAV<lambda_411dc79f4b3a863ac6e5ae55809472f9>@@$$V@std@@YAPEAVTestScene@Scene@Application@@AEAV<lambda_411dc79f4b3a863ac6e5ae55809472f9>@@@Z
	DD	imagerel ??$invoke@AEAV<lambda_411dc79f4b3a863ac6e5ae55809472f9>@@$$V@std@@YAPEAVTestScene@Scene@Application@@AEAV<lambda_411dc79f4b3a863ac6e5ae55809472f9>@@@Z+38
	DD	imagerel $unwind$??$invoke@AEAV<lambda_411dc79f4b3a863ac6e5ae55809472f9>@@$$V@std@@YAPEAVTestScene@Scene@Application@@AEAV<lambda_411dc79f4b3a863ac6e5ae55809472f9>@@@Z
pdata	ENDS
;	COMDAT pdata
pdata	SEGMENT
$pdata$??$?0V<lambda_411dc79f4b3a863ac6e5ae55809472f9>@@X@?$function@$$A6APEAVScene@1Application@@XZ@std@@QEAA@V<lambda_411dc79f4b3a863ac6e5ae55809472f9>@@@Z DD imagerel ??$?0V<lambda_411dc79f4b3a863ac6e5ae55809472f9>@@X@?$function@$$A6APEAVScene@1Application@@XZ@std@@QEAA@V<lambda_411dc79f4b3a863ac6e5ae55809472f9>@@@Z
	DD	imagerel ??$?0V<lambda_411dc79f4b3a863ac6e5ae55809472f9>@@X@?$function@$$A6APEAVScene@1Application@@XZ@std@@QEAA@V<lambda_411dc79f4b3a863ac6e5ae55809472f9>@@@Z+69
	DD	imagerel $unwind$??$?0V<lambda_411dc79f4b3a863ac6e5ae55809472f9>@@X@?$function@$$A6APEAVScene@1Application@@XZ@std@@QEAA@V<lambda_411dc79f4b3a863ac6e5ae55809472f9>@@@Z
pdata	ENDS
;	COMDAT pdata
pdata	SEGMENT
$pdata$?dtor$0@?0???$?0V<lambda_411dc79f4b3a863ac6e5ae55809472f9>@@X@?$function@$$A6APEAVScene@1Application@@XZ@std@@QEAA@V<lambda_411dc79f4b3a863ac6e5ae55809472f9>@@@Z@4HA DD imagerel ?dtor$0@?0???$?0V<lambda_411dc79f4b3a863ac6e5ae55809472f9>@@X@?$function@$$A6APEAVScene@1Application@@XZ@std@@QEAA@V<lambda_411dc79f4b3a863ac6e5ae55809472f9>@@@Z@4HA
	DD	imagerel ?dtor$0@?0???$?0V<lambda_411dc79f4b3a863ac6e5ae55809472f9>@@X@?$function@$$A6APEAVScene@1Application@@XZ@std@@QEAA@V<lambda_411dc79f4b3a863ac6e5ae55809472f9>@@@Z@4HA+25
	DD	imagerel $unwind$?dtor$0@?0???$?0V<lambda_411dc79f4b3a863ac6e5ae55809472f9>@@X@?$function@$$A6APEAVScene@1Application@@XZ@std@@QEAA@V<lambda_411dc79f4b3a863ac6e5ae55809472f9>@@@Z@4HA
pdata	ENDS
;	COMDAT pdata
pdata	SEGMENT
$pdata$??$?0PEBDV<lambda_411dc79f4b3a863ac6e5ae55809472f9>@@$0A@@?$pair@PEBDV?$function@$$A6APEAVScene@1Application@@XZ@std@@@std@@QEAA@$$QEAU?$pair@PEBDV<lambda_411dc79f4b3a863ac6e5ae55809472f9>@@@1@@Z DD imagerel ??$?0PEBDV<lambda_411dc79f4b3a863ac6e5ae55809472f9>@@$0A@@?$pair@PEBDV?$function@$$A6APEAVScene@1Application@@XZ@std@@@std@@QEAA@$$QEAU?$pair@PEBDV<lambda_411dc79f4b3a863ac6e5ae55809472f9>@@@1@@Z
	DD	imagerel ??$?0PEBDV<lambda_411dc79f4b3a863ac6e5ae55809472f9>@@$0A@@?$pair@PEBDV?$function@$$A6APEAVScene@1Application@@XZ@std@@@std@@QEAA@$$QEAU?$pair@PEBDV<lambda_411dc79f4b3a863ac6e5ae55809472f9>@@@1@@Z+84
	DD	imagerel $unwind$??$?0PEBDV<lambda_411dc79f4b3a863ac6e5ae55809472f9>@@$0A@@?$pair@PEBDV?$function@$$A6APEAVScene@1Application@@XZ@std@@@std@@QEAA@$$QEAU?$pair@PEBDV<lambda_411dc79f4b3a863ac6e5ae55809472f9>@@@1@@Z
pdata	ENDS
;	COMDAT pdata
pdata	SEGMENT
$pdata$??R<lambda_b24ee7e738c09addc8fddf1c40d19ab7>@@QEBAPEAVSandboxScene@Scene@Application@@XZ DD imagerel ??R<lambda_b24ee7e738c09addc8fddf1c40d19ab7>@@QEBAPEAVSandboxScene@Scene@Application@@XZ
	DD	imagerel ??R<lambda_b24ee7e738c09addc8fddf1c40d19ab7>@@QEBAPEAVSandboxScene@Scene@Application@@XZ+102
	DD	imagerel $unwind$??R<lambda_b24ee7e738c09addc8fddf1c40d19ab7>@@QEBAPEAVSandboxScene@Scene@Application@@XZ
pdata	ENDS
;	COMDAT pdata
pdata	SEGMENT
$pdata$?dtor$0@?0???R<lambda_b24ee7e738c09addc8fddf1c40d19ab7>@@QEBAPEAVSandboxScene@Scene@Application@@XZ@4HA DD imagerel ?dtor$0@?0???R<lambda_b24ee7e738c09addc8fddf1c40d19ab7>@@QEBAPEAVSandboxScene@Scene@Application@@XZ@4HA
	DD	imagerel ?dtor$0@?0???R<lambda_b24ee7e738c09addc8fddf1c40d19ab7>@@QEBAPEAVSandboxScene@Scene@Application@@XZ@4HA+30
	DD	imagerel $unwind$?dtor$0@?0???R<lambda_b24ee7e738c09addc8fddf1c40d19ab7>@@QEBAPEAVSandboxScene@Scene@Application@@XZ@4HA
pdata	ENDS
;	COMDAT pdata
pdata	SEGMENT
$pdata$??$make_pair@AEAPEBDV<lambda_b24ee7e738c09addc8fddf1c40d19ab7>@@@std@@YA?AU?$pair@PEBDV<lambda_b24ee7e738c09addc8fddf1c40d19ab7>@@@0@AEAPEBD$$QEAV<lambda_b24ee7e738c09addc8fddf1c40d19ab7>@@@Z DD imagerel ??$make_pair@AEAPEBDV<lambda_b24ee7e738c09addc8fddf1c40d19ab7>@@@std@@YA?AU?$pair@PEBDV<lambda_b24ee7e738c09addc8fddf1c40d19ab7>@@@0@AEAPEBD$$QEAV<lambda_b24ee7e738c09addc8fddf1c40d19ab7>@@@Z
	DD	imagerel ??$make_pair@AEAPEBDV<lambda_b24ee7e738c09addc8fddf1c40d19ab7>@@@std@@YA?AU?$pair@PEBDV<lambda_b24ee7e738c09addc8fddf1c40d19ab7>@@@0@AEAPEBD$$QEAV<lambda_b24ee7e738c09addc8fddf1c40d19ab7>@@@Z+76
	DD	imagerel $unwind$??$make_pair@AEAPEBDV<lambda_b24ee7e738c09addc8fddf1c40d19ab7>@@@std@@YA?AU?$pair@PEBDV<lambda_b24ee7e738c09addc8fddf1c40d19ab7>@@@0@AEAPEBD$$QEAV<lambda_b24ee7e738c09addc8fddf1c40d19ab7>@@@Z
pdata	ENDS
;	COMDAT pdata
pdata	SEGMENT
$pdata$??$forward@AEAV<lambda_b24ee7e738c09addc8fddf1c40d19ab7>@@@std@@YAAEAV<lambda_b24ee7e738c09addc8fddf1c40d19ab7>@@AEAV1@@Z DD imagerel ??$forward@AEAV<lambda_b24ee7e738c09addc8fddf1c40d19ab7>@@@std@@YAAEAV<lambda_b24ee7e738c09addc8fddf1c40d19ab7>@@AEAV1@@Z
	DD	imagerel ??$forward@AEAV<lambda_b24ee7e738c09addc8fddf1c40d19ab7>@@@std@@YAAEAV<lambda_b24ee7e738c09addc8fddf1c40d19ab7>@@AEAV1@@Z+23
	DD	imagerel $unwind$??$forward@AEAV<lambda_b24ee7e738c09addc8fddf1c40d19ab7>@@@std@@YAAEAV<lambda_b24ee7e738c09addc8fddf1c40d19ab7>@@AEAV1@@Z
pdata	ENDS
;	COMDAT pdata
pdata	SEGMENT
$pdata$??$_Call@AEAV<lambda_b24ee7e738c09addc8fddf1c40d19ab7>@@$$V@_Invoker_functor@std@@SAPEAVSandboxScene@Scene@Application@@AEAV<lambda_b24ee7e738c09addc8fddf1c40d19ab7>@@@Z DD imagerel ??$_Call@AEAV<lambda_b24ee7e738c09addc8fddf1c40d19ab7>@@$$V@_Invoker_functor@std@@SAPEAVSandboxScene@Scene@Application@@AEAV<lambda_b24ee7e738c09addc8fddf1c40d19ab7>@@@Z
	DD	imagerel ??$_Call@AEAV<lambda_b24ee7e738c09addc8fddf1c40d19ab7>@@$$V@_Invoker_functor@std@@SAPEAVSandboxScene@Scene@Application@@AEAV<lambda_b24ee7e738c09addc8fddf1c40d19ab7>@@@Z+38
	DD	imagerel $unwind$??$_Call@AEAV<lambda_b24ee7e738c09addc8fddf1c40d19ab7>@@$$V@_Invoker_functor@std@@SAPEAVSandboxScene@Scene@Application@@AEAV<lambda_b24ee7e738c09addc8fddf1c40d19ab7>@@@Z
pdata	ENDS
;	COMDAT pdata
pdata	SEGMENT
$pdata$??$invoke@AEAV<lambda_b24ee7e738c09addc8fddf1c40d19ab7>@@$$V@std@@YAPEAVSandboxScene@Scene@Application@@AEAV<lambda_b24ee7e738c09addc8fddf1c40d19ab7>@@@Z DD imagerel ??$invoke@AEAV<lambda_b24ee7e738c09addc8fddf1c40d19ab7>@@$$V@std@@YAPEAVSandboxScene@Scene@Application@@AEAV<lambda_b24ee7e738c09addc8fddf1c40d19ab7>@@@Z
	DD	imagerel ??$invoke@AEAV<lambda_b24ee7e738c09addc8fddf1c40d19ab7>@@$$V@std@@YAPEAVSandboxScene@Scene@Application@@AEAV<lambda_b24ee7e738c09addc8fddf1c40d19ab7>@@@Z+38
	DD	imagerel $unwind$??$invoke@AEAV<lambda_b24ee7e738c09addc8fddf1c40d19ab7>@@$$V@std@@YAPEAVSandboxScene@Scene@Application@@AEAV<lambda_b24ee7e738c09addc8fddf1c40d19ab7>@@@Z
pdata	ENDS
;	COMDAT pdata
pdata	SEGMENT
$pdata$??$?0V<lambda_b24ee7e738c09addc8fddf1c40d19ab7>@@X@?$function@$$A6APEAVScene@1Application@@XZ@std@@QEAA@V<lambda_b24ee7e738c09addc8fddf1c40d19ab7>@@@Z DD imagerel ??$?0V<lambda_b24ee7e738c09addc8fddf1c40d19ab7>@@X@?$function@$$A6APEAVScene@1Application@@XZ@std@@QEAA@V<lambda_b24ee7e738c09addc8fddf1c40d19ab7>@@@Z
	DD	imagerel ??$?0V<lambda_b24ee7e738c09addc8fddf1c40d19ab7>@@X@?$function@$$A6APEAVScene@1Application@@XZ@std@@QEAA@V<lambda_b24ee7e738c09addc8fddf1c40d19ab7>@@@Z+69
	DD	imagerel $unwind$??$?0V<lambda_b24ee7e738c09addc8fddf1c40d19ab7>@@X@?$function@$$A6APEAVScene@1Application@@XZ@std@@QEAA@V<lambda_b24ee7e738c09addc8fddf1c40d19ab7>@@@Z
pdata	ENDS
;	COMDAT pdata
pdata	SEGMENT
$pdata$?dtor$0@?0???$?0V<lambda_b24ee7e738c09addc8fddf1c40d19ab7>@@X@?$function@$$A6APEAVScene@1Application@@XZ@std@@QEAA@V<lambda_b24ee7e738c09addc8fddf1c40d19ab7>@@@Z@4HA DD imagerel ?dtor$0@?0???$?0V<lambda_b24ee7e738c09addc8fddf1c40d19ab7>@@X@?$function@$$A6APEAVScene@1Application@@XZ@std@@QEAA@V<lambda_b24ee7e738c09addc8fddf1c40d19ab7>@@@Z@4HA
	DD	imagerel ?dtor$0@?0???$?0V<lambda_b24ee7e738c09addc8fddf1c40d19ab7>@@X@?$function@$$A6APEAVScene@1Application@@XZ@std@@QEAA@V<lambda_b24ee7e738c09addc8fddf1c40d19ab7>@@@Z@4HA+25
	DD	imagerel $unwind$?dtor$0@?0???$?0V<lambda_b24ee7e738c09addc8fddf1c40d19ab7>@@X@?$function@$$A6APEAVScene@1Application@@XZ@std@@QEAA@V<lambda_b24ee7e738c09addc8fddf1c40d19ab7>@@@Z@4HA
pdata	ENDS
;	COMDAT pdata
pdata	SEGMENT
$pdata$??$?0PEBDV<lambda_b24ee7e738c09addc8fddf1c40d19ab7>@@$0A@@?$pair@PEBDV?$function@$$A6APEAVScene@1Application@@XZ@std@@@std@@QEAA@$$QEAU?$pair@PEBDV<lambda_b24ee7e738c09addc8fddf1c40d19ab7>@@@1@@Z DD imagerel ??$?0PEBDV<lambda_b24ee7e738c09addc8fddf1c40d19ab7>@@$0A@@?$pair@PEBDV?$function@$$A6APEAVScene@1Application@@XZ@std@@@std@@QEAA@$$QEAU?$pair@PEBDV<lambda_b24ee7e738c09addc8fddf1c40d19ab7>@@@1@@Z
	DD	imagerel ??$?0PEBDV<lambda_b24ee7e738c09addc8fddf1c40d19ab7>@@$0A@@?$pair@PEBDV?$function@$$A6APEAVScene@1Application@@XZ@std@@@std@@QEAA@$$QEAU?$pair@PEBDV<lambda_b24ee7e738c09addc8fddf1c40d19ab7>@@@1@@Z+84
	DD	imagerel $unwind$??$?0PEBDV<lambda_b24ee7e738c09addc8fddf1c40d19ab7>@@$0A@@?$pair@PEBDV?$function@$$A6APEAVScene@1Application@@XZ@std@@@std@@QEAA@$$QEAU?$pair@PEBDV<lambda_b24ee7e738c09addc8fddf1c40d19ab7>@@@1@@Z
pdata	ENDS
;	COMDAT pdata
pdata	SEGMENT
$pdata$??R<lambda_d0f437802599b72fdddcf24900d600a3>@@QEBAPEAVBuffersTestScene@Scene@Application@@XZ DD imagerel ??R<lambda_d0f437802599b72fdddcf24900d600a3>@@QEBAPEAVBuffersTestScene@Scene@Application@@XZ
	DD	imagerel ??R<lambda_d0f437802599b72fdddcf24900d600a3>@@QEBAPEAVBuffersTestScene@Scene@Application@@XZ+102
	DD	imagerel $unwind$??R<lambda_d0f437802599b72fdddcf24900d600a3>@@QEBAPEAVBuffersTestScene@Scene@Application@@XZ
pdata	ENDS
;	COMDAT pdata
pdata	SEGMENT
$pdata$?dtor$0@?0???R<lambda_d0f437802599b72fdddcf24900d600a3>@@QEBAPEAVBuffersTestScene@Scene@Application@@XZ@4HA DD imagerel ?dtor$0@?0???R<lambda_d0f437802599b72fdddcf24900d600a3>@@QEBAPEAVBuffersTestScene@Scene@Application@@XZ@4HA
	DD	imagerel ?dtor$0@?0???R<lambda_d0f437802599b72fdddcf24900d600a3>@@QEBAPEAVBuffersTestScene@Scene@Application@@XZ@4HA+30
	DD	imagerel $unwind$?dtor$0@?0???R<lambda_d0f437802599b72fdddcf24900d600a3>@@QEBAPEAVBuffersTestScene@Scene@Application@@XZ@4HA
pdata	ENDS
;	COMDAT pdata
pdata	SEGMENT
$pdata$??$make_pair@AEAPEBDV<lambda_d0f437802599b72fdddcf24900d600a3>@@@std@@YA?AU?$pair@PEBDV<lambda_d0f437802599b72fdddcf24900d600a3>@@@0@AEAPEBD$$QEAV<lambda_d0f437802599b72fdddcf24900d600a3>@@@Z DD imagerel ??$make_pair@AEAPEBDV<lambda_d0f437802599b72fdddcf24900d600a3>@@@std@@YA?AU?$pair@PEBDV<lambda_d0f437802599b72fdddcf24900d600a3>@@@0@AEAPEBD$$QEAV<lambda_d0f437802599b72fdddcf24900d600a3>@@@Z
	DD	imagerel ??$make_pair@AEAPEBDV<lambda_d0f437802599b72fdddcf24900d600a3>@@@std@@YA?AU?$pair@PEBDV<lambda_d0f437802599b72fdddcf24900d600a3>@@@0@AEAPEBD$$QEAV<lambda_d0f437802599b72fdddcf24900d600a3>@@@Z+76
	DD	imagerel $unwind$??$make_pair@AEAPEBDV<lambda_d0f437802599b72fdddcf24900d600a3>@@@std@@YA?AU?$pair@PEBDV<lambda_d0f437802599b72fdddcf24900d600a3>@@@0@AEAPEBD$$QEAV<lambda_d0f437802599b72fdddcf24900d600a3>@@@Z
pdata	ENDS
;	COMDAT pdata
pdata	SEGMENT
$pdata$??$forward@AEAV<lambda_d0f437802599b72fdddcf24900d600a3>@@@std@@YAAEAV<lambda_d0f437802599b72fdddcf24900d600a3>@@AEAV1@@Z DD imagerel ??$forward@AEAV<lambda_d0f437802599b72fdddcf24900d600a3>@@@std@@YAAEAV<lambda_d0f437802599b72fdddcf24900d600a3>@@AEAV1@@Z
	DD	imagerel ??$forward@AEAV<lambda_d0f437802599b72fdddcf24900d600a3>@@@std@@YAAEAV<lambda_d0f437802599b72fdddcf24900d600a3>@@AEAV1@@Z+23
	DD	imagerel $unwind$??$forward@AEAV<lambda_d0f437802599b72fdddcf24900d600a3>@@@std@@YAAEAV<lambda_d0f437802599b72fdddcf24900d600a3>@@AEAV1@@Z
pdata	ENDS
;	COMDAT pdata
pdata	SEGMENT
$pdata$??$_Call@AEAV<lambda_d0f437802599b72fdddcf24900d600a3>@@$$V@_Invoker_functor@std@@SAPEAVBuffersTestScene@Scene@Application@@AEAV<lambda_d0f437802599b72fdddcf24900d600a3>@@@Z DD imagerel ??$_Call@AEAV<lambda_d0f437802599b72fdddcf24900d600a3>@@$$V@_Invoker_functor@std@@SAPEAVBuffersTestScene@Scene@Application@@AEAV<lambda_d0f437802599b72fdddcf24900d600a3>@@@Z
	DD	imagerel ??$_Call@AEAV<lambda_d0f437802599b72fdddcf24900d600a3>@@$$V@_Invoker_functor@std@@SAPEAVBuffersTestScene@Scene@Application@@AEAV<lambda_d0f437802599b72fdddcf24900d600a3>@@@Z+38
	DD	imagerel $unwind$??$_Call@AEAV<lambda_d0f437802599b72fdddcf24900d600a3>@@$$V@_Invoker_functor@std@@SAPEAVBuffersTestScene@Scene@Application@@AEAV<lambda_d0f437802599b72fdddcf24900d600a3>@@@Z
pdata	ENDS
;	COMDAT pdata
pdata	SEGMENT
$pdata$??$invoke@AEAV<lambda_d0f437802599b72fdddcf24900d600a3>@@$$V@std@@YAPEAVBuffersTestScene@Scene@Application@@AEAV<lambda_d0f437802599b72fdddcf24900d600a3>@@@Z DD imagerel ??$invoke@AEAV<lambda_d0f437802599b72fdddcf24900d600a3>@@$$V@std@@YAPEAVBuffersTestScene@Scene@Application@@AEAV<lambda_d0f437802599b72fdddcf24900d600a3>@@@Z
	DD	imagerel ??$invoke@AEAV<lambda_d0f437802599b72fdddcf24900d600a3>@@$$V@std@@YAPEAVBuffersTestScene@Scene@Application@@AEAV<lambda_d0f437802599b72fdddcf24900d600a3>@@@Z+38
	DD	imagerel $unwind$??$invoke@AEAV<lambda_d0f437802599b72fdddcf24900d600a3>@@$$V@std@@YAPEAVBuffersTestScene@Scene@Application@@AEAV<lambda_d0f437802599b72fdddcf24900d600a3>@@@Z
pdata	ENDS
;	COMDAT pdata
pdata	SEGMENT
$pdata$??$?0V<lambda_d0f437802599b72fdddcf24900d600a3>@@X@?$function@$$A6APEAVScene@1Application@@XZ@std@@QEAA@V<lambda_d0f437802599b72fdddcf24900d600a3>@@@Z DD imagerel ??$?0V<lambda_d0f437802599b72fdddcf24900d600a3>@@X@?$function@$$A6APEAVScene@1Application@@XZ@std@@QEAA@V<lambda_d0f437802599b72fdddcf24900d600a3>@@@Z
	DD	imagerel ??$?0V<lambda_d0f437802599b72fdddcf24900d600a3>@@X@?$function@$$A6APEAVScene@1Application@@XZ@std@@QEAA@V<lambda_d0f437802599b72fdddcf24900d600a3>@@@Z+69
	DD	imagerel $unwind$??$?0V<lambda_d0f437802599b72fdddcf24900d600a3>@@X@?$function@$$A6APEAVScene@1Application@@XZ@std@@QEAA@V<lambda_d0f437802599b72fdddcf24900d600a3>@@@Z
pdata	ENDS
;	COMDAT pdata
pdata	SEGMENT
$pdata$?dtor$0@?0???$?0V<lambda_d0f437802599b72fdddcf24900d600a3>@@X@?$function@$$A6APEAVScene@1Application@@XZ@std@@QEAA@V<lambda_d0f437802599b72fdddcf24900d600a3>@@@Z@4HA DD imagerel ?dtor$0@?0???$?0V<lambda_d0f437802599b72fdddcf24900d600a3>@@X@?$function@$$A6APEAVScene@1Application@@XZ@std@@QEAA@V<lambda_d0f437802599b72fdddcf24900d600a3>@@@Z@4HA
	DD	imagerel ?dtor$0@?0???$?0V<lambda_d0f437802599b72fdddcf24900d600a3>@@X@?$function@$$A6APEAVScene@1Application@@XZ@std@@QEAA@V<lambda_d0f437802599b72fdddcf24900d600a3>@@@Z@4HA+25
	DD	imagerel $unwind$?dtor$0@?0???$?0V<lambda_d0f437802599b72fdddcf24900d600a3>@@X@?$function@$$A6APEAVScene@1Application@@XZ@std@@QEAA@V<lambda_d0f437802599b72fdddcf24900d600a3>@@@Z@4HA
pdata	ENDS
;	COMDAT pdata
pdata	SEGMENT
$pdata$??$?0PEBDV<lambda_d0f437802599b72fdddcf24900d600a3>@@$0A@@?$pair@PEBDV?$function@$$A6APEAVScene@1Application@@XZ@std@@@std@@QEAA@$$QEAU?$pair@PEBDV<lambda_d0f437802599b72fdddcf24900d600a3>@@@1@@Z DD imagerel ??$?0PEBDV<lambda_d0f437802599b72fdddcf24900d600a3>@@$0A@@?$pair@PEBDV?$function@$$A6APEAVScene@1Application@@XZ@std@@@std@@QEAA@$$QEAU?$pair@PEBDV<lambda_d0f437802599b72fdddcf24900d600a3>@@@1@@Z
	DD	imagerel ??$?0PEBDV<lambda_d0f437802599b72fdddcf24900d600a3>@@$0A@@?$pair@PEBDV?$function@$$A6APEAVScene@1Application@@XZ@std@@@std@@QEAA@$$QEAU?$pair@PEBDV<lambda_d0f437802599b72fdddcf24900d600a3>@@@1@@Z+84
	DD	imagerel $unwind$??$?0PEBDV<lambda_d0f437802599b72fdddcf24900d600a3>@@$0A@@?$pair@PEBDV?$function@$$A6APEAVScene@1Application@@XZ@std@@@std@@QEAA@$$QEAU?$pair@PEBDV<lambda_d0f437802599b72fdddcf24900d600a3>@@@1@@Z
pdata	ENDS
;	COMDAT pdata
pdata	SEGMENT
$pdata$??R<lambda_2c3ab7f48cee5f9b56075868f97e05b2>@@QEBAPEAVTextureTestScene@Scene@Application@@XZ DD imagerel ??R<lambda_2c3ab7f48cee5f9b56075868f97e05b2>@@QEBAPEAVTextureTestScene@Scene@Application@@XZ
	DD	imagerel ??R<lambda_2c3ab7f48cee5f9b56075868f97e05b2>@@QEBAPEAVTextureTestScene@Scene@Application@@XZ+102
	DD	imagerel $unwind$??R<lambda_2c3ab7f48cee5f9b56075868f97e05b2>@@QEBAPEAVTextureTestScene@Scene@Application@@XZ
pdata	ENDS
;	COMDAT pdata
pdata	SEGMENT
$pdata$?dtor$0@?0???R<lambda_2c3ab7f48cee5f9b56075868f97e05b2>@@QEBAPEAVTextureTestScene@Scene@Application@@XZ@4HA DD imagerel ?dtor$0@?0???R<lambda_2c3ab7f48cee5f9b56075868f97e05b2>@@QEBAPEAVTextureTestScene@Scene@Application@@XZ@4HA
	DD	imagerel ?dtor$0@?0???R<lambda_2c3ab7f48cee5f9b56075868f97e05b2>@@QEBAPEAVTextureTestScene@Scene@Application@@XZ@4HA+30
	DD	imagerel $unwind$?dtor$0@?0???R<lambda_2c3ab7f48cee5f9b56075868f97e05b2>@@QEBAPEAVTextureTestScene@Scene@Application@@XZ@4HA
pdata	ENDS
;	COMDAT pdata
pdata	SEGMENT
$pdata$??$make_pair@AEAPEBDV<lambda_2c3ab7f48cee5f9b56075868f97e05b2>@@@std@@YA?AU?$pair@PEBDV<lambda_2c3ab7f48cee5f9b56075868f97e05b2>@@@0@AEAPEBD$$QEAV<lambda_2c3ab7f48cee5f9b56075868f97e05b2>@@@Z DD imagerel ??$make_pair@AEAPEBDV<lambda_2c3ab7f48cee5f9b56075868f97e05b2>@@@std@@YA?AU?$pair@PEBDV<lambda_2c3ab7f48cee5f9b56075868f97e05b2>@@@0@AEAPEBD$$QEAV<lambda_2c3ab7f48cee5f9b56075868f97e05b2>@@@Z
	DD	imagerel ??$make_pair@AEAPEBDV<lambda_2c3ab7f48cee5f9b56075868f97e05b2>@@@std@@YA?AU?$pair@PEBDV<lambda_2c3ab7f48cee5f9b56075868f97e05b2>@@@0@AEAPEBD$$QEAV<lambda_2c3ab7f48cee5f9b56075868f97e05b2>@@@Z+76
	DD	imagerel $unwind$??$make_pair@AEAPEBDV<lambda_2c3ab7f48cee5f9b56075868f97e05b2>@@@std@@YA?AU?$pair@PEBDV<lambda_2c3ab7f48cee5f9b56075868f97e05b2>@@@0@AEAPEBD$$QEAV<lambda_2c3ab7f48cee5f9b56075868f97e05b2>@@@Z
pdata	ENDS
;	COMDAT pdata
pdata	SEGMENT
$pdata$??$forward@AEAV<lambda_2c3ab7f48cee5f9b56075868f97e05b2>@@@std@@YAAEAV<lambda_2c3ab7f48cee5f9b56075868f97e05b2>@@AEAV1@@Z DD imagerel ??$forward@AEAV<lambda_2c3ab7f48cee5f9b56075868f97e05b2>@@@std@@YAAEAV<lambda_2c3ab7f48cee5f9b56075868f97e05b2>@@AEAV1@@Z
	DD	imagerel ??$forward@AEAV<lambda_2c3ab7f48cee5f9b56075868f97e05b2>@@@std@@YAAEAV<lambda_2c3ab7f48cee5f9b56075868f97e05b2>@@AEAV1@@Z+23
	DD	imagerel $unwind$??$forward@AEAV<lambda_2c3ab7f48cee5f9b56075868f97e05b2>@@@std@@YAAEAV<lambda_2c3ab7f48cee5f9b56075868f97e05b2>@@AEAV1@@Z
pdata	ENDS
;	COMDAT pdata
pdata	SEGMENT
$pdata$??$_Call@AEAV<lambda_2c3ab7f48cee5f9b56075868f97e05b2>@@$$V@_Invoker_functor@std@@SAPEAVTextureTestScene@Scene@Application@@AEAV<lambda_2c3ab7f48cee5f9b56075868f97e05b2>@@@Z DD imagerel ??$_Call@AEAV<lambda_2c3ab7f48cee5f9b56075868f97e05b2>@@$$V@_Invoker_functor@std@@SAPEAVTextureTestScene@Scene@Application@@AEAV<lambda_2c3ab7f48cee5f9b56075868f97e05b2>@@@Z
	DD	imagerel ??$_Call@AEAV<lambda_2c3ab7f48cee5f9b56075868f97e05b2>@@$$V@_Invoker_functor@std@@SAPEAVTextureTestScene@Scene@Application@@AEAV<lambda_2c3ab7f48cee5f9b56075868f97e05b2>@@@Z+38
	DD	imagerel $unwind$??$_Call@AEAV<lambda_2c3ab7f48cee5f9b56075868f97e05b2>@@$$V@_Invoker_functor@std@@SAPEAVTextureTestScene@Scene@Application@@AEAV<lambda_2c3ab7f48cee5f9b56075868f97e05b2>@@@Z
pdata	ENDS
;	COMDAT pdata
pdata	SEGMENT
$pdata$??$invoke@AEAV<lambda_2c3ab7f48cee5f9b56075868f97e05b2>@@$$V@std@@YAPEAVTextureTestScene@Scene@Application@@AEAV<lambda_2c3ab7f48cee5f9b56075868f97e05b2>@@@Z DD imagerel ??$invoke@AEAV<lambda_2c3ab7f48cee5f9b56075868f97e05b2>@@$$V@std@@YAPEAVTextureTestScene@Scene@Application@@AEAV<lambda_2c3ab7f48cee5f9b56075868f97e05b2>@@@Z
	DD	imagerel ??$invoke@AEAV<lambda_2c3ab7f48cee5f9b56075868f97e05b2>@@$$V@std@@YAPEAVTextureTestScene@Scene@Application@@AEAV<lambda_2c3ab7f48cee5f9b56075868f97e05b2>@@@Z+38
	DD	imagerel $unwind$??$invoke@AEAV<lambda_2c3ab7f48cee5f9b56075868f97e05b2>@@$$V@std@@YAPEAVTextureTestScene@Scene@Application@@AEAV<lambda_2c3ab7f48cee5f9b56075868f97e05b2>@@@Z
pdata	ENDS
;	COMDAT pdata
pdata	SEGMENT
$pdata$??$?0V<lambda_2c3ab7f48cee5f9b56075868f97e05b2>@@X@?$function@$$A6APEAVScene@1Application@@XZ@std@@QEAA@V<lambda_2c3ab7f48cee5f9b56075868f97e05b2>@@@Z DD imagerel ??$?0V<lambda_2c3ab7f48cee5f9b56075868f97e05b2>@@X@?$function@$$A6APEAVScene@1Application@@XZ@std@@QEAA@V<lambda_2c3ab7f48cee5f9b56075868f97e05b2>@@@Z
	DD	imagerel ??$?0V<lambda_2c3ab7f48cee5f9b56075868f97e05b2>@@X@?$function@$$A6APEAVScene@1Application@@XZ@std@@QEAA@V<lambda_2c3ab7f48cee5f9b56075868f97e05b2>@@@Z+69
	DD	imagerel $unwind$??$?0V<lambda_2c3ab7f48cee5f9b56075868f97e05b2>@@X@?$function@$$A6APEAVScene@1Application@@XZ@std@@QEAA@V<lambda_2c3ab7f48cee5f9b56075868f97e05b2>@@@Z
pdata	ENDS
;	COMDAT pdata
pdata	SEGMENT
$pdata$?dtor$0@?0???$?0V<lambda_2c3ab7f48cee5f9b56075868f97e05b2>@@X@?$function@$$A6APEAVScene@1Application@@XZ@std@@QEAA@V<lambda_2c3ab7f48cee5f9b56075868f97e05b2>@@@Z@4HA DD imagerel ?dtor$0@?0???$?0V<lambda_2c3ab7f48cee5f9b56075868f97e05b2>@@X@?$function@$$A6APEAVScene@1Application@@XZ@std@@QEAA@V<lambda_2c3ab7f48cee5f9b56075868f97e05b2>@@@Z@4HA
	DD	imagerel ?dtor$0@?0???$?0V<lambda_2c3ab7f48cee5f9b56075868f97e05b2>@@X@?$function@$$A6APEAVScene@1Application@@XZ@std@@QEAA@V<lambda_2c3ab7f48cee5f9b56075868f97e05b2>@@@Z@4HA+25
	DD	imagerel $unwind$?dtor$0@?0???$?0V<lambda_2c3ab7f48cee5f9b56075868f97e05b2>@@X@?$function@$$A6APEAVScene@1Application@@XZ@std@@QEAA@V<lambda_2c3ab7f48cee5f9b56075868f97e05b2>@@@Z@4HA
pdata	ENDS
;	COMDAT pdata
pdata	SEGMENT
$pdata$??$?0PEBDV<lambda_2c3ab7f48cee5f9b56075868f97e05b2>@@$0A@@?$pair@PEBDV?$function@$$A6APEAVScene@1Application@@XZ@std@@@std@@QEAA@$$QEAU?$pair@PEBDV<lambda_2c3ab7f48cee5f9b56075868f97e05b2>@@@1@@Z DD imagerel ??$?0PEBDV<lambda_2c3ab7f48cee5f9b56075868f97e05b2>@@$0A@@?$pair@PEBDV?$function@$$A6APEAVScene@1Application@@XZ@std@@@std@@QEAA@$$QEAU?$pair@PEBDV<lambda_2c3ab7f48cee5f9b56075868f97e05b2>@@@1@@Z
	DD	imagerel ??$?0PEBDV<lambda_2c3ab7f48cee5f9b56075868f97e05b2>@@$0A@@?$pair@PEBDV?$function@$$A6APEAVScene@1Application@@XZ@std@@@std@@QEAA@$$QEAU?$pair@PEBDV<lambda_2c3ab7f48cee5f9b56075868f97e05b2>@@@1@@Z+84
	DD	imagerel $unwind$??$?0PEBDV<lambda_2c3ab7f48cee5f9b56075868f97e05b2>@@$0A@@?$pair@PEBDV?$function@$$A6APEAVScene@1Application@@XZ@std@@@std@@QEAA@$$QEAU?$pair@PEBDV<lambda_2c3ab7f48cee5f9b56075868f97e05b2>@@@1@@Z
pdata	ENDS
;	COMDAT pdata
pdata	SEGMENT
$pdata$??R<lambda_6e33341e90591d57c68d6076b03224d9>@@QEBAPEAVSimpleRendererScene@Scene@Application@@XZ DD imagerel ??R<lambda_6e33341e90591d57c68d6076b03224d9>@@QEBAPEAVSimpleRendererScene@Scene@Application@@XZ
	DD	imagerel ??R<lambda_6e33341e90591d57c68d6076b03224d9>@@QEBAPEAVSimpleRendererScene@Scene@Application@@XZ+102
	DD	imagerel $unwind$??R<lambda_6e33341e90591d57c68d6076b03224d9>@@QEBAPEAVSimpleRendererScene@Scene@Application@@XZ
pdata	ENDS
;	COMDAT pdata
pdata	SEGMENT
$pdata$?dtor$0@?0???R<lambda_6e33341e90591d57c68d6076b03224d9>@@QEBAPEAVSimpleRendererScene@Scene@Application@@XZ@4HA DD imagerel ?dtor$0@?0???R<lambda_6e33341e90591d57c68d6076b03224d9>@@QEBAPEAVSimpleRendererScene@Scene@Application@@XZ@4HA
	DD	imagerel ?dtor$0@?0???R<lambda_6e33341e90591d57c68d6076b03224d9>@@QEBAPEAVSimpleRendererScene@Scene@Application@@XZ@4HA+30
	DD	imagerel $unwind$?dtor$0@?0???R<lambda_6e33341e90591d57c68d6076b03224d9>@@QEBAPEAVSimpleRendererScene@Scene@Application@@XZ@4HA
pdata	ENDS
;	COMDAT pdata
pdata	SEGMENT
$pdata$??$make_pair@AEAPEBDV<lambda_6e33341e90591d57c68d6076b03224d9>@@@std@@YA?AU?$pair@PEBDV<lambda_6e33341e90591d57c68d6076b03224d9>@@@0@AEAPEBD$$QEAV<lambda_6e33341e90591d57c68d6076b03224d9>@@@Z DD imagerel ??$make_pair@AEAPEBDV<lambda_6e33341e90591d57c68d6076b03224d9>@@@std@@YA?AU?$pair@PEBDV<lambda_6e33341e90591d57c68d6076b03224d9>@@@0@AEAPEBD$$QEAV<lambda_6e33341e90591d57c68d6076b03224d9>@@@Z
	DD	imagerel ??$make_pair@AEAPEBDV<lambda_6e33341e90591d57c68d6076b03224d9>@@@std@@YA?AU?$pair@PEBDV<lambda_6e33341e90591d57c68d6076b03224d9>@@@0@AEAPEBD$$QEAV<lambda_6e33341e90591d57c68d6076b03224d9>@@@Z+76
	DD	imagerel $unwind$??$make_pair@AEAPEBDV<lambda_6e33341e90591d57c68d6076b03224d9>@@@std@@YA?AU?$pair@PEBDV<lambda_6e33341e90591d57c68d6076b03224d9>@@@0@AEAPEBD$$QEAV<lambda_6e33341e90591d57c68d6076b03224d9>@@@Z
pdata	ENDS
;	COMDAT pdata
pdata	SEGMENT
$pdata$??$forward@AEAV<lambda_6e33341e90591d57c68d6076b03224d9>@@@std@@YAAEAV<lambda_6e33341e90591d57c68d6076b03224d9>@@AEAV1@@Z DD imagerel ??$forward@AEAV<lambda_6e33341e90591d57c68d6076b03224d9>@@@std@@YAAEAV<lambda_6e33341e90591d57c68d6076b03224d9>@@AEAV1@@Z
	DD	imagerel ??$forward@AEAV<lambda_6e33341e90591d57c68d6076b03224d9>@@@std@@YAAEAV<lambda_6e33341e90591d57c68d6076b03224d9>@@AEAV1@@Z+23
	DD	imagerel $unwind$??$forward@AEAV<lambda_6e33341e90591d57c68d6076b03224d9>@@@std@@YAAEAV<lambda_6e33341e90591d57c68d6076b03224d9>@@AEAV1@@Z
pdata	ENDS
;	COMDAT pdata
pdata	SEGMENT
$pdata$??$_Call@AEAV<lambda_6e33341e90591d57c68d6076b03224d9>@@$$V@_Invoker_functor@std@@SAPEAVSimpleRendererScene@Scene@Application@@AEAV<lambda_6e33341e90591d57c68d6076b03224d9>@@@Z DD imagerel ??$_Call@AEAV<lambda_6e33341e90591d57c68d6076b03224d9>@@$$V@_Invoker_functor@std@@SAPEAVSimpleRendererScene@Scene@Application@@AEAV<lambda_6e33341e90591d57c68d6076b03224d9>@@@Z
	DD	imagerel ??$_Call@AEAV<lambda_6e33341e90591d57c68d6076b03224d9>@@$$V@_Invoker_functor@std@@SAPEAVSimpleRendererScene@Scene@Application@@AEAV<lambda_6e33341e90591d57c68d6076b03224d9>@@@Z+38
	DD	imagerel $unwind$??$_Call@AEAV<lambda_6e33341e90591d57c68d6076b03224d9>@@$$V@_Invoker_functor@std@@SAPEAVSimpleRendererScene@Scene@Application@@AEAV<lambda_6e33341e90591d57c68d6076b03224d9>@@@Z
pdata	ENDS
;	COMDAT pdata
pdata	SEGMENT
$pdata$??$invoke@AEAV<lambda_6e33341e90591d57c68d6076b03224d9>@@$$V@std@@YAPEAVSimpleRendererScene@Scene@Application@@AEAV<lambda_6e33341e90591d57c68d6076b03224d9>@@@Z DD imagerel ??$invoke@AEAV<lambda_6e33341e90591d57c68d6076b03224d9>@@$$V@std@@YAPEAVSimpleRendererScene@Scene@Application@@AEAV<lambda_6e33341e90591d57c68d6076b03224d9>@@@Z
	DD	imagerel ??$invoke@AEAV<lambda_6e33341e90591d57c68d6076b03224d9>@@$$V@std@@YAPEAVSimpleRendererScene@Scene@Application@@AEAV<lambda_6e33341e90591d57c68d6076b03224d9>@@@Z+38
	DD	imagerel $unwind$??$invoke@AEAV<lambda_6e33341e90591d57c68d6076b03224d9>@@$$V@std@@YAPEAVSimpleRendererScene@Scene@Application@@AEAV<lambda_6e33341e90591d57c68d6076b03224d9>@@@Z
pdata	ENDS
;	COMDAT pdata
pdata	SEGMENT
$pdata$??$?0V<lambda_6e33341e90591d57c68d6076b03224d9>@@X@?$function@$$A6APEAVScene@1Application@@XZ@std@@QEAA@V<lambda_6e33341e90591d57c68d6076b03224d9>@@@Z DD imagerel ??$?0V<lambda_6e33341e90591d57c68d6076b03224d9>@@X@?$function@$$A6APEAVScene@1Application@@XZ@std@@QEAA@V<lambda_6e33341e90591d57c68d6076b03224d9>@@@Z
	DD	imagerel ??$?0V<lambda_6e33341e90591d57c68d6076b03224d9>@@X@?$function@$$A6APEAVScene@1Application@@XZ@std@@QEAA@V<lambda_6e33341e90591d57c68d6076b03224d9>@@@Z+69
	DD	imagerel $unwind$??$?0V<lambda_6e33341e90591d57c68d6076b03224d9>@@X@?$function@$$A6APEAVScene@1Application@@XZ@std@@QEAA@V<lambda_6e33341e90591d57c68d6076b03224d9>@@@Z
pdata	ENDS
;	COMDAT pdata
pdata	SEGMENT
$pdata$?dtor$0@?0???$?0V<lambda_6e33341e90591d57c68d6076b03224d9>@@X@?$function@$$A6APEAVScene@1Application@@XZ@std@@QEAA@V<lambda_6e33341e90591d57c68d6076b03224d9>@@@Z@4HA DD imagerel ?dtor$0@?0???$?0V<lambda_6e33341e90591d57c68d6076b03224d9>@@X@?$function@$$A6APEAVScene@1Application@@XZ@std@@QEAA@V<lambda_6e33341e90591d57c68d6076b03224d9>@@@Z@4HA
	DD	imagerel ?dtor$0@?0???$?0V<lambda_6e33341e90591d57c68d6076b03224d9>@@X@?$function@$$A6APEAVScene@1Application@@XZ@std@@QEAA@V<lambda_6e33341e90591d57c68d6076b03224d9>@@@Z@4HA+25
	DD	imagerel $unwind$?dtor$0@?0???$?0V<lambda_6e33341e90591d57c68d6076b03224d9>@@X@?$function@$$A6APEAVScene@1Application@@XZ@std@@QEAA@V<lambda_6e33341e90591d57c68d6076b03224d9>@@@Z@4HA
pdata	ENDS
;	COMDAT pdata
pdata	SEGMENT
$pdata$??$?0PEBDV<lambda_6e33341e90591d57c68d6076b03224d9>@@$0A@@?$pair@PEBDV?$function@$$A6APEAVScene@1Application@@XZ@std@@@std@@QEAA@$$QEAU?$pair@PEBDV<lambda_6e33341e90591d57c68d6076b03224d9>@@@1@@Z DD imagerel ??$?0PEBDV<lambda_6e33341e90591d57c68d6076b03224d9>@@$0A@@?$pair@PEBDV?$function@$$A6APEAVScene@1Application@@XZ@std@@@std@@QEAA@$$QEAU?$pair@PEBDV<lambda_6e33341e90591d57c68d6076b03224d9>@@@1@@Z
	DD	imagerel ??$?0PEBDV<lambda_6e33341e90591d57c68d6076b03224d9>@@$0A@@?$pair@PEBDV?$function@$$A6APEAVScene@1Application@@XZ@std@@@std@@QEAA@$$QEAU?$pair@PEBDV<lambda_6e33341e90591d57c68d6076b03224d9>@@@1@@Z+84
	DD	imagerel $unwind$??$?0PEBDV<lambda_6e33341e90591d57c68d6076b03224d9>@@$0A@@?$pair@PEBDV?$function@$$A6APEAVScene@1Application@@XZ@std@@@std@@QEAA@$$QEAU?$pair@PEBDV<lambda_6e33341e90591d57c68d6076b03224d9>@@@1@@Z
pdata	ENDS
;	COMDAT pdata
pdata	SEGMENT
$pdata$??R<lambda_f8034f4d3434a17004a65f045c28f944>@@QEBAPEAVBatchRendererScene@Scene@Application@@XZ DD imagerel ??R<lambda_f8034f4d3434a17004a65f045c28f944>@@QEBAPEAVBatchRendererScene@Scene@Application@@XZ
	DD	imagerel ??R<lambda_f8034f4d3434a17004a65f045c28f944>@@QEBAPEAVBatchRendererScene@Scene@Application@@XZ+102
	DD	imagerel $unwind$??R<lambda_f8034f4d3434a17004a65f045c28f944>@@QEBAPEAVBatchRendererScene@Scene@Application@@XZ
pdata	ENDS
;	COMDAT pdata
pdata	SEGMENT
$pdata$?dtor$0@?0???R<lambda_f8034f4d3434a17004a65f045c28f944>@@QEBAPEAVBatchRendererScene@Scene@Application@@XZ@4HA DD imagerel ?dtor$0@?0???R<lambda_f8034f4d3434a17004a65f045c28f944>@@QEBAPEAVBatchRendererScene@Scene@Application@@XZ@4HA
	DD	imagerel ?dtor$0@?0???R<lambda_f8034f4d3434a17004a65f045c28f944>@@QEBAPEAVBatchRendererScene@Scene@Application@@XZ@4HA+30
	DD	imagerel $unwind$?dtor$0@?0???R<lambda_f8034f4d3434a17004a65f045c28f944>@@QEBAPEAVBatchRendererScene@Scene@Application@@XZ@4HA
pdata	ENDS
;	COMDAT pdata
pdata	SEGMENT
$pdata$??$make_pair@AEAPEBDV<lambda_f8034f4d3434a17004a65f045c28f944>@@@std@@YA?AU?$pair@PEBDV<lambda_f8034f4d3434a17004a65f045c28f944>@@@0@AEAPEBD$$QEAV<lambda_f8034f4d3434a17004a65f045c28f944>@@@Z DD imagerel ??$make_pair@AEAPEBDV<lambda_f8034f4d3434a17004a65f045c28f944>@@@std@@YA?AU?$pair@PEBDV<lambda_f8034f4d3434a17004a65f045c28f944>@@@0@AEAPEBD$$QEAV<lambda_f8034f4d3434a17004a65f045c28f944>@@@Z
	DD	imagerel ??$make_pair@AEAPEBDV<lambda_f8034f4d3434a17004a65f045c28f944>@@@std@@YA?AU?$pair@PEBDV<lambda_f8034f4d3434a17004a65f045c28f944>@@@0@AEAPEBD$$QEAV<lambda_f8034f4d3434a17004a65f045c28f944>@@@Z+76
	DD	imagerel $unwind$??$make_pair@AEAPEBDV<lambda_f8034f4d3434a17004a65f045c28f944>@@@std@@YA?AU?$pair@PEBDV<lambda_f8034f4d3434a17004a65f045c28f944>@@@0@AEAPEBD$$QEAV<lambda_f8034f4d3434a17004a65f045c28f944>@@@Z
pdata	ENDS
;	COMDAT pdata
pdata	SEGMENT
$pdata$??$forward@AEAV<lambda_f8034f4d3434a17004a65f045c28f944>@@@std@@YAAEAV<lambda_f8034f4d3434a17004a65f045c28f944>@@AEAV1@@Z DD imagerel ??$forward@AEAV<lambda_f8034f4d3434a17004a65f045c28f944>@@@std@@YAAEAV<lambda_f8034f4d3434a17004a65f045c28f944>@@AEAV1@@Z
	DD	imagerel ??$forward@AEAV<lambda_f8034f4d3434a17004a65f045c28f944>@@@std@@YAAEAV<lambda_f8034f4d3434a17004a65f045c28f944>@@AEAV1@@Z+23
	DD	imagerel $unwind$??$forward@AEAV<lambda_f8034f4d3434a17004a65f045c28f944>@@@std@@YAAEAV<lambda_f8034f4d3434a17004a65f045c28f944>@@AEAV1@@Z
pdata	ENDS
;	COMDAT pdata
pdata	SEGMENT
$pdata$??$_Call@AEAV<lambda_f8034f4d3434a17004a65f045c28f944>@@$$V@_Invoker_functor@std@@SAPEAVBatchRendererScene@Scene@Application@@AEAV<lambda_f8034f4d3434a17004a65f045c28f944>@@@Z DD imagerel ??$_Call@AEAV<lambda_f8034f4d3434a17004a65f045c28f944>@@$$V@_Invoker_functor@std@@SAPEAVBatchRendererScene@Scene@Application@@AEAV<lambda_f8034f4d3434a17004a65f045c28f944>@@@Z
	DD	imagerel ??$_Call@AEAV<lambda_f8034f4d3434a17004a65f045c28f944>@@$$V@_Invoker_functor@std@@SAPEAVBatchRendererScene@Scene@Application@@AEAV<lambda_f8034f4d3434a17004a65f045c28f944>@@@Z+38
	DD	imagerel $unwind$??$_Call@AEAV<lambda_f8034f4d3434a17004a65f045c28f944>@@$$V@_Invoker_functor@std@@SAPEAVBatchRendererScene@Scene@Application@@AEAV<lambda_f8034f4d3434a17004a65f045c28f944>@@@Z
pdata	ENDS
;	COMDAT pdata
pdata	SEGMENT
$pdata$??$invoke@AEAV<lambda_f8034f4d3434a17004a65f045c28f944>@@$$V@std@@YAPEAVBatchRendererScene@Scene@Application@@AEAV<lambda_f8034f4d3434a17004a65f045c28f944>@@@Z DD imagerel ??$invoke@AEAV<lambda_f8034f4d3434a17004a65f045c28f944>@@$$V@std@@YAPEAVBatchRendererScene@Scene@Application@@AEAV<lambda_f8034f4d3434a17004a65f045c28f944>@@@Z
	DD	imagerel ??$invoke@AEAV<lambda_f8034f4d3434a17004a65f045c28f944>@@$$V@std@@YAPEAVBatchRendererScene@Scene@Application@@AEAV<lambda_f8034f4d3434a17004a65f045c28f944>@@@Z+38
	DD	imagerel $unwind$??$invoke@AEAV<lambda_f8034f4d3434a17004a65f045c28f944>@@$$V@std@@YAPEAVBatchRendererScene@Scene@Application@@AEAV<lambda_f8034f4d3434a17004a65f045c28f944>@@@Z
pdata	ENDS
;	COMDAT pdata
pdata	SEGMENT
$pdata$??$?0V<lambda_f8034f4d3434a17004a65f045c28f944>@@X@?$function@$$A6APEAVScene@1Application@@XZ@std@@QEAA@V<lambda_f8034f4d3434a17004a65f045c28f944>@@@Z DD imagerel ??$?0V<lambda_f8034f4d3434a17004a65f045c28f944>@@X@?$function@$$A6APEAVScene@1Application@@XZ@std@@QEAA@V<lambda_f8034f4d3434a17004a65f045c28f944>@@@Z
	DD	imagerel ??$?0V<lambda_f8034f4d3434a17004a65f045c28f944>@@X@?$function@$$A6APEAVScene@1Application@@XZ@std@@QEAA@V<lambda_f8034f4d3434a17004a65f045c28f944>@@@Z+69
	DD	imagerel $unwind$??$?0V<lambda_f8034f4d3434a17004a65f045c28f944>@@X@?$function@$$A6APEAVScene@1Application@@XZ@std@@QEAA@V<lambda_f8034f4d3434a17004a65f045c28f944>@@@Z
pdata	ENDS
;	COMDAT pdata
pdata	SEGMENT
$pdata$?dtor$0@?0???$?0V<lambda_f8034f4d3434a17004a65f045c28f944>@@X@?$function@$$A6APEAVScene@1Application@@XZ@std@@QEAA@V<lambda_f8034f4d3434a17004a65f045c28f944>@@@Z@4HA DD imagerel ?dtor$0@?0???$?0V<lambda_f8034f4d3434a17004a65f045c28f944>@@X@?$function@$$A6APEAVScene@1Application@@XZ@std@@QEAA@V<lambda_f8034f4d3434a17004a65f045c28f944>@@@Z@4HA
	DD	imagerel ?dtor$0@?0???$?0V<lambda_f8034f4d3434a17004a65f045c28f944>@@X@?$function@$$A6APEAVScene@1Application@@XZ@std@@QEAA@V<lambda_f8034f4d3434a17004a65f045c28f944>@@@Z@4HA+25
	DD	imagerel $unwind$?dtor$0@?0???$?0V<lambda_f8034f4d3434a17004a65f045c28f944>@@X@?$function@$$A6APEAVScene@1Application@@XZ@std@@QEAA@V<lambda_f8034f4d3434a17004a65f045c28f944>@@@Z@4HA
pdata	ENDS
;	COMDAT pdata
pdata	SEGMENT
$pdata$??$?0PEBDV<lambda_f8034f4d3434a17004a65f045c28f944>@@$0A@@?$pair@PEBDV?$function@$$A6APEAVScene@1Application@@XZ@std@@@std@@QEAA@$$QEAU?$pair@PEBDV<lambda_f8034f4d3434a17004a65f045c28f944>@@@1@@Z DD imagerel ??$?0PEBDV<lambda_f8034f4d3434a17004a65f045c28f944>@@$0A@@?$pair@PEBDV?$function@$$A6APEAVScene@1Application@@XZ@std@@@std@@QEAA@$$QEAU?$pair@PEBDV<lambda_f8034f4d3434a17004a65f045c28f944>@@@1@@Z
	DD	imagerel ??$?0PEBDV<lambda_f8034f4d3434a17004a65f045c28f944>@@$0A@@?$pair@PEBDV?$function@$$A6APEAVScene@1Application@@XZ@std@@@std@@QEAA@$$QEAU?$pair@PEBDV<lambda_f8034f4d3434a17004a65f045c28f944>@@@1@@Z+84
	DD	imagerel $unwind$??$?0PEBDV<lambda_f8034f4d3434a17004a65f045c28f944>@@$0A@@?$pair@PEBDV?$function@$$A6APEAVScene@1Application@@XZ@std@@@std@@QEAA@$$QEAU?$pair@PEBDV<lambda_f8034f4d3434a17004a65f045c28f944>@@@1@@Z
pdata	ENDS
;	COMDAT pdata
pdata	SEGMENT
$pdata$??R<lambda_1f639e86dd05cae58c2a45cb24025185>@@QEBAPEAVLayerScene@Scene@Application@@XZ DD imagerel ??R<lambda_1f639e86dd05cae58c2a45cb24025185>@@QEBAPEAVLayerScene@Scene@Application@@XZ
	DD	imagerel ??R<lambda_1f639e86dd05cae58c2a45cb24025185>@@QEBAPEAVLayerScene@Scene@Application@@XZ+102
	DD	imagerel $unwind$??R<lambda_1f639e86dd05cae58c2a45cb24025185>@@QEBAPEAVLayerScene@Scene@Application@@XZ
pdata	ENDS
;	COMDAT pdata
pdata	SEGMENT
$pdata$?dtor$0@?0???R<lambda_1f639e86dd05cae58c2a45cb24025185>@@QEBAPEAVLayerScene@Scene@Application@@XZ@4HA DD imagerel ?dtor$0@?0???R<lambda_1f639e86dd05cae58c2a45cb24025185>@@QEBAPEAVLayerScene@Scene@Application@@XZ@4HA
	DD	imagerel ?dtor$0@?0???R<lambda_1f639e86dd05cae58c2a45cb24025185>@@QEBAPEAVLayerScene@Scene@Application@@XZ@4HA+30
	DD	imagerel $unwind$?dtor$0@?0???R<lambda_1f639e86dd05cae58c2a45cb24025185>@@QEBAPEAVLayerScene@Scene@Application@@XZ@4HA
pdata	ENDS
;	COMDAT pdata
pdata	SEGMENT
$pdata$??$make_pair@AEAPEBDV<lambda_1f639e86dd05cae58c2a45cb24025185>@@@std@@YA?AU?$pair@PEBDV<lambda_1f639e86dd05cae58c2a45cb24025185>@@@0@AEAPEBD$$QEAV<lambda_1f639e86dd05cae58c2a45cb24025185>@@@Z DD imagerel ??$make_pair@AEAPEBDV<lambda_1f639e86dd05cae58c2a45cb24025185>@@@std@@YA?AU?$pair@PEBDV<lambda_1f639e86dd05cae58c2a45cb24025185>@@@0@AEAPEBD$$QEAV<lambda_1f639e86dd05cae58c2a45cb24025185>@@@Z
	DD	imagerel ??$make_pair@AEAPEBDV<lambda_1f639e86dd05cae58c2a45cb24025185>@@@std@@YA?AU?$pair@PEBDV<lambda_1f639e86dd05cae58c2a45cb24025185>@@@0@AEAPEBD$$QEAV<lambda_1f639e86dd05cae58c2a45cb24025185>@@@Z+76
	DD	imagerel $unwind$??$make_pair@AEAPEBDV<lambda_1f639e86dd05cae58c2a45cb24025185>@@@std@@YA?AU?$pair@PEBDV<lambda_1f639e86dd05cae58c2a45cb24025185>@@@0@AEAPEBD$$QEAV<lambda_1f639e86dd05cae58c2a45cb24025185>@@@Z
pdata	ENDS
;	COMDAT pdata
pdata	SEGMENT
$pdata$??$forward@AEAV<lambda_1f639e86dd05cae58c2a45cb24025185>@@@std@@YAAEAV<lambda_1f639e86dd05cae58c2a45cb24025185>@@AEAV1@@Z DD imagerel ??$forward@AEAV<lambda_1f639e86dd05cae58c2a45cb24025185>@@@std@@YAAEAV<lambda_1f639e86dd05cae58c2a45cb24025185>@@AEAV1@@Z
	DD	imagerel ??$forward@AEAV<lambda_1f639e86dd05cae58c2a45cb24025185>@@@std@@YAAEAV<lambda_1f639e86dd05cae58c2a45cb24025185>@@AEAV1@@Z+23
	DD	imagerel $unwind$??$forward@AEAV<lambda_1f639e86dd05cae58c2a45cb24025185>@@@std@@YAAEAV<lambda_1f639e86dd05cae58c2a45cb24025185>@@AEAV1@@Z
pdata	ENDS
;	COMDAT pdata
pdata	SEGMENT
$pdata$??$_Call@AEAV<lambda_1f639e86dd05cae58c2a45cb24025185>@@$$V@_Invoker_functor@std@@SAPEAVLayerScene@Scene@Application@@AEAV<lambda_1f639e86dd05cae58c2a45cb24025185>@@@Z DD imagerel ??$_Call@AEAV<lambda_1f639e86dd05cae58c2a45cb24025185>@@$$V@_Invoker_functor@std@@SAPEAVLayerScene@Scene@Application@@AEAV<lambda_1f639e86dd05cae58c2a45cb24025185>@@@Z
	DD	imagerel ??$_Call@AEAV<lambda_1f639e86dd05cae58c2a45cb24025185>@@$$V@_Invoker_functor@std@@SAPEAVLayerScene@Scene@Application@@AEAV<lambda_1f639e86dd05cae58c2a45cb24025185>@@@Z+38
	DD	imagerel $unwind$??$_Call@AEAV<lambda_1f639e86dd05cae58c2a45cb24025185>@@$$V@_Invoker_functor@std@@SAPEAVLayerScene@Scene@Application@@AEAV<lambda_1f639e86dd05cae58c2a45cb24025185>@@@Z
pdata	ENDS
;	COMDAT pdata
pdata	SEGMENT
$pdata$??$invoke@AEAV<lambda_1f639e86dd05cae58c2a45cb24025185>@@$$V@std@@YAPEAVLayerScene@Scene@Application@@AEAV<lambda_1f639e86dd05cae58c2a45cb24025185>@@@Z DD imagerel ??$invoke@AEAV<lambda_1f639e86dd05cae58c2a45cb24025185>@@$$V@std@@YAPEAVLayerScene@Scene@Application@@AEAV<lambda_1f639e86dd05cae58c2a45cb24025185>@@@Z
	DD	imagerel ??$invoke@AEAV<lambda_1f639e86dd05cae58c2a45cb24025185>@@$$V@std@@YAPEAVLayerScene@Scene@Application@@AEAV<lambda_1f639e86dd05cae58c2a45cb24025185>@@@Z+38
	DD	imagerel $unwind$??$invoke@AEAV<lambda_1f639e86dd05cae58c2a45cb24025185>@@$$V@std@@YAPEAVLayerScene@Scene@Application@@AEAV<lambda_1f639e86dd05cae58c2a45cb24025185>@@@Z
pdata	ENDS
;	COMDAT pdata
pdata	SEGMENT
$pdata$??$?0V<lambda_1f639e86dd05cae58c2a45cb24025185>@@X@?$function@$$A6APEAVScene@1Application@@XZ@std@@QEAA@V<lambda_1f639e86dd05cae58c2a45cb24025185>@@@Z DD imagerel ??$?0V<lambda_1f639e86dd05cae58c2a45cb24025185>@@X@?$function@$$A6APEAVScene@1Application@@XZ@std@@QEAA@V<lambda_1f639e86dd05cae58c2a45cb24025185>@@@Z
	DD	imagerel ??$?0V<lambda_1f639e86dd05cae58c2a45cb24025185>@@X@?$function@$$A6APEAVScene@1Application@@XZ@std@@QEAA@V<lambda_1f639e86dd05cae58c2a45cb24025185>@@@Z+69
	DD	imagerel $unwind$??$?0V<lambda_1f639e86dd05cae58c2a45cb24025185>@@X@?$function@$$A6APEAVScene@1Application@@XZ@std@@QEAA@V<lambda_1f639e86dd05cae58c2a45cb24025185>@@@Z
pdata	ENDS
;	COMDAT pdata
pdata	SEGMENT
$pdata$?dtor$0@?0???$?0V<lambda_1f639e86dd05cae58c2a45cb24025185>@@X@?$function@$$A6APEAVScene@1Application@@XZ@std@@QEAA@V<lambda_1f639e86dd05cae58c2a45cb24025185>@@@Z@4HA DD imagerel ?dtor$0@?0???$?0V<lambda_1f639e86dd05cae58c2a45cb24025185>@@X@?$function@$$A6APEAVScene@1Application@@XZ@std@@QEAA@V<lambda_1f639e86dd05cae58c2a45cb24025185>@@@Z@4HA
	DD	imagerel ?dtor$0@?0???$?0V<lambda_1f639e86dd05cae58c2a45cb24025185>@@X@?$function@$$A6APEAVScene@1Application@@XZ@std@@QEAA@V<lambda_1f639e86dd05cae58c2a45cb24025185>@@@Z@4HA+25
	DD	imagerel $unwind$?dtor$0@?0???$?0V<lambda_1f639e86dd05cae58c2a45cb24025185>@@X@?$function@$$A6APEAVScene@1Application@@XZ@std@@QEAA@V<lambda_1f639e86dd05cae58c2a45cb24025185>@@@Z@4HA
pdata	ENDS
;	COMDAT pdata
pdata	SEGMENT
$pdata$??$?0PEBDV<lambda_1f639e86dd05cae58c2a45cb24025185>@@$0A@@?$pair@PEBDV?$function@$$A6APEAVScene@1Application@@XZ@std@@@std@@QEAA@$$QEAU?$pair@PEBDV<lambda_1f639e86dd05cae58c2a45cb24025185>@@@1@@Z DD imagerel ??$?0PEBDV<lambda_1f639e86dd05cae58c2a45cb24025185>@@$0A@@?$pair@PEBDV?$function@$$A6APEAVScene@1Application@@XZ@std@@@std@@QEAA@$$QEAU?$pair@PEBDV<lambda_1f639e86dd05cae58c2a45cb24025185>@@@1@@Z
	DD	imagerel ??$?0PEBDV<lambda_1f639e86dd05cae58c2a45cb24025185>@@$0A@@?$pair@PEBDV?$function@$$A6APEAVScene@1Application@@XZ@std@@@std@@QEAA@$$QEAU?$pair@PEBDV<lambda_1f639e86dd05cae58c2a45cb24025185>@@@1@@Z+84
	DD	imagerel $unwind$??$?0PEBDV<lambda_1f639e86dd05cae58c2a45cb24025185>@@$0A@@?$pair@PEBDV?$function@$$A6APEAVScene@1Application@@XZ@std@@@std@@QEAA@$$QEAU?$pair@PEBDV<lambda_1f639e86dd05cae58c2a45cb24025185>@@@1@@Z
pdata	ENDS
;	COMDAT pdata
pdata	SEGMENT
$pdata$??R<lambda_8a87a946287cf0625355d2c413df9209>@@QEBAPEAVBoidScene@Scene@Application@@XZ DD imagerel ??R<lambda_8a87a946287cf0625355d2c413df9209>@@QEBAPEAVBoidScene@Scene@Application@@XZ
	DD	imagerel ??R<lambda_8a87a946287cf0625355d2c413df9209>@@QEBAPEAVBoidScene@Scene@Application@@XZ+102
	DD	imagerel $unwind$??R<lambda_8a87a946287cf0625355d2c413df9209>@@QEBAPEAVBoidScene@Scene@Application@@XZ
pdata	ENDS
;	COMDAT pdata
pdata	SEGMENT
$pdata$?dtor$0@?0???R<lambda_8a87a946287cf0625355d2c413df9209>@@QEBAPEAVBoidScene@Scene@Application@@XZ@4HA DD imagerel ?dtor$0@?0???R<lambda_8a87a946287cf0625355d2c413df9209>@@QEBAPEAVBoidScene@Scene@Application@@XZ@4HA
	DD	imagerel ?dtor$0@?0???R<lambda_8a87a946287cf0625355d2c413df9209>@@QEBAPEAVBoidScene@Scene@Application@@XZ@4HA+30
	DD	imagerel $unwind$?dtor$0@?0???R<lambda_8a87a946287cf0625355d2c413df9209>@@QEBAPEAVBoidScene@Scene@Application@@XZ@4HA
pdata	ENDS
;	COMDAT pdata
pdata	SEGMENT
$pdata$??$make_pair@AEAPEBDV<lambda_8a87a946287cf0625355d2c413df9209>@@@std@@YA?AU?$pair@PEBDV<lambda_8a87a946287cf0625355d2c413df9209>@@@0@AEAPEBD$$QEAV<lambda_8a87a946287cf0625355d2c413df9209>@@@Z DD imagerel ??$make_pair@AEAPEBDV<lambda_8a87a946287cf0625355d2c413df9209>@@@std@@YA?AU?$pair@PEBDV<lambda_8a87a946287cf0625355d2c413df9209>@@@0@AEAPEBD$$QEAV<lambda_8a87a946287cf0625355d2c413df9209>@@@Z
	DD	imagerel ??$make_pair@AEAPEBDV<lambda_8a87a946287cf0625355d2c413df9209>@@@std@@YA?AU?$pair@PEBDV<lambda_8a87a946287cf0625355d2c413df9209>@@@0@AEAPEBD$$QEAV<lambda_8a87a946287cf0625355d2c413df9209>@@@Z+76
	DD	imagerel $unwind$??$make_pair@AEAPEBDV<lambda_8a87a946287cf0625355d2c413df9209>@@@std@@YA?AU?$pair@PEBDV<lambda_8a87a946287cf0625355d2c413df9209>@@@0@AEAPEBD$$QEAV<lambda_8a87a946287cf0625355d2c413df9209>@@@Z
pdata	ENDS
;	COMDAT pdata
pdata	SEGMENT
$pdata$??$forward@AEAV<lambda_8a87a946287cf0625355d2c413df9209>@@@std@@YAAEAV<lambda_8a87a946287cf0625355d2c413df9209>@@AEAV1@@Z DD imagerel ??$forward@AEAV<lambda_8a87a946287cf0625355d2c413df9209>@@@std@@YAAEAV<lambda_8a87a946287cf0625355d2c413df9209>@@AEAV1@@Z
	DD	imagerel ??$forward@AEAV<lambda_8a87a946287cf0625355d2c413df9209>@@@std@@YAAEAV<lambda_8a87a946287cf0625355d2c413df9209>@@AEAV1@@Z+23
	DD	imagerel $unwind$??$forward@AEAV<lambda_8a87a946287cf0625355d2c413df9209>@@@std@@YAAEAV<lambda_8a87a946287cf0625355d2c413df9209>@@AEAV1@@Z
pdata	ENDS
;	COMDAT pdata
pdata	SEGMENT
$pdata$??$_Call@AEAV<lambda_8a87a946287cf0625355d2c413df9209>@@$$V@_Invoker_functor@std@@SAPEAVBoidScene@Scene@Application@@AEAV<lambda_8a87a946287cf0625355d2c413df9209>@@@Z DD imagerel ??$_Call@AEAV<lambda_8a87a946287cf0625355d2c413df9209>@@$$V@_Invoker_functor@std@@SAPEAVBoidScene@Scene@Application@@AEAV<lambda_8a87a946287cf0625355d2c413df9209>@@@Z
	DD	imagerel ??$_Call@AEAV<lambda_8a87a946287cf0625355d2c413df9209>@@$$V@_Invoker_functor@std@@SAPEAVBoidScene@Scene@Application@@AEAV<lambda_8a87a946287cf0625355d2c413df9209>@@@Z+38
	DD	imagerel $unwind$??$_Call@AEAV<lambda_8a87a946287cf0625355d2c413df9209>@@$$V@_Invoker_functor@std@@SAPEAVBoidScene@Scene@Application@@AEAV<lambda_8a87a946287cf0625355d2c413df9209>@@@Z
pdata	ENDS
;	COMDAT pdata
pdata	SEGMENT
$pdata$??$invoke@AEAV<lambda_8a87a946287cf0625355d2c413df9209>@@$$V@std@@YAPEAVBoidScene@Scene@Application@@AEAV<lambda_8a87a946287cf0625355d2c413df9209>@@@Z DD imagerel ??$invoke@AEAV<lambda_8a87a946287cf0625355d2c413df9209>@@$$V@std@@YAPEAVBoidScene@Scene@Application@@AEAV<lambda_8a87a946287cf0625355d2c413df9209>@@@Z
	DD	imagerel ??$invoke@AEAV<lambda_8a87a946287cf0625355d2c413df9209>@@$$V@std@@YAPEAVBoidScene@Scene@Application@@AEAV<lambda_8a87a946287cf0625355d2c413df9209>@@@Z+38
	DD	imagerel $unwind$??$invoke@AEAV<lambda_8a87a946287cf0625355d2c413df9209>@@$$V@std@@YAPEAVBoidScene@Scene@Application@@AEAV<lambda_8a87a946287cf0625355d2c413df9209>@@@Z
pdata	ENDS
;	COMDAT pdata
pdata	SEGMENT
$pdata$??$?0V<lambda_8a87a946287cf0625355d2c413df9209>@@X@?$function@$$A6APEAVScene@1Application@@XZ@std@@QEAA@V<lambda_8a87a946287cf0625355d2c413df9209>@@@Z DD imagerel ??$?0V<lambda_8a87a946287cf0625355d2c413df9209>@@X@?$function@$$A6APEAVScene@1Application@@XZ@std@@QEAA@V<lambda_8a87a946287cf0625355d2c413df9209>@@@Z
	DD	imagerel ??$?0V<lambda_8a87a946287cf0625355d2c413df9209>@@X@?$function@$$A6APEAVScene@1Application@@XZ@std@@QEAA@V<lambda_8a87a946287cf0625355d2c413df9209>@@@Z+69
	DD	imagerel $unwind$??$?0V<lambda_8a87a946287cf0625355d2c413df9209>@@X@?$function@$$A6APEAVScene@1Application@@XZ@std@@QEAA@V<lambda_8a87a946287cf0625355d2c413df9209>@@@Z
pdata	ENDS
;	COMDAT pdata
pdata	SEGMENT
$pdata$?dtor$0@?0???$?0V<lambda_8a87a946287cf0625355d2c413df9209>@@X@?$function@$$A6APEAVScene@1Application@@XZ@std@@QEAA@V<lambda_8a87a946287cf0625355d2c413df9209>@@@Z@4HA DD imagerel ?dtor$0@?0???$?0V<lambda_8a87a946287cf0625355d2c413df9209>@@X@?$function@$$A6APEAVScene@1Application@@XZ@std@@QEAA@V<lambda_8a87a946287cf0625355d2c413df9209>@@@Z@4HA
	DD	imagerel ?dtor$0@?0???$?0V<lambda_8a87a946287cf0625355d2c413df9209>@@X@?$function@$$A6APEAVScene@1Application@@XZ@std@@QEAA@V<lambda_8a87a946287cf0625355d2c413df9209>@@@Z@4HA+25
	DD	imagerel $unwind$?dtor$0@?0???$?0V<lambda_8a87a946287cf0625355d2c413df9209>@@X@?$function@$$A6APEAVScene@1Application@@XZ@std@@QEAA@V<lambda_8a87a946287cf0625355d2c413df9209>@@@Z@4HA
pdata	ENDS
;	COMDAT pdata
pdata	SEGMENT
$pdata$??$?0PEBDV<lambda_8a87a946287cf0625355d2c413df9209>@@$0A@@?$pair@PEBDV?$function@$$A6APEAVScene@1Application@@XZ@std@@@std@@QEAA@$$QEAU?$pair@PEBDV<lambda_8a87a946287cf0625355d2c413df9209>@@@1@@Z DD imagerel ??$?0PEBDV<lambda_8a87a946287cf0625355d2c413df9209>@@$0A@@?$pair@PEBDV?$function@$$A6APEAVScene@1Application@@XZ@std@@@std@@QEAA@$$QEAU?$pair@PEBDV<lambda_8a87a946287cf0625355d2c413df9209>@@@1@@Z
	DD	imagerel ??$?0PEBDV<lambda_8a87a946287cf0625355d2c413df9209>@@$0A@@?$pair@PEBDV?$function@$$A6APEAVScene@1Application@@XZ@std@@@std@@QEAA@$$QEAU?$pair@PEBDV<lambda_8a87a946287cf0625355d2c413df9209>@@@1@@Z+84
	DD	imagerel $unwind$??$?0PEBDV<lambda_8a87a946287cf0625355d2c413df9209>@@$0A@@?$pair@PEBDV?$function@$$A6APEAVScene@1Application@@XZ@std@@@std@@QEAA@$$QEAU?$pair@PEBDV<lambda_8a87a946287cf0625355d2c413df9209>@@@1@@Z
pdata	ENDS
;	COMDAT pdata
pdata	SEGMENT
$pdata$??R<lambda_f04c6ff6a0f44a3600e7c5996fdf93c3>@@QEBAPEAVMandelbrotScene@Scene@Application@@XZ DD imagerel ??R<lambda_f04c6ff6a0f44a3600e7c5996fdf93c3>@@QEBAPEAVMandelbrotScene@Scene@Application@@XZ
	DD	imagerel ??R<lambda_f04c6ff6a0f44a3600e7c5996fdf93c3>@@QEBAPEAVMandelbrotScene@Scene@Application@@XZ+102
	DD	imagerel $unwind$??R<lambda_f04c6ff6a0f44a3600e7c5996fdf93c3>@@QEBAPEAVMandelbrotScene@Scene@Application@@XZ
pdata	ENDS
;	COMDAT pdata
pdata	SEGMENT
$pdata$?dtor$0@?0???R<lambda_f04c6ff6a0f44a3600e7c5996fdf93c3>@@QEBAPEAVMandelbrotScene@Scene@Application@@XZ@4HA DD imagerel ?dtor$0@?0???R<lambda_f04c6ff6a0f44a3600e7c5996fdf93c3>@@QEBAPEAVMandelbrotScene@Scene@Application@@XZ@4HA
	DD	imagerel ?dtor$0@?0???R<lambda_f04c6ff6a0f44a3600e7c5996fdf93c3>@@QEBAPEAVMandelbrotScene@Scene@Application@@XZ@4HA+30
	DD	imagerel $unwind$?dtor$0@?0???R<lambda_f04c6ff6a0f44a3600e7c5996fdf93c3>@@QEBAPEAVMandelbrotScene@Scene@Application@@XZ@4HA
pdata	ENDS
;	COMDAT pdata
pdata	SEGMENT
$pdata$??$make_pair@AEAPEBDV<lambda_f04c6ff6a0f44a3600e7c5996fdf93c3>@@@std@@YA?AU?$pair@PEBDV<lambda_f04c6ff6a0f44a3600e7c5996fdf93c3>@@@0@AEAPEBD$$QEAV<lambda_f04c6ff6a0f44a3600e7c5996fdf93c3>@@@Z DD imagerel ??$make_pair@AEAPEBDV<lambda_f04c6ff6a0f44a3600e7c5996fdf93c3>@@@std@@YA?AU?$pair@PEBDV<lambda_f04c6ff6a0f44a3600e7c5996fdf93c3>@@@0@AEAPEBD$$QEAV<lambda_f04c6ff6a0f44a3600e7c5996fdf93c3>@@@Z
	DD	imagerel ??$make_pair@AEAPEBDV<lambda_f04c6ff6a0f44a3600e7c5996fdf93c3>@@@std@@YA?AU?$pair@PEBDV<lambda_f04c6ff6a0f44a3600e7c5996fdf93c3>@@@0@AEAPEBD$$QEAV<lambda_f04c6ff6a0f44a3600e7c5996fdf93c3>@@@Z+76
	DD	imagerel $unwind$??$make_pair@AEAPEBDV<lambda_f04c6ff6a0f44a3600e7c5996fdf93c3>@@@std@@YA?AU?$pair@PEBDV<lambda_f04c6ff6a0f44a3600e7c5996fdf93c3>@@@0@AEAPEBD$$QEAV<lambda_f04c6ff6a0f44a3600e7c5996fdf93c3>@@@Z
pdata	ENDS
;	COMDAT pdata
pdata	SEGMENT
$pdata$??$forward@AEAV<lambda_f04c6ff6a0f44a3600e7c5996fdf93c3>@@@std@@YAAEAV<lambda_f04c6ff6a0f44a3600e7c5996fdf93c3>@@AEAV1@@Z DD imagerel ??$forward@AEAV<lambda_f04c6ff6a0f44a3600e7c5996fdf93c3>@@@std@@YAAEAV<lambda_f04c6ff6a0f44a3600e7c5996fdf93c3>@@AEAV1@@Z
	DD	imagerel ??$forward@AEAV<lambda_f04c6ff6a0f44a3600e7c5996fdf93c3>@@@std@@YAAEAV<lambda_f04c6ff6a0f44a3600e7c5996fdf93c3>@@AEAV1@@Z+23
	DD	imagerel $unwind$??$forward@AEAV<lambda_f04c6ff6a0f44a3600e7c5996fdf93c3>@@@std@@YAAEAV<lambda_f04c6ff6a0f44a3600e7c5996fdf93c3>@@AEAV1@@Z
pdata	ENDS
;	COMDAT pdata
pdata	SEGMENT
$pdata$??$_Call@AEAV<lambda_f04c6ff6a0f44a3600e7c5996fdf93c3>@@$$V@_Invoker_functor@std@@SAPEAVMandelbrotScene@Scene@Application@@AEAV<lambda_f04c6ff6a0f44a3600e7c5996fdf93c3>@@@Z DD imagerel ??$_Call@AEAV<lambda_f04c6ff6a0f44a3600e7c5996fdf93c3>@@$$V@_Invoker_functor@std@@SAPEAVMandelbrotScene@Scene@Application@@AEAV<lambda_f04c6ff6a0f44a3600e7c5996fdf93c3>@@@Z
	DD	imagerel ??$_Call@AEAV<lambda_f04c6ff6a0f44a3600e7c5996fdf93c3>@@$$V@_Invoker_functor@std@@SAPEAVMandelbrotScene@Scene@Application@@AEAV<lambda_f04c6ff6a0f44a3600e7c5996fdf93c3>@@@Z+38
	DD	imagerel $unwind$??$_Call@AEAV<lambda_f04c6ff6a0f44a3600e7c5996fdf93c3>@@$$V@_Invoker_functor@std@@SAPEAVMandelbrotScene@Scene@Application@@AEAV<lambda_f04c6ff6a0f44a3600e7c5996fdf93c3>@@@Z
pdata	ENDS
;	COMDAT pdata
pdata	SEGMENT
$pdata$??$invoke@AEAV<lambda_f04c6ff6a0f44a3600e7c5996fdf93c3>@@$$V@std@@YAPEAVMandelbrotScene@Scene@Application@@AEAV<lambda_f04c6ff6a0f44a3600e7c5996fdf93c3>@@@Z DD imagerel ??$invoke@AEAV<lambda_f04c6ff6a0f44a3600e7c5996fdf93c3>@@$$V@std@@YAPEAVMandelbrotScene@Scene@Application@@AEAV<lambda_f04c6ff6a0f44a3600e7c5996fdf93c3>@@@Z
	DD	imagerel ??$invoke@AEAV<lambda_f04c6ff6a0f44a3600e7c5996fdf93c3>@@$$V@std@@YAPEAVMandelbrotScene@Scene@Application@@AEAV<lambda_f04c6ff6a0f44a3600e7c5996fdf93c3>@@@Z+38
	DD	imagerel $unwind$??$invoke@AEAV<lambda_f04c6ff6a0f44a3600e7c5996fdf93c3>@@$$V@std@@YAPEAVMandelbrotScene@Scene@Application@@AEAV<lambda_f04c6ff6a0f44a3600e7c5996fdf93c3>@@@Z
pdata	ENDS
;	COMDAT pdata
pdata	SEGMENT
$pdata$??$?0V<lambda_f04c6ff6a0f44a3600e7c5996fdf93c3>@@X@?$function@$$A6APEAVScene@1Application@@XZ@std@@QEAA@V<lambda_f04c6ff6a0f44a3600e7c5996fdf93c3>@@@Z DD imagerel ??$?0V<lambda_f04c6ff6a0f44a3600e7c5996fdf93c3>@@X@?$function@$$A6APEAVScene@1Application@@XZ@std@@QEAA@V<lambda_f04c6ff6a0f44a3600e7c5996fdf93c3>@@@Z
	DD	imagerel ??$?0V<lambda_f04c6ff6a0f44a3600e7c5996fdf93c3>@@X@?$function@$$A6APEAVScene@1Application@@XZ@std@@QEAA@V<lambda_f04c6ff6a0f44a3600e7c5996fdf93c3>@@@Z+69
	DD	imagerel $unwind$??$?0V<lambda_f04c6ff6a0f44a3600e7c5996fdf93c3>@@X@?$function@$$A6APEAVScene@1Application@@XZ@std@@QEAA@V<lambda_f04c6ff6a0f44a3600e7c5996fdf93c3>@@@Z
pdata	ENDS
;	COMDAT pdata
pdata	SEGMENT
$pdata$?dtor$0@?0???$?0V<lambda_f04c6ff6a0f44a3600e7c5996fdf93c3>@@X@?$function@$$A6APEAVScene@1Application@@XZ@std@@QEAA@V<lambda_f04c6ff6a0f44a3600e7c5996fdf93c3>@@@Z@4HA DD imagerel ?dtor$0@?0???$?0V<lambda_f04c6ff6a0f44a3600e7c5996fdf93c3>@@X@?$function@$$A6APEAVScene@1Application@@XZ@std@@QEAA@V<lambda_f04c6ff6a0f44a3600e7c5996fdf93c3>@@@Z@4HA
	DD	imagerel ?dtor$0@?0???$?0V<lambda_f04c6ff6a0f44a3600e7c5996fdf93c3>@@X@?$function@$$A6APEAVScene@1Application@@XZ@std@@QEAA@V<lambda_f04c6ff6a0f44a3600e7c5996fdf93c3>@@@Z@4HA+25
	DD	imagerel $unwind$?dtor$0@?0???$?0V<lambda_f04c6ff6a0f44a3600e7c5996fdf93c3>@@X@?$function@$$A6APEAVScene@1Application@@XZ@std@@QEAA@V<lambda_f04c6ff6a0f44a3600e7c5996fdf93c3>@@@Z@4HA
pdata	ENDS
;	COMDAT pdata
pdata	SEGMENT
$pdata$??$?0PEBDV<lambda_f04c6ff6a0f44a3600e7c5996fdf93c3>@@$0A@@?$pair@PEBDV?$function@$$A6APEAVScene@1Application@@XZ@std@@@std@@QEAA@$$QEAU?$pair@PEBDV<lambda_f04c6ff6a0f44a3600e7c5996fdf93c3>@@@1@@Z DD imagerel ??$?0PEBDV<lambda_f04c6ff6a0f44a3600e7c5996fdf93c3>@@$0A@@?$pair@PEBDV?$function@$$A6APEAVScene@1Application@@XZ@std@@@std@@QEAA@$$QEAU?$pair@PEBDV<lambda_f04c6ff6a0f44a3600e7c5996fdf93c3>@@@1@@Z
	DD	imagerel ??$?0PEBDV<lambda_f04c6ff6a0f44a3600e7c5996fdf93c3>@@$0A@@?$pair@PEBDV?$function@$$A6APEAVScene@1Application@@XZ@std@@@std@@QEAA@$$QEAU?$pair@PEBDV<lambda_f04c6ff6a0f44a3600e7c5996fdf93c3>@@@1@@Z+84
	DD	imagerel $unwind$??$?0PEBDV<lambda_f04c6ff6a0f44a3600e7c5996fdf93c3>@@$0A@@?$pair@PEBDV?$function@$$A6APEAVScene@1Application@@XZ@std@@@std@@QEAA@$$QEAU?$pair@PEBDV<lambda_f04c6ff6a0f44a3600e7c5996fdf93c3>@@@1@@Z
pdata	ENDS
;	COMDAT pdata
pdata	SEGMENT
$pdata$??R<lambda_9e62dcf887c94db0be73ed49d4be45d7>@@QEBAPEAVComputeShaderScene@Scene@Application@@XZ DD imagerel ??R<lambda_9e62dcf887c94db0be73ed49d4be45d7>@@QEBAPEAVComputeShaderScene@Scene@Application@@XZ
	DD	imagerel ??R<lambda_9e62dcf887c94db0be73ed49d4be45d7>@@QEBAPEAVComputeShaderScene@Scene@Application@@XZ+102
	DD	imagerel $unwind$??R<lambda_9e62dcf887c94db0be73ed49d4be45d7>@@QEBAPEAVComputeShaderScene@Scene@Application@@XZ
pdata	ENDS
;	COMDAT pdata
pdata	SEGMENT
$pdata$?dtor$0@?0???R<lambda_9e62dcf887c94db0be73ed49d4be45d7>@@QEBAPEAVComputeShaderScene@Scene@Application@@XZ@4HA DD imagerel ?dtor$0@?0???R<lambda_9e62dcf887c94db0be73ed49d4be45d7>@@QEBAPEAVComputeShaderScene@Scene@Application@@XZ@4HA
	DD	imagerel ?dtor$0@?0???R<lambda_9e62dcf887c94db0be73ed49d4be45d7>@@QEBAPEAVComputeShaderScene@Scene@Application@@XZ@4HA+30
	DD	imagerel $unwind$?dtor$0@?0???R<lambda_9e62dcf887c94db0be73ed49d4be45d7>@@QEBAPEAVComputeShaderScene@Scene@Application@@XZ@4HA
pdata	ENDS
;	COMDAT pdata
pdata	SEGMENT
$pdata$??$make_pair@AEAPEBDV<lambda_9e62dcf887c94db0be73ed49d4be45d7>@@@std@@YA?AU?$pair@PEBDV<lambda_9e62dcf887c94db0be73ed49d4be45d7>@@@0@AEAPEBD$$QEAV<lambda_9e62dcf887c94db0be73ed49d4be45d7>@@@Z DD imagerel ??$make_pair@AEAPEBDV<lambda_9e62dcf887c94db0be73ed49d4be45d7>@@@std@@YA?AU?$pair@PEBDV<lambda_9e62dcf887c94db0be73ed49d4be45d7>@@@0@AEAPEBD$$QEAV<lambda_9e62dcf887c94db0be73ed49d4be45d7>@@@Z
	DD	imagerel ??$make_pair@AEAPEBDV<lambda_9e62dcf887c94db0be73ed49d4be45d7>@@@std@@YA?AU?$pair@PEBDV<lambda_9e62dcf887c94db0be73ed49d4be45d7>@@@0@AEAPEBD$$QEAV<lambda_9e62dcf887c94db0be73ed49d4be45d7>@@@Z+76
	DD	imagerel $unwind$??$make_pair@AEAPEBDV<lambda_9e62dcf887c94db0be73ed49d4be45d7>@@@std@@YA?AU?$pair@PEBDV<lambda_9e62dcf887c94db0be73ed49d4be45d7>@@@0@AEAPEBD$$QEAV<lambda_9e62dcf887c94db0be73ed49d4be45d7>@@@Z
pdata	ENDS
;	COMDAT pdata
pdata	SEGMENT
$pdata$??$forward@AEAV<lambda_9e62dcf887c94db0be73ed49d4be45d7>@@@std@@YAAEAV<lambda_9e62dcf887c94db0be73ed49d4be45d7>@@AEAV1@@Z DD imagerel ??$forward@AEAV<lambda_9e62dcf887c94db0be73ed49d4be45d7>@@@std@@YAAEAV<lambda_9e62dcf887c94db0be73ed49d4be45d7>@@AEAV1@@Z
	DD	imagerel ??$forward@AEAV<lambda_9e62dcf887c94db0be73ed49d4be45d7>@@@std@@YAAEAV<lambda_9e62dcf887c94db0be73ed49d4be45d7>@@AEAV1@@Z+23
	DD	imagerel $unwind$??$forward@AEAV<lambda_9e62dcf887c94db0be73ed49d4be45d7>@@@std@@YAAEAV<lambda_9e62dcf887c94db0be73ed49d4be45d7>@@AEAV1@@Z
pdata	ENDS
;	COMDAT pdata
pdata	SEGMENT
$pdata$??$_Call@AEAV<lambda_9e62dcf887c94db0be73ed49d4be45d7>@@$$V@_Invoker_functor@std@@SAPEAVComputeShaderScene@Scene@Application@@AEAV<lambda_9e62dcf887c94db0be73ed49d4be45d7>@@@Z DD imagerel ??$_Call@AEAV<lambda_9e62dcf887c94db0be73ed49d4be45d7>@@$$V@_Invoker_functor@std@@SAPEAVComputeShaderScene@Scene@Application@@AEAV<lambda_9e62dcf887c94db0be73ed49d4be45d7>@@@Z
	DD	imagerel ??$_Call@AEAV<lambda_9e62dcf887c94db0be73ed49d4be45d7>@@$$V@_Invoker_functor@std@@SAPEAVComputeShaderScene@Scene@Application@@AEAV<lambda_9e62dcf887c94db0be73ed49d4be45d7>@@@Z+38
	DD	imagerel $unwind$??$_Call@AEAV<lambda_9e62dcf887c94db0be73ed49d4be45d7>@@$$V@_Invoker_functor@std@@SAPEAVComputeShaderScene@Scene@Application@@AEAV<lambda_9e62dcf887c94db0be73ed49d4be45d7>@@@Z
pdata	ENDS
;	COMDAT pdata
pdata	SEGMENT
$pdata$??$invoke@AEAV<lambda_9e62dcf887c94db0be73ed49d4be45d7>@@$$V@std@@YAPEAVComputeShaderScene@Scene@Application@@AEAV<lambda_9e62dcf887c94db0be73ed49d4be45d7>@@@Z DD imagerel ??$invoke@AEAV<lambda_9e62dcf887c94db0be73ed49d4be45d7>@@$$V@std@@YAPEAVComputeShaderScene@Scene@Application@@AEAV<lambda_9e62dcf887c94db0be73ed49d4be45d7>@@@Z
	DD	imagerel ??$invoke@AEAV<lambda_9e62dcf887c94db0be73ed49d4be45d7>@@$$V@std@@YAPEAVComputeShaderScene@Scene@Application@@AEAV<lambda_9e62dcf887c94db0be73ed49d4be45d7>@@@Z+38
	DD	imagerel $unwind$??$invoke@AEAV<lambda_9e62dcf887c94db0be73ed49d4be45d7>@@$$V@std@@YAPEAVComputeShaderScene@Scene@Application@@AEAV<lambda_9e62dcf887c94db0be73ed49d4be45d7>@@@Z
pdata	ENDS
;	COMDAT pdata
pdata	SEGMENT
$pdata$??$?0V<lambda_9e62dcf887c94db0be73ed49d4be45d7>@@X@?$function@$$A6APEAVScene@1Application@@XZ@std@@QEAA@V<lambda_9e62dcf887c94db0be73ed49d4be45d7>@@@Z DD imagerel ??$?0V<lambda_9e62dcf887c94db0be73ed49d4be45d7>@@X@?$function@$$A6APEAVScene@1Application@@XZ@std@@QEAA@V<lambda_9e62dcf887c94db0be73ed49d4be45d7>@@@Z
	DD	imagerel ??$?0V<lambda_9e62dcf887c94db0be73ed49d4be45d7>@@X@?$function@$$A6APEAVScene@1Application@@XZ@std@@QEAA@V<lambda_9e62dcf887c94db0be73ed49d4be45d7>@@@Z+69
	DD	imagerel $unwind$??$?0V<lambda_9e62dcf887c94db0be73ed49d4be45d7>@@X@?$function@$$A6APEAVScene@1Application@@XZ@std@@QEAA@V<lambda_9e62dcf887c94db0be73ed49d4be45d7>@@@Z
pdata	ENDS
;	COMDAT pdata
pdata	SEGMENT
$pdata$?dtor$0@?0???$?0V<lambda_9e62dcf887c94db0be73ed49d4be45d7>@@X@?$function@$$A6APEAVScene@1Application@@XZ@std@@QEAA@V<lambda_9e62dcf887c94db0be73ed49d4be45d7>@@@Z@4HA DD imagerel ?dtor$0@?0???$?0V<lambda_9e62dcf887c94db0be73ed49d4be45d7>@@X@?$function@$$A6APEAVScene@1Application@@XZ@std@@QEAA@V<lambda_9e62dcf887c94db0be73ed49d4be45d7>@@@Z@4HA
	DD	imagerel ?dtor$0@?0???$?0V<lambda_9e62dcf887c94db0be73ed49d4be45d7>@@X@?$function@$$A6APEAVScene@1Application@@XZ@std@@QEAA@V<lambda_9e62dcf887c94db0be73ed49d4be45d7>@@@Z@4HA+25
	DD	imagerel $unwind$?dtor$0@?0???$?0V<lambda_9e62dcf887c94db0be73ed49d4be45d7>@@X@?$function@$$A6APEAVScene@1Application@@XZ@std@@QEAA@V<lambda_9e62dcf887c94db0be73ed49d4be45d7>@@@Z@4HA
pdata	ENDS
;	COMDAT pdata
pdata	SEGMENT
$pdata$??$?0PEBDV<lambda_9e62dcf887c94db0be73ed49d4be45d7>@@$0A@@?$pair@PEBDV?$function@$$A6APEAVScene@1Application@@XZ@std@@@std@@QEAA@$$QEAU?$pair@PEBDV<lambda_9e62dcf887c94db0be73ed49d4be45d7>@@@1@@Z DD imagerel ??$?0PEBDV<lambda_9e62dcf887c94db0be73ed49d4be45d7>@@$0A@@?$pair@PEBDV?$function@$$A6APEAVScene@1Application@@XZ@std@@@std@@QEAA@$$QEAU?$pair@PEBDV<lambda_9e62dcf887c94db0be73ed49d4be45d7>@@@1@@Z
	DD	imagerel ??$?0PEBDV<lambda_9e62dcf887c94db0be73ed49d4be45d7>@@$0A@@?$pair@PEBDV?$function@$$A6APEAVScene@1Application@@XZ@std@@@std@@QEAA@$$QEAU?$pair@PEBDV<lambda_9e62dcf887c94db0be73ed49d4be45d7>@@@1@@Z+84
	DD	imagerel $unwind$??$?0PEBDV<lambda_9e62dcf887c94db0be73ed49d4be45d7>@@$0A@@?$pair@PEBDV?$function@$$A6APEAVScene@1Application@@XZ@std@@@std@@QEAA@$$QEAU?$pair@PEBDV<lambda_9e62dcf887c94db0be73ed49d4be45d7>@@@1@@Z
pdata	ENDS
;	COMDAT pdata
pdata	SEGMENT
$pdata$??$_Allocate_manually_vector_aligned@U_Default_allocate_traits@std@@@std@@YAPEAX_K@Z DD imagerel $LN7
	DD	imagerel $LN7+261
	DD	imagerel $unwind$??$_Allocate_manually_vector_aligned@U_Default_allocate_traits@std@@@std@@YAPEAX_K@Z
pdata	ENDS
;	COMDAT pdata
pdata	SEGMENT
$pdata$??$move@AEAU?$pair@PEBDV?$function@$$A6APEAVScene@1Application@@XZ@std@@@std@@@std@@YA$$QEAU?$pair@PEBDV?$function@$$A6APEAVScene@1Application@@XZ@std@@@0@AEAU10@@Z DD imagerel $LN3
	DD	imagerel $LN3+23
	DD	imagerel $unwind$??$move@AEAU?$pair@PEBDV?$function@$$A6APEAVScene@1Application@@XZ@std@@@std@@@std@@YA$$QEAU?$pair@PEBDV?$function@$$A6APEAVScene@1Application@@XZ@std@@@0@AEAU10@@Z
pdata	ENDS
;	COMDAT pdata
pdata	SEGMENT
$pdata$??$emplace_back@U?$pair@PEBDV?$function@$$A6APEAVScene@1Application@@XZ@std@@@std@@@?$vector@U?$pair@PEBDV?$function@$$A6APEAVScene@1Application@@XZ@std@@@std@@V?$allocator@U?$pair@PEBDV?$function@$$A6APEAVScene@1Application@@XZ@std@@@std@@@2@@std@@QEAA@$$QEAU?$pair@PEBDV?$function@$$A6APEAVScene@1Application@@XZ@std@@@1@@Z DD imagerel $LN4
	DD	imagerel $LN4+110
	DD	imagerel $unwind$??$emplace_back@U?$pair@PEBDV?$function@$$A6APEAVScene@1Application@@XZ@std@@@std@@@?$vector@U?$pair@PEBDV?$function@$$A6APEAVScene@1Application@@XZ@std@@@std@@V?$allocator@U?$pair@PEBDV?$function@$$A6APEAVScene@1Application@@XZ@std@@@std@@@2@@std@@QEAA@$$QEAU?$pair@PEBDV?$function@$$A6APEAVScene@1Application@@XZ@std@@@1@@Z
pdata	ENDS
;	COMDAT pdata
pdata	SEGMENT
$pdata$??$forward@U?$pair@PEBDV?$function@$$A6APEAVScene@1Application@@XZ@std@@@std@@@std@@YA$$QEAU?$pair@PEBDV?$function@$$A6APEAVScene@1Application@@XZ@std@@@0@AEAU10@@Z DD imagerel $LN3
	DD	imagerel $LN3+23
	DD	imagerel $unwind$??$forward@U?$pair@PEBDV?$function@$$A6APEAVScene@1Application@@XZ@std@@@std@@@std@@YA$$QEAU?$pair@PEBDV?$function@$$A6APEAVScene@1Application@@XZ@std@@@0@AEAU10@@Z
pdata	ENDS
;	COMDAT pdata
pdata	SEGMENT
$pdata$??$_Emplace_back_with_unused_capacity@U?$pair@PEBDV?$function@$$A6APEAVScene@1Application@@XZ@std@@@std@@@?$vector@U?$pair@PEBDV?$function@$$A6APEAVScene@1Application@@XZ@std@@@std@@V?$allocator@U?$pair@PEBDV?$function@$$A6APEAVScene@1Application@@XZ@std@@@std@@@2@@std@@AEAA@$$QEAU?$pair@PEBDV?$function@$$A6APEAVScene@1Application@@XZ@std@@@1@@Z DD imagerel $LN3
	DD	imagerel $LN3+182
	DD	imagerel $unwind$??$_Emplace_back_with_unused_capacity@U?$pair@PEBDV?$function@$$A6APEAVScene@1Application@@XZ@std@@@std@@@?$vector@U?$pair@PEBDV?$function@$$A6APEAVScene@1Application@@XZ@std@@@std@@V?$allocator@U?$pair@PEBDV?$function@$$A6APEAVScene@1Application@@XZ@std@@@std@@@2@@std@@AEAA@$$QEAU?$pair@PEBDV?$function@$$A6APEAVScene@1Application@@XZ@std@@@1@@Z
pdata	ENDS
;	COMDAT pdata
pdata	SEGMENT
$pdata$??$_Unfancy@U?$pair@PEBDV?$function@$$A6APEAVScene@1Application@@XZ@std@@@std@@@std@@YAPEAU?$pair@PEBDV?$function@$$A6APEAVScene@1Application@@XZ@std@@@0@PEAU10@@Z DD imagerel $LN3
	DD	imagerel $LN3+23
	DD	imagerel $unwind$??$_Unfancy@U?$pair@PEBDV?$function@$$A6APEAVScene@1Application@@XZ@std@@@std@@@std@@YAPEAU?$pair@PEBDV?$function@$$A6APEAVScene@1Application@@XZ@std@@@0@PEAU10@@Z
pdata	ENDS
;	COMDAT pdata
pdata	SEGMENT
$pdata$??$construct@U?$pair@PEBDV?$function@$$A6APEAVScene@1Application@@XZ@std@@@std@@U12@@?$_Default_allocator_traits@V?$allocator@U?$pair@PEBDV?$function@$$A6APEAVScene@1Application@@XZ@std@@@std@@@std@@@std@@SAXAEAV?$allocator@U?$pair@PEBDV?$function@$$A6APEAVScene@1Application@@XZ@std@@@std@@@1@QEAU?$pair@PEBDV?$function@$$A6APEAVScene@1Application@@XZ@std@@@1@$$QEAU31@@Z DD imagerel $LN3
	DD	imagerel $LN3+70
	DD	imagerel $unwind$??$construct@U?$pair@PEBDV?$function@$$A6APEAVScene@1Application@@XZ@std@@@std@@U12@@?$_Default_allocator_traits@V?$allocator@U?$pair@PEBDV?$function@$$A6APEAVScene@1Application@@XZ@std@@@std@@@std@@@std@@SAXAEAV?$allocator@U?$pair@PEBDV?$function@$$A6APEAVScene@1Application@@XZ@std@@@std@@@1@QEAU?$pair@PEBDV?$function@$$A6APEAVScene@1Application@@XZ@std@@@1@$$QEAU31@@Z
pdata	ENDS
;	COMDAT pdata
pdata	SEGMENT
$pdata$??$_Emplace_reallocate@U?$pair@PEBDV?$function@$$A6APEAVScene@1Application@@XZ@std@@@std@@@?$vector@U?$pair@PEBDV?$function@$$A6APEAVScene@1Application@@XZ@std@@@std@@V?$allocator@U?$pair@PEBDV?$function@$$A6APEAVScene@1Application@@XZ@std@@@std@@@2@@std@@QEAAPEAU?$pair@PEBDV?$function@$$A6APEAVScene@1Application@@XZ@std@@@1@QEAU21@$$QEAU21@@Z DD imagerel $LN13
	DD	imagerel $LN13+560
	DD	imagerel $unwind$??$_Emplace_reallocate@U?$pair@PEBDV?$function@$$A6APEAVScene@1Application@@XZ@std@@@std@@@?$vector@U?$pair@PEBDV?$function@$$A6APEAVScene@1Application@@XZ@std@@@std@@V?$allocator@U?$pair@PEBDV?$function@$$A6APEAVScene@1Application@@XZ@std@@@std@@@2@@std@@QEAAPEAU?$pair@PEBDV?$function@$$A6APEAVScene@1Application@@XZ@std@@@1@QEAU21@$$QEAU21@@Z
pdata	ENDS
;	COMDAT pdata
pdata	SEGMENT
$pdata$?catch$0@?0???$_Emplace_reallocate@U?$pair@PEBDV?$function@$$A6APEAVScene@1Application@@XZ@std@@@std@@@?$vector@U?$pair@PEBDV?$function@$$A6APEAVScene@1Application@@XZ@std@@@std@@V?$allocator@U?$pair@PEBDV?$function@$$A6APEAVScene@1Application@@XZ@std@@@std@@@2@@std@@QEAAPEAU?$pair@PEBDV?$function@$$A6APEAVScene@1Application@@XZ@std@@@1@QEAU21@$$QEAU21@@Z@4HA DD imagerel ?catch$0@?0???$_Emplace_reallocate@U?$pair@PEBDV?$function@$$A6APEAVScene@1Application@@XZ@std@@@std@@@?$vector@U?$pair@PEBDV?$function@$$A6APEAVScene@1Application@@XZ@std@@@std@@V?$allocator@U?$pair@PEBDV?$function@$$A6APEAVScene@1Application@@XZ@std@@@std@@@2@@std@@QEAAPEAU?$pair@PEBDV?$function@$$A6APEAVScene@1Application@@XZ@std@@@1@QEAU21@$$QEAU21@@Z@4HA
	DD	imagerel ?catch$0@?0???$_Emplace_reallocate@U?$pair@PEBDV?$function@$$A6APEAVScene@1Application@@XZ@std@@@std@@@?$vector@U?$pair@PEBDV?$function@$$A6APEAVScene@1Application@@XZ@std@@@std@@V?$allocator@U?$pair@PEBDV?$function@$$A6APEAVScene@1Application@@XZ@std@@@std@@@2@@std@@QEAAPEAU?$pair@PEBDV?$function@$$A6APEAVScene@1Application@@XZ@std@@@1@QEAU21@$$QEAU21@@Z@4HA+75
	DD	imagerel $unwind$?catch$0@?0???$_Emplace_reallocate@U?$pair@PEBDV?$function@$$A6APEAVScene@1Application@@XZ@std@@@std@@@?$vector@U?$pair@PEBDV?$function@$$A6APEAVScene@1Application@@XZ@std@@@std@@V?$allocator@U?$pair@PEBDV?$function@$$A6APEAVScene@1Application@@XZ@std@@@std@@@2@@std@@QEAAPEAU?$pair@PEBDV?$function@$$A6APEAVScene@1Application@@XZ@std@@@1@QEAU21@$$QEAU21@@Z@4HA
pdata	ENDS
;	COMDAT pdata
pdata	SEGMENT
$pdata$??0?$_Func_base@PEAVScene@1Application@@$$V@std@@QEAA@XZ DD imagerel $LN3
	DD	imagerel $LN3+23
	DD	imagerel $unwind$??0?$_Func_base@PEAVScene@1Application@@$$V@std@@QEAA@XZ
pdata	ENDS
;	COMDAT pdata
pdata	SEGMENT
$pdata$??$forward@AEAPEBD@std@@YAAEAPEBDAEAPEBD@Z DD imagerel $LN3
	DD	imagerel $LN3+23
	DD	imagerel $unwind$??$forward@AEAPEBD@std@@YAAEAPEBDAEAPEBD@Z
pdata	ENDS
;	COMDAT pdata
pdata	SEGMENT
$pdata$??$forward@V<lambda_411dc79f4b3a863ac6e5ae55809472f9>@@@std@@YA$$QEAV<lambda_411dc79f4b3a863ac6e5ae55809472f9>@@AEAV1@@Z DD imagerel ??$forward@V<lambda_411dc79f4b3a863ac6e5ae55809472f9>@@@std@@YA$$QEAV<lambda_411dc79f4b3a863ac6e5ae55809472f9>@@AEAV1@@Z
	DD	imagerel ??$forward@V<lambda_411dc79f4b3a863ac6e5ae55809472f9>@@@std@@YA$$QEAV<lambda_411dc79f4b3a863ac6e5ae55809472f9>@@AEAV1@@Z+23
	DD	imagerel $unwind$??$forward@V<lambda_411dc79f4b3a863ac6e5ae55809472f9>@@@std@@YA$$QEAV<lambda_411dc79f4b3a863ac6e5ae55809472f9>@@AEAV1@@Z
pdata	ENDS
;	COMDAT pdata
pdata	SEGMENT
$pdata$??$?0AEAPEBDV<lambda_411dc79f4b3a863ac6e5ae55809472f9>@@$0A@@?$pair@PEBDV<lambda_411dc79f4b3a863ac6e5ae55809472f9>@@@std@@QEAA@AEAPEBD$$QEAV<lambda_411dc79f4b3a863ac6e5ae55809472f9>@@@Z DD imagerel ??$?0AEAPEBDV<lambda_411dc79f4b3a863ac6e5ae55809472f9>@@$0A@@?$pair@PEBDV<lambda_411dc79f4b3a863ac6e5ae55809472f9>@@@std@@QEAA@AEAPEBD$$QEAV<lambda_411dc79f4b3a863ac6e5ae55809472f9>@@@Z
	DD	imagerel ??$?0AEAPEBDV<lambda_411dc79f4b3a863ac6e5ae55809472f9>@@$0A@@?$pair@PEBDV<lambda_411dc79f4b3a863ac6e5ae55809472f9>@@@std@@QEAA@AEAPEBD$$QEAV<lambda_411dc79f4b3a863ac6e5ae55809472f9>@@@Z+63
	DD	imagerel $unwind$??$?0AEAPEBDV<lambda_411dc79f4b3a863ac6e5ae55809472f9>@@$0A@@?$pair@PEBDV<lambda_411dc79f4b3a863ac6e5ae55809472f9>@@@std@@QEAA@AEAPEBD$$QEAV<lambda_411dc79f4b3a863ac6e5ae55809472f9>@@@Z
pdata	ENDS
;	COMDAT pdata
pdata	SEGMENT
$pdata$??$forward@PEBD@std@@YA$$QEAPEBDAEAPEBD@Z DD imagerel $LN3
	DD	imagerel $LN3+23
	DD	imagerel $unwind$??$forward@PEBD@std@@YA$$QEAPEBDAEAPEBD@Z
pdata	ENDS
;	COMDAT pdata
pdata	SEGMENT
$pdata$??$forward@V<lambda_b24ee7e738c09addc8fddf1c40d19ab7>@@@std@@YA$$QEAV<lambda_b24ee7e738c09addc8fddf1c40d19ab7>@@AEAV1@@Z DD imagerel ??$forward@V<lambda_b24ee7e738c09addc8fddf1c40d19ab7>@@@std@@YA$$QEAV<lambda_b24ee7e738c09addc8fddf1c40d19ab7>@@AEAV1@@Z
	DD	imagerel ??$forward@V<lambda_b24ee7e738c09addc8fddf1c40d19ab7>@@@std@@YA$$QEAV<lambda_b24ee7e738c09addc8fddf1c40d19ab7>@@AEAV1@@Z+23
	DD	imagerel $unwind$??$forward@V<lambda_b24ee7e738c09addc8fddf1c40d19ab7>@@@std@@YA$$QEAV<lambda_b24ee7e738c09addc8fddf1c40d19ab7>@@AEAV1@@Z
pdata	ENDS
;	COMDAT pdata
pdata	SEGMENT
$pdata$??$?0AEAPEBDV<lambda_b24ee7e738c09addc8fddf1c40d19ab7>@@$0A@@?$pair@PEBDV<lambda_b24ee7e738c09addc8fddf1c40d19ab7>@@@std@@QEAA@AEAPEBD$$QEAV<lambda_b24ee7e738c09addc8fddf1c40d19ab7>@@@Z DD imagerel ??$?0AEAPEBDV<lambda_b24ee7e738c09addc8fddf1c40d19ab7>@@$0A@@?$pair@PEBDV<lambda_b24ee7e738c09addc8fddf1c40d19ab7>@@@std@@QEAA@AEAPEBD$$QEAV<lambda_b24ee7e738c09addc8fddf1c40d19ab7>@@@Z
	DD	imagerel ??$?0AEAPEBDV<lambda_b24ee7e738c09addc8fddf1c40d19ab7>@@$0A@@?$pair@PEBDV<lambda_b24ee7e738c09addc8fddf1c40d19ab7>@@@std@@QEAA@AEAPEBD$$QEAV<lambda_b24ee7e738c09addc8fddf1c40d19ab7>@@@Z+63
	DD	imagerel $unwind$??$?0AEAPEBDV<lambda_b24ee7e738c09addc8fddf1c40d19ab7>@@$0A@@?$pair@PEBDV<lambda_b24ee7e738c09addc8fddf1c40d19ab7>@@@std@@QEAA@AEAPEBD$$QEAV<lambda_b24ee7e738c09addc8fddf1c40d19ab7>@@@Z
pdata	ENDS
;	COMDAT pdata
pdata	SEGMENT
$pdata$??$forward@V<lambda_d0f437802599b72fdddcf24900d600a3>@@@std@@YA$$QEAV<lambda_d0f437802599b72fdddcf24900d600a3>@@AEAV1@@Z DD imagerel ??$forward@V<lambda_d0f437802599b72fdddcf24900d600a3>@@@std@@YA$$QEAV<lambda_d0f437802599b72fdddcf24900d600a3>@@AEAV1@@Z
	DD	imagerel ??$forward@V<lambda_d0f437802599b72fdddcf24900d600a3>@@@std@@YA$$QEAV<lambda_d0f437802599b72fdddcf24900d600a3>@@AEAV1@@Z+23
	DD	imagerel $unwind$??$forward@V<lambda_d0f437802599b72fdddcf24900d600a3>@@@std@@YA$$QEAV<lambda_d0f437802599b72fdddcf24900d600a3>@@AEAV1@@Z
pdata	ENDS
;	COMDAT pdata
pdata	SEGMENT
$pdata$??$?0AEAPEBDV<lambda_d0f437802599b72fdddcf24900d600a3>@@$0A@@?$pair@PEBDV<lambda_d0f437802599b72fdddcf24900d600a3>@@@std@@QEAA@AEAPEBD$$QEAV<lambda_d0f437802599b72fdddcf24900d600a3>@@@Z DD imagerel ??$?0AEAPEBDV<lambda_d0f437802599b72fdddcf24900d600a3>@@$0A@@?$pair@PEBDV<lambda_d0f437802599b72fdddcf24900d600a3>@@@std@@QEAA@AEAPEBD$$QEAV<lambda_d0f437802599b72fdddcf24900d600a3>@@@Z
	DD	imagerel ??$?0AEAPEBDV<lambda_d0f437802599b72fdddcf24900d600a3>@@$0A@@?$pair@PEBDV<lambda_d0f437802599b72fdddcf24900d600a3>@@@std@@QEAA@AEAPEBD$$QEAV<lambda_d0f437802599b72fdddcf24900d600a3>@@@Z+63
	DD	imagerel $unwind$??$?0AEAPEBDV<lambda_d0f437802599b72fdddcf24900d600a3>@@$0A@@?$pair@PEBDV<lambda_d0f437802599b72fdddcf24900d600a3>@@@std@@QEAA@AEAPEBD$$QEAV<lambda_d0f437802599b72fdddcf24900d600a3>@@@Z
pdata	ENDS
;	COMDAT pdata
pdata	SEGMENT
$pdata$??$forward@V<lambda_2c3ab7f48cee5f9b56075868f97e05b2>@@@std@@YA$$QEAV<lambda_2c3ab7f48cee5f9b56075868f97e05b2>@@AEAV1@@Z DD imagerel ??$forward@V<lambda_2c3ab7f48cee5f9b56075868f97e05b2>@@@std@@YA$$QEAV<lambda_2c3ab7f48cee5f9b56075868f97e05b2>@@AEAV1@@Z
	DD	imagerel ??$forward@V<lambda_2c3ab7f48cee5f9b56075868f97e05b2>@@@std@@YA$$QEAV<lambda_2c3ab7f48cee5f9b56075868f97e05b2>@@AEAV1@@Z+23
	DD	imagerel $unwind$??$forward@V<lambda_2c3ab7f48cee5f9b56075868f97e05b2>@@@std@@YA$$QEAV<lambda_2c3ab7f48cee5f9b56075868f97e05b2>@@AEAV1@@Z
pdata	ENDS
;	COMDAT pdata
pdata	SEGMENT
$pdata$??$?0AEAPEBDV<lambda_2c3ab7f48cee5f9b56075868f97e05b2>@@$0A@@?$pair@PEBDV<lambda_2c3ab7f48cee5f9b56075868f97e05b2>@@@std@@QEAA@AEAPEBD$$QEAV<lambda_2c3ab7f48cee5f9b56075868f97e05b2>@@@Z DD imagerel ??$?0AEAPEBDV<lambda_2c3ab7f48cee5f9b56075868f97e05b2>@@$0A@@?$pair@PEBDV<lambda_2c3ab7f48cee5f9b56075868f97e05b2>@@@std@@QEAA@AEAPEBD$$QEAV<lambda_2c3ab7f48cee5f9b56075868f97e05b2>@@@Z
	DD	imagerel ??$?0AEAPEBDV<lambda_2c3ab7f48cee5f9b56075868f97e05b2>@@$0A@@?$pair@PEBDV<lambda_2c3ab7f48cee5f9b56075868f97e05b2>@@@std@@QEAA@AEAPEBD$$QEAV<lambda_2c3ab7f48cee5f9b56075868f97e05b2>@@@Z+63
	DD	imagerel $unwind$??$?0AEAPEBDV<lambda_2c3ab7f48cee5f9b56075868f97e05b2>@@$0A@@?$pair@PEBDV<lambda_2c3ab7f48cee5f9b56075868f97e05b2>@@@std@@QEAA@AEAPEBD$$QEAV<lambda_2c3ab7f48cee5f9b56075868f97e05b2>@@@Z
pdata	ENDS
;	COMDAT pdata
pdata	SEGMENT
$pdata$??$forward@V<lambda_6e33341e90591d57c68d6076b03224d9>@@@std@@YA$$QEAV<lambda_6e33341e90591d57c68d6076b03224d9>@@AEAV1@@Z DD imagerel ??$forward@V<lambda_6e33341e90591d57c68d6076b03224d9>@@@std@@YA$$QEAV<lambda_6e33341e90591d57c68d6076b03224d9>@@AEAV1@@Z
	DD	imagerel ??$forward@V<lambda_6e33341e90591d57c68d6076b03224d9>@@@std@@YA$$QEAV<lambda_6e33341e90591d57c68d6076b03224d9>@@AEAV1@@Z+23
	DD	imagerel $unwind$??$forward@V<lambda_6e33341e90591d57c68d6076b03224d9>@@@std@@YA$$QEAV<lambda_6e33341e90591d57c68d6076b03224d9>@@AEAV1@@Z
pdata	ENDS
;	COMDAT pdata
pdata	SEGMENT
$pdata$??$?0AEAPEBDV<lambda_6e33341e90591d57c68d6076b03224d9>@@$0A@@?$pair@PEBDV<lambda_6e33341e90591d57c68d6076b03224d9>@@@std@@QEAA@AEAPEBD$$QEAV<lambda_6e33341e90591d57c68d6076b03224d9>@@@Z DD imagerel ??$?0AEAPEBDV<lambda_6e33341e90591d57c68d6076b03224d9>@@$0A@@?$pair@PEBDV<lambda_6e33341e90591d57c68d6076b03224d9>@@@std@@QEAA@AEAPEBD$$QEAV<lambda_6e33341e90591d57c68d6076b03224d9>@@@Z
	DD	imagerel ??$?0AEAPEBDV<lambda_6e33341e90591d57c68d6076b03224d9>@@$0A@@?$pair@PEBDV<lambda_6e33341e90591d57c68d6076b03224d9>@@@std@@QEAA@AEAPEBD$$QEAV<lambda_6e33341e90591d57c68d6076b03224d9>@@@Z+63
	DD	imagerel $unwind$??$?0AEAPEBDV<lambda_6e33341e90591d57c68d6076b03224d9>@@$0A@@?$pair@PEBDV<lambda_6e33341e90591d57c68d6076b03224d9>@@@std@@QEAA@AEAPEBD$$QEAV<lambda_6e33341e90591d57c68d6076b03224d9>@@@Z
pdata	ENDS
;	COMDAT pdata
pdata	SEGMENT
$pdata$??$forward@V<lambda_f8034f4d3434a17004a65f045c28f944>@@@std@@YA$$QEAV<lambda_f8034f4d3434a17004a65f045c28f944>@@AEAV1@@Z DD imagerel ??$forward@V<lambda_f8034f4d3434a17004a65f045c28f944>@@@std@@YA$$QEAV<lambda_f8034f4d3434a17004a65f045c28f944>@@AEAV1@@Z
	DD	imagerel ??$forward@V<lambda_f8034f4d3434a17004a65f045c28f944>@@@std@@YA$$QEAV<lambda_f8034f4d3434a17004a65f045c28f944>@@AEAV1@@Z+23
	DD	imagerel $unwind$??$forward@V<lambda_f8034f4d3434a17004a65f045c28f944>@@@std@@YA$$QEAV<lambda_f8034f4d3434a17004a65f045c28f944>@@AEAV1@@Z
pdata	ENDS
;	COMDAT pdata
pdata	SEGMENT
$pdata$??$?0AEAPEBDV<lambda_f8034f4d3434a17004a65f045c28f944>@@$0A@@?$pair@PEBDV<lambda_f8034f4d3434a17004a65f045c28f944>@@@std@@QEAA@AEAPEBD$$QEAV<lambda_f8034f4d3434a17004a65f045c28f944>@@@Z DD imagerel ??$?0AEAPEBDV<lambda_f8034f4d3434a17004a65f045c28f944>@@$0A@@?$pair@PEBDV<lambda_f8034f4d3434a17004a65f045c28f944>@@@std@@QEAA@AEAPEBD$$QEAV<lambda_f8034f4d3434a17004a65f045c28f944>@@@Z
	DD	imagerel ??$?0AEAPEBDV<lambda_f8034f4d3434a17004a65f045c28f944>@@$0A@@?$pair@PEBDV<lambda_f8034f4d3434a17004a65f045c28f944>@@@std@@QEAA@AEAPEBD$$QEAV<lambda_f8034f4d3434a17004a65f045c28f944>@@@Z+63
	DD	imagerel $unwind$??$?0AEAPEBDV<lambda_f8034f4d3434a17004a65f045c28f944>@@$0A@@?$pair@PEBDV<lambda_f8034f4d3434a17004a65f045c28f944>@@@std@@QEAA@AEAPEBD$$QEAV<lambda_f8034f4d3434a17004a65f045c28f944>@@@Z
pdata	ENDS
;	COMDAT pdata
pdata	SEGMENT
$pdata$??$forward@V<lambda_1f639e86dd05cae58c2a45cb24025185>@@@std@@YA$$QEAV<lambda_1f639e86dd05cae58c2a45cb24025185>@@AEAV1@@Z DD imagerel ??$forward@V<lambda_1f639e86dd05cae58c2a45cb24025185>@@@std@@YA$$QEAV<lambda_1f639e86dd05cae58c2a45cb24025185>@@AEAV1@@Z
	DD	imagerel ??$forward@V<lambda_1f639e86dd05cae58c2a45cb24025185>@@@std@@YA$$QEAV<lambda_1f639e86dd05cae58c2a45cb24025185>@@AEAV1@@Z+23
	DD	imagerel $unwind$??$forward@V<lambda_1f639e86dd05cae58c2a45cb24025185>@@@std@@YA$$QEAV<lambda_1f639e86dd05cae58c2a45cb24025185>@@AEAV1@@Z
pdata	ENDS
;	COMDAT pdata
pdata	SEGMENT
$pdata$??$?0AEAPEBDV<lambda_1f639e86dd05cae58c2a45cb24025185>@@$0A@@?$pair@PEBDV<lambda_1f639e86dd05cae58c2a45cb24025185>@@@std@@QEAA@AEAPEBD$$QEAV<lambda_1f639e86dd05cae58c2a45cb24025185>@@@Z DD imagerel ??$?0AEAPEBDV<lambda_1f639e86dd05cae58c2a45cb24025185>@@$0A@@?$pair@PEBDV<lambda_1f639e86dd05cae58c2a45cb24025185>@@@std@@QEAA@AEAPEBD$$QEAV<lambda_1f639e86dd05cae58c2a45cb24025185>@@@Z
	DD	imagerel ??$?0AEAPEBDV<lambda_1f639e86dd05cae58c2a45cb24025185>@@$0A@@?$pair@PEBDV<lambda_1f639e86dd05cae58c2a45cb24025185>@@@std@@QEAA@AEAPEBD$$QEAV<lambda_1f639e86dd05cae58c2a45cb24025185>@@@Z+63
	DD	imagerel $unwind$??$?0AEAPEBDV<lambda_1f639e86dd05cae58c2a45cb24025185>@@$0A@@?$pair@PEBDV<lambda_1f639e86dd05cae58c2a45cb24025185>@@@std@@QEAA@AEAPEBD$$QEAV<lambda_1f639e86dd05cae58c2a45cb24025185>@@@Z
pdata	ENDS
;	COMDAT pdata
pdata	SEGMENT
$pdata$??$forward@V<lambda_8a87a946287cf0625355d2c413df9209>@@@std@@YA$$QEAV<lambda_8a87a946287cf0625355d2c413df9209>@@AEAV1@@Z DD imagerel ??$forward@V<lambda_8a87a946287cf0625355d2c413df9209>@@@std@@YA$$QEAV<lambda_8a87a946287cf0625355d2c413df9209>@@AEAV1@@Z
	DD	imagerel ??$forward@V<lambda_8a87a946287cf0625355d2c413df9209>@@@std@@YA$$QEAV<lambda_8a87a946287cf0625355d2c413df9209>@@AEAV1@@Z+23
	DD	imagerel $unwind$??$forward@V<lambda_8a87a946287cf0625355d2c413df9209>@@@std@@YA$$QEAV<lambda_8a87a946287cf0625355d2c413df9209>@@AEAV1@@Z
pdata	ENDS
;	COMDAT pdata
pdata	SEGMENT
$pdata$??$?0AEAPEBDV<lambda_8a87a946287cf0625355d2c413df9209>@@$0A@@?$pair@PEBDV<lambda_8a87a946287cf0625355d2c413df9209>@@@std@@QEAA@AEAPEBD$$QEAV<lambda_8a87a946287cf0625355d2c413df9209>@@@Z DD imagerel ??$?0AEAPEBDV<lambda_8a87a946287cf0625355d2c413df9209>@@$0A@@?$pair@PEBDV<lambda_8a87a946287cf0625355d2c413df9209>@@@std@@QEAA@AEAPEBD$$QEAV<lambda_8a87a946287cf0625355d2c413df9209>@@@Z
	DD	imagerel ??$?0AEAPEBDV<lambda_8a87a946287cf0625355d2c413df9209>@@$0A@@?$pair@PEBDV<lambda_8a87a946287cf0625355d2c413df9209>@@@std@@QEAA@AEAPEBD$$QEAV<lambda_8a87a946287cf0625355d2c413df9209>@@@Z+63
	DD	imagerel $unwind$??$?0AEAPEBDV<lambda_8a87a946287cf0625355d2c413df9209>@@$0A@@?$pair@PEBDV<lambda_8a87a946287cf0625355d2c413df9209>@@@std@@QEAA@AEAPEBD$$QEAV<lambda_8a87a946287cf0625355d2c413df9209>@@@Z
pdata	ENDS
;	COMDAT pdata
pdata	SEGMENT
$pdata$??$forward@V<lambda_f04c6ff6a0f44a3600e7c5996fdf93c3>@@@std@@YA$$QEAV<lambda_f04c6ff6a0f44a3600e7c5996fdf93c3>@@AEAV1@@Z DD imagerel ??$forward@V<lambda_f04c6ff6a0f44a3600e7c5996fdf93c3>@@@std@@YA$$QEAV<lambda_f04c6ff6a0f44a3600e7c5996fdf93c3>@@AEAV1@@Z
	DD	imagerel ??$forward@V<lambda_f04c6ff6a0f44a3600e7c5996fdf93c3>@@@std@@YA$$QEAV<lambda_f04c6ff6a0f44a3600e7c5996fdf93c3>@@AEAV1@@Z+23
	DD	imagerel $unwind$??$forward@V<lambda_f04c6ff6a0f44a3600e7c5996fdf93c3>@@@std@@YA$$QEAV<lambda_f04c6ff6a0f44a3600e7c5996fdf93c3>@@AEAV1@@Z
pdata	ENDS
;	COMDAT pdata
pdata	SEGMENT
$pdata$??$?0AEAPEBDV<lambda_f04c6ff6a0f44a3600e7c5996fdf93c3>@@$0A@@?$pair@PEBDV<lambda_f04c6ff6a0f44a3600e7c5996fdf93c3>@@@std@@QEAA@AEAPEBD$$QEAV<lambda_f04c6ff6a0f44a3600e7c5996fdf93c3>@@@Z DD imagerel ??$?0AEAPEBDV<lambda_f04c6ff6a0f44a3600e7c5996fdf93c3>@@$0A@@?$pair@PEBDV<lambda_f04c6ff6a0f44a3600e7c5996fdf93c3>@@@std@@QEAA@AEAPEBD$$QEAV<lambda_f04c6ff6a0f44a3600e7c5996fdf93c3>@@@Z
	DD	imagerel ??$?0AEAPEBDV<lambda_f04c6ff6a0f44a3600e7c5996fdf93c3>@@$0A@@?$pair@PEBDV<lambda_f04c6ff6a0f44a3600e7c5996fdf93c3>@@@std@@QEAA@AEAPEBD$$QEAV<lambda_f04c6ff6a0f44a3600e7c5996fdf93c3>@@@Z+63
	DD	imagerel $unwind$??$?0AEAPEBDV<lambda_f04c6ff6a0f44a3600e7c5996fdf93c3>@@$0A@@?$pair@PEBDV<lambda_f04c6ff6a0f44a3600e7c5996fdf93c3>@@@std@@QEAA@AEAPEBD$$QEAV<lambda_f04c6ff6a0f44a3600e7c5996fdf93c3>@@@Z
pdata	ENDS
;	COMDAT pdata
pdata	SEGMENT
$pdata$??$forward@V<lambda_9e62dcf887c94db0be73ed49d4be45d7>@@@std@@YA$$QEAV<lambda_9e62dcf887c94db0be73ed49d4be45d7>@@AEAV1@@Z DD imagerel ??$forward@V<lambda_9e62dcf887c94db0be73ed49d4be45d7>@@@std@@YA$$QEAV<lambda_9e62dcf887c94db0be73ed49d4be45d7>@@AEAV1@@Z
	DD	imagerel ??$forward@V<lambda_9e62dcf887c94db0be73ed49d4be45d7>@@@std@@YA$$QEAV<lambda_9e62dcf887c94db0be73ed49d4be45d7>@@AEAV1@@Z+23
	DD	imagerel $unwind$??$forward@V<lambda_9e62dcf887c94db0be73ed49d4be45d7>@@@std@@YA$$QEAV<lambda_9e62dcf887c94db0be73ed49d4be45d7>@@AEAV1@@Z
pdata	ENDS
;	COMDAT pdata
pdata	SEGMENT
$pdata$??$?0AEAPEBDV<lambda_9e62dcf887c94db0be73ed49d4be45d7>@@$0A@@?$pair@PEBDV<lambda_9e62dcf887c94db0be73ed49d4be45d7>@@@std@@QEAA@AEAPEBD$$QEAV<lambda_9e62dcf887c94db0be73ed49d4be45d7>@@@Z DD imagerel ??$?0AEAPEBDV<lambda_9e62dcf887c94db0be73ed49d4be45d7>@@$0A@@?$pair@PEBDV<lambda_9e62dcf887c94db0be73ed49d4be45d7>@@@std@@QEAA@AEAPEBD$$QEAV<lambda_9e62dcf887c94db0be73ed49d4be45d7>@@@Z
	DD	imagerel ??$?0AEAPEBDV<lambda_9e62dcf887c94db0be73ed49d4be45d7>@@$0A@@?$pair@PEBDV<lambda_9e62dcf887c94db0be73ed49d4be45d7>@@@std@@QEAA@AEAPEBD$$QEAV<lambda_9e62dcf887c94db0be73ed49d4be45d7>@@@Z+63
	DD	imagerel $unwind$??$?0AEAPEBDV<lambda_9e62dcf887c94db0be73ed49d4be45d7>@@$0A@@?$pair@PEBDV<lambda_9e62dcf887c94db0be73ed49d4be45d7>@@@std@@QEAA@AEAPEBD$$QEAV<lambda_9e62dcf887c94db0be73ed49d4be45d7>@@@Z
pdata	ENDS
;	COMDAT pdata
pdata	SEGMENT
$pdata$??$?0U?$integral_constant@_N$00@std@@@_Unused_parameter@std@@QEAA@$$QEAU?$integral_constant@_N$00@1@@Z DD imagerel $LN3
	DD	imagerel $LN3+28
	DD	imagerel $unwind$??$?0U?$integral_constant@_N$00@std@@@_Unused_parameter@std@@QEAA@$$QEAU?$integral_constant@_N$00@1@@Z
pdata	ENDS
;	COMDAT pdata
pdata	SEGMENT
$pdata$??$_Destroy_range@V?$allocator@U?$pair@PEBDV?$function@$$A6APEAVScene@1Application@@XZ@std@@@std@@@std@@@std@@YAXPEAU?$pair@PEBDV?$function@$$A6APEAVScene@1Application@@XZ@std@@@0@0AEAV?$allocator@U?$pair@PEBDV?$function@$$A6APEAVScene@1Application@@XZ@std@@@std@@@0@@Z DD imagerel $LN3
	DD	imagerel $LN3+53
	DD	imagerel $unwind$??$_Destroy_range@V?$allocator@U?$pair@PEBDV?$function@$$A6APEAVScene@1Application@@XZ@std@@@std@@@std@@@std@@YAXPEAU?$pair@PEBDV?$function@$$A6APEAVScene@1Application@@XZ@std@@@0@0AEAV?$allocator@U?$pair@PEBDV?$function@$$A6APEAVScene@1Application@@XZ@std@@@std@@@0@@Z
pdata	ENDS
;	COMDAT pdata
pdata	SEGMENT
$pdata$??$_Uninitialized_move@PEAU?$pair@PEBDV?$function@$$A6APEAVScene@1Application@@XZ@std@@@std@@PEAU12@V?$allocator@U?$pair@PEBDV?$function@$$A6APEAVScene@1Application@@XZ@std@@@std@@@2@@std@@YAPEAU?$pair@PEBDV?$function@$$A6APEAVScene@1Application@@XZ@std@@@0@QEAU10@0PEAU10@AEAV?$allocator@U?$pair@PEBDV?$function@$$A6APEAVScene@1Application@@XZ@std@@@std@@@0@@Z DD imagerel $LN3
	DD	imagerel $LN3+210
	DD	imagerel $unwind$??$_Uninitialized_move@PEAU?$pair@PEBDV?$function@$$A6APEAVScene@1Application@@XZ@std@@@std@@PEAU12@V?$allocator@U?$pair@PEBDV?$function@$$A6APEAVScene@1Application@@XZ@std@@@std@@@2@@std@@YAPEAU?$pair@PEBDV?$function@$$A6APEAVScene@1Application@@XZ@std@@@0@QEAU10@0PEAU10@AEAV?$allocator@U?$pair@PEBDV?$function@$$A6APEAVScene@1Application@@XZ@std@@@std@@@0@@Z
pdata	ENDS
;	COMDAT pdata
pdata	SEGMENT
$pdata$??$_Get_size_of_n@$0EI@@std@@YA_K_K@Z DD imagerel $LN4
	DD	imagerel $LN4+70
	DD	imagerel $unwind$??$_Get_size_of_n@$0EI@@std@@YA_K_K@Z
pdata	ENDS
;	COMDAT pdata
pdata	SEGMENT
$pdata$??$move@AEAV?$function@$$A6APEAVScene@1Application@@XZ@std@@@std@@YA$$QEAV?$function@$$A6APEAVScene@1Application@@XZ@0@AEAV10@@Z DD imagerel $LN3
	DD	imagerel $LN3+23
	DD	imagerel $unwind$??$move@AEAV?$function@$$A6APEAVScene@1Application@@XZ@std@@@std@@YA$$QEAV?$function@$$A6APEAVScene@1Application@@XZ@0@AEAV10@@Z
pdata	ENDS
;	COMDAT pdata
pdata	SEGMENT
$pdata$??$_Uninitialized_copy@PEAU?$pair@PEBDV?$function@$$A6APEAVScene@1Application@@XZ@std@@@std@@PEAU12@V?$allocator@U?$pair@PEBDV?$function@$$A6APEAVScene@1Application@@XZ@std@@@std@@@2@@std@@YAPEAU?$pair@PEBDV?$function@$$A6APEAVScene@1Application@@XZ@std@@@0@QEAU10@0PEAU10@AEAV?$allocator@U?$pair@PEBDV?$function@$$A6APEAVScene@1Application@@XZ@std@@@std@@@0@@Z DD imagerel $LN3
	DD	imagerel $LN3+210
	DD	imagerel $unwind$??$_Uninitialized_copy@PEAU?$pair@PEBDV?$function@$$A6APEAVScene@1Application@@XZ@std@@@std@@PEAU12@V?$allocator@U?$pair@PEBDV?$function@$$A6APEAVScene@1Application@@XZ@std@@@std@@@2@@std@@YAPEAU?$pair@PEBDV?$function@$$A6APEAVScene@1Application@@XZ@std@@@0@QEAU10@0PEAU10@AEAV?$allocator@U?$pair@PEBDV?$function@$$A6APEAVScene@1Application@@XZ@std@@@std@@@0@@Z
pdata	ENDS
;	COMDAT pdata
pdata	SEGMENT
$pdata$??$move@AEAV<lambda_411dc79f4b3a863ac6e5ae55809472f9>@@@std@@YA$$QEAV<lambda_411dc79f4b3a863ac6e5ae55809472f9>@@AEAV1@@Z DD imagerel ??$move@AEAV<lambda_411dc79f4b3a863ac6e5ae55809472f9>@@@std@@YA$$QEAV<lambda_411dc79f4b3a863ac6e5ae55809472f9>@@AEAV1@@Z
	DD	imagerel ??$move@AEAV<lambda_411dc79f4b3a863ac6e5ae55809472f9>@@@std@@YA$$QEAV<lambda_411dc79f4b3a863ac6e5ae55809472f9>@@AEAV1@@Z+23
	DD	imagerel $unwind$??$move@AEAV<lambda_411dc79f4b3a863ac6e5ae55809472f9>@@@std@@YA$$QEAV<lambda_411dc79f4b3a863ac6e5ae55809472f9>@@AEAV1@@Z
pdata	ENDS
;	COMDAT pdata
pdata	SEGMENT
$pdata$??$_Reset@V<lambda_411dc79f4b3a863ac6e5ae55809472f9>@@@?$_Func_class@PEAVScene@1Application@@$$V@std@@IEAAX$$QEAV<lambda_411dc79f4b3a863ac6e5ae55809472f9>@@@Z DD imagerel ??$_Reset@V<lambda_411dc79f4b3a863ac6e5ae55809472f9>@@@?$_Func_class@PEAVScene@1Application@@$$V@std@@IEAAX$$QEAV<lambda_411dc79f4b3a863ac6e5ae55809472f9>@@@Z
	DD	imagerel ??$_Reset@V<lambda_411dc79f4b3a863ac6e5ae55809472f9>@@@?$_Func_class@PEAVScene@1Application@@$$V@std@@IEAAX$$QEAV<lambda_411dc79f4b3a863ac6e5ae55809472f9>@@@Z+70
	DD	imagerel $unwind$??$_Reset@V<lambda_411dc79f4b3a863ac6e5ae55809472f9>@@@?$_Func_class@PEAVScene@1Application@@$$V@std@@IEAAX$$QEAV<lambda_411dc79f4b3a863ac6e5ae55809472f9>@@@Z
pdata	ENDS
;	COMDAT pdata
pdata	SEGMENT
$pdata$??$move@AEAV<lambda_b24ee7e738c09addc8fddf1c40d19ab7>@@@std@@YA$$QEAV<lambda_b24ee7e738c09addc8fddf1c40d19ab7>@@AEAV1@@Z DD imagerel ??$move@AEAV<lambda_b24ee7e738c09addc8fddf1c40d19ab7>@@@std@@YA$$QEAV<lambda_b24ee7e738c09addc8fddf1c40d19ab7>@@AEAV1@@Z
	DD	imagerel ??$move@AEAV<lambda_b24ee7e738c09addc8fddf1c40d19ab7>@@@std@@YA$$QEAV<lambda_b24ee7e738c09addc8fddf1c40d19ab7>@@AEAV1@@Z+23
	DD	imagerel $unwind$??$move@AEAV<lambda_b24ee7e738c09addc8fddf1c40d19ab7>@@@std@@YA$$QEAV<lambda_b24ee7e738c09addc8fddf1c40d19ab7>@@AEAV1@@Z
pdata	ENDS
;	COMDAT pdata
pdata	SEGMENT
$pdata$??$_Reset@V<lambda_b24ee7e738c09addc8fddf1c40d19ab7>@@@?$_Func_class@PEAVScene@1Application@@$$V@std@@IEAAX$$QEAV<lambda_b24ee7e738c09addc8fddf1c40d19ab7>@@@Z DD imagerel ??$_Reset@V<lambda_b24ee7e738c09addc8fddf1c40d19ab7>@@@?$_Func_class@PEAVScene@1Application@@$$V@std@@IEAAX$$QEAV<lambda_b24ee7e738c09addc8fddf1c40d19ab7>@@@Z
	DD	imagerel ??$_Reset@V<lambda_b24ee7e738c09addc8fddf1c40d19ab7>@@@?$_Func_class@PEAVScene@1Application@@$$V@std@@IEAAX$$QEAV<lambda_b24ee7e738c09addc8fddf1c40d19ab7>@@@Z+70
	DD	imagerel $unwind$??$_Reset@V<lambda_b24ee7e738c09addc8fddf1c40d19ab7>@@@?$_Func_class@PEAVScene@1Application@@$$V@std@@IEAAX$$QEAV<lambda_b24ee7e738c09addc8fddf1c40d19ab7>@@@Z
pdata	ENDS
;	COMDAT pdata
pdata	SEGMENT
$pdata$??$move@AEAV<lambda_d0f437802599b72fdddcf24900d600a3>@@@std@@YA$$QEAV<lambda_d0f437802599b72fdddcf24900d600a3>@@AEAV1@@Z DD imagerel ??$move@AEAV<lambda_d0f437802599b72fdddcf24900d600a3>@@@std@@YA$$QEAV<lambda_d0f437802599b72fdddcf24900d600a3>@@AEAV1@@Z
	DD	imagerel ??$move@AEAV<lambda_d0f437802599b72fdddcf24900d600a3>@@@std@@YA$$QEAV<lambda_d0f437802599b72fdddcf24900d600a3>@@AEAV1@@Z+23
	DD	imagerel $unwind$??$move@AEAV<lambda_d0f437802599b72fdddcf24900d600a3>@@@std@@YA$$QEAV<lambda_d0f437802599b72fdddcf24900d600a3>@@AEAV1@@Z
pdata	ENDS
;	COMDAT pdata
pdata	SEGMENT
$pdata$??$_Reset@V<lambda_d0f437802599b72fdddcf24900d600a3>@@@?$_Func_class@PEAVScene@1Application@@$$V@std@@IEAAX$$QEAV<lambda_d0f437802599b72fdddcf24900d600a3>@@@Z DD imagerel ??$_Reset@V<lambda_d0f437802599b72fdddcf24900d600a3>@@@?$_Func_class@PEAVScene@1Application@@$$V@std@@IEAAX$$QEAV<lambda_d0f437802599b72fdddcf24900d600a3>@@@Z
	DD	imagerel ??$_Reset@V<lambda_d0f437802599b72fdddcf24900d600a3>@@@?$_Func_class@PEAVScene@1Application@@$$V@std@@IEAAX$$QEAV<lambda_d0f437802599b72fdddcf24900d600a3>@@@Z+70
	DD	imagerel $unwind$??$_Reset@V<lambda_d0f437802599b72fdddcf24900d600a3>@@@?$_Func_class@PEAVScene@1Application@@$$V@std@@IEAAX$$QEAV<lambda_d0f437802599b72fdddcf24900d600a3>@@@Z
pdata	ENDS
;	COMDAT pdata
pdata	SEGMENT
$pdata$??$move@AEAV<lambda_2c3ab7f48cee5f9b56075868f97e05b2>@@@std@@YA$$QEAV<lambda_2c3ab7f48cee5f9b56075868f97e05b2>@@AEAV1@@Z DD imagerel ??$move@AEAV<lambda_2c3ab7f48cee5f9b56075868f97e05b2>@@@std@@YA$$QEAV<lambda_2c3ab7f48cee5f9b56075868f97e05b2>@@AEAV1@@Z
	DD	imagerel ??$move@AEAV<lambda_2c3ab7f48cee5f9b56075868f97e05b2>@@@std@@YA$$QEAV<lambda_2c3ab7f48cee5f9b56075868f97e05b2>@@AEAV1@@Z+23
	DD	imagerel $unwind$??$move@AEAV<lambda_2c3ab7f48cee5f9b56075868f97e05b2>@@@std@@YA$$QEAV<lambda_2c3ab7f48cee5f9b56075868f97e05b2>@@AEAV1@@Z
pdata	ENDS
;	COMDAT pdata
pdata	SEGMENT
$pdata$??$_Reset@V<lambda_2c3ab7f48cee5f9b56075868f97e05b2>@@@?$_Func_class@PEAVScene@1Application@@$$V@std@@IEAAX$$QEAV<lambda_2c3ab7f48cee5f9b56075868f97e05b2>@@@Z DD imagerel ??$_Reset@V<lambda_2c3ab7f48cee5f9b56075868f97e05b2>@@@?$_Func_class@PEAVScene@1Application@@$$V@std@@IEAAX$$QEAV<lambda_2c3ab7f48cee5f9b56075868f97e05b2>@@@Z
	DD	imagerel ??$_Reset@V<lambda_2c3ab7f48cee5f9b56075868f97e05b2>@@@?$_Func_class@PEAVScene@1Application@@$$V@std@@IEAAX$$QEAV<lambda_2c3ab7f48cee5f9b56075868f97e05b2>@@@Z+70
	DD	imagerel $unwind$??$_Reset@V<lambda_2c3ab7f48cee5f9b56075868f97e05b2>@@@?$_Func_class@PEAVScene@1Application@@$$V@std@@IEAAX$$QEAV<lambda_2c3ab7f48cee5f9b56075868f97e05b2>@@@Z
pdata	ENDS
;	COMDAT pdata
pdata	SEGMENT
$pdata$??$move@AEAV<lambda_6e33341e90591d57c68d6076b03224d9>@@@std@@YA$$QEAV<lambda_6e33341e90591d57c68d6076b03224d9>@@AEAV1@@Z DD imagerel ??$move@AEAV<lambda_6e33341e90591d57c68d6076b03224d9>@@@std@@YA$$QEAV<lambda_6e33341e90591d57c68d6076b03224d9>@@AEAV1@@Z
	DD	imagerel ??$move@AEAV<lambda_6e33341e90591d57c68d6076b03224d9>@@@std@@YA$$QEAV<lambda_6e33341e90591d57c68d6076b03224d9>@@AEAV1@@Z+23
	DD	imagerel $unwind$??$move@AEAV<lambda_6e33341e90591d57c68d6076b03224d9>@@@std@@YA$$QEAV<lambda_6e33341e90591d57c68d6076b03224d9>@@AEAV1@@Z
pdata	ENDS
;	COMDAT pdata
pdata	SEGMENT
$pdata$??$_Reset@V<lambda_6e33341e90591d57c68d6076b03224d9>@@@?$_Func_class@PEAVScene@1Application@@$$V@std@@IEAAX$$QEAV<lambda_6e33341e90591d57c68d6076b03224d9>@@@Z DD imagerel ??$_Reset@V<lambda_6e33341e90591d57c68d6076b03224d9>@@@?$_Func_class@PEAVScene@1Application@@$$V@std@@IEAAX$$QEAV<lambda_6e33341e90591d57c68d6076b03224d9>@@@Z
	DD	imagerel ??$_Reset@V<lambda_6e33341e90591d57c68d6076b03224d9>@@@?$_Func_class@PEAVScene@1Application@@$$V@std@@IEAAX$$QEAV<lambda_6e33341e90591d57c68d6076b03224d9>@@@Z+70
	DD	imagerel $unwind$??$_Reset@V<lambda_6e33341e90591d57c68d6076b03224d9>@@@?$_Func_class@PEAVScene@1Application@@$$V@std@@IEAAX$$QEAV<lambda_6e33341e90591d57c68d6076b03224d9>@@@Z
pdata	ENDS
;	COMDAT pdata
pdata	SEGMENT
$pdata$??$move@AEAV<lambda_f8034f4d3434a17004a65f045c28f944>@@@std@@YA$$QEAV<lambda_f8034f4d3434a17004a65f045c28f944>@@AEAV1@@Z DD imagerel ??$move@AEAV<lambda_f8034f4d3434a17004a65f045c28f944>@@@std@@YA$$QEAV<lambda_f8034f4d3434a17004a65f045c28f944>@@AEAV1@@Z
	DD	imagerel ??$move@AEAV<lambda_f8034f4d3434a17004a65f045c28f944>@@@std@@YA$$QEAV<lambda_f8034f4d3434a17004a65f045c28f944>@@AEAV1@@Z+23
	DD	imagerel $unwind$??$move@AEAV<lambda_f8034f4d3434a17004a65f045c28f944>@@@std@@YA$$QEAV<lambda_f8034f4d3434a17004a65f045c28f944>@@AEAV1@@Z
pdata	ENDS
;	COMDAT pdata
pdata	SEGMENT
$pdata$??$_Reset@V<lambda_f8034f4d3434a17004a65f045c28f944>@@@?$_Func_class@PEAVScene@1Application@@$$V@std@@IEAAX$$QEAV<lambda_f8034f4d3434a17004a65f045c28f944>@@@Z DD imagerel ??$_Reset@V<lambda_f8034f4d3434a17004a65f045c28f944>@@@?$_Func_class@PEAVScene@1Application@@$$V@std@@IEAAX$$QEAV<lambda_f8034f4d3434a17004a65f045c28f944>@@@Z
	DD	imagerel ??$_Reset@V<lambda_f8034f4d3434a17004a65f045c28f944>@@@?$_Func_class@PEAVScene@1Application@@$$V@std@@IEAAX$$QEAV<lambda_f8034f4d3434a17004a65f045c28f944>@@@Z+70
	DD	imagerel $unwind$??$_Reset@V<lambda_f8034f4d3434a17004a65f045c28f944>@@@?$_Func_class@PEAVScene@1Application@@$$V@std@@IEAAX$$QEAV<lambda_f8034f4d3434a17004a65f045c28f944>@@@Z
pdata	ENDS
;	COMDAT pdata
pdata	SEGMENT
$pdata$??$move@AEAV<lambda_1f639e86dd05cae58c2a45cb24025185>@@@std@@YA$$QEAV<lambda_1f639e86dd05cae58c2a45cb24025185>@@AEAV1@@Z DD imagerel ??$move@AEAV<lambda_1f639e86dd05cae58c2a45cb24025185>@@@std@@YA$$QEAV<lambda_1f639e86dd05cae58c2a45cb24025185>@@AEAV1@@Z
	DD	imagerel ??$move@AEAV<lambda_1f639e86dd05cae58c2a45cb24025185>@@@std@@YA$$QEAV<lambda_1f639e86dd05cae58c2a45cb24025185>@@AEAV1@@Z+23
	DD	imagerel $unwind$??$move@AEAV<lambda_1f639e86dd05cae58c2a45cb24025185>@@@std@@YA$$QEAV<lambda_1f639e86dd05cae58c2a45cb24025185>@@AEAV1@@Z
pdata	ENDS
;	COMDAT pdata
pdata	SEGMENT
$pdata$??$_Reset@V<lambda_1f639e86dd05cae58c2a45cb24025185>@@@?$_Func_class@PEAVScene@1Application@@$$V@std@@IEAAX$$QEAV<lambda_1f639e86dd05cae58c2a45cb24025185>@@@Z DD imagerel ??$_Reset@V<lambda_1f639e86dd05cae58c2a45cb24025185>@@@?$_Func_class@PEAVScene@1Application@@$$V@std@@IEAAX$$QEAV<lambda_1f639e86dd05cae58c2a45cb24025185>@@@Z
	DD	imagerel ??$_Reset@V<lambda_1f639e86dd05cae58c2a45cb24025185>@@@?$_Func_class@PEAVScene@1Application@@$$V@std@@IEAAX$$QEAV<lambda_1f639e86dd05cae58c2a45cb24025185>@@@Z+70
	DD	imagerel $unwind$??$_Reset@V<lambda_1f639e86dd05cae58c2a45cb24025185>@@@?$_Func_class@PEAVScene@1Application@@$$V@std@@IEAAX$$QEAV<lambda_1f639e86dd05cae58c2a45cb24025185>@@@Z
pdata	ENDS
;	COMDAT pdata
pdata	SEGMENT
$pdata$??$move@AEAV<lambda_8a87a946287cf0625355d2c413df9209>@@@std@@YA$$QEAV<lambda_8a87a946287cf0625355d2c413df9209>@@AEAV1@@Z DD imagerel ??$move@AEAV<lambda_8a87a946287cf0625355d2c413df9209>@@@std@@YA$$QEAV<lambda_8a87a946287cf0625355d2c413df9209>@@AEAV1@@Z
	DD	imagerel ??$move@AEAV<lambda_8a87a946287cf0625355d2c413df9209>@@@std@@YA$$QEAV<lambda_8a87a946287cf0625355d2c413df9209>@@AEAV1@@Z+23
	DD	imagerel $unwind$??$move@AEAV<lambda_8a87a946287cf0625355d2c413df9209>@@@std@@YA$$QEAV<lambda_8a87a946287cf0625355d2c413df9209>@@AEAV1@@Z
pdata	ENDS
;	COMDAT pdata
pdata	SEGMENT
$pdata$??$_Reset@V<lambda_8a87a946287cf0625355d2c413df9209>@@@?$_Func_class@PEAVScene@1Application@@$$V@std@@IEAAX$$QEAV<lambda_8a87a946287cf0625355d2c413df9209>@@@Z DD imagerel ??$_Reset@V<lambda_8a87a946287cf0625355d2c413df9209>@@@?$_Func_class@PEAVScene@1Application@@$$V@std@@IEAAX$$QEAV<lambda_8a87a946287cf0625355d2c413df9209>@@@Z
	DD	imagerel ??$_Reset@V<lambda_8a87a946287cf0625355d2c413df9209>@@@?$_Func_class@PEAVScene@1Application@@$$V@std@@IEAAX$$QEAV<lambda_8a87a946287cf0625355d2c413df9209>@@@Z+70
	DD	imagerel $unwind$??$_Reset@V<lambda_8a87a946287cf0625355d2c413df9209>@@@?$_Func_class@PEAVScene@1Application@@$$V@std@@IEAAX$$QEAV<lambda_8a87a946287cf0625355d2c413df9209>@@@Z
pdata	ENDS
;	COMDAT pdata
pdata	SEGMENT
$pdata$??$move@AEAV<lambda_f04c6ff6a0f44a3600e7c5996fdf93c3>@@@std@@YA$$QEAV<lambda_f04c6ff6a0f44a3600e7c5996fdf93c3>@@AEAV1@@Z DD imagerel ??$move@AEAV<lambda_f04c6ff6a0f44a3600e7c5996fdf93c3>@@@std@@YA$$QEAV<lambda_f04c6ff6a0f44a3600e7c5996fdf93c3>@@AEAV1@@Z
	DD	imagerel ??$move@AEAV<lambda_f04c6ff6a0f44a3600e7c5996fdf93c3>@@@std@@YA$$QEAV<lambda_f04c6ff6a0f44a3600e7c5996fdf93c3>@@AEAV1@@Z+23
	DD	imagerel $unwind$??$move@AEAV<lambda_f04c6ff6a0f44a3600e7c5996fdf93c3>@@@std@@YA$$QEAV<lambda_f04c6ff6a0f44a3600e7c5996fdf93c3>@@AEAV1@@Z
pdata	ENDS
;	COMDAT pdata
pdata	SEGMENT
$pdata$??$_Reset@V<lambda_f04c6ff6a0f44a3600e7c5996fdf93c3>@@@?$_Func_class@PEAVScene@1Application@@$$V@std@@IEAAX$$QEAV<lambda_f04c6ff6a0f44a3600e7c5996fdf93c3>@@@Z DD imagerel ??$_Reset@V<lambda_f04c6ff6a0f44a3600e7c5996fdf93c3>@@@?$_Func_class@PEAVScene@1Application@@$$V@std@@IEAAX$$QEAV<lambda_f04c6ff6a0f44a3600e7c5996fdf93c3>@@@Z
	DD	imagerel ??$_Reset@V<lambda_f04c6ff6a0f44a3600e7c5996fdf93c3>@@@?$_Func_class@PEAVScene@1Application@@$$V@std@@IEAAX$$QEAV<lambda_f04c6ff6a0f44a3600e7c5996fdf93c3>@@@Z+70
	DD	imagerel $unwind$??$_Reset@V<lambda_f04c6ff6a0f44a3600e7c5996fdf93c3>@@@?$_Func_class@PEAVScene@1Application@@$$V@std@@IEAAX$$QEAV<lambda_f04c6ff6a0f44a3600e7c5996fdf93c3>@@@Z
pdata	ENDS
;	COMDAT pdata
pdata	SEGMENT
$pdata$??$move@AEAV<lambda_9e62dcf887c94db0be73ed49d4be45d7>@@@std@@YA$$QEAV<lambda_9e62dcf887c94db0be73ed49d4be45d7>@@AEAV1@@Z DD imagerel ??$move@AEAV<lambda_9e62dcf887c94db0be73ed49d4be45d7>@@@std@@YA$$QEAV<lambda_9e62dcf887c94db0be73ed49d4be45d7>@@AEAV1@@Z
	DD	imagerel ??$move@AEAV<lambda_9e62dcf887c94db0be73ed49d4be45d7>@@@std@@YA$$QEAV<lambda_9e62dcf887c94db0be73ed49d4be45d7>@@AEAV1@@Z+23
	DD	imagerel $unwind$??$move@AEAV<lambda_9e62dcf887c94db0be73ed49d4be45d7>@@@std@@YA$$QEAV<lambda_9e62dcf887c94db0be73ed49d4be45d7>@@AEAV1@@Z
pdata	ENDS
;	COMDAT pdata
pdata	SEGMENT
$pdata$??$_Reset@V<lambda_9e62dcf887c94db0be73ed49d4be45d7>@@@?$_Func_class@PEAVScene@1Application@@$$V@std@@IEAAX$$QEAV<lambda_9e62dcf887c94db0be73ed49d4be45d7>@@@Z DD imagerel ??$_Reset@V<lambda_9e62dcf887c94db0be73ed49d4be45d7>@@@?$_Func_class@PEAVScene@1Application@@$$V@std@@IEAAX$$QEAV<lambda_9e62dcf887c94db0be73ed49d4be45d7>@@@Z
	DD	imagerel ??$_Reset@V<lambda_9e62dcf887c94db0be73ed49d4be45d7>@@@?$_Func_class@PEAVScene@1Application@@$$V@std@@IEAAX$$QEAV<lambda_9e62dcf887c94db0be73ed49d4be45d7>@@@Z+70
	DD	imagerel $unwind$??$_Reset@V<lambda_9e62dcf887c94db0be73ed49d4be45d7>@@@?$_Func_class@PEAVScene@1Application@@$$V@std@@IEAAX$$QEAV<lambda_9e62dcf887c94db0be73ed49d4be45d7>@@@Z
pdata	ENDS
;	COMDAT pdata
pdata	SEGMENT
$pdata$??$_Destroy_range1@V?$allocator@U?$pair@PEBDV?$function@$$A6APEAVScene@1Application@@XZ@std@@@std@@@std@@@std@@YAXPEAU?$pair@PEBDV?$function@$$A6APEAVScene@1Application@@XZ@std@@@0@0AEAV?$allocator@U?$pair@PEBDV?$function@$$A6APEAVScene@1Application@@XZ@std@@@std@@@0@U?$integral_constant@_N$0A@@0@@Z DD imagerel $LN6
	DD	imagerel $LN6+83
	DD	imagerel $unwind$??$_Destroy_range1@V?$allocator@U?$pair@PEBDV?$function@$$A6APEAVScene@1Application@@XZ@std@@@std@@@std@@@std@@YAXPEAU?$pair@PEBDV?$function@$$A6APEAVScene@1Application@@XZ@std@@@0@0AEAV?$allocator@U?$pair@PEBDV?$function@$$A6APEAVScene@1Application@@XZ@std@@@std@@@0@U?$integral_constant@_N$0A@@0@@Z
pdata	ENDS
;	COMDAT pdata
pdata	SEGMENT
$pdata$??$_Unchecked@PEAU?$pair@PEBDV?$function@$$A6APEAVScene@1Application@@XZ@std@@@std@@@std@@YAPEAU?$pair@PEBDV?$function@$$A6APEAVScene@1Application@@XZ@std@@@0@PEAU10@@Z DD imagerel $LN3
	DD	imagerel $LN3+23
	DD	imagerel $unwind$??$_Unchecked@PEAU?$pair@PEBDV?$function@$$A6APEAVScene@1Application@@XZ@std@@@std@@@std@@YAPEAU?$pair@PEBDV?$function@$$A6APEAVScene@1Application@@XZ@std@@@0@PEAU10@@Z
pdata	ENDS
;	COMDAT pdata
pdata	SEGMENT
$pdata$??$_Ptr_move_cat@U?$pair@PEBDV?$function@$$A6APEAVScene@1Application@@XZ@std@@@std@@U12@@std@@YA?AU_General_ptr_iterator_tag@0@AEBQEAU?$pair@PEBDV?$function@$$A6APEAVScene@1Application@@XZ@std@@@0@0@Z DD imagerel $LN3
	DD	imagerel $LN3+46
	DD	imagerel $unwind$??$_Ptr_move_cat@U?$pair@PEBDV?$function@$$A6APEAVScene@1Application@@XZ@std@@@std@@U12@@std@@YA?AU_General_ptr_iterator_tag@0@AEBQEAU?$pair@PEBDV?$function@$$A6APEAVScene@1Application@@XZ@std@@@0@0@Z
pdata	ENDS
;	COMDAT pdata
pdata	SEGMENT
$pdata$??$_Uninitialized_move_al_unchecked@PEAU?$pair@PEBDV?$function@$$A6APEAVScene@1Application@@XZ@std@@@std@@PEAU12@V?$allocator@U?$pair@PEBDV?$function@$$A6APEAVScene@1Application@@XZ@std@@@std@@@2@@std@@YAPEAU?$pair@PEBDV?$function@$$A6APEAVScene@1Application@@XZ@std@@@0@PEAU10@QEAU10@1AEAV?$allocator@U?$pair@PEBDV?$function@$$A6APEAVScene@1Application@@XZ@std@@@std@@@0@U_General_ptr_iterator_tag@0@U_Unused_parameter@0@@Z DD imagerel $LN7
	DD	imagerel $LN7+199
	DD	imagerel $unwind$??$_Uninitialized_move_al_unchecked@PEAU?$pair@PEBDV?$function@$$A6APEAVScene@1Application@@XZ@std@@@std@@PEAU12@V?$allocator@U?$pair@PEBDV?$function@$$A6APEAVScene@1Application@@XZ@std@@@std@@@2@@std@@YAPEAU?$pair@PEBDV?$function@$$A6APEAVScene@1Application@@XZ@std@@@0@PEAU10@QEAU10@1AEAV?$allocator@U?$pair@PEBDV?$function@$$A6APEAVScene@1Application@@XZ@std@@@std@@@0@U_General_ptr_iterator_tag@0@U_Unused_parameter@0@@Z
pdata	ENDS
;	COMDAT pdata
pdata	SEGMENT
$pdata$?dtor$0@?0???$_Uninitialized_move_al_unchecked@PEAU?$pair@PEBDV?$function@$$A6APEAVScene@1Application@@XZ@std@@@std@@PEAU12@V?$allocator@U?$pair@PEBDV?$function@$$A6APEAVScene@1Application@@XZ@std@@@std@@@2@@std@@YAPEAU?$pair@PEBDV?$function@$$A6APEAVScene@1Application@@XZ@std@@@0@PEAU10@QEAU10@1AEAV?$allocator@U?$pair@PEBDV?$function@$$A6APEAVScene@1Application@@XZ@std@@@std@@@0@U_General_ptr_iterator_tag@0@U_Unused_parameter@0@@Z@4HA DD imagerel ?dtor$0@?0???$_Uninitialized_move_al_unchecked@PEAU?$pair@PEBDV?$function@$$A6APEAVScene@1Application@@XZ@std@@@std@@PEAU12@V?$allocator@U?$pair@PEBDV?$function@$$A6APEAVScene@1Application@@XZ@std@@@std@@@2@@std@@YAPEAU?$pair@PEBDV?$function@$$A6APEAVScene@1Application@@XZ@std@@@0@PEAU10@QEAU10@1AEAV?$allocator@U?$pair@PEBDV?$function@$$A6APEAVScene@1Application@@XZ@std@@@std@@@0@U_General_ptr_iterator_tag@0@U_Unused_parameter@0@@Z@4HA
	DD	imagerel ?dtor$0@?0???$_Uninitialized_move_al_unchecked@PEAU?$pair@PEBDV?$function@$$A6APEAVScene@1Application@@XZ@std@@@std@@PEAU12@V?$allocator@U?$pair@PEBDV?$function@$$A6APEAVScene@1Application@@XZ@std@@@std@@@2@@std@@YAPEAU?$pair@PEBDV?$function@$$A6APEAVScene@1Application@@XZ@std@@@0@PEAU10@QEAU10@1AEAV?$allocator@U?$pair@PEBDV?$function@$$A6APEAVScene@1Application@@XZ@std@@@std@@@0@U_General_ptr_iterator_tag@0@U_Unused_parameter@0@@Z@4HA+25
	DD	imagerel $unwind$?dtor$0@?0???$_Uninitialized_move_al_unchecked@PEAU?$pair@PEBDV?$function@$$A6APEAVScene@1Application@@XZ@std@@@std@@PEAU12@V?$allocator@U?$pair@PEBDV?$function@$$A6APEAVScene@1Application@@XZ@std@@@std@@@2@@std@@YAPEAU?$pair@PEBDV?$function@$$A6APEAVScene@1Application@@XZ@std@@@0@PEAU10@QEAU10@1AEAV?$allocator@U?$pair@PEBDV?$function@$$A6APEAVScene@1Application@@XZ@std@@@std@@@0@U_General_ptr_iterator_tag@0@U_Unused_parameter@0@@Z@4HA
pdata	ENDS
;	COMDAT pdata
pdata	SEGMENT
$pdata$??$_Rechecked@PEAU?$pair@PEBDV?$function@$$A6APEAVScene@1Application@@XZ@std@@@std@@PEAU12@@std@@YAAEAPEAU?$pair@PEBDV?$function@$$A6APEAVScene@1Application@@XZ@std@@@0@AEAPEAU10@QEAU10@@Z DD imagerel $LN3
	DD	imagerel $LN3+39
	DD	imagerel $unwind$??$_Rechecked@PEAU?$pair@PEBDV?$function@$$A6APEAVScene@1Application@@XZ@std@@@std@@PEAU12@@std@@YAAEAPEAU?$pair@PEBDV?$function@$$A6APEAVScene@1Application@@XZ@std@@@0@AEAPEAU10@QEAU10@@Z
pdata	ENDS
;	COMDAT pdata
pdata	SEGMENT
$pdata$??$_Ptr_copy_cat@U?$pair@PEBDV?$function@$$A6APEAVScene@1Application@@XZ@std@@@std@@U12@@std@@YA?AU_General_ptr_iterator_tag@0@AEBQEAU?$pair@PEBDV?$function@$$A6APEAVScene@1Application@@XZ@std@@@0@0@Z DD imagerel $LN3
	DD	imagerel $LN3+46
	DD	imagerel $unwind$??$_Ptr_copy_cat@U?$pair@PEBDV?$function@$$A6APEAVScene@1Application@@XZ@std@@@std@@U12@@std@@YA?AU_General_ptr_iterator_tag@0@AEBQEAU?$pair@PEBDV?$function@$$A6APEAVScene@1Application@@XZ@std@@@0@0@Z
pdata	ENDS
;	COMDAT pdata
pdata	SEGMENT
$pdata$??$_Uninitialized_copy_al_unchecked@PEAU?$pair@PEBDV?$function@$$A6APEAVScene@1Application@@XZ@std@@@std@@PEAU12@V?$allocator@U?$pair@PEBDV?$function@$$A6APEAVScene@1Application@@XZ@std@@@std@@@2@@std@@YAPEAU?$pair@PEBDV?$function@$$A6APEAVScene@1Application@@XZ@std@@@0@PEAU10@QEAU10@1AEAV?$allocator@U?$pair@PEBDV?$function@$$A6APEAVScene@1Application@@XZ@std@@@std@@@0@U_General_ptr_iterator_tag@0@U_Unused_parameter@0@@Z DD imagerel $LN7
	DD	imagerel $LN7+191
	DD	imagerel $unwind$??$_Uninitialized_copy_al_unchecked@PEAU?$pair@PEBDV?$function@$$A6APEAVScene@1Application@@XZ@std@@@std@@PEAU12@V?$allocator@U?$pair@PEBDV?$function@$$A6APEAVScene@1Application@@XZ@std@@@std@@@2@@std@@YAPEAU?$pair@PEBDV?$function@$$A6APEAVScene@1Application@@XZ@std@@@0@PEAU10@QEAU10@1AEAV?$allocator@U?$pair@PEBDV?$function@$$A6APEAVScene@1Application@@XZ@std@@@std@@@0@U_General_ptr_iterator_tag@0@U_Unused_parameter@0@@Z
pdata	ENDS
;	COMDAT pdata
pdata	SEGMENT
$pdata$?dtor$0@?0???$_Uninitialized_copy_al_unchecked@PEAU?$pair@PEBDV?$function@$$A6APEAVScene@1Application@@XZ@std@@@std@@PEAU12@V?$allocator@U?$pair@PEBDV?$function@$$A6APEAVScene@1Application@@XZ@std@@@std@@@2@@std@@YAPEAU?$pair@PEBDV?$function@$$A6APEAVScene@1Application@@XZ@std@@@0@PEAU10@QEAU10@1AEAV?$allocator@U?$pair@PEBDV?$function@$$A6APEAVScene@1Application@@XZ@std@@@std@@@0@U_General_ptr_iterator_tag@0@U_Unused_parameter@0@@Z@4HA DD imagerel ?dtor$0@?0???$_Uninitialized_copy_al_unchecked@PEAU?$pair@PEBDV?$function@$$A6APEAVScene@1Application@@XZ@std@@@std@@PEAU12@V?$allocator@U?$pair@PEBDV?$function@$$A6APEAVScene@1Application@@XZ@std@@@std@@@2@@std@@YAPEAU?$pair@PEBDV?$function@$$A6APEAVScene@1Application@@XZ@std@@@0@PEAU10@QEAU10@1AEAV?$allocator@U?$pair@PEBDV?$function@$$A6APEAVScene@1Application@@XZ@std@@@std@@@0@U_General_ptr_iterator_tag@0@U_Unused_parameter@0@@Z@4HA
	DD	imagerel ?dtor$0@?0???$_Uninitialized_copy_al_unchecked@PEAU?$pair@PEBDV?$function@$$A6APEAVScene@1Application@@XZ@std@@@std@@PEAU12@V?$allocator@U?$pair@PEBDV?$function@$$A6APEAVScene@1Application@@XZ@std@@@std@@@2@@std@@YAPEAU?$pair@PEBDV?$function@$$A6APEAVScene@1Application@@XZ@std@@@0@PEAU10@QEAU10@1AEAV?$allocator@U?$pair@PEBDV?$function@$$A6APEAVScene@1Application@@XZ@std@@@std@@@0@U_General_ptr_iterator_tag@0@U_Unused_parameter@0@@Z@4HA+25
	DD	imagerel $unwind$?dtor$0@?0???$_Uninitialized_copy_al_unchecked@PEAU?$pair@PEBDV?$function@$$A6APEAVScene@1Application@@XZ@std@@@std@@PEAU12@V?$allocator@U?$pair@PEBDV?$function@$$A6APEAVScene@1Application@@XZ@std@@@std@@@2@@std@@YAPEAU?$pair@PEBDV?$function@$$A6APEAVScene@1Application@@XZ@std@@@0@PEAU10@QEAU10@1AEAV?$allocator@U?$pair@PEBDV?$function@$$A6APEAVScene@1Application@@XZ@std@@@std@@@0@U_General_ptr_iterator_tag@0@U_Unused_parameter@0@@Z@4HA
pdata	ENDS
;	COMDAT pdata
pdata	SEGMENT
$pdata$??$_Test_callable@V<lambda_411dc79f4b3a863ac6e5ae55809472f9>@@@std@@YA_NAEBV<lambda_411dc79f4b3a863ac6e5ae55809472f9>@@@Z DD imagerel ??$_Test_callable@V<lambda_411dc79f4b3a863ac6e5ae55809472f9>@@@std@@YA_NAEBV<lambda_411dc79f4b3a863ac6e5ae55809472f9>@@@Z
	DD	imagerel ??$_Test_callable@V<lambda_411dc79f4b3a863ac6e5ae55809472f9>@@@std@@YA_NAEBV<lambda_411dc79f4b3a863ac6e5ae55809472f9>@@@Z+34
	DD	imagerel $unwind$??$_Test_callable@V<lambda_411dc79f4b3a863ac6e5ae55809472f9>@@@std@@YA_NAEBV<lambda_411dc79f4b3a863ac6e5ae55809472f9>@@@Z
pdata	ENDS
;	COMDAT pdata
pdata	SEGMENT
$pdata$?_Copy@?$_Func_impl_no_alloc@V<lambda_411dc79f4b3a863ac6e5ae55809472f9>@@PEAVScene@2Application@@$$V@std@@EEBAPEAV?$_Func_base@PEAVScene@1Application@@$$V@2@PEAX@Z DD imagerel ?_Copy@?$_Func_impl_no_alloc@V<lambda_411dc79f4b3a863ac6e5ae55809472f9>@@PEAVScene@2Application@@$$V@std@@EEBAPEAV?$_Func_base@PEAVScene@1Application@@$$V@2@PEAX@Z
	DD	imagerel ?_Copy@?$_Func_impl_no_alloc@V<lambda_411dc79f4b3a863ac6e5ae55809472f9>@@PEAVScene@2Application@@$$V@std@@EEBAPEAV?$_Func_base@PEAVScene@1Application@@$$V@2@PEAX@Z+44
	DD	imagerel $unwind$?_Copy@?$_Func_impl_no_alloc@V<lambda_411dc79f4b3a863ac6e5ae55809472f9>@@PEAVScene@2Application@@$$V@std@@EEBAPEAV?$_Func_base@PEAVScene@1Application@@$$V@2@PEAX@Z
pdata	ENDS
;	COMDAT pdata
pdata	SEGMENT
$pdata$?_Clone@?$_Func_impl_no_alloc@V<lambda_411dc79f4b3a863ac6e5ae55809472f9>@@PEAVScene@2Application@@$$V@std@@AEBAPEAV?$_Func_base@PEAVScene@1Application@@$$V@2@PEAXU?$integral_constant@_N$0A@@2@@Z DD imagerel ?_Clone@?$_Func_impl_no_alloc@V<lambda_411dc79f4b3a863ac6e5ae55809472f9>@@PEAVScene@2Application@@$$V@std@@AEBAPEAV?$_Func_base@PEAVScene@1Application@@$$V@2@PEAXU?$integral_constant@_N$0A@@2@@Z
	DD	imagerel ?_Clone@?$_Func_impl_no_alloc@V<lambda_411dc79f4b3a863ac6e5ae55809472f9>@@PEAVScene@2Application@@$$V@std@@AEBAPEAV?$_Func_base@PEAVScene@1Application@@$$V@2@PEAXU?$integral_constant@_N$0A@@2@@Z+69
	DD	imagerel $unwind$?_Clone@?$_Func_impl_no_alloc@V<lambda_411dc79f4b3a863ac6e5ae55809472f9>@@PEAVScene@2Application@@$$V@std@@AEBAPEAV?$_Func_base@PEAVScene@1Application@@$$V@2@PEAXU?$integral_constant@_N$0A@@2@@Z
pdata	ENDS
;	COMDAT pdata
pdata	SEGMENT
$pdata$?_Move@?$_Func_impl_no_alloc@V<lambda_411dc79f4b3a863ac6e5ae55809472f9>@@PEAVScene@2Application@@$$V@std@@EEAAPEAV?$_Func_base@PEAVScene@1Application@@$$V@2@PEAX@Z DD imagerel ?_Move@?$_Func_impl_no_alloc@V<lambda_411dc79f4b3a863ac6e5ae55809472f9>@@PEAVScene@2Application@@$$V@std@@EEAAPEAV?$_Func_base@PEAVScene@1Application@@$$V@2@PEAX@Z
	DD	imagerel ?_Move@?$_Func_impl_no_alloc@V<lambda_411dc79f4b3a863ac6e5ae55809472f9>@@PEAVScene@2Application@@$$V@std@@EEAAPEAV?$_Func_base@PEAVScene@1Application@@$$V@2@PEAX@Z+72
	DD	imagerel $unwind$?_Move@?$_Func_impl_no_alloc@V<lambda_411dc79f4b3a863ac6e5ae55809472f9>@@PEAVScene@2Application@@$$V@std@@EEAAPEAV?$_Func_base@PEAVScene@1Application@@$$V@2@PEAX@Z
pdata	ENDS
;	COMDAT pdata
pdata	SEGMENT
$pdata$?_Do_call@?$_Func_impl_no_alloc@V<lambda_411dc79f4b3a863ac6e5ae55809472f9>@@PEAVScene@2Application@@$$V@std@@EEAAPEAVScene@3Application@@XZ DD imagerel ?_Do_call@?$_Func_impl_no_alloc@V<lambda_411dc79f4b3a863ac6e5ae55809472f9>@@PEAVScene@2Application@@$$V@std@@EEAAPEAVScene@3Application@@XZ
	DD	imagerel ?_Do_call@?$_Func_impl_no_alloc@V<lambda_411dc79f4b3a863ac6e5ae55809472f9>@@PEAVScene@2Application@@$$V@std@@EEAAPEAVScene@3Application@@XZ+37
	DD	imagerel $unwind$?_Do_call@?$_Func_impl_no_alloc@V<lambda_411dc79f4b3a863ac6e5ae55809472f9>@@PEAVScene@2Application@@$$V@std@@EEAAPEAVScene@3Application@@XZ
pdata	ENDS
;	COMDAT pdata
pdata	SEGMENT
$pdata$?_Target_type@?$_Func_impl_no_alloc@V<lambda_411dc79f4b3a863ac6e5ae55809472f9>@@PEAVScene@2Application@@$$V@std@@EEBAAEBVtype_info@@XZ DD imagerel ?_Target_type@?$_Func_impl_no_alloc@V<lambda_411dc79f4b3a863ac6e5ae55809472f9>@@PEAVScene@2Application@@$$V@std@@EEBAAEBVtype_info@@XZ
	DD	imagerel ?_Target_type@?$_Func_impl_no_alloc@V<lambda_411dc79f4b3a863ac6e5ae55809472f9>@@PEAVScene@2Application@@$$V@std@@EEBAAEBVtype_info@@XZ+26
	DD	imagerel $unwind$?_Target_type@?$_Func_impl_no_alloc@V<lambda_411dc79f4b3a863ac6e5ae55809472f9>@@PEAVScene@2Application@@$$V@std@@EEBAAEBVtype_info@@XZ
pdata	ENDS
;	COMDAT pdata
pdata	SEGMENT
$pdata$?_Get@?$_Func_impl_no_alloc@V<lambda_411dc79f4b3a863ac6e5ae55809472f9>@@PEAVScene@2Application@@$$V@std@@EEBAPEBXXZ DD imagerel ?_Get@?$_Func_impl_no_alloc@V<lambda_411dc79f4b3a863ac6e5ae55809472f9>@@PEAVScene@2Application@@$$V@std@@EEBAPEBXXZ
	DD	imagerel ?_Get@?$_Func_impl_no_alloc@V<lambda_411dc79f4b3a863ac6e5ae55809472f9>@@PEAVScene@2Application@@$$V@std@@EEBAPEBXXZ+37
	DD	imagerel $unwind$?_Get@?$_Func_impl_no_alloc@V<lambda_411dc79f4b3a863ac6e5ae55809472f9>@@PEAVScene@2Application@@$$V@std@@EEBAPEBXXZ
pdata	ENDS
;	COMDAT pdata
pdata	SEGMENT
$pdata$?_Delete_this@?$_Func_impl_no_alloc@V<lambda_411dc79f4b3a863ac6e5ae55809472f9>@@PEAVScene@2Application@@$$V@std@@EEAAX_N@Z DD imagerel ?_Delete_this@?$_Func_impl_no_alloc@V<lambda_411dc79f4b3a863ac6e5ae55809472f9>@@PEAVScene@2Application@@$$V@std@@EEAAX_N@Z
	DD	imagerel ?_Delete_this@?$_Func_impl_no_alloc@V<lambda_411dc79f4b3a863ac6e5ae55809472f9>@@PEAVScene@2Application@@$$V@std@@EEAAX_N@Z+56
	DD	imagerel $unwind$?_Delete_this@?$_Func_impl_no_alloc@V<lambda_411dc79f4b3a863ac6e5ae55809472f9>@@PEAVScene@2Application@@$$V@std@@EEAAX_N@Z
pdata	ENDS
;	COMDAT pdata
pdata	SEGMENT
$pdata$??$_Reset_impl@V?$_Func_impl_no_alloc@V<lambda_411dc79f4b3a863ac6e5ae55809472f9>@@PEAVScene@2Application@@$$V@std@@V<lambda_411dc79f4b3a863ac6e5ae55809472f9>@@@?$_Func_class@PEAVScene@1Application@@$$V@std@@IEAAX$$QEAV<lambda_411dc79f4b3a863ac6e5ae55809472f9>@@U?$integral_constant@_N$0A@@1@@Z DD imagerel ??$_Reset_impl@V?$_Func_impl_no_alloc@V<lambda_411dc79f4b3a863ac6e5ae55809472f9>@@PEAVScene@2Application@@$$V@std@@V<lambda_411dc79f4b3a863ac6e5ae55809472f9>@@@?$_Func_class@PEAVScene@1Application@@$$V@std@@IEAAX$$QEAV<lambda_411dc79f4b3a863ac6e5ae55809472f9>@@U?$integral_constant@_N$0A@@1@@Z
	DD	imagerel ??$_Reset_impl@V?$_Func_impl_no_alloc@V<lambda_411dc79f4b3a863ac6e5ae55809472f9>@@PEAVScene@2Application@@$$V@std@@V<lambda_411dc79f4b3a863ac6e5ae55809472f9>@@@?$_Func_class@PEAVScene@1Application@@$$V@std@@IEAAX$$QEAV<lambda_411dc79f4b3a863ac6e5ae55809472f9>@@U?$integral_constant@_N$0A@@1@@Z+90
	DD	imagerel $unwind$??$_Reset_impl@V?$_Func_impl_no_alloc@V<lambda_411dc79f4b3a863ac6e5ae55809472f9>@@PEAVScene@2Application@@$$V@std@@V<lambda_411dc79f4b3a863ac6e5ae55809472f9>@@@?$_Func_class@PEAVScene@1Application@@$$V@std@@IEAAX$$QEAV<lambda_411dc79f4b3a863ac6e5ae55809472f9>@@U?$integral_constant@_N$0A@@1@@Z
pdata	ENDS
;	COMDAT pdata
pdata	SEGMENT
$pdata$??$_Test_callable@V<lambda_b24ee7e738c09addc8fddf1c40d19ab7>@@@std@@YA_NAEBV<lambda_b24ee7e738c09addc8fddf1c40d19ab7>@@@Z DD imagerel ??$_Test_callable@V<lambda_b24ee7e738c09addc8fddf1c40d19ab7>@@@std@@YA_NAEBV<lambda_b24ee7e738c09addc8fddf1c40d19ab7>@@@Z
	DD	imagerel ??$_Test_callable@V<lambda_b24ee7e738c09addc8fddf1c40d19ab7>@@@std@@YA_NAEBV<lambda_b24ee7e738c09addc8fddf1c40d19ab7>@@@Z+34
	DD	imagerel $unwind$??$_Test_callable@V<lambda_b24ee7e738c09addc8fddf1c40d19ab7>@@@std@@YA_NAEBV<lambda_b24ee7e738c09addc8fddf1c40d19ab7>@@@Z
pdata	ENDS
;	COMDAT pdata
pdata	SEGMENT
$pdata$?_Copy@?$_Func_impl_no_alloc@V<lambda_b24ee7e738c09addc8fddf1c40d19ab7>@@PEAVScene@2Application@@$$V@std@@EEBAPEAV?$_Func_base@PEAVScene@1Application@@$$V@2@PEAX@Z DD imagerel ?_Copy@?$_Func_impl_no_alloc@V<lambda_b24ee7e738c09addc8fddf1c40d19ab7>@@PEAVScene@2Application@@$$V@std@@EEBAPEAV?$_Func_base@PEAVScene@1Application@@$$V@2@PEAX@Z
	DD	imagerel ?_Copy@?$_Func_impl_no_alloc@V<lambda_b24ee7e738c09addc8fddf1c40d19ab7>@@PEAVScene@2Application@@$$V@std@@EEBAPEAV?$_Func_base@PEAVScene@1Application@@$$V@2@PEAX@Z+44
	DD	imagerel $unwind$?_Copy@?$_Func_impl_no_alloc@V<lambda_b24ee7e738c09addc8fddf1c40d19ab7>@@PEAVScene@2Application@@$$V@std@@EEBAPEAV?$_Func_base@PEAVScene@1Application@@$$V@2@PEAX@Z
pdata	ENDS
;	COMDAT pdata
pdata	SEGMENT
$pdata$?_Clone@?$_Func_impl_no_alloc@V<lambda_b24ee7e738c09addc8fddf1c40d19ab7>@@PEAVScene@2Application@@$$V@std@@AEBAPEAV?$_Func_base@PEAVScene@1Application@@$$V@2@PEAXU?$integral_constant@_N$0A@@2@@Z DD imagerel ?_Clone@?$_Func_impl_no_alloc@V<lambda_b24ee7e738c09addc8fddf1c40d19ab7>@@PEAVScene@2Application@@$$V@std@@AEBAPEAV?$_Func_base@PEAVScene@1Application@@$$V@2@PEAXU?$integral_constant@_N$0A@@2@@Z
	DD	imagerel ?_Clone@?$_Func_impl_no_alloc@V<lambda_b24ee7e738c09addc8fddf1c40d19ab7>@@PEAVScene@2Application@@$$V@std@@AEBAPEAV?$_Func_base@PEAVScene@1Application@@$$V@2@PEAXU?$integral_constant@_N$0A@@2@@Z+69
	DD	imagerel $unwind$?_Clone@?$_Func_impl_no_alloc@V<lambda_b24ee7e738c09addc8fddf1c40d19ab7>@@PEAVScene@2Application@@$$V@std@@AEBAPEAV?$_Func_base@PEAVScene@1Application@@$$V@2@PEAXU?$integral_constant@_N$0A@@2@@Z
pdata	ENDS
;	COMDAT pdata
pdata	SEGMENT
$pdata$?_Move@?$_Func_impl_no_alloc@V<lambda_b24ee7e738c09addc8fddf1c40d19ab7>@@PEAVScene@2Application@@$$V@std@@EEAAPEAV?$_Func_base@PEAVScene@1Application@@$$V@2@PEAX@Z DD imagerel ?_Move@?$_Func_impl_no_alloc@V<lambda_b24ee7e738c09addc8fddf1c40d19ab7>@@PEAVScene@2Application@@$$V@std@@EEAAPEAV?$_Func_base@PEAVScene@1Application@@$$V@2@PEAX@Z
	DD	imagerel ?_Move@?$_Func_impl_no_alloc@V<lambda_b24ee7e738c09addc8fddf1c40d19ab7>@@PEAVScene@2Application@@$$V@std@@EEAAPEAV?$_Func_base@PEAVScene@1Application@@$$V@2@PEAX@Z+72
	DD	imagerel $unwind$?_Move@?$_Func_impl_no_alloc@V<lambda_b24ee7e738c09addc8fddf1c40d19ab7>@@PEAVScene@2Application@@$$V@std@@EEAAPEAV?$_Func_base@PEAVScene@1Application@@$$V@2@PEAX@Z
pdata	ENDS
;	COMDAT pdata
pdata	SEGMENT
$pdata$?_Do_call@?$_Func_impl_no_alloc@V<lambda_b24ee7e738c09addc8fddf1c40d19ab7>@@PEAVScene@2Application@@$$V@std@@EEAAPEAVScene@3Application@@XZ DD imagerel ?_Do_call@?$_Func_impl_no_alloc@V<lambda_b24ee7e738c09addc8fddf1c40d19ab7>@@PEAVScene@2Application@@$$V@std@@EEAAPEAVScene@3Application@@XZ
	DD	imagerel ?_Do_call@?$_Func_impl_no_alloc@V<lambda_b24ee7e738c09addc8fddf1c40d19ab7>@@PEAVScene@2Application@@$$V@std@@EEAAPEAVScene@3Application@@XZ+37
	DD	imagerel $unwind$?_Do_call@?$_Func_impl_no_alloc@V<lambda_b24ee7e738c09addc8fddf1c40d19ab7>@@PEAVScene@2Application@@$$V@std@@EEAAPEAVScene@3Application@@XZ
pdata	ENDS
;	COMDAT pdata
pdata	SEGMENT
$pdata$?_Target_type@?$_Func_impl_no_alloc@V<lambda_b24ee7e738c09addc8fddf1c40d19ab7>@@PEAVScene@2Application@@$$V@std@@EEBAAEBVtype_info@@XZ DD imagerel ?_Target_type@?$_Func_impl_no_alloc@V<lambda_b24ee7e738c09addc8fddf1c40d19ab7>@@PEAVScene@2Application@@$$V@std@@EEBAAEBVtype_info@@XZ
	DD	imagerel ?_Target_type@?$_Func_impl_no_alloc@V<lambda_b24ee7e738c09addc8fddf1c40d19ab7>@@PEAVScene@2Application@@$$V@std@@EEBAAEBVtype_info@@XZ+26
	DD	imagerel $unwind$?_Target_type@?$_Func_impl_no_alloc@V<lambda_b24ee7e738c09addc8fddf1c40d19ab7>@@PEAVScene@2Application@@$$V@std@@EEBAAEBVtype_info@@XZ
pdata	ENDS
;	COMDAT pdata
pdata	SEGMENT
$pdata$?_Get@?$_Func_impl_no_alloc@V<lambda_b24ee7e738c09addc8fddf1c40d19ab7>@@PEAVScene@2Application@@$$V@std@@EEBAPEBXXZ DD imagerel ?_Get@?$_Func_impl_no_alloc@V<lambda_b24ee7e738c09addc8fddf1c40d19ab7>@@PEAVScene@2Application@@$$V@std@@EEBAPEBXXZ
	DD	imagerel ?_Get@?$_Func_impl_no_alloc@V<lambda_b24ee7e738c09addc8fddf1c40d19ab7>@@PEAVScene@2Application@@$$V@std@@EEBAPEBXXZ+37
	DD	imagerel $unwind$?_Get@?$_Func_impl_no_alloc@V<lambda_b24ee7e738c09addc8fddf1c40d19ab7>@@PEAVScene@2Application@@$$V@std@@EEBAPEBXXZ
pdata	ENDS
;	COMDAT pdata
pdata	SEGMENT
$pdata$?_Delete_this@?$_Func_impl_no_alloc@V<lambda_b24ee7e738c09addc8fddf1c40d19ab7>@@PEAVScene@2Application@@$$V@std@@EEAAX_N@Z DD imagerel ?_Delete_this@?$_Func_impl_no_alloc@V<lambda_b24ee7e738c09addc8fddf1c40d19ab7>@@PEAVScene@2Application@@$$V@std@@EEAAX_N@Z
	DD	imagerel ?_Delete_this@?$_Func_impl_no_alloc@V<lambda_b24ee7e738c09addc8fddf1c40d19ab7>@@PEAVScene@2Application@@$$V@std@@EEAAX_N@Z+56
	DD	imagerel $unwind$?_Delete_this@?$_Func_impl_no_alloc@V<lambda_b24ee7e738c09addc8fddf1c40d19ab7>@@PEAVScene@2Application@@$$V@std@@EEAAX_N@Z
pdata	ENDS
;	COMDAT pdata
pdata	SEGMENT
$pdata$??$_Reset_impl@V?$_Func_impl_no_alloc@V<lambda_b24ee7e738c09addc8fddf1c40d19ab7>@@PEAVScene@2Application@@$$V@std@@V<lambda_b24ee7e738c09addc8fddf1c40d19ab7>@@@?$_Func_class@PEAVScene@1Application@@$$V@std@@IEAAX$$QEAV<lambda_b24ee7e738c09addc8fddf1c40d19ab7>@@U?$integral_constant@_N$0A@@1@@Z DD imagerel ??$_Reset_impl@V?$_Func_impl_no_alloc@V<lambda_b24ee7e738c09addc8fddf1c40d19ab7>@@PEAVScene@2Application@@$$V@std@@V<lambda_b24ee7e738c09addc8fddf1c40d19ab7>@@@?$_Func_class@PEAVScene@1Application@@$$V@std@@IEAAX$$QEAV<lambda_b24ee7e738c09addc8fddf1c40d19ab7>@@U?$integral_constant@_N$0A@@1@@Z
	DD	imagerel ??$_Reset_impl@V?$_Func_impl_no_alloc@V<lambda_b24ee7e738c09addc8fddf1c40d19ab7>@@PEAVScene@2Application@@$$V@std@@V<lambda_b24ee7e738c09addc8fddf1c40d19ab7>@@@?$_Func_class@PEAVScene@1Application@@$$V@std@@IEAAX$$QEAV<lambda_b24ee7e738c09addc8fddf1c40d19ab7>@@U?$integral_constant@_N$0A@@1@@Z+90
	DD	imagerel $unwind$??$_Reset_impl@V?$_Func_impl_no_alloc@V<lambda_b24ee7e738c09addc8fddf1c40d19ab7>@@PEAVScene@2Application@@$$V@std@@V<lambda_b24ee7e738c09addc8fddf1c40d19ab7>@@@?$_Func_class@PEAVScene@1Application@@$$V@std@@IEAAX$$QEAV<lambda_b24ee7e738c09addc8fddf1c40d19ab7>@@U?$integral_constant@_N$0A@@1@@Z
pdata	ENDS
;	COMDAT pdata
pdata	SEGMENT
$pdata$??$_Test_callable@V<lambda_d0f437802599b72fdddcf24900d600a3>@@@std@@YA_NAEBV<lambda_d0f437802599b72fdddcf24900d600a3>@@@Z DD imagerel ??$_Test_callable@V<lambda_d0f437802599b72fdddcf24900d600a3>@@@std@@YA_NAEBV<lambda_d0f437802599b72fdddcf24900d600a3>@@@Z
	DD	imagerel ??$_Test_callable@V<lambda_d0f437802599b72fdddcf24900d600a3>@@@std@@YA_NAEBV<lambda_d0f437802599b72fdddcf24900d600a3>@@@Z+34
	DD	imagerel $unwind$??$_Test_callable@V<lambda_d0f437802599b72fdddcf24900d600a3>@@@std@@YA_NAEBV<lambda_d0f437802599b72fdddcf24900d600a3>@@@Z
pdata	ENDS
;	COMDAT pdata
pdata	SEGMENT
$pdata$?_Copy@?$_Func_impl_no_alloc@V<lambda_d0f437802599b72fdddcf24900d600a3>@@PEAVScene@2Application@@$$V@std@@EEBAPEAV?$_Func_base@PEAVScene@1Application@@$$V@2@PEAX@Z DD imagerel ?_Copy@?$_Func_impl_no_alloc@V<lambda_d0f437802599b72fdddcf24900d600a3>@@PEAVScene@2Application@@$$V@std@@EEBAPEAV?$_Func_base@PEAVScene@1Application@@$$V@2@PEAX@Z
	DD	imagerel ?_Copy@?$_Func_impl_no_alloc@V<lambda_d0f437802599b72fdddcf24900d600a3>@@PEAVScene@2Application@@$$V@std@@EEBAPEAV?$_Func_base@PEAVScene@1Application@@$$V@2@PEAX@Z+44
	DD	imagerel $unwind$?_Copy@?$_Func_impl_no_alloc@V<lambda_d0f437802599b72fdddcf24900d600a3>@@PEAVScene@2Application@@$$V@std@@EEBAPEAV?$_Func_base@PEAVScene@1Application@@$$V@2@PEAX@Z
pdata	ENDS
;	COMDAT pdata
pdata	SEGMENT
$pdata$?_Clone@?$_Func_impl_no_alloc@V<lambda_d0f437802599b72fdddcf24900d600a3>@@PEAVScene@2Application@@$$V@std@@AEBAPEAV?$_Func_base@PEAVScene@1Application@@$$V@2@PEAXU?$integral_constant@_N$0A@@2@@Z DD imagerel ?_Clone@?$_Func_impl_no_alloc@V<lambda_d0f437802599b72fdddcf24900d600a3>@@PEAVScene@2Application@@$$V@std@@AEBAPEAV?$_Func_base@PEAVScene@1Application@@$$V@2@PEAXU?$integral_constant@_N$0A@@2@@Z
	DD	imagerel ?_Clone@?$_Func_impl_no_alloc@V<lambda_d0f437802599b72fdddcf24900d600a3>@@PEAVScene@2Application@@$$V@std@@AEBAPEAV?$_Func_base@PEAVScene@1Application@@$$V@2@PEAXU?$integral_constant@_N$0A@@2@@Z+69
	DD	imagerel $unwind$?_Clone@?$_Func_impl_no_alloc@V<lambda_d0f437802599b72fdddcf24900d600a3>@@PEAVScene@2Application@@$$V@std@@AEBAPEAV?$_Func_base@PEAVScene@1Application@@$$V@2@PEAXU?$integral_constant@_N$0A@@2@@Z
pdata	ENDS
;	COMDAT pdata
pdata	SEGMENT
$pdata$?_Move@?$_Func_impl_no_alloc@V<lambda_d0f437802599b72fdddcf24900d600a3>@@PEAVScene@2Application@@$$V@std@@EEAAPEAV?$_Func_base@PEAVScene@1Application@@$$V@2@PEAX@Z DD imagerel ?_Move@?$_Func_impl_no_alloc@V<lambda_d0f437802599b72fdddcf24900d600a3>@@PEAVScene@2Application@@$$V@std@@EEAAPEAV?$_Func_base@PEAVScene@1Application@@$$V@2@PEAX@Z
	DD	imagerel ?_Move@?$_Func_impl_no_alloc@V<lambda_d0f437802599b72fdddcf24900d600a3>@@PEAVScene@2Application@@$$V@std@@EEAAPEAV?$_Func_base@PEAVScene@1Application@@$$V@2@PEAX@Z+72
	DD	imagerel $unwind$?_Move@?$_Func_impl_no_alloc@V<lambda_d0f437802599b72fdddcf24900d600a3>@@PEAVScene@2Application@@$$V@std@@EEAAPEAV?$_Func_base@PEAVScene@1Application@@$$V@2@PEAX@Z
pdata	ENDS
;	COMDAT pdata
pdata	SEGMENT
$pdata$?_Do_call@?$_Func_impl_no_alloc@V<lambda_d0f437802599b72fdddcf24900d600a3>@@PEAVScene@2Application@@$$V@std@@EEAAPEAVScene@3Application@@XZ DD imagerel ?_Do_call@?$_Func_impl_no_alloc@V<lambda_d0f437802599b72fdddcf24900d600a3>@@PEAVScene@2Application@@$$V@std@@EEAAPEAVScene@3Application@@XZ
	DD	imagerel ?_Do_call@?$_Func_impl_no_alloc@V<lambda_d0f437802599b72fdddcf24900d600a3>@@PEAVScene@2Application@@$$V@std@@EEAAPEAVScene@3Application@@XZ+37
	DD	imagerel $unwind$?_Do_call@?$_Func_impl_no_alloc@V<lambda_d0f437802599b72fdddcf24900d600a3>@@PEAVScene@2Application@@$$V@std@@EEAAPEAVScene@3Application@@XZ
pdata	ENDS
;	COMDAT pdata
pdata	SEGMENT
$pdata$?_Target_type@?$_Func_impl_no_alloc@V<lambda_d0f437802599b72fdddcf24900d600a3>@@PEAVScene@2Application@@$$V@std@@EEBAAEBVtype_info@@XZ DD imagerel ?_Target_type@?$_Func_impl_no_alloc@V<lambda_d0f437802599b72fdddcf24900d600a3>@@PEAVScene@2Application@@$$V@std@@EEBAAEBVtype_info@@XZ
	DD	imagerel ?_Target_type@?$_Func_impl_no_alloc@V<lambda_d0f437802599b72fdddcf24900d600a3>@@PEAVScene@2Application@@$$V@std@@EEBAAEBVtype_info@@XZ+26
	DD	imagerel $unwind$?_Target_type@?$_Func_impl_no_alloc@V<lambda_d0f437802599b72fdddcf24900d600a3>@@PEAVScene@2Application@@$$V@std@@EEBAAEBVtype_info@@XZ
pdata	ENDS
;	COMDAT pdata
pdata	SEGMENT
$pdata$?_Get@?$_Func_impl_no_alloc@V<lambda_d0f437802599b72fdddcf24900d600a3>@@PEAVScene@2Application@@$$V@std@@EEBAPEBXXZ DD imagerel ?_Get@?$_Func_impl_no_alloc@V<lambda_d0f437802599b72fdddcf24900d600a3>@@PEAVScene@2Application@@$$V@std@@EEBAPEBXXZ
	DD	imagerel ?_Get@?$_Func_impl_no_alloc@V<lambda_d0f437802599b72fdddcf24900d600a3>@@PEAVScene@2Application@@$$V@std@@EEBAPEBXXZ+37
	DD	imagerel $unwind$?_Get@?$_Func_impl_no_alloc@V<lambda_d0f437802599b72fdddcf24900d600a3>@@PEAVScene@2Application@@$$V@std@@EEBAPEBXXZ
pdata	ENDS
;	COMDAT pdata
pdata	SEGMENT
$pdata$?_Delete_this@?$_Func_impl_no_alloc@V<lambda_d0f437802599b72fdddcf24900d600a3>@@PEAVScene@2Application@@$$V@std@@EEAAX_N@Z DD imagerel ?_Delete_this@?$_Func_impl_no_alloc@V<lambda_d0f437802599b72fdddcf24900d600a3>@@PEAVScene@2Application@@$$V@std@@EEAAX_N@Z
	DD	imagerel ?_Delete_this@?$_Func_impl_no_alloc@V<lambda_d0f437802599b72fdddcf24900d600a3>@@PEAVScene@2Application@@$$V@std@@EEAAX_N@Z+56
	DD	imagerel $unwind$?_Delete_this@?$_Func_impl_no_alloc@V<lambda_d0f437802599b72fdddcf24900d600a3>@@PEAVScene@2Application@@$$V@std@@EEAAX_N@Z
pdata	ENDS
;	COMDAT pdata
pdata	SEGMENT
$pdata$??$_Reset_impl@V?$_Func_impl_no_alloc@V<lambda_d0f437802599b72fdddcf24900d600a3>@@PEAVScene@2Application@@$$V@std@@V<lambda_d0f437802599b72fdddcf24900d600a3>@@@?$_Func_class@PEAVScene@1Application@@$$V@std@@IEAAX$$QEAV<lambda_d0f437802599b72fdddcf24900d600a3>@@U?$integral_constant@_N$0A@@1@@Z DD imagerel ??$_Reset_impl@V?$_Func_impl_no_alloc@V<lambda_d0f437802599b72fdddcf24900d600a3>@@PEAVScene@2Application@@$$V@std@@V<lambda_d0f437802599b72fdddcf24900d600a3>@@@?$_Func_class@PEAVScene@1Application@@$$V@std@@IEAAX$$QEAV<lambda_d0f437802599b72fdddcf24900d600a3>@@U?$integral_constant@_N$0A@@1@@Z
	DD	imagerel ??$_Reset_impl@V?$_Func_impl_no_alloc@V<lambda_d0f437802599b72fdddcf24900d600a3>@@PEAVScene@2Application@@$$V@std@@V<lambda_d0f437802599b72fdddcf24900d600a3>@@@?$_Func_class@PEAVScene@1Application@@$$V@std@@IEAAX$$QEAV<lambda_d0f437802599b72fdddcf24900d600a3>@@U?$integral_constant@_N$0A@@1@@Z+90
	DD	imagerel $unwind$??$_Reset_impl@V?$_Func_impl_no_alloc@V<lambda_d0f437802599b72fdddcf24900d600a3>@@PEAVScene@2Application@@$$V@std@@V<lambda_d0f437802599b72fdddcf24900d600a3>@@@?$_Func_class@PEAVScene@1Application@@$$V@std@@IEAAX$$QEAV<lambda_d0f437802599b72fdddcf24900d600a3>@@U?$integral_constant@_N$0A@@1@@Z
pdata	ENDS
;	COMDAT pdata
pdata	SEGMENT
$pdata$??$_Test_callable@V<lambda_2c3ab7f48cee5f9b56075868f97e05b2>@@@std@@YA_NAEBV<lambda_2c3ab7f48cee5f9b56075868f97e05b2>@@@Z DD imagerel ??$_Test_callable@V<lambda_2c3ab7f48cee5f9b56075868f97e05b2>@@@std@@YA_NAEBV<lambda_2c3ab7f48cee5f9b56075868f97e05b2>@@@Z
	DD	imagerel ??$_Test_callable@V<lambda_2c3ab7f48cee5f9b56075868f97e05b2>@@@std@@YA_NAEBV<lambda_2c3ab7f48cee5f9b56075868f97e05b2>@@@Z+34
	DD	imagerel $unwind$??$_Test_callable@V<lambda_2c3ab7f48cee5f9b56075868f97e05b2>@@@std@@YA_NAEBV<lambda_2c3ab7f48cee5f9b56075868f97e05b2>@@@Z
pdata	ENDS
;	COMDAT pdata
pdata	SEGMENT
$pdata$?_Copy@?$_Func_impl_no_alloc@V<lambda_2c3ab7f48cee5f9b56075868f97e05b2>@@PEAVScene@2Application@@$$V@std@@EEBAPEAV?$_Func_base@PEAVScene@1Application@@$$V@2@PEAX@Z DD imagerel ?_Copy@?$_Func_impl_no_alloc@V<lambda_2c3ab7f48cee5f9b56075868f97e05b2>@@PEAVScene@2Application@@$$V@std@@EEBAPEAV?$_Func_base@PEAVScene@1Application@@$$V@2@PEAX@Z
	DD	imagerel ?_Copy@?$_Func_impl_no_alloc@V<lambda_2c3ab7f48cee5f9b56075868f97e05b2>@@PEAVScene@2Application@@$$V@std@@EEBAPEAV?$_Func_base@PEAVScene@1Application@@$$V@2@PEAX@Z+44
	DD	imagerel $unwind$?_Copy@?$_Func_impl_no_alloc@V<lambda_2c3ab7f48cee5f9b56075868f97e05b2>@@PEAVScene@2Application@@$$V@std@@EEBAPEAV?$_Func_base@PEAVScene@1Application@@$$V@2@PEAX@Z
pdata	ENDS
;	COMDAT pdata
pdata	SEGMENT
$pdata$?_Clone@?$_Func_impl_no_alloc@V<lambda_2c3ab7f48cee5f9b56075868f97e05b2>@@PEAVScene@2Application@@$$V@std@@AEBAPEAV?$_Func_base@PEAVScene@1Application@@$$V@2@PEAXU?$integral_constant@_N$0A@@2@@Z DD imagerel ?_Clone@?$_Func_impl_no_alloc@V<lambda_2c3ab7f48cee5f9b56075868f97e05b2>@@PEAVScene@2Application@@$$V@std@@AEBAPEAV?$_Func_base@PEAVScene@1Application@@$$V@2@PEAXU?$integral_constant@_N$0A@@2@@Z
	DD	imagerel ?_Clone@?$_Func_impl_no_alloc@V<lambda_2c3ab7f48cee5f9b56075868f97e05b2>@@PEAVScene@2Application@@$$V@std@@AEBAPEAV?$_Func_base@PEAVScene@1Application@@$$V@2@PEAXU?$integral_constant@_N$0A@@2@@Z+69
	DD	imagerel $unwind$?_Clone@?$_Func_impl_no_alloc@V<lambda_2c3ab7f48cee5f9b56075868f97e05b2>@@PEAVScene@2Application@@$$V@std@@AEBAPEAV?$_Func_base@PEAVScene@1Application@@$$V@2@PEAXU?$integral_constant@_N$0A@@2@@Z
pdata	ENDS
;	COMDAT pdata
pdata	SEGMENT
$pdata$?_Move@?$_Func_impl_no_alloc@V<lambda_2c3ab7f48cee5f9b56075868f97e05b2>@@PEAVScene@2Application@@$$V@std@@EEAAPEAV?$_Func_base@PEAVScene@1Application@@$$V@2@PEAX@Z DD imagerel ?_Move@?$_Func_impl_no_alloc@V<lambda_2c3ab7f48cee5f9b56075868f97e05b2>@@PEAVScene@2Application@@$$V@std@@EEAAPEAV?$_Func_base@PEAVScene@1Application@@$$V@2@PEAX@Z
	DD	imagerel ?_Move@?$_Func_impl_no_alloc@V<lambda_2c3ab7f48cee5f9b56075868f97e05b2>@@PEAVScene@2Application@@$$V@std@@EEAAPEAV?$_Func_base@PEAVScene@1Application@@$$V@2@PEAX@Z+72
	DD	imagerel $unwind$?_Move@?$_Func_impl_no_alloc@V<lambda_2c3ab7f48cee5f9b56075868f97e05b2>@@PEAVScene@2Application@@$$V@std@@EEAAPEAV?$_Func_base@PEAVScene@1Application@@$$V@2@PEAX@Z
pdata	ENDS
;	COMDAT pdata
pdata	SEGMENT
$pdata$?_Do_call@?$_Func_impl_no_alloc@V<lambda_2c3ab7f48cee5f9b56075868f97e05b2>@@PEAVScene@2Application@@$$V@std@@EEAAPEAVScene@3Application@@XZ DD imagerel ?_Do_call@?$_Func_impl_no_alloc@V<lambda_2c3ab7f48cee5f9b56075868f97e05b2>@@PEAVScene@2Application@@$$V@std@@EEAAPEAVScene@3Application@@XZ
	DD	imagerel ?_Do_call@?$_Func_impl_no_alloc@V<lambda_2c3ab7f48cee5f9b56075868f97e05b2>@@PEAVScene@2Application@@$$V@std@@EEAAPEAVScene@3Application@@XZ+37
	DD	imagerel $unwind$?_Do_call@?$_Func_impl_no_alloc@V<lambda_2c3ab7f48cee5f9b56075868f97e05b2>@@PEAVScene@2Application@@$$V@std@@EEAAPEAVScene@3Application@@XZ
pdata	ENDS
;	COMDAT pdata
pdata	SEGMENT
$pdata$?_Target_type@?$_Func_impl_no_alloc@V<lambda_2c3ab7f48cee5f9b56075868f97e05b2>@@PEAVScene@2Application@@$$V@std@@EEBAAEBVtype_info@@XZ DD imagerel ?_Target_type@?$_Func_impl_no_alloc@V<lambda_2c3ab7f48cee5f9b56075868f97e05b2>@@PEAVScene@2Application@@$$V@std@@EEBAAEBVtype_info@@XZ
	DD	imagerel ?_Target_type@?$_Func_impl_no_alloc@V<lambda_2c3ab7f48cee5f9b56075868f97e05b2>@@PEAVScene@2Application@@$$V@std@@EEBAAEBVtype_info@@XZ+26
	DD	imagerel $unwind$?_Target_type@?$_Func_impl_no_alloc@V<lambda_2c3ab7f48cee5f9b56075868f97e05b2>@@PEAVScene@2Application@@$$V@std@@EEBAAEBVtype_info@@XZ
pdata	ENDS
;	COMDAT pdata
pdata	SEGMENT
$pdata$?_Get@?$_Func_impl_no_alloc@V<lambda_2c3ab7f48cee5f9b56075868f97e05b2>@@PEAVScene@2Application@@$$V@std@@EEBAPEBXXZ DD imagerel ?_Get@?$_Func_impl_no_alloc@V<lambda_2c3ab7f48cee5f9b56075868f97e05b2>@@PEAVScene@2Application@@$$V@std@@EEBAPEBXXZ
	DD	imagerel ?_Get@?$_Func_impl_no_alloc@V<lambda_2c3ab7f48cee5f9b56075868f97e05b2>@@PEAVScene@2Application@@$$V@std@@EEBAPEBXXZ+37
	DD	imagerel $unwind$?_Get@?$_Func_impl_no_alloc@V<lambda_2c3ab7f48cee5f9b56075868f97e05b2>@@PEAVScene@2Application@@$$V@std@@EEBAPEBXXZ
pdata	ENDS
;	COMDAT pdata
pdata	SEGMENT
$pdata$?_Delete_this@?$_Func_impl_no_alloc@V<lambda_2c3ab7f48cee5f9b56075868f97e05b2>@@PEAVScene@2Application@@$$V@std@@EEAAX_N@Z DD imagerel ?_Delete_this@?$_Func_impl_no_alloc@V<lambda_2c3ab7f48cee5f9b56075868f97e05b2>@@PEAVScene@2Application@@$$V@std@@EEAAX_N@Z
	DD	imagerel ?_Delete_this@?$_Func_impl_no_alloc@V<lambda_2c3ab7f48cee5f9b56075868f97e05b2>@@PEAVScene@2Application@@$$V@std@@EEAAX_N@Z+56
	DD	imagerel $unwind$?_Delete_this@?$_Func_impl_no_alloc@V<lambda_2c3ab7f48cee5f9b56075868f97e05b2>@@PEAVScene@2Application@@$$V@std@@EEAAX_N@Z
pdata	ENDS
;	COMDAT pdata
pdata	SEGMENT
$pdata$??$_Reset_impl@V?$_Func_impl_no_alloc@V<lambda_2c3ab7f48cee5f9b56075868f97e05b2>@@PEAVScene@2Application@@$$V@std@@V<lambda_2c3ab7f48cee5f9b56075868f97e05b2>@@@?$_Func_class@PEAVScene@1Application@@$$V@std@@IEAAX$$QEAV<lambda_2c3ab7f48cee5f9b56075868f97e05b2>@@U?$integral_constant@_N$0A@@1@@Z DD imagerel ??$_Reset_impl@V?$_Func_impl_no_alloc@V<lambda_2c3ab7f48cee5f9b56075868f97e05b2>@@PEAVScene@2Application@@$$V@std@@V<lambda_2c3ab7f48cee5f9b56075868f97e05b2>@@@?$_Func_class@PEAVScene@1Application@@$$V@std@@IEAAX$$QEAV<lambda_2c3ab7f48cee5f9b56075868f97e05b2>@@U?$integral_constant@_N$0A@@1@@Z
	DD	imagerel ??$_Reset_impl@V?$_Func_impl_no_alloc@V<lambda_2c3ab7f48cee5f9b56075868f97e05b2>@@PEAVScene@2Application@@$$V@std@@V<lambda_2c3ab7f48cee5f9b56075868f97e05b2>@@@?$_Func_class@PEAVScene@1Application@@$$V@std@@IEAAX$$QEAV<lambda_2c3ab7f48cee5f9b56075868f97e05b2>@@U?$integral_constant@_N$0A@@1@@Z+90
	DD	imagerel $unwind$??$_Reset_impl@V?$_Func_impl_no_alloc@V<lambda_2c3ab7f48cee5f9b56075868f97e05b2>@@PEAVScene@2Application@@$$V@std@@V<lambda_2c3ab7f48cee5f9b56075868f97e05b2>@@@?$_Func_class@PEAVScene@1Application@@$$V@std@@IEAAX$$QEAV<lambda_2c3ab7f48cee5f9b56075868f97e05b2>@@U?$integral_constant@_N$0A@@1@@Z
pdata	ENDS
;	COMDAT pdata
pdata	SEGMENT
$pdata$??$_Test_callable@V<lambda_6e33341e90591d57c68d6076b03224d9>@@@std@@YA_NAEBV<lambda_6e33341e90591d57c68d6076b03224d9>@@@Z DD imagerel ??$_Test_callable@V<lambda_6e33341e90591d57c68d6076b03224d9>@@@std@@YA_NAEBV<lambda_6e33341e90591d57c68d6076b03224d9>@@@Z
	DD	imagerel ??$_Test_callable@V<lambda_6e33341e90591d57c68d6076b03224d9>@@@std@@YA_NAEBV<lambda_6e33341e90591d57c68d6076b03224d9>@@@Z+34
	DD	imagerel $unwind$??$_Test_callable@V<lambda_6e33341e90591d57c68d6076b03224d9>@@@std@@YA_NAEBV<lambda_6e33341e90591d57c68d6076b03224d9>@@@Z
pdata	ENDS
;	COMDAT pdata
pdata	SEGMENT
$pdata$?_Copy@?$_Func_impl_no_alloc@V<lambda_6e33341e90591d57c68d6076b03224d9>@@PEAVScene@2Application@@$$V@std@@EEBAPEAV?$_Func_base@PEAVScene@1Application@@$$V@2@PEAX@Z DD imagerel ?_Copy@?$_Func_impl_no_alloc@V<lambda_6e33341e90591d57c68d6076b03224d9>@@PEAVScene@2Application@@$$V@std@@EEBAPEAV?$_Func_base@PEAVScene@1Application@@$$V@2@PEAX@Z
	DD	imagerel ?_Copy@?$_Func_impl_no_alloc@V<lambda_6e33341e90591d57c68d6076b03224d9>@@PEAVScene@2Application@@$$V@std@@EEBAPEAV?$_Func_base@PEAVScene@1Application@@$$V@2@PEAX@Z+44
	DD	imagerel $unwind$?_Copy@?$_Func_impl_no_alloc@V<lambda_6e33341e90591d57c68d6076b03224d9>@@PEAVScene@2Application@@$$V@std@@EEBAPEAV?$_Func_base@PEAVScene@1Application@@$$V@2@PEAX@Z
pdata	ENDS
;	COMDAT pdata
pdata	SEGMENT
$pdata$?_Clone@?$_Func_impl_no_alloc@V<lambda_6e33341e90591d57c68d6076b03224d9>@@PEAVScene@2Application@@$$V@std@@AEBAPEAV?$_Func_base@PEAVScene@1Application@@$$V@2@PEAXU?$integral_constant@_N$0A@@2@@Z DD imagerel ?_Clone@?$_Func_impl_no_alloc@V<lambda_6e33341e90591d57c68d6076b03224d9>@@PEAVScene@2Application@@$$V@std@@AEBAPEAV?$_Func_base@PEAVScene@1Application@@$$V@2@PEAXU?$integral_constant@_N$0A@@2@@Z
	DD	imagerel ?_Clone@?$_Func_impl_no_alloc@V<lambda_6e33341e90591d57c68d6076b03224d9>@@PEAVScene@2Application@@$$V@std@@AEBAPEAV?$_Func_base@PEAVScene@1Application@@$$V@2@PEAXU?$integral_constant@_N$0A@@2@@Z+69
	DD	imagerel $unwind$?_Clone@?$_Func_impl_no_alloc@V<lambda_6e33341e90591d57c68d6076b03224d9>@@PEAVScene@2Application@@$$V@std@@AEBAPEAV?$_Func_base@PEAVScene@1Application@@$$V@2@PEAXU?$integral_constant@_N$0A@@2@@Z
pdata	ENDS
;	COMDAT pdata
pdata	SEGMENT
$pdata$?_Move@?$_Func_impl_no_alloc@V<lambda_6e33341e90591d57c68d6076b03224d9>@@PEAVScene@2Application@@$$V@std@@EEAAPEAV?$_Func_base@PEAVScene@1Application@@$$V@2@PEAX@Z DD imagerel ?_Move@?$_Func_impl_no_alloc@V<lambda_6e33341e90591d57c68d6076b03224d9>@@PEAVScene@2Application@@$$V@std@@EEAAPEAV?$_Func_base@PEAVScene@1Application@@$$V@2@PEAX@Z
	DD	imagerel ?_Move@?$_Func_impl_no_alloc@V<lambda_6e33341e90591d57c68d6076b03224d9>@@PEAVScene@2Application@@$$V@std@@EEAAPEAV?$_Func_base@PEAVScene@1Application@@$$V@2@PEAX@Z+72
	DD	imagerel $unwind$?_Move@?$_Func_impl_no_alloc@V<lambda_6e33341e90591d57c68d6076b03224d9>@@PEAVScene@2Application@@$$V@std@@EEAAPEAV?$_Func_base@PEAVScene@1Application@@$$V@2@PEAX@Z
pdata	ENDS
;	COMDAT pdata
pdata	SEGMENT
$pdata$?_Do_call@?$_Func_impl_no_alloc@V<lambda_6e33341e90591d57c68d6076b03224d9>@@PEAVScene@2Application@@$$V@std@@EEAAPEAVScene@3Application@@XZ DD imagerel ?_Do_call@?$_Func_impl_no_alloc@V<lambda_6e33341e90591d57c68d6076b03224d9>@@PEAVScene@2Application@@$$V@std@@EEAAPEAVScene@3Application@@XZ
	DD	imagerel ?_Do_call@?$_Func_impl_no_alloc@V<lambda_6e33341e90591d57c68d6076b03224d9>@@PEAVScene@2Application@@$$V@std@@EEAAPEAVScene@3Application@@XZ+37
	DD	imagerel $unwind$?_Do_call@?$_Func_impl_no_alloc@V<lambda_6e33341e90591d57c68d6076b03224d9>@@PEAVScene@2Application@@$$V@std@@EEAAPEAVScene@3Application@@XZ
pdata	ENDS
;	COMDAT pdata
pdata	SEGMENT
$pdata$?_Target_type@?$_Func_impl_no_alloc@V<lambda_6e33341e90591d57c68d6076b03224d9>@@PEAVScene@2Application@@$$V@std@@EEBAAEBVtype_info@@XZ DD imagerel ?_Target_type@?$_Func_impl_no_alloc@V<lambda_6e33341e90591d57c68d6076b03224d9>@@PEAVScene@2Application@@$$V@std@@EEBAAEBVtype_info@@XZ
	DD	imagerel ?_Target_type@?$_Func_impl_no_alloc@V<lambda_6e33341e90591d57c68d6076b03224d9>@@PEAVScene@2Application@@$$V@std@@EEBAAEBVtype_info@@XZ+26
	DD	imagerel $unwind$?_Target_type@?$_Func_impl_no_alloc@V<lambda_6e33341e90591d57c68d6076b03224d9>@@PEAVScene@2Application@@$$V@std@@EEBAAEBVtype_info@@XZ
pdata	ENDS
;	COMDAT pdata
pdata	SEGMENT
$pdata$?_Get@?$_Func_impl_no_alloc@V<lambda_6e33341e90591d57c68d6076b03224d9>@@PEAVScene@2Application@@$$V@std@@EEBAPEBXXZ DD imagerel ?_Get@?$_Func_impl_no_alloc@V<lambda_6e33341e90591d57c68d6076b03224d9>@@PEAVScene@2Application@@$$V@std@@EEBAPEBXXZ
	DD	imagerel ?_Get@?$_Func_impl_no_alloc@V<lambda_6e33341e90591d57c68d6076b03224d9>@@PEAVScene@2Application@@$$V@std@@EEBAPEBXXZ+37
	DD	imagerel $unwind$?_Get@?$_Func_impl_no_alloc@V<lambda_6e33341e90591d57c68d6076b03224d9>@@PEAVScene@2Application@@$$V@std@@EEBAPEBXXZ
pdata	ENDS
;	COMDAT pdata
pdata	SEGMENT
$pdata$?_Delete_this@?$_Func_impl_no_alloc@V<lambda_6e33341e90591d57c68d6076b03224d9>@@PEAVScene@2Application@@$$V@std@@EEAAX_N@Z DD imagerel ?_Delete_this@?$_Func_impl_no_alloc@V<lambda_6e33341e90591d57c68d6076b03224d9>@@PEAVScene@2Application@@$$V@std@@EEAAX_N@Z
	DD	imagerel ?_Delete_this@?$_Func_impl_no_alloc@V<lambda_6e33341e90591d57c68d6076b03224d9>@@PEAVScene@2Application@@$$V@std@@EEAAX_N@Z+56
	DD	imagerel $unwind$?_Delete_this@?$_Func_impl_no_alloc@V<lambda_6e33341e90591d57c68d6076b03224d9>@@PEAVScene@2Application@@$$V@std@@EEAAX_N@Z
pdata	ENDS
;	COMDAT pdata
pdata	SEGMENT
$pdata$??$_Reset_impl@V?$_Func_impl_no_alloc@V<lambda_6e33341e90591d57c68d6076b03224d9>@@PEAVScene@2Application@@$$V@std@@V<lambda_6e33341e90591d57c68d6076b03224d9>@@@?$_Func_class@PEAVScene@1Application@@$$V@std@@IEAAX$$QEAV<lambda_6e33341e90591d57c68d6076b03224d9>@@U?$integral_constant@_N$0A@@1@@Z DD imagerel ??$_Reset_impl@V?$_Func_impl_no_alloc@V<lambda_6e33341e90591d57c68d6076b03224d9>@@PEAVScene@2Application@@$$V@std@@V<lambda_6e33341e90591d57c68d6076b03224d9>@@@?$_Func_class@PEAVScene@1Application@@$$V@std@@IEAAX$$QEAV<lambda_6e33341e90591d57c68d6076b03224d9>@@U?$integral_constant@_N$0A@@1@@Z
	DD	imagerel ??$_Reset_impl@V?$_Func_impl_no_alloc@V<lambda_6e33341e90591d57c68d6076b03224d9>@@PEAVScene@2Application@@$$V@std@@V<lambda_6e33341e90591d57c68d6076b03224d9>@@@?$_Func_class@PEAVScene@1Application@@$$V@std@@IEAAX$$QEAV<lambda_6e33341e90591d57c68d6076b03224d9>@@U?$integral_constant@_N$0A@@1@@Z+90
	DD	imagerel $unwind$??$_Reset_impl@V?$_Func_impl_no_alloc@V<lambda_6e33341e90591d57c68d6076b03224d9>@@PEAVScene@2Application@@$$V@std@@V<lambda_6e33341e90591d57c68d6076b03224d9>@@@?$_Func_class@PEAVScene@1Application@@$$V@std@@IEAAX$$QEAV<lambda_6e33341e90591d57c68d6076b03224d9>@@U?$integral_constant@_N$0A@@1@@Z
pdata	ENDS
;	COMDAT pdata
pdata	SEGMENT
$pdata$??$_Test_callable@V<lambda_f8034f4d3434a17004a65f045c28f944>@@@std@@YA_NAEBV<lambda_f8034f4d3434a17004a65f045c28f944>@@@Z DD imagerel ??$_Test_callable@V<lambda_f8034f4d3434a17004a65f045c28f944>@@@std@@YA_NAEBV<lambda_f8034f4d3434a17004a65f045c28f944>@@@Z
	DD	imagerel ??$_Test_callable@V<lambda_f8034f4d3434a17004a65f045c28f944>@@@std@@YA_NAEBV<lambda_f8034f4d3434a17004a65f045c28f944>@@@Z+34
	DD	imagerel $unwind$??$_Test_callable@V<lambda_f8034f4d3434a17004a65f045c28f944>@@@std@@YA_NAEBV<lambda_f8034f4d3434a17004a65f045c28f944>@@@Z
pdata	ENDS
;	COMDAT pdata
pdata	SEGMENT
$pdata$?_Copy@?$_Func_impl_no_alloc@V<lambda_f8034f4d3434a17004a65f045c28f944>@@PEAVScene@2Application@@$$V@std@@EEBAPEAV?$_Func_base@PEAVScene@1Application@@$$V@2@PEAX@Z DD imagerel ?_Copy@?$_Func_impl_no_alloc@V<lambda_f8034f4d3434a17004a65f045c28f944>@@PEAVScene@2Application@@$$V@std@@EEBAPEAV?$_Func_base@PEAVScene@1Application@@$$V@2@PEAX@Z
	DD	imagerel ?_Copy@?$_Func_impl_no_alloc@V<lambda_f8034f4d3434a17004a65f045c28f944>@@PEAVScene@2Application@@$$V@std@@EEBAPEAV?$_Func_base@PEAVScene@1Application@@$$V@2@PEAX@Z+44
	DD	imagerel $unwind$?_Copy@?$_Func_impl_no_alloc@V<lambda_f8034f4d3434a17004a65f045c28f944>@@PEAVScene@2Application@@$$V@std@@EEBAPEAV?$_Func_base@PEAVScene@1Application@@$$V@2@PEAX@Z
pdata	ENDS
;	COMDAT pdata
pdata	SEGMENT
$pdata$?_Clone@?$_Func_impl_no_alloc@V<lambda_f8034f4d3434a17004a65f045c28f944>@@PEAVScene@2Application@@$$V@std@@AEBAPEAV?$_Func_base@PEAVScene@1Application@@$$V@2@PEAXU?$integral_constant@_N$0A@@2@@Z DD imagerel ?_Clone@?$_Func_impl_no_alloc@V<lambda_f8034f4d3434a17004a65f045c28f944>@@PEAVScene@2Application@@$$V@std@@AEBAPEAV?$_Func_base@PEAVScene@1Application@@$$V@2@PEAXU?$integral_constant@_N$0A@@2@@Z
	DD	imagerel ?_Clone@?$_Func_impl_no_alloc@V<lambda_f8034f4d3434a17004a65f045c28f944>@@PEAVScene@2Application@@$$V@std@@AEBAPEAV?$_Func_base@PEAVScene@1Application@@$$V@2@PEAXU?$integral_constant@_N$0A@@2@@Z+69
	DD	imagerel $unwind$?_Clone@?$_Func_impl_no_alloc@V<lambda_f8034f4d3434a17004a65f045c28f944>@@PEAVScene@2Application@@$$V@std@@AEBAPEAV?$_Func_base@PEAVScene@1Application@@$$V@2@PEAXU?$integral_constant@_N$0A@@2@@Z
pdata	ENDS
;	COMDAT pdata
pdata	SEGMENT
$pdata$?_Move@?$_Func_impl_no_alloc@V<lambda_f8034f4d3434a17004a65f045c28f944>@@PEAVScene@2Application@@$$V@std@@EEAAPEAV?$_Func_base@PEAVScene@1Application@@$$V@2@PEAX@Z DD imagerel ?_Move@?$_Func_impl_no_alloc@V<lambda_f8034f4d3434a17004a65f045c28f944>@@PEAVScene@2Application@@$$V@std@@EEAAPEAV?$_Func_base@PEAVScene@1Application@@$$V@2@PEAX@Z
	DD	imagerel ?_Move@?$_Func_impl_no_alloc@V<lambda_f8034f4d3434a17004a65f045c28f944>@@PEAVScene@2Application@@$$V@std@@EEAAPEAV?$_Func_base@PEAVScene@1Application@@$$V@2@PEAX@Z+72
	DD	imagerel $unwind$?_Move@?$_Func_impl_no_alloc@V<lambda_f8034f4d3434a17004a65f045c28f944>@@PEAVScene@2Application@@$$V@std@@EEAAPEAV?$_Func_base@PEAVScene@1Application@@$$V@2@PEAX@Z
pdata	ENDS
;	COMDAT pdata
pdata	SEGMENT
$pdata$?_Do_call@?$_Func_impl_no_alloc@V<lambda_f8034f4d3434a17004a65f045c28f944>@@PEAVScene@2Application@@$$V@std@@EEAAPEAVScene@3Application@@XZ DD imagerel ?_Do_call@?$_Func_impl_no_alloc@V<lambda_f8034f4d3434a17004a65f045c28f944>@@PEAVScene@2Application@@$$V@std@@EEAAPEAVScene@3Application@@XZ
	DD	imagerel ?_Do_call@?$_Func_impl_no_alloc@V<lambda_f8034f4d3434a17004a65f045c28f944>@@PEAVScene@2Application@@$$V@std@@EEAAPEAVScene@3Application@@XZ+37
	DD	imagerel $unwind$?_Do_call@?$_Func_impl_no_alloc@V<lambda_f8034f4d3434a17004a65f045c28f944>@@PEAVScene@2Application@@$$V@std@@EEAAPEAVScene@3Application@@XZ
pdata	ENDS
;	COMDAT pdata
pdata	SEGMENT
$pdata$?_Target_type@?$_Func_impl_no_alloc@V<lambda_f8034f4d3434a17004a65f045c28f944>@@PEAVScene@2Application@@$$V@std@@EEBAAEBVtype_info@@XZ DD imagerel ?_Target_type@?$_Func_impl_no_alloc@V<lambda_f8034f4d3434a17004a65f045c28f944>@@PEAVScene@2Application@@$$V@std@@EEBAAEBVtype_info@@XZ
	DD	imagerel ?_Target_type@?$_Func_impl_no_alloc@V<lambda_f8034f4d3434a17004a65f045c28f944>@@PEAVScene@2Application@@$$V@std@@EEBAAEBVtype_info@@XZ+26
	DD	imagerel $unwind$?_Target_type@?$_Func_impl_no_alloc@V<lambda_f8034f4d3434a17004a65f045c28f944>@@PEAVScene@2Application@@$$V@std@@EEBAAEBVtype_info@@XZ
pdata	ENDS
;	COMDAT pdata
pdata	SEGMENT
$pdata$?_Get@?$_Func_impl_no_alloc@V<lambda_f8034f4d3434a17004a65f045c28f944>@@PEAVScene@2Application@@$$V@std@@EEBAPEBXXZ DD imagerel ?_Get@?$_Func_impl_no_alloc@V<lambda_f8034f4d3434a17004a65f045c28f944>@@PEAVScene@2Application@@$$V@std@@EEBAPEBXXZ
	DD	imagerel ?_Get@?$_Func_impl_no_alloc@V<lambda_f8034f4d3434a17004a65f045c28f944>@@PEAVScene@2Application@@$$V@std@@EEBAPEBXXZ+37
	DD	imagerel $unwind$?_Get@?$_Func_impl_no_alloc@V<lambda_f8034f4d3434a17004a65f045c28f944>@@PEAVScene@2Application@@$$V@std@@EEBAPEBXXZ
pdata	ENDS
;	COMDAT pdata
pdata	SEGMENT
$pdata$?_Delete_this@?$_Func_impl_no_alloc@V<lambda_f8034f4d3434a17004a65f045c28f944>@@PEAVScene@2Application@@$$V@std@@EEAAX_N@Z DD imagerel ?_Delete_this@?$_Func_impl_no_alloc@V<lambda_f8034f4d3434a17004a65f045c28f944>@@PEAVScene@2Application@@$$V@std@@EEAAX_N@Z
	DD	imagerel ?_Delete_this@?$_Func_impl_no_alloc@V<lambda_f8034f4d3434a17004a65f045c28f944>@@PEAVScene@2Application@@$$V@std@@EEAAX_N@Z+56
	DD	imagerel $unwind$?_Delete_this@?$_Func_impl_no_alloc@V<lambda_f8034f4d3434a17004a65f045c28f944>@@PEAVScene@2Application@@$$V@std@@EEAAX_N@Z
pdata	ENDS
;	COMDAT pdata
pdata	SEGMENT
$pdata$??$_Reset_impl@V?$_Func_impl_no_alloc@V<lambda_f8034f4d3434a17004a65f045c28f944>@@PEAVScene@2Application@@$$V@std@@V<lambda_f8034f4d3434a17004a65f045c28f944>@@@?$_Func_class@PEAVScene@1Application@@$$V@std@@IEAAX$$QEAV<lambda_f8034f4d3434a17004a65f045c28f944>@@U?$integral_constant@_N$0A@@1@@Z DD imagerel ??$_Reset_impl@V?$_Func_impl_no_alloc@V<lambda_f8034f4d3434a17004a65f045c28f944>@@PEAVScene@2Application@@$$V@std@@V<lambda_f8034f4d3434a17004a65f045c28f944>@@@?$_Func_class@PEAVScene@1Application@@$$V@std@@IEAAX$$QEAV<lambda_f8034f4d3434a17004a65f045c28f944>@@U?$integral_constant@_N$0A@@1@@Z
	DD	imagerel ??$_Reset_impl@V?$_Func_impl_no_alloc@V<lambda_f8034f4d3434a17004a65f045c28f944>@@PEAVScene@2Application@@$$V@std@@V<lambda_f8034f4d3434a17004a65f045c28f944>@@@?$_Func_class@PEAVScene@1Application@@$$V@std@@IEAAX$$QEAV<lambda_f8034f4d3434a17004a65f045c28f944>@@U?$integral_constant@_N$0A@@1@@Z+90
	DD	imagerel $unwind$??$_Reset_impl@V?$_Func_impl_no_alloc@V<lambda_f8034f4d3434a17004a65f045c28f944>@@PEAVScene@2Application@@$$V@std@@V<lambda_f8034f4d3434a17004a65f045c28f944>@@@?$_Func_class@PEAVScene@1Application@@$$V@std@@IEAAX$$QEAV<lambda_f8034f4d3434a17004a65f045c28f944>@@U?$integral_constant@_N$0A@@1@@Z
pdata	ENDS
;	COMDAT pdata
pdata	SEGMENT
$pdata$??$_Test_callable@V<lambda_1f639e86dd05cae58c2a45cb24025185>@@@std@@YA_NAEBV<lambda_1f639e86dd05cae58c2a45cb24025185>@@@Z DD imagerel ??$_Test_callable@V<lambda_1f639e86dd05cae58c2a45cb24025185>@@@std@@YA_NAEBV<lambda_1f639e86dd05cae58c2a45cb24025185>@@@Z
	DD	imagerel ??$_Test_callable@V<lambda_1f639e86dd05cae58c2a45cb24025185>@@@std@@YA_NAEBV<lambda_1f639e86dd05cae58c2a45cb24025185>@@@Z+34
	DD	imagerel $unwind$??$_Test_callable@V<lambda_1f639e86dd05cae58c2a45cb24025185>@@@std@@YA_NAEBV<lambda_1f639e86dd05cae58c2a45cb24025185>@@@Z
pdata	ENDS
;	COMDAT pdata
pdata	SEGMENT
$pdata$?_Copy@?$_Func_impl_no_alloc@V<lambda_1f639e86dd05cae58c2a45cb24025185>@@PEAVScene@2Application@@$$V@std@@EEBAPEAV?$_Func_base@PEAVScene@1Application@@$$V@2@PEAX@Z DD imagerel ?_Copy@?$_Func_impl_no_alloc@V<lambda_1f639e86dd05cae58c2a45cb24025185>@@PEAVScene@2Application@@$$V@std@@EEBAPEAV?$_Func_base@PEAVScene@1Application@@$$V@2@PEAX@Z
	DD	imagerel ?_Copy@?$_Func_impl_no_alloc@V<lambda_1f639e86dd05cae58c2a45cb24025185>@@PEAVScene@2Application@@$$V@std@@EEBAPEAV?$_Func_base@PEAVScene@1Application@@$$V@2@PEAX@Z+44
	DD	imagerel $unwind$?_Copy@?$_Func_impl_no_alloc@V<lambda_1f639e86dd05cae58c2a45cb24025185>@@PEAVScene@2Application@@$$V@std@@EEBAPEAV?$_Func_base@PEAVScene@1Application@@$$V@2@PEAX@Z
pdata	ENDS
;	COMDAT pdata
pdata	SEGMENT
$pdata$?_Clone@?$_Func_impl_no_alloc@V<lambda_1f639e86dd05cae58c2a45cb24025185>@@PEAVScene@2Application@@$$V@std@@AEBAPEAV?$_Func_base@PEAVScene@1Application@@$$V@2@PEAXU?$integral_constant@_N$0A@@2@@Z DD imagerel ?_Clone@?$_Func_impl_no_alloc@V<lambda_1f639e86dd05cae58c2a45cb24025185>@@PEAVScene@2Application@@$$V@std@@AEBAPEAV?$_Func_base@PEAVScene@1Application@@$$V@2@PEAXU?$integral_constant@_N$0A@@2@@Z
	DD	imagerel ?_Clone@?$_Func_impl_no_alloc@V<lambda_1f639e86dd05cae58c2a45cb24025185>@@PEAVScene@2Application@@$$V@std@@AEBAPEAV?$_Func_base@PEAVScene@1Application@@$$V@2@PEAXU?$integral_constant@_N$0A@@2@@Z+69
	DD	imagerel $unwind$?_Clone@?$_Func_impl_no_alloc@V<lambda_1f639e86dd05cae58c2a45cb24025185>@@PEAVScene@2Application@@$$V@std@@AEBAPEAV?$_Func_base@PEAVScene@1Application@@$$V@2@PEAXU?$integral_constant@_N$0A@@2@@Z
pdata	ENDS
;	COMDAT pdata
pdata	SEGMENT
$pdata$?_Move@?$_Func_impl_no_alloc@V<lambda_1f639e86dd05cae58c2a45cb24025185>@@PEAVScene@2Application@@$$V@std@@EEAAPEAV?$_Func_base@PEAVScene@1Application@@$$V@2@PEAX@Z DD imagerel ?_Move@?$_Func_impl_no_alloc@V<lambda_1f639e86dd05cae58c2a45cb24025185>@@PEAVScene@2Application@@$$V@std@@EEAAPEAV?$_Func_base@PEAVScene@1Application@@$$V@2@PEAX@Z
	DD	imagerel ?_Move@?$_Func_impl_no_alloc@V<lambda_1f639e86dd05cae58c2a45cb24025185>@@PEAVScene@2Application@@$$V@std@@EEAAPEAV?$_Func_base@PEAVScene@1Application@@$$V@2@PEAX@Z+72
	DD	imagerel $unwind$?_Move@?$_Func_impl_no_alloc@V<lambda_1f639e86dd05cae58c2a45cb24025185>@@PEAVScene@2Application@@$$V@std@@EEAAPEAV?$_Func_base@PEAVScene@1Application@@$$V@2@PEAX@Z
pdata	ENDS
;	COMDAT pdata
pdata	SEGMENT
$pdata$?_Do_call@?$_Func_impl_no_alloc@V<lambda_1f639e86dd05cae58c2a45cb24025185>@@PEAVScene@2Application@@$$V@std@@EEAAPEAVScene@3Application@@XZ DD imagerel ?_Do_call@?$_Func_impl_no_alloc@V<lambda_1f639e86dd05cae58c2a45cb24025185>@@PEAVScene@2Application@@$$V@std@@EEAAPEAVScene@3Application@@XZ
	DD	imagerel ?_Do_call@?$_Func_impl_no_alloc@V<lambda_1f639e86dd05cae58c2a45cb24025185>@@PEAVScene@2Application@@$$V@std@@EEAAPEAVScene@3Application@@XZ+37
	DD	imagerel $unwind$?_Do_call@?$_Func_impl_no_alloc@V<lambda_1f639e86dd05cae58c2a45cb24025185>@@PEAVScene@2Application@@$$V@std@@EEAAPEAVScene@3Application@@XZ
pdata	ENDS
;	COMDAT pdata
pdata	SEGMENT
$pdata$?_Target_type@?$_Func_impl_no_alloc@V<lambda_1f639e86dd05cae58c2a45cb24025185>@@PEAVScene@2Application@@$$V@std@@EEBAAEBVtype_info@@XZ DD imagerel ?_Target_type@?$_Func_impl_no_alloc@V<lambda_1f639e86dd05cae58c2a45cb24025185>@@PEAVScene@2Application@@$$V@std@@EEBAAEBVtype_info@@XZ
	DD	imagerel ?_Target_type@?$_Func_impl_no_alloc@V<lambda_1f639e86dd05cae58c2a45cb24025185>@@PEAVScene@2Application@@$$V@std@@EEBAAEBVtype_info@@XZ+26
	DD	imagerel $unwind$?_Target_type@?$_Func_impl_no_alloc@V<lambda_1f639e86dd05cae58c2a45cb24025185>@@PEAVScene@2Application@@$$V@std@@EEBAAEBVtype_info@@XZ
pdata	ENDS
;	COMDAT pdata
pdata	SEGMENT
$pdata$?_Get@?$_Func_impl_no_alloc@V<lambda_1f639e86dd05cae58c2a45cb24025185>@@PEAVScene@2Application@@$$V@std@@EEBAPEBXXZ DD imagerel ?_Get@?$_Func_impl_no_alloc@V<lambda_1f639e86dd05cae58c2a45cb24025185>@@PEAVScene@2Application@@$$V@std@@EEBAPEBXXZ
	DD	imagerel ?_Get@?$_Func_impl_no_alloc@V<lambda_1f639e86dd05cae58c2a45cb24025185>@@PEAVScene@2Application@@$$V@std@@EEBAPEBXXZ+37
	DD	imagerel $unwind$?_Get@?$_Func_impl_no_alloc@V<lambda_1f639e86dd05cae58c2a45cb24025185>@@PEAVScene@2Application@@$$V@std@@EEBAPEBXXZ
pdata	ENDS
;	COMDAT pdata
pdata	SEGMENT
$pdata$?_Delete_this@?$_Func_impl_no_alloc@V<lambda_1f639e86dd05cae58c2a45cb24025185>@@PEAVScene@2Application@@$$V@std@@EEAAX_N@Z DD imagerel ?_Delete_this@?$_Func_impl_no_alloc@V<lambda_1f639e86dd05cae58c2a45cb24025185>@@PEAVScene@2Application@@$$V@std@@EEAAX_N@Z
	DD	imagerel ?_Delete_this@?$_Func_impl_no_alloc@V<lambda_1f639e86dd05cae58c2a45cb24025185>@@PEAVScene@2Application@@$$V@std@@EEAAX_N@Z+56
	DD	imagerel $unwind$?_Delete_this@?$_Func_impl_no_alloc@V<lambda_1f639e86dd05cae58c2a45cb24025185>@@PEAVScene@2Application@@$$V@std@@EEAAX_N@Z
pdata	ENDS
;	COMDAT pdata
pdata	SEGMENT
$pdata$??$_Reset_impl@V?$_Func_impl_no_alloc@V<lambda_1f639e86dd05cae58c2a45cb24025185>@@PEAVScene@2Application@@$$V@std@@V<lambda_1f639e86dd05cae58c2a45cb24025185>@@@?$_Func_class@PEAVScene@1Application@@$$V@std@@IEAAX$$QEAV<lambda_1f639e86dd05cae58c2a45cb24025185>@@U?$integral_constant@_N$0A@@1@@Z DD imagerel ??$_Reset_impl@V?$_Func_impl_no_alloc@V<lambda_1f639e86dd05cae58c2a45cb24025185>@@PEAVScene@2Application@@$$V@std@@V<lambda_1f639e86dd05cae58c2a45cb24025185>@@@?$_Func_class@PEAVScene@1Application@@$$V@std@@IEAAX$$QEAV<lambda_1f639e86dd05cae58c2a45cb24025185>@@U?$integral_constant@_N$0A@@1@@Z
	DD	imagerel ??$_Reset_impl@V?$_Func_impl_no_alloc@V<lambda_1f639e86dd05cae58c2a45cb24025185>@@PEAVScene@2Application@@$$V@std@@V<lambda_1f639e86dd05cae58c2a45cb24025185>@@@?$_Func_class@PEAVScene@1Application@@$$V@std@@IEAAX$$QEAV<lambda_1f639e86dd05cae58c2a45cb24025185>@@U?$integral_constant@_N$0A@@1@@Z+90
	DD	imagerel $unwind$??$_Reset_impl@V?$_Func_impl_no_alloc@V<lambda_1f639e86dd05cae58c2a45cb24025185>@@PEAVScene@2Application@@$$V@std@@V<lambda_1f639e86dd05cae58c2a45cb24025185>@@@?$_Func_class@PEAVScene@1Application@@$$V@std@@IEAAX$$QEAV<lambda_1f639e86dd05cae58c2a45cb24025185>@@U?$integral_constant@_N$0A@@1@@Z
pdata	ENDS
;	COMDAT pdata
pdata	SEGMENT
$pdata$??$_Test_callable@V<lambda_8a87a946287cf0625355d2c413df9209>@@@std@@YA_NAEBV<lambda_8a87a946287cf0625355d2c413df9209>@@@Z DD imagerel ??$_Test_callable@V<lambda_8a87a946287cf0625355d2c413df9209>@@@std@@YA_NAEBV<lambda_8a87a946287cf0625355d2c413df9209>@@@Z
	DD	imagerel ??$_Test_callable@V<lambda_8a87a946287cf0625355d2c413df9209>@@@std@@YA_NAEBV<lambda_8a87a946287cf0625355d2c413df9209>@@@Z+34
	DD	imagerel $unwind$??$_Test_callable@V<lambda_8a87a946287cf0625355d2c413df9209>@@@std@@YA_NAEBV<lambda_8a87a946287cf0625355d2c413df9209>@@@Z
pdata	ENDS
;	COMDAT pdata
pdata	SEGMENT
$pdata$?_Copy@?$_Func_impl_no_alloc@V<lambda_8a87a946287cf0625355d2c413df9209>@@PEAVScene@2Application@@$$V@std@@EEBAPEAV?$_Func_base@PEAVScene@1Application@@$$V@2@PEAX@Z DD imagerel ?_Copy@?$_Func_impl_no_alloc@V<lambda_8a87a946287cf0625355d2c413df9209>@@PEAVScene@2Application@@$$V@std@@EEBAPEAV?$_Func_base@PEAVScene@1Application@@$$V@2@PEAX@Z
	DD	imagerel ?_Copy@?$_Func_impl_no_alloc@V<lambda_8a87a946287cf0625355d2c413df9209>@@PEAVScene@2Application@@$$V@std@@EEBAPEAV?$_Func_base@PEAVScene@1Application@@$$V@2@PEAX@Z+44
	DD	imagerel $unwind$?_Copy@?$_Func_impl_no_alloc@V<lambda_8a87a946287cf0625355d2c413df9209>@@PEAVScene@2Application@@$$V@std@@EEBAPEAV?$_Func_base@PEAVScene@1Application@@$$V@2@PEAX@Z
pdata	ENDS
;	COMDAT pdata
pdata	SEGMENT
$pdata$?_Clone@?$_Func_impl_no_alloc@V<lambda_8a87a946287cf0625355d2c413df9209>@@PEAVScene@2Application@@$$V@std@@AEBAPEAV?$_Func_base@PEAVScene@1Application@@$$V@2@PEAXU?$integral_constant@_N$0A@@2@@Z DD imagerel ?_Clone@?$_Func_impl_no_alloc@V<lambda_8a87a946287cf0625355d2c413df9209>@@PEAVScene@2Application@@$$V@std@@AEBAPEAV?$_Func_base@PEAVScene@1Application@@$$V@2@PEAXU?$integral_constant@_N$0A@@2@@Z
	DD	imagerel ?_Clone@?$_Func_impl_no_alloc@V<lambda_8a87a946287cf0625355d2c413df9209>@@PEAVScene@2Application@@$$V@std@@AEBAPEAV?$_Func_base@PEAVScene@1Application@@$$V@2@PEAXU?$integral_constant@_N$0A@@2@@Z+69
	DD	imagerel $unwind$?_Clone@?$_Func_impl_no_alloc@V<lambda_8a87a946287cf0625355d2c413df9209>@@PEAVScene@2Application@@$$V@std@@AEBAPEAV?$_Func_base@PEAVScene@1Application@@$$V@2@PEAXU?$integral_constant@_N$0A@@2@@Z
pdata	ENDS
;	COMDAT pdata
pdata	SEGMENT
$pdata$?_Move@?$_Func_impl_no_alloc@V<lambda_8a87a946287cf0625355d2c413df9209>@@PEAVScene@2Application@@$$V@std@@EEAAPEAV?$_Func_base@PEAVScene@1Application@@$$V@2@PEAX@Z DD imagerel ?_Move@?$_Func_impl_no_alloc@V<lambda_8a87a946287cf0625355d2c413df9209>@@PEAVScene@2Application@@$$V@std@@EEAAPEAV?$_Func_base@PEAVScene@1Application@@$$V@2@PEAX@Z
	DD	imagerel ?_Move@?$_Func_impl_no_alloc@V<lambda_8a87a946287cf0625355d2c413df9209>@@PEAVScene@2Application@@$$V@std@@EEAAPEAV?$_Func_base@PEAVScene@1Application@@$$V@2@PEAX@Z+72
	DD	imagerel $unwind$?_Move@?$_Func_impl_no_alloc@V<lambda_8a87a946287cf0625355d2c413df9209>@@PEAVScene@2Application@@$$V@std@@EEAAPEAV?$_Func_base@PEAVScene@1Application@@$$V@2@PEAX@Z
pdata	ENDS
;	COMDAT pdata
pdata	SEGMENT
$pdata$?_Do_call@?$_Func_impl_no_alloc@V<lambda_8a87a946287cf0625355d2c413df9209>@@PEAVScene@2Application@@$$V@std@@EEAAPEAVScene@3Application@@XZ DD imagerel ?_Do_call@?$_Func_impl_no_alloc@V<lambda_8a87a946287cf0625355d2c413df9209>@@PEAVScene@2Application@@$$V@std@@EEAAPEAVScene@3Application@@XZ
	DD	imagerel ?_Do_call@?$_Func_impl_no_alloc@V<lambda_8a87a946287cf0625355d2c413df9209>@@PEAVScene@2Application@@$$V@std@@EEAAPEAVScene@3Application@@XZ+37
	DD	imagerel $unwind$?_Do_call@?$_Func_impl_no_alloc@V<lambda_8a87a946287cf0625355d2c413df9209>@@PEAVScene@2Application@@$$V@std@@EEAAPEAVScene@3Application@@XZ
pdata	ENDS
;	COMDAT pdata
pdata	SEGMENT
$pdata$?_Target_type@?$_Func_impl_no_alloc@V<lambda_8a87a946287cf0625355d2c413df9209>@@PEAVScene@2Application@@$$V@std@@EEBAAEBVtype_info@@XZ DD imagerel ?_Target_type@?$_Func_impl_no_alloc@V<lambda_8a87a946287cf0625355d2c413df9209>@@PEAVScene@2Application@@$$V@std@@EEBAAEBVtype_info@@XZ
	DD	imagerel ?_Target_type@?$_Func_impl_no_alloc@V<lambda_8a87a946287cf0625355d2c413df9209>@@PEAVScene@2Application@@$$V@std@@EEBAAEBVtype_info@@XZ+26
	DD	imagerel $unwind$?_Target_type@?$_Func_impl_no_alloc@V<lambda_8a87a946287cf0625355d2c413df9209>@@PEAVScene@2Application@@$$V@std@@EEBAAEBVtype_info@@XZ
pdata	ENDS
;	COMDAT pdata
pdata	SEGMENT
$pdata$?_Get@?$_Func_impl_no_alloc@V<lambda_8a87a946287cf0625355d2c413df9209>@@PEAVScene@2Application@@$$V@std@@EEBAPEBXXZ DD imagerel ?_Get@?$_Func_impl_no_alloc@V<lambda_8a87a946287cf0625355d2c413df9209>@@PEAVScene@2Application@@$$V@std@@EEBAPEBXXZ
	DD	imagerel ?_Get@?$_Func_impl_no_alloc@V<lambda_8a87a946287cf0625355d2c413df9209>@@PEAVScene@2Application@@$$V@std@@EEBAPEBXXZ+37
	DD	imagerel $unwind$?_Get@?$_Func_impl_no_alloc@V<lambda_8a87a946287cf0625355d2c413df9209>@@PEAVScene@2Application@@$$V@std@@EEBAPEBXXZ
pdata	ENDS
;	COMDAT pdata
pdata	SEGMENT
$pdata$?_Delete_this@?$_Func_impl_no_alloc@V<lambda_8a87a946287cf0625355d2c413df9209>@@PEAVScene@2Application@@$$V@std@@EEAAX_N@Z DD imagerel ?_Delete_this@?$_Func_impl_no_alloc@V<lambda_8a87a946287cf0625355d2c413df9209>@@PEAVScene@2Application@@$$V@std@@EEAAX_N@Z
	DD	imagerel ?_Delete_this@?$_Func_impl_no_alloc@V<lambda_8a87a946287cf0625355d2c413df9209>@@PEAVScene@2Application@@$$V@std@@EEAAX_N@Z+56
	DD	imagerel $unwind$?_Delete_this@?$_Func_impl_no_alloc@V<lambda_8a87a946287cf0625355d2c413df9209>@@PEAVScene@2Application@@$$V@std@@EEAAX_N@Z
pdata	ENDS
;	COMDAT pdata
pdata	SEGMENT
$pdata$??$_Reset_impl@V?$_Func_impl_no_alloc@V<lambda_8a87a946287cf0625355d2c413df9209>@@PEAVScene@2Application@@$$V@std@@V<lambda_8a87a946287cf0625355d2c413df9209>@@@?$_Func_class@PEAVScene@1Application@@$$V@std@@IEAAX$$QEAV<lambda_8a87a946287cf0625355d2c413df9209>@@U?$integral_constant@_N$0A@@1@@Z DD imagerel ??$_Reset_impl@V?$_Func_impl_no_alloc@V<lambda_8a87a946287cf0625355d2c413df9209>@@PEAVScene@2Application@@$$V@std@@V<lambda_8a87a946287cf0625355d2c413df9209>@@@?$_Func_class@PEAVScene@1Application@@$$V@std@@IEAAX$$QEAV<lambda_8a87a946287cf0625355d2c413df9209>@@U?$integral_constant@_N$0A@@1@@Z
	DD	imagerel ??$_Reset_impl@V?$_Func_impl_no_alloc@V<lambda_8a87a946287cf0625355d2c413df9209>@@PEAVScene@2Application@@$$V@std@@V<lambda_8a87a946287cf0625355d2c413df9209>@@@?$_Func_class@PEAVScene@1Application@@$$V@std@@IEAAX$$QEAV<lambda_8a87a946287cf0625355d2c413df9209>@@U?$integral_constant@_N$0A@@1@@Z+90
	DD	imagerel $unwind$??$_Reset_impl@V?$_Func_impl_no_alloc@V<lambda_8a87a946287cf0625355d2c413df9209>@@PEAVScene@2Application@@$$V@std@@V<lambda_8a87a946287cf0625355d2c413df9209>@@@?$_Func_class@PEAVScene@1Application@@$$V@std@@IEAAX$$QEAV<lambda_8a87a946287cf0625355d2c413df9209>@@U?$integral_constant@_N$0A@@1@@Z
pdata	ENDS
;	COMDAT pdata
pdata	SEGMENT
$pdata$??$_Test_callable@V<lambda_f04c6ff6a0f44a3600e7c5996fdf93c3>@@@std@@YA_NAEBV<lambda_f04c6ff6a0f44a3600e7c5996fdf93c3>@@@Z DD imagerel ??$_Test_callable@V<lambda_f04c6ff6a0f44a3600e7c5996fdf93c3>@@@std@@YA_NAEBV<lambda_f04c6ff6a0f44a3600e7c5996fdf93c3>@@@Z
	DD	imagerel ??$_Test_callable@V<lambda_f04c6ff6a0f44a3600e7c5996fdf93c3>@@@std@@YA_NAEBV<lambda_f04c6ff6a0f44a3600e7c5996fdf93c3>@@@Z+34
	DD	imagerel $unwind$??$_Test_callable@V<lambda_f04c6ff6a0f44a3600e7c5996fdf93c3>@@@std@@YA_NAEBV<lambda_f04c6ff6a0f44a3600e7c5996fdf93c3>@@@Z
pdata	ENDS
;	COMDAT pdata
pdata	SEGMENT
