; Listing generated by Microsoft (R) Optimizing Compiler Version 19.15.26726.0 

include listing.inc

INCLUDELIB MSVCRTD
INCLUDELIB OLDNAMES

msvcjmc	SEGMENT
__C3726024_vcruntime_new.h DB 01H
__ACA0BEE6_malloc.h DB 01H
__388D9910_stdlib.h DB 01H
__AF9067BE_corecrt_math.h DB 01H
__F0F1F39B_cstdlib DB 01H
__6C905C6A_type_traits DB 01H
__80B6B68A_type_vec4_simd.inl DB 01H
__FC722CCB_xtgmath.h DB 01H
__5340138E_cmath DB 01H
__5DB10197_corecrt_memcpy_s.h DB 01H
__D40DD59F_corecrt_stdio_config.h DB 01H
__7EC77528_corecrt_wconio.h DB 01H
__5C7715BA_corecrt_wio.h DB 01H
__3AB8031F_corecrt_wstdio.h DB 01H
__7A0084B3_corecrt_wstring.h DB 01H
__8AE89E8D_corecrt_wtime.h DB 01H
__3F8BCAED_stat.h DB 01H
__5B5D5F1B_wchar.h DB 01H
__7FD60861_limits DB 01H
__E3872A82_exponential.h DB 01H
__9F28AA45_func_exponential_simd.inl DB 01H
__29A045F3_common.h DB 01H
__B7988A80_func_common.inl DB 01H
__24CAB0E6_geometric.h DB 01H
__97BCFF82_matrix.h DB 01H
__120E1A77_func_matrix_simd.inl DB 01H
__A6F69866_renderable2d.h DB 01H
__1AB859C2_vcruntime_exception.h DB 01H
__B20D35A8_exception DB 01H
__A57BBCE6_stdio.h DB 01H
__1F77EA16_corecrt_memory.h DB 01H
__BEFE0DB4_string.h DB 01H
__B33FDDE7_iosfwd DB 01H
__E8FD1B86_xutility DB 01H
__44F7D211_xatomic0.h DB 01H
__39AEDAD7_xmemory0 DB 01H
__3B430FF5_stdexcept DB 01H
__2E045A0E_renderer2d.h DB 01H
__6DC649C7_bufferlayout.h DB 01H
__29D2B671_ibo.h DB 01H
__8E8B64AE_type_half.inl DB 01H
__89F26D34_func_packing.inl DB 01H
__0491C86E_integer.h DB 01H
__E2916211_func_integer.inl DB 01H
__1E4AFF03_renderable3d.h DB 01H
__96B83D6B_renderer3d.h DB 01H
__768210A7_vcruntime_typeinfo.h DB 01H
__7A53EED8_ctype.h DB 01H
__87AB0B57_xlocinfo DB 01H
__C37804EF_memory DB 01H
__EF3D53E0_xfacet DB 01H
__0684E77E_xlocale DB 01H
__4552C965_xcall_once.h DB 01H
__FA0FDB45_system_error DB 01H
__BE4E7C44_xiosbase DB 01H
__98038169_xlocnum DB 01H
__F5D7447A_ios DB 01H
__B7AB8273_string DB 01H
__96066920_texture.h DB 01H
__62129A41_boid.cpp DB 01H
__327B7881_vector DB 01H
__D9BA934F_xstring DB 01H
__76440880_istream DB 01H
__15943DBA_ostream DB 01H
__39E3B749_streambuf DB 01H
__C7FC7610_utility DB 01H
__2F30B87A_type_vec2.inl DB 01H
__EEB2B1DD_type_vec2.hpp DB 01H
__125091CA_type_vec3.inl DB 01H
__D3D2986D_type_vec3.hpp DB 01H
__A0704DDA_type_vec4.inl DB 01H
__61F2447D_type_vec4.hpp DB 01H
__BF97B2F5_type_mat4x4.inl DB 01H
__30E3E102_xstddef DB 01H
__01BEA0FA_func_geometric.inl DB 01H
__7E15BB52_type_mat4x4.hpp DB 01H
__7419D44A__vectorize.hpp DB 01H
__AD6915D3_xmemory DB 01H
msvcjmc	ENDS
PUBLIC	??_H@YAXPEAX_K1P6APEAX0@Z@Z			; `vector constructor iterator'
PUBLIC	?__empty_global_delete@@YAXPEAX@Z		; __empty_global_delete
PUBLIC	?__empty_global_delete@@YAXPEAX_K@Z		; __empty_global_delete
PUBLIC	??2@YAPEAX_KPEAX@Z				; operator new
PUBLIC	?sqrt@@YAMM@Z					; sqrt
PUBLIC	?max@?$numeric_limits@_J@std@@SA_JXZ		; std::numeric_limits<__int64>::max
PUBLIC	??0?$tvec4@M$0A@@glm@@QEAA@M@Z			; glm::tvec4<float,0>::tvec4<float,0>
PUBLIC	??0?$tvec4@M$0A@@glm@@QEAA@MMMM@Z		; glm::tvec4<float,0>::tvec4<float,0>
PUBLIC	??0?$tvec2@M$0A@@glm@@QEAA@MM@Z			; glm::tvec2<float,0>::tvec2<float,0>
PUBLIC	??0_Container_proxy@std@@QEAA@XZ		; std::_Container_proxy::_Container_proxy
PUBLIC	??0_Container_base12@std@@QEAA@XZ		; std::_Container_base12::_Container_base12
PUBLIC	?_Getpfirst@_Container_base12@std@@QEBAPEAPEAU_Iterator_base12@2@XZ ; std::_Container_base12::_Getpfirst
PUBLIC	?_Orphan_all@_Container_base12@std@@QEAAXXZ	; std::_Container_base12::_Orphan_all
PUBLIC	?_Clrcont@_Iterator_base12@std@@QEAAXXZ		; std::_Iterator_base12::_Clrcont
PUBLIC	?_Getpnext@_Iterator_base12@std@@QEAAPEAPEAU12@XZ ; std::_Iterator_base12::_Getpnext
PUBLIC	?_Allocate@_Default_allocate_traits@std@@SAPEAX_K@Z ; std::_Default_allocate_traits::_Allocate
PUBLIC	?_Adjust_manually_vector_aligned@std@@YAXAEAPEAXAEA_K@Z ; std::_Adjust_manually_vector_aligned
PUBLIC	??$_Min_value@_K@std@@YAAEB_KAEB_K0@Z		; std::_Min_value<unsigned __int64>
PUBLIC	??0?$tvec3@M$0A@@glm@@QEAA@MMM@Z		; glm::tvec3<float,0>::tvec3<float,0>
PUBLIC	??0?$allocator@PEAVBoid@1Application@@@std@@QEAA@XZ ; std::allocator<Application::Boid::Boid *>::allocator<Application::Boid::Boid *>
PUBLIC	?deallocate@?$allocator@PEAVBoid@1Application@@@std@@QEAAXQEAPEAVBoid@3Application@@_K@Z ; std::allocator<Application::Boid::Boid *>::deallocate
PUBLIC	?allocate@?$allocator@PEAVBoid@1Application@@@std@@QEAAPEAPEAVBoid@3Application@@_K@Z ; std::allocator<Application::Boid::Boid *>::allocate
PUBLIC	?max_size@?$_Default_allocator_traits@V?$allocator@PEAVBoid@1Application@@@std@@@std@@SA_KAEBV?$allocator@PEAVBoid@1Application@@@2@@Z ; std::_Default_allocator_traits<std::allocator<Application::Boid::Boid *> >::max_size
PUBLIC	??0?$_Vector_alloc@U?$_Vec_base_types@PEAVBoid@1Application@@V?$allocator@PEAVBoid@1Application@@@std@@@std@@@std@@QEAA@XZ ; std::_Vector_alloc<std::_Vec_base_types<Application::Boid::Boid *,std::allocator<Application::Boid::Boid *> > >::_Vector_alloc<std::_Vec_base_types<Application::Boid::Boid *,std::allocator<Application::Boid::Boid *> > >
PUBLIC	??1?$_Vector_alloc@U?$_Vec_base_types@PEAVBoid@1Application@@V?$allocator@PEAVBoid@1Application@@@std@@@std@@@std@@QEAA@XZ ; std::_Vector_alloc<std::_Vec_base_types<Application::Boid::Boid *,std::allocator<Application::Boid::Boid *> > >::~_Vector_alloc<std::_Vec_base_types<Application::Boid::Boid *,std::allocator<Application::Boid::Boid *> > >
PUBLIC	?_Alloc_proxy@?$_Vector_alloc@U?$_Vec_base_types@PEAVBoid@1Application@@V?$allocator@PEAVBoid@1Application@@@std@@@std@@@std@@QEAAXXZ ; std::_Vector_alloc<std::_Vec_base_types<Application::Boid::Boid *,std::allocator<Application::Boid::Boid *> > >::_Alloc_proxy
PUBLIC	?_Free_proxy@?$_Vector_alloc@U?$_Vec_base_types@PEAVBoid@1Application@@V?$allocator@PEAVBoid@1Application@@@std@@@std@@@std@@QEAAXXZ ; std::_Vector_alloc<std::_Vec_base_types<Application::Boid::Boid *,std::allocator<Application::Boid::Boid *> > >::_Free_proxy
PUBLIC	?_Getpfirst@?$_Vector_alloc@U?$_Vec_base_types@PEAVBoid@1Application@@V?$allocator@PEAVBoid@1Application@@@std@@@std@@@std@@QEBAPEAPEAU_Iterator_base12@2@XZ ; std::_Vector_alloc<std::_Vec_base_types<Application::Boid::Boid *,std::allocator<Application::Boid::Boid *> > >::_Getpfirst
PUBLIC	?_Myproxy@?$_Vector_alloc@U?$_Vec_base_types@PEAVBoid@1Application@@V?$allocator@PEAVBoid@1Application@@@std@@@std@@@std@@QEAAAEAPEAU_Container_proxy@2@XZ ; std::_Vector_alloc<std::_Vec_base_types<Application::Boid::Boid *,std::allocator<Application::Boid::Boid *> > >::_Myproxy
PUBLIC	?_Orphan_all@?$_Vector_alloc@U?$_Vec_base_types@PEAVBoid@1Application@@V?$allocator@PEAVBoid@1Application@@@std@@@std@@@std@@QEAAXXZ ; std::_Vector_alloc<std::_Vec_base_types<Application::Boid::Boid *,std::allocator<Application::Boid::Boid *> > >::_Orphan_all
PUBLIC	?_Getal@?$_Vector_alloc@U?$_Vec_base_types@PEAVBoid@1Application@@V?$allocator@PEAVBoid@1Application@@@std@@@std@@@std@@QEAAAEAV?$allocator@PEAVBoid@1Application@@@2@XZ ; std::_Vector_alloc<std::_Vec_base_types<Application::Boid::Boid *,std::allocator<Application::Boid::Boid *> > >::_Getal
PUBLIC	?_Getal@?$_Vector_alloc@U?$_Vec_base_types@PEAVBoid@1Application@@V?$allocator@PEAVBoid@1Application@@@std@@@std@@@std@@QEBAAEBV?$allocator@PEAVBoid@1Application@@@2@XZ ; std::_Vector_alloc<std::_Vec_base_types<Application::Boid::Boid *,std::allocator<Application::Boid::Boid *> > >::_Getal
PUBLIC	?_Get_data@?$_Vector_alloc@U?$_Vec_base_types@PEAVBoid@1Application@@V?$allocator@PEAVBoid@1Application@@@std@@@std@@@std@@QEAAAEAV?$_Vector_val@U?$_Simple_types@PEAVBoid@1Application@@@std@@@2@XZ ; std::_Vector_alloc<std::_Vec_base_types<Application::Boid::Boid *,std::allocator<Application::Boid::Boid *> > >::_Get_data
PUBLIC	?_Get_data@?$_Vector_alloc@U?$_Vec_base_types@PEAVBoid@1Application@@V?$allocator@PEAVBoid@1Application@@@std@@@std@@@std@@QEBAAEBV?$_Vector_val@U?$_Simple_types@PEAVBoid@1Application@@@std@@@2@XZ ; std::_Vector_alloc<std::_Vec_base_types<Application::Boid::Boid *,std::allocator<Application::Boid::Boid *> > >::_Get_data
PUBLIC	?_Myfirst@?$_Vector_alloc@U?$_Vec_base_types@PEAVBoid@1Application@@V?$allocator@PEAVBoid@1Application@@@std@@@std@@@std@@QEAAAEAPEAPEAVBoid@3Application@@XZ ; std::_Vector_alloc<std::_Vec_base_types<Application::Boid::Boid *,std::allocator<Application::Boid::Boid *> > >::_Myfirst
PUBLIC	?_Myfirst@?$_Vector_alloc@U?$_Vec_base_types@PEAVBoid@1Application@@V?$allocator@PEAVBoid@1Application@@@std@@@std@@@std@@QEBAAEBQEAPEAVBoid@3Application@@XZ ; std::_Vector_alloc<std::_Vec_base_types<Application::Boid::Boid *,std::allocator<Application::Boid::Boid *> > >::_Myfirst
PUBLIC	?_Mylast@?$_Vector_alloc@U?$_Vec_base_types@PEAVBoid@1Application@@V?$allocator@PEAVBoid@1Application@@@std@@@std@@@std@@QEAAAEAPEAPEAVBoid@3Application@@XZ ; std::_Vector_alloc<std::_Vec_base_types<Application::Boid::Boid *,std::allocator<Application::Boid::Boid *> > >::_Mylast
PUBLIC	?_Mylast@?$_Vector_alloc@U?$_Vec_base_types@PEAVBoid@1Application@@V?$allocator@PEAVBoid@1Application@@@std@@@std@@@std@@QEBAAEBQEAPEAVBoid@3Application@@XZ ; std::_Vector_alloc<std::_Vec_base_types<Application::Boid::Boid *,std::allocator<Application::Boid::Boid *> > >::_Mylast
PUBLIC	?_Myend@?$_Vector_alloc@U?$_Vec_base_types@PEAVBoid@1Application@@V?$allocator@PEAVBoid@1Application@@@std@@@std@@@std@@QEAAAEAPEAPEAVBoid@3Application@@XZ ; std::_Vector_alloc<std::_Vec_base_types<Application::Boid::Boid *,std::allocator<Application::Boid::Boid *> > >::_Myend
PUBLIC	?_Myend@?$_Vector_alloc@U?$_Vec_base_types@PEAVBoid@1Application@@V?$allocator@PEAVBoid@1Application@@@std@@@std@@@std@@QEBAAEBQEAPEAVBoid@3Application@@XZ ; std::_Vector_alloc<std::_Vec_base_types<Application::Boid::Boid *,std::allocator<Application::Boid::Boid *> > >::_Myend
PUBLIC	??0?$_Vector_val@U?$_Simple_types@PEAVBoid@1Application@@@std@@@std@@QEAA@XZ ; std::_Vector_val<std::_Simple_types<Application::Boid::Boid *> >::_Vector_val<std::_Simple_types<Application::Boid::Boid *> >
PUBLIC	?_Get_first@?$_Compressed_pair@V?$allocator@PEAVBoid@1Application@@@std@@V?$_Vector_val@U?$_Simple_types@PEAVBoid@1Application@@@std@@@2@$00@std@@QEAAAEAV?$allocator@PEAVBoid@1Application@@@2@XZ ; std::_Compressed_pair<std::allocator<Application::Boid::Boid *>,std::_Vector_val<std::_Simple_types<Application::Boid::Boid *> >,1>::_Get_first
PUBLIC	?_Get_first@?$_Compressed_pair@V?$allocator@PEAVBoid@1Application@@@std@@V?$_Vector_val@U?$_Simple_types@PEAVBoid@1Application@@@std@@@2@$00@std@@QEBAAEBV?$allocator@PEAVBoid@1Application@@@2@XZ ; std::_Compressed_pair<std::allocator<Application::Boid::Boid *>,std::_Vector_val<std::_Simple_types<Application::Boid::Boid *> >,1>::_Get_first
PUBLIC	?_Get_second@?$_Compressed_pair@V?$allocator@PEAVBoid@1Application@@@std@@V?$_Vector_val@U?$_Simple_types@PEAVBoid@1Application@@@std@@@2@$00@std@@QEAAAEAV?$_Vector_val@U?$_Simple_types@PEAVBoid@1Application@@@std@@@2@XZ ; std::_Compressed_pair<std::allocator<Application::Boid::Boid *>,std::_Vector_val<std::_Simple_types<Application::Boid::Boid *> >,1>::_Get_second
PUBLIC	?_Get_second@?$_Compressed_pair@V?$allocator@PEAVBoid@1Application@@@std@@V?$_Vector_val@U?$_Simple_types@PEAVBoid@1Application@@@std@@@2@$00@std@@QEBAAEBV?$_Vector_val@U?$_Simple_types@PEAVBoid@1Application@@@std@@@2@XZ ; std::_Compressed_pair<std::allocator<Application::Boid::Boid *>,std::_Vector_val<std::_Simple_types<Application::Boid::Boid *> >,1>::_Get_second
PUBLIC	??0?$vector@PEAVBoid@1Application@@V?$allocator@PEAVBoid@1Application@@@std@@@std@@QEAA@XZ ; std::vector<Application::Boid::Boid *,std::allocator<Application::Boid::Boid *> >::vector<Application::Boid::Boid *,std::allocator<Application::Boid::Boid *> >
PUBLIC	??1?$vector@PEAVBoid@1Application@@V?$allocator@PEAVBoid@1Application@@@std@@@std@@QEAA@XZ ; std::vector<Application::Boid::Boid *,std::allocator<Application::Boid::Boid *> >::~vector<Application::Boid::Boid *,std::allocator<Application::Boid::Boid *> >
PUBLIC	?push_back@?$vector@PEAVBoid@1Application@@V?$allocator@PEAVBoid@1Application@@@std@@@std@@QEAAXAEBQEAVBoid@3Application@@@Z ; std::vector<Application::Boid::Boid *,std::allocator<Application::Boid::Boid *> >::push_back
PUBLIC	?clear@?$vector@PEAVBoid@1Application@@V?$allocator@PEAVBoid@1Application@@@std@@@std@@QEAAXXZ ; std::vector<Application::Boid::Boid *,std::allocator<Application::Boid::Boid *> >::clear
PUBLIC	?size@?$vector@PEAVBoid@1Application@@V?$allocator@PEAVBoid@1Application@@@std@@@std@@QEBA_KXZ ; std::vector<Application::Boid::Boid *,std::allocator<Application::Boid::Boid *> >::size
PUBLIC	?max_size@?$vector@PEAVBoid@1Application@@V?$allocator@PEAVBoid@1Application@@@std@@@std@@QEBA_KXZ ; std::vector<Application::Boid::Boid *,std::allocator<Application::Boid::Boid *> >::max_size
PUBLIC	?capacity@?$vector@PEAVBoid@1Application@@V?$allocator@PEAVBoid@1Application@@@std@@@std@@QEBA_KXZ ; std::vector<Application::Boid::Boid *,std::allocator<Application::Boid::Boid *> >::capacity
PUBLIC	?_Has_unused_capacity@?$vector@PEAVBoid@1Application@@V?$allocator@PEAVBoid@1Application@@@std@@@std@@AEBA_NXZ ; std::vector<Application::Boid::Boid *,std::allocator<Application::Boid::Boid *> >::_Has_unused_capacity
PUBLIC	??A?$vector@PEAVBoid@1Application@@V?$allocator@PEAVBoid@1Application@@@std@@@std@@QEAAAEAPEAVBoid@2Application@@_K@Z ; std::vector<Application::Boid::Boid *,std::allocator<Application::Boid::Boid *> >::operator[]
PUBLIC	??A?$vector@PEAVBoid@1Application@@V?$allocator@PEAVBoid@1Application@@@std@@@std@@QEBAAEBQEAVBoid@2Application@@_K@Z ; std::vector<Application::Boid::Boid *,std::allocator<Application::Boid::Boid *> >::operator[]
PUBLIC	?_Umove@?$vector@PEAVBoid@1Application@@V?$allocator@PEAVBoid@1Application@@@std@@@std@@AEAAPEAPEAVBoid@3Application@@PEAPEAV334@00@Z ; std::vector<Application::Boid::Boid *,std::allocator<Application::Boid::Boid *> >::_Umove
PUBLIC	?_Umove_if_noexcept1@?$vector@PEAVBoid@1Application@@V?$allocator@PEAVBoid@1Application@@@std@@@std@@AEAAXPEAPEAVBoid@3Application@@00U?$integral_constant@_N$00@2@@Z ; std::vector<Application::Boid::Boid *,std::allocator<Application::Boid::Boid *> >::_Umove_if_noexcept1
PUBLIC	?_Umove_if_noexcept@?$vector@PEAVBoid@1Application@@V?$allocator@PEAVBoid@1Application@@@std@@@std@@AEAAXPEAPEAVBoid@3Application@@00@Z ; std::vector<Application::Boid::Boid *,std::allocator<Application::Boid::Boid *> >::_Umove_if_noexcept
PUBLIC	?_Destroy@?$vector@PEAVBoid@1Application@@V?$allocator@PEAVBoid@1Application@@@std@@@std@@AEAAXPEAPEAVBoid@3Application@@0@Z ; std::vector<Application::Boid::Boid *,std::allocator<Application::Boid::Boid *> >::_Destroy
PUBLIC	?_Calculate_growth@?$vector@PEAVBoid@1Application@@V?$allocator@PEAVBoid@1Application@@@std@@@std@@AEBA_K_K@Z ; std::vector<Application::Boid::Boid *,std::allocator<Application::Boid::Boid *> >::_Calculate_growth
PUBLIC	?_Change_array@?$vector@PEAVBoid@1Application@@V?$allocator@PEAVBoid@1Application@@@std@@@std@@AEAAXQEAPEAVBoid@3Application@@_K1@Z ; std::vector<Application::Boid::Boid *,std::allocator<Application::Boid::Boid *> >::_Change_array
PUBLIC	?_Tidy@?$vector@PEAVBoid@1Application@@V?$allocator@PEAVBoid@1Application@@@std@@@std@@AEAAXXZ ; std::vector<Application::Boid::Boid *,std::allocator<Application::Boid::Boid *> >::_Tidy
PUBLIC	?_Xlength@?$vector@PEAVBoid@1Application@@V?$allocator@PEAVBoid@1Application@@@std@@@std@@CAXXZ ; std::vector<Application::Boid::Boid *,std::allocator<Application::Boid::Boid *> >::_Xlength
PUBLIC	?_Orphan_range@?$vector@PEAVBoid@1Application@@V?$allocator@PEAVBoid@1Application@@@std@@@std@@AEBAXPEAPEAVBoid@3Application@@0@Z ; std::vector<Application::Boid::Boid *,std::allocator<Application::Boid::Boid *> >::_Orphan_range
PUBLIC	??0Boid@0Application@@QEAA@MMAEBU?$tvec4@M$0A@@glm@@@Z ; Application::Boid::Boid::Boid
PUBLIC	??0Boid@0Application@@QEAA@MMI@Z		; Application::Boid::Boid::Boid
PUBLIC	??1Boid@0Application@@UEAA@XZ			; Application::Boid::Boid::~Boid
PUBLIC	?updatePos@Boid@1Application@@QEAAXXZ		; Application::Boid::Boid::updatePos
PUBLIC	?updateFlockMates@Boid@1Application@@QEAAXAEBV?$vector@PEAVBoid@1Application@@V?$allocator@PEAVBoid@1Application@@@std@@@std@@@Z ; Application::Boid::Boid::updateFlockMates
PUBLIC	?updateSteer@Boid@1Application@@QEAAXXZ		; Application::Boid::Boid::updateSteer
PUBLIC	?inRadius@Boid@1Application@@AEBA_NPEBV112@@Z	; Application::Boid::Boid::inRadius
PUBLIC	??_GBoid@0Application@@UEAAPEAXI@Z		; Application::Boid::Boid::`scalar deleting destructor'
PUBLIC	??$?YM@?$tvec2@M$0A@@glm@@QEAAAEAU01@AEBU01@@Z	; glm::tvec2<float,0>::operator+=<float>
PUBLIC	??$length@M$0A@Utvec2@glm@@@glm@@YAMAEBU?$tvec2@M$0A@@0@@Z ; glm::length<float,0,glm::tvec2>
PUBLIC	??$?_0M@?$tvec2@M$0A@@glm@@QEAAAEAU01@M@Z	; glm::tvec2<float,0>::operator/=<float>
PUBLIC	??$?GM$0A@@glm@@YA?AU?$tvec4@M$0A@@0@AEBU10@0@Z	; glm::operator-<float,0>
PUBLIC	??$length@M$0A@Utvec4@glm@@@glm@@YAMAEBU?$tvec4@M$0A@@0@@Z ; glm::length<float,0,glm::tvec4>
PUBLIC	??$?0M$0A@@?$tvec3@M$0A@@glm@@QEAA@AEBU?$tvec4@M$0A@@1@@Z ; glm::tvec3<float,0>::tvec3<float,0><float,0>
PUBLIC	??$length@M$0A@Utvec3@glm@@@glm@@YAMAEBU?$tvec3@M$0A@@0@@Z ; glm::length<float,0,glm::tvec3>
PUBLIC	??$?_0M@?$tvec3@M$0A@@glm@@QEAAAEAU01@M@Z	; glm::tvec3<float,0>::operator/=<float>
PUBLIC	??$?YM@?$tvec3@M$0A@@glm@@QEAAAEAU01@AEBU01@@Z	; glm::tvec3<float,0>::operator+=<float>
PUBLIC	??$?XH@?$tvec3@M$0A@@glm@@QEAAAEAU01@H@Z	; glm::tvec3<float,0>::operator*=<int>
PUBLIC	??$?YM@?$tvec4@M$0A@@glm@@QEAAAEAU01@AEBU01@@Z	; glm::tvec4<float,0>::operator+=<float>
PUBLIC	??$?_0_K@?$tvec4@M$0A@@glm@@QEAAAEAU01@_K@Z	; glm::tvec4<float,0>::operator/=<unsigned __int64>
PUBLIC	??$?_0M@?$tvec4@M$0A@@glm@@QEAAAEAU01@M@Z	; glm::tvec4<float,0>::operator/=<float>
PUBLIC	??$emplace_back@AEBQEAVBoid@1Application@@@?$vector@PEAVBoid@1Application@@V?$allocator@PEAVBoid@1Application@@@std@@@std@@QEAA@AEBQEAVBoid@2Application@@@Z ; std::vector<Application::Boid::Boid *,std::allocator<Application::Boid::Boid *> >::emplace_back<Application::Boid::Boid * const &>
PUBLIC	??$forward@AEBQEAVBoid@1Application@@@std@@YAAEBQEAVBoid@1Application@@AEBQEAV112@@Z ; std::forward<Application::Boid::Boid * const &>
PUBLIC	??$_Emplace_back_with_unused_capacity@AEBQEAVBoid@1Application@@@?$vector@PEAVBoid@1Application@@V?$allocator@PEAVBoid@1Application@@@std@@@std@@AEAA@AEBQEAVBoid@2Application@@@Z ; std::vector<Application::Boid::Boid *,std::allocator<Application::Boid::Boid *> >::_Emplace_back_with_unused_capacity<Application::Boid::Boid * const &>
PUBLIC	??$_Unfancy@PEAVBoid@1Application@@@std@@YAPEAPEAVBoid@1Application@@PEAPEAV112@@Z ; std::_Unfancy<Application::Boid::Boid *>
PUBLIC	??$construct@PEAVBoid@1Application@@AEBQEAV112@@?$_Default_allocator_traits@V?$allocator@PEAVBoid@1Application@@@std@@@std@@SAXAEAV?$allocator@PEAVBoid@1Application@@@1@QEAPEAVBoid@3Application@@AEBQEAV334@@Z ; std::_Default_allocator_traits<std::allocator<Application::Boid::Boid *> >::construct<Application::Boid::Boid *,Application::Boid::Boid * const &>
PUBLIC	??$_Emplace_reallocate@AEBQEAVBoid@1Application@@@?$vector@PEAVBoid@1Application@@V?$allocator@PEAVBoid@1Application@@@std@@@std@@QEAAPEAPEAVBoid@2Application@@QEAPEAV223@AEBQEAV223@@Z ; std::vector<Application::Boid::Boid *,std::allocator<Application::Boid::Boid *> >::_Emplace_reallocate<Application::Boid::Boid * const &>
PUBLIC	??$?0$$V@?$_Compressed_pair@V?$allocator@PEAVBoid@1Application@@@std@@V?$_Vector_val@U?$_Simple_types@PEAVBoid@1Application@@@std@@@2@$00@std@@QEAA@U_Zero_then_variadic_args_t@1@@Z ; std::_Compressed_pair<std::allocator<Application::Boid::Boid *>,std::_Vector_val<std::_Simple_types<Application::Boid::Boid *> >,1>::_Compressed_pair<std::allocator<Application::Boid::Boid *>,std::_Vector_val<std::_Simple_types<Application::Boid::Boid *> >,1><>
PUBLIC	??$_Destroy_range@V?$allocator@PEAVBoid@1Application@@@std@@@std@@YAXPEAPEAVBoid@1Application@@0AEAV?$allocator@PEAVBoid@1Application@@@0@@Z ; std::_Destroy_range<std::allocator<Application::Boid::Boid *> >
PUBLIC	??$_Allocate@$0BA@U_Default_allocate_traits@std@@$0A@@std@@YAPEAX_K@Z ; std::_Allocate<16,std::_Default_allocate_traits,0>
PUBLIC	??$_Deallocate@$0BA@$0A@@std@@YAXPEAX_K@Z	; std::_Deallocate<16,0>
PUBLIC	?allocate@?$allocator@U_Container_proxy@std@@@std@@QEAAPEAU_Container_proxy@2@_K@Z ; std::allocator<std::_Container_proxy>::allocate
PUBLIC	??$?0PEAVBoid@0Application@@@?$allocator@U_Container_proxy@std@@@std@@QEAA@AEBV?$allocator@PEAVBoid@1Application@@@1@@Z ; std::allocator<std::_Container_proxy>::allocator<std::_Container_proxy><Application::Boid::Boid *>
PUBLIC	?deallocate@?$_Default_allocator_traits@V?$allocator@U_Container_proxy@std@@@std@@@std@@SAXAEAV?$allocator@U_Container_proxy@std@@@2@QEAU_Container_proxy@2@_K@Z ; std::_Default_allocator_traits<std::allocator<std::_Container_proxy> >::deallocate
PUBLIC	??$destroy@U_Container_proxy@std@@@?$_Default_allocator_traits@V?$allocator@U_Container_proxy@std@@@std@@@std@@SAXAEAV?$allocator@U_Container_proxy@std@@@1@QEAU_Container_proxy@1@@Z ; std::_Default_allocator_traits<std::allocator<std::_Container_proxy> >::destroy<std::_Container_proxy>
PUBLIC	??$_Deallocate_plain@V?$allocator@U_Container_proxy@std@@@std@@$0A@@std@@YAXAEAV?$allocator@U_Container_proxy@std@@@0@QEAU_Container_proxy@0@@Z ; std::_Deallocate_plain<std::allocator<std::_Container_proxy>,0>
PUBLIC	??$_Unfancy@U_Container_proxy@std@@@std@@YAPEAU_Container_proxy@0@PEAU10@@Z ; std::_Unfancy<std::_Container_proxy>
PUBLIC	??$construct@U_Container_proxy@std@@U12@@?$_Default_allocator_traits@V?$allocator@U_Container_proxy@std@@@std@@@std@@SAXAEAV?$allocator@U_Container_proxy@std@@@1@QEAU_Container_proxy@1@$$QEAU31@@Z ; std::_Default_allocator_traits<std::allocator<std::_Container_proxy> >::construct<std::_Container_proxy,std::_Container_proxy>
PUBLIC	??$addressof@V?$_Vector_val@U?$_Simple_types@PEAVBoid@1Application@@@std@@@std@@@std@@YAPEAV?$_Vector_val@U?$_Simple_types@PEAVBoid@1Application@@@std@@@0@AEAV10@@Z ; std::addressof<std::_Vector_val<std::_Simple_types<Application::Boid::Boid *> > >
PUBLIC	??$_Get_size_of_n@$0BA@@std@@YA_K_K@Z		; std::_Get_size_of_n<16>
PUBLIC	?call@?$compute_length@Utvec2@glm@@M$0A@$0A@@detail@glm@@SAMAEBU?$tvec2@M$0A@@3@@Z ; glm::detail::compute_length<glm::tvec2,float,0,0>::call
PUBLIC	??$?ZM@?$tvec4@M$0A@@glm@@QEAAAEAU01@AEBU01@@Z	; glm::tvec4<float,0>::operator-=<float>
PUBLIC	?call@?$compute_length@Utvec4@glm@@M$0A@$0A@@detail@glm@@SAMAEBU?$tvec4@M$0A@@3@@Z ; glm::detail::compute_length<glm::tvec4,float,0,0>::call
PUBLIC	?call@?$compute_length@Utvec3@glm@@M$0A@$0A@@detail@glm@@SAMAEBU?$tvec3@M$0A@@3@@Z ; glm::detail::compute_length<glm::tvec3,float,0,0>::call
PUBLIC	?call@?$compute_vec4_add@M$0A@$0A@@detail@glm@@SA?AU?$tvec4@M$0A@@3@AEBU43@0@Z ; glm::detail::compute_vec4_add<float,0,0>::call
PUBLIC	?call@?$compute_vec4_div@M$0A@$0A@@detail@glm@@SA?AU?$tvec4@M$0A@@3@AEBU43@0@Z ; glm::detail::compute_vec4_div<float,0,0>::call
PUBLIC	??$_Destroy_range1@V?$allocator@PEAVBoid@1Application@@@std@@@std@@YAXPEAPEAVBoid@1Application@@0AEAV?$allocator@PEAVBoid@1Application@@@0@U?$integral_constant@_N$00@0@@Z ; std::_Destroy_range1<std::allocator<Application::Boid::Boid *> >
PUBLIC	??$_Allocate_manually_vector_aligned@U_Default_allocate_traits@std@@@std@@YAPEAX_K@Z ; std::_Allocate_manually_vector_aligned<std::_Default_allocate_traits>
PUBLIC	??$forward@U_Container_proxy@std@@@std@@YA$$QEAU_Container_proxy@0@AEAU10@@Z ; std::forward<std::_Container_proxy>
PUBLIC	??$dot@M$0A@Utvec3@glm@@@glm@@YAMAEBU?$tvec3@M$0A@@0@0@Z ; glm::dot<float,0,glm::tvec3>
PUBLIC	??$dot@M$0A@Utvec4@glm@@@glm@@YAMAEBU?$tvec4@M$0A@@0@0@Z ; glm::dot<float,0,glm::tvec4>
PUBLIC	??$dot@M$0A@Utvec2@glm@@@glm@@YAMAEBU?$tvec2@M$0A@@0@0@Z ; glm::dot<float,0,glm::tvec2>
PUBLIC	??$_Uninitialized_move@PEAPEAVBoid@1Application@@PEAPEAV112@V?$allocator@PEAVBoid@1Application@@@std@@@std@@YAPEAPEAVBoid@1Application@@QEAPEAV112@0PEAPEAV112@AEAV?$allocator@PEAVBoid@1Application@@@0@@Z ; std::_Uninitialized_move<Application::Boid::Boid * *,Application::Boid::Boid * *,std::allocator<Application::Boid::Boid *> >
PUBLIC	??$_Get_size_of_n@$07@std@@YA_K_K@Z		; std::_Get_size_of_n<8>
PUBLIC	?call@?$compute_vec4_mul@M$0A@$0A@@detail@glm@@SA?AU?$tvec4@M$0A@@3@AEBU43@0@Z ; glm::detail::compute_vec4_mul<float,0,0>::call
PUBLIC	?call@?$compute_vec4_sub@M$0A@$0A@@detail@glm@@SA?AU?$tvec4@M$0A@@3@AEBU43@0@Z ; glm::detail::compute_vec4_sub<float,0,0>::call
PUBLIC	?call@?$compute_dot@Utvec3@glm@@M$0A@$0A@@detail@glm@@SAMAEBU?$tvec3@M$0A@@3@0@Z ; glm::detail::compute_dot<glm::tvec3,float,0,0>::call
PUBLIC	?call@?$compute_dot@Utvec4@glm@@M$0A@$0A@@detail@glm@@SAMAEBU?$tvec4@M$0A@@3@0@Z ; glm::detail::compute_dot<glm::tvec4,float,0,0>::call
PUBLIC	?call@?$compute_dot@Utvec2@glm@@M$0A@$0A@@detail@glm@@SAMAEBU?$tvec2@M$0A@@3@0@Z ; glm::detail::compute_dot<glm::tvec2,float,0,0>::call
PUBLIC	??$_Get_unwrapped@PEAVBoid@1Application@@@std@@YAPEAPEAVBoid@1Application@@QEAPEAV112@@Z ; std::_Get_unwrapped<Application::Boid::Boid *>
PUBLIC	??$_Idl_distance@PEAPEAVBoid@1Application@@PEAPEAV112@@std@@YA@AEBQEAPEAVBoid@1Application@@0@Z ; std::_Idl_distance<Application::Boid::Boid * *,Application::Boid::Boid * *>
PUBLIC	??$_Idl_distance1@PEAPEAVBoid@1Application@@PEAPEAV112@@std@@YA_JAEBQEAPEAVBoid@1Application@@0Urandom_access_iterator_tag@0@@Z ; std::_Idl_distance1<Application::Boid::Boid * *,Application::Boid::Boid * *>
PUBLIC	??$_Get_unwrapped_n@PEAVBoid@1Application@@_J$0A@@std@@YAPEAPEAVBoid@1Application@@QEAPEAV112@_J@Z ; std::_Get_unwrapped_n<Application::Boid::Boid *,__int64,0>
PUBLIC	??$_Ptr_move_cat@PEAVBoid@1Application@@PEAV112@@std@@YA?AU_Really_trivial_ptr_iterator_tag@0@AEBQEAPEAVBoid@2Application@@0@Z ; std::_Ptr_move_cat<Application::Boid::Boid *,Application::Boid::Boid *>
PUBLIC	??$_Uninitialized_move_al_unchecked@PEAVBoid@1Application@@PEAV112@V?$allocator@PEAVBoid@1Application@@@std@@@std@@YAPEAPEAVBoid@1Application@@QEAPEAV112@00AEAV?$allocator@PEAVBoid@1Application@@@0@U_Really_trivial_ptr_iterator_tag@0@U?$integral_constant@_N$00@0@@Z ; std::_Uninitialized_move_al_unchecked<Application::Boid::Boid *,Application::Boid::Boid *,std::allocator<Application::Boid::Boid *> >
PUBLIC	??$_Seek_wrapped@PEAVBoid@1Application@@@std@@YAXAEAPEAPEAVBoid@1Application@@QEAPEAV112@@Z ; std::_Seek_wrapped<Application::Boid::Boid *>
PUBLIC	??$?DM$0A@@glm@@YA?AU?$tvec2@M$0A@@0@AEBU10@0@Z	; glm::operator*<float,0>
PUBLIC	??$?DM$0A@@glm@@YA?AU?$tvec4@M$0A@@0@AEBU10@0@Z	; glm::operator*<float,0>
PUBLIC	??$?DM$0A@@glm@@YA?AU?$tvec3@M$0A@@0@AEBU10@0@Z	; glm::operator*<float,0>
PUBLIC	??$_Copy_memmove@PEAPEAVBoid@1Application@@PEAPEAV112@@std@@YAPEAPEAVBoid@1Application@@PEAPEAV112@00@Z ; std::_Copy_memmove<Application::Boid::Boid * *,Application::Boid::Boid * *>
PUBLIC	??$?XM@?$tvec4@M$0A@@glm@@QEAAAEAU01@AEBU01@@Z	; glm::tvec4<float,0>::operator*=<float>
PUBLIC	??_C@_0BB@FCMFBGOM@invalid?5argument@		; `string'
PUBLIC	??_C@_02DKCKIIND@?$CFs@				; `string'
PUBLIC	??_C@_1CG@JNLFBNGN@?$AA?$CC?$AAi?$AAn?$AAv?$AAa?$AAl?$AAi?$AAd?$AA?5?$AAa?$AAr?$AAg?$AAu?$AAm?$AAe@ ; `string'
PUBLIC	?__LINE__Var@?0??_Adjust_manually_vector_aligned@std@@YAXAEAPEAXAEA_K@Z@4JA ; `std::_Adjust_manually_vector_aligned'::`1'::__LINE__Var
PUBLIC	??_C@_0GK@FKLKIKPD@c?3?2program?5files?5?$CIx86?$CJ?2microsof@ ; `string'
PUBLIC	??_C@_1NE@MCNNPIKO@?$AAc?$AA?3?$AA?2?$AAp?$AAr?$AAo?$AAg?$AAr?$AAa?$AAm?$AA?5?$AAf?$AAi?$AAl?$AAe@ ; `string'
PUBLIC	??_C@_1EK@NIFDJFDG@?$AAs?$AAt?$AAd?$AA?3?$AA?3?$AA_?$AAA?$AAd?$AAj?$AAu?$AAs?$AAt?$AA_?$AAm?$AAa@ ; `string'
PUBLIC	??_7Boid@0Application@@6B@			; Application::Boid::Boid::`vftable'
PUBLIC	??_C@_0BO@PFKOHNJC@vector?5subscript?5out?5of?5range@ ; `string'
PUBLIC	??_C@_0GI@LCGNDFBO@c?3?2program?5files?5?$CIx86?$CJ?2microsof@ ; `string'
PUBLIC	??_C@_1NA@LINFDFEH@?$AAc?$AA?3?$AA?2?$AAp?$AAr?$AAo?$AAg?$AAr?$AAa?$AAm?$AA?5?$AAf?$AAi?$AAl?$AAe@ ; `string'
PUBLIC	??_C@_1OC@PHEOANKE@?$AAs?$AAt?$AAd?$AA?3?$AA?3?$AAv?$AAe?$AAc?$AAt?$AAo?$AAr?$AA?$DM?$AAc?$AAl?$AAa@ ; `string'
PUBLIC	??_C@_1EA@LEKOKFNB@?$AA?$CC?$AAv?$AAe?$AAc?$AAt?$AAo?$AAr?$AA?5?$AAs?$AAu?$AAb?$AAs?$AAc?$AAr?$AAi@ ; `string'
PUBLIC	??_C@_0BD@OLBABOEK@vector?$DMT?$DO?5too?5long@	; `string'
PUBLIC	??_C@_1EO@GFNCMDLA@?$AAs?$AAt?$AAd?$AA?3?$AA?3?$AA_?$AAA?$AAl?$AAl?$AAo?$AAc?$AAa?$AAt?$AAe?$AA_@ ; `string'
PUBLIC	??_R4Boid@0Application@@6B@			; Application::Boid::Boid::`RTTI Complete Object Locator'
PUBLIC	??_R0?AVBoid@0Application@@@8			; Application::Boid::Boid `RTTI Type Descriptor'
PUBLIC	??_R3Boid@0Application@@8			; Application::Boid::Boid::`RTTI Class Hierarchy Descriptor'
PUBLIC	??_R2Boid@0Application@@8			; Application::Boid::Boid::`RTTI Base Class Array'
PUBLIC	??_R1A@?0A@EA@Boid@0Application@@8		; Application::Boid::Boid::`RTTI Base Class Descriptor at (0,-1,0,64)'
PUBLIC	??_R1A@?0A@EA@Renderable2D@graphics@core@@8	; core::graphics::Renderable2D::`RTTI Base Class Descriptor at (0,-1,0,64)'
PUBLIC	??_R0?AVRenderable2D@graphics@core@@@8		; core::graphics::Renderable2D `RTTI Type Descriptor'
PUBLIC	??_R3Renderable2D@graphics@core@@8		; core::graphics::Renderable2D::`RTTI Class Hierarchy Descriptor'
PUBLIC	??_R2Renderable2D@graphics@core@@8		; core::graphics::Renderable2D::`RTTI Base Class Array'
PUBLIC	__real@3c23d70a
PUBLIC	__real@3d4ccccd
PUBLIC	__real@3dcccccd
PUBLIC	__real@3e19999a
PUBLIC	__real@3f000000
PUBLIC	__real@3f800000
PUBLIC	__real@40900000
PUBLIC	__real@41000000
PUBLIC	__real@41200000
PUBLIC	__real@447a0000
PUBLIC	__real@461c4000
PUBLIC	__real@5f800000
PUBLIC	__real@c0900000
PUBLIC	__real@c1000000
EXTRN	??2@YAPEAX_K@Z:PROC				; operator new
EXTRN	??3@YAXPEAX_K@Z:PROC				; operator delete
EXTRN	__imp__invalid_parameter:PROC
EXTRN	__imp__CrtDbgReport:PROC
EXTRN	__imp_??0_Lockit@std@@QEAA@H@Z:PROC
EXTRN	__imp_??1_Lockit@std@@QEAA@XZ:PROC
EXTRN	__imp_rand:PROC
EXTRN	__imp_sqrtf:PROC
EXTRN	memmove:PROC
EXTRN	??0Renderable2D@graphics@core@@QEAA@AEBU?$tvec4@M$0A@@glm@@AEBU?$tvec2@M$0A@@4@0@Z:PROC ; core::graphics::Renderable2D::Renderable2D
EXTRN	??0Renderable2D@graphics@core@@QEAA@MMMMI@Z:PROC ; core::graphics::Renderable2D::Renderable2D
EXTRN	??1Renderable2D@graphics@core@@UEAA@XZ:PROC	; core::graphics::Renderable2D::~Renderable2D
EXTRN	?_Xlength_error@std@@YAXPEBD@Z:PROC		; std::_Xlength_error
EXTRN	??_EBoid@0Application@@UEAAPEAXI@Z:PROC		; Application::Boid::Boid::`vector deleting destructor'
EXTRN	_CxxThrowException:PROC
EXTRN	_RTC_InitBase:PROC
EXTRN	_RTC_Shutdown:PROC
EXTRN	__CheckForDebuggerJustMyCode:PROC
EXTRN	__CxxFrameHandler3:PROC
EXTRN	__GSHandlerCheck:PROC
EXTRN	__GSHandlerCheck_EH:PROC
EXTRN	__security_check_cookie:PROC
EXTRN	??_7type_info@@6B@:BYTE				; type_info::`vftable'
EXTRN	?doSeparation@BoidScene@Scene@Application@@2_NA:BYTE ; Application::Scene::BoidScene::doSeparation
EXTRN	?doAlignment@BoidScene@Scene@Application@@2_NA:BYTE ; Application::Scene::BoidScene::doAlignment
EXTRN	?doCohesion@BoidScene@Scene@Application@@2_NA:BYTE ; Application::Scene::BoidScene::doCohesion
EXTRN	?doNoise@BoidScene@Scene@Application@@2_NA:BYTE	; Application::Scene::BoidScene::doNoise
EXTRN	?doAvoid@BoidScene@Scene@Application@@2_NA:BYTE	; Application::Scene::BoidScene::doAvoid
EXTRN	?doMouseTracking@BoidScene@Scene@Application@@2_NA:BYTE ; Application::Scene::BoidScene::doMouseTracking
EXTRN	?trackPos@BoidScene@Scene@Application@@2U?$tvec2@M$0A@@glm@@A:QWORD ; Application::Scene::BoidScene::trackPos
EXTRN	__security_cookie:QWORD
EXTRN	_fltused:DWORD
;	COMDAT pdata
pdata	SEGMENT
$pdata$??_H@YAXPEAX_K1P6APEAX0@Z@Z DD imagerel $LN7
	DD	imagerel $LN7+111
	DD	imagerel $unwind$??_H@YAXPEAX_K1P6APEAX0@Z@Z
pdata	ENDS
;	COMDAT pdata
pdata	SEGMENT
$pdata$?__empty_global_delete@@YAXPEAX@Z DD imagerel $LN3
	DD	imagerel $LN3+33
	DD	imagerel $unwind$?__empty_global_delete@@YAXPEAX@Z
pdata	ENDS
;	COMDAT pdata
pdata	SEGMENT
$pdata$?__empty_global_delete@@YAXPEAX_K@Z DD imagerel $LN3
	DD	imagerel $LN3+38
	DD	imagerel $unwind$?__empty_global_delete@@YAXPEAX_K@Z
pdata	ENDS
;	COMDAT pdata
pdata	SEGMENT
$pdata$??2@YAPEAX_KPEAX@Z DD imagerel $LN3
	DD	imagerel $LN3+51
	DD	imagerel $unwind$??2@YAPEAX_KPEAX@Z
pdata	ENDS
;	COMDAT pdata
pdata	SEGMENT
$pdata$?sqrt@@YAMM@Z DD imagerel $LN3
	DD	imagerel $LN3+55
	DD	imagerel $unwind$?sqrt@@YAMM@Z
pdata	ENDS
;	COMDAT pdata
pdata	SEGMENT
$pdata$?max@?$numeric_limits@_J@std@@SA_JXZ DD imagerel $LN3
	DD	imagerel $LN3+48
	DD	imagerel $unwind$?max@?$numeric_limits@_J@std@@SA_JXZ
pdata	ENDS
;	COMDAT pdata
pdata	SEGMENT
$pdata$??0?$tvec4@M$0A@@glm@@QEAA@M@Z DD imagerel $LN3
	DD	imagerel $LN3+98
	DD	imagerel $unwind$??0?$tvec4@M$0A@@glm@@QEAA@M@Z
pdata	ENDS
;	COMDAT pdata
pdata	SEGMENT
$pdata$??0?$tvec4@M$0A@@glm@@QEAA@MMMM@Z DD imagerel $LN3
	DD	imagerel $LN3+110
	DD	imagerel $unwind$??0?$tvec4@M$0A@@glm@@QEAA@MMMM@Z
pdata	ENDS
;	COMDAT pdata
pdata	SEGMENT
$pdata$??0?$tvec2@M$0A@@glm@@QEAA@MM@Z DD imagerel $LN3
	DD	imagerel $LN3+76
	DD	imagerel $unwind$??0?$tvec2@M$0A@@glm@@QEAA@MM@Z
pdata	ENDS
;	COMDAT pdata
pdata	SEGMENT
$pdata$??0_Container_proxy@std@@QEAA@XZ DD imagerel $LN3
	DD	imagerel $LN3+69
	DD	imagerel $unwind$??0_Container_proxy@std@@QEAA@XZ
pdata	ENDS
;	COMDAT pdata
pdata	SEGMENT
$pdata$??0_Container_base12@std@@QEAA@XZ DD imagerel $LN3
	DD	imagerel $LN3+48
	DD	imagerel $unwind$??0_Container_base12@std@@QEAA@XZ
pdata	ENDS
;	COMDAT pdata
pdata	SEGMENT
$pdata$?_Getpfirst@_Container_base12@std@@QEBAPEAPEAU_Iterator_base12@2@XZ DD imagerel $LN5
	DD	imagerel $LN5+81
	DD	imagerel $unwind$?_Getpfirst@_Container_base12@std@@QEBAPEAPEAU_Iterator_base12@2@XZ
pdata	ENDS
;	COMDAT pdata
pdata	SEGMENT
$pdata$?_Orphan_all@_Container_base12@std@@QEAAXXZ DD imagerel $LN7
	DD	imagerel $LN7+185
	DD	imagerel $unwind$?_Orphan_all@_Container_base12@std@@QEAAXXZ
pdata	ENDS
;	COMDAT pdata
pdata	SEGMENT
$pdata$?_Clrcont@_Iterator_base12@std@@QEAAXXZ DD imagerel $LN3
	DD	imagerel $LN3+53
	DD	imagerel $unwind$?_Clrcont@_Iterator_base12@std@@QEAAXXZ
pdata	ENDS
;	COMDAT pdata
pdata	SEGMENT
$pdata$?_Getpnext@_Iterator_base12@std@@QEAAPEAPEAU12@XZ DD imagerel $LN3
	DD	imagerel $LN3+50
	DD	imagerel $unwind$?_Getpnext@_Iterator_base12@std@@QEAAPEAPEAU12@XZ
pdata	ENDS
;	COMDAT pdata
pdata	SEGMENT
$pdata$?_Allocate@_Default_allocate_traits@std@@SAPEAX_K@Z DD imagerel $LN3
	DD	imagerel $LN3+42
	DD	imagerel $unwind$?_Allocate@_Default_allocate_traits@std@@SAPEAX_K@Z
pdata	ENDS
;	COMDAT pdata
pdata	SEGMENT
$pdata$?_Adjust_manually_vector_aligned@std@@YAXAEAPEAXAEA_K@Z DD imagerel $LN21
	DD	imagerel $LN21+433
	DD	imagerel $unwind$?_Adjust_manually_vector_aligned@std@@YAXAEAPEAXAEA_K@Z
pdata	ENDS
;	COMDAT pdata
pdata	SEGMENT
$pdata$??$_Min_value@_K@std@@YAAEB_KAEB_K0@Z DD imagerel $LN5
	DD	imagerel $LN5+96
	DD	imagerel $unwind$??$_Min_value@_K@std@@YAAEB_KAEB_K0@Z
pdata	ENDS
;	COMDAT pdata
pdata	SEGMENT
$pdata$??0?$tvec3@M$0A@@glm@@QEAA@MMM@Z DD imagerel $LN3
	DD	imagerel $LN3+96
	DD	imagerel $unwind$??0?$tvec3@M$0A@@glm@@QEAA@MMM@Z
pdata	ENDS
;	COMDAT pdata
pdata	SEGMENT
$pdata$??0?$allocator@PEAVBoid@1Application@@@std@@QEAA@XZ DD imagerel $LN3
	DD	imagerel $LN3+46
	DD	imagerel $unwind$??0?$allocator@PEAVBoid@1Application@@@std@@QEAA@XZ
pdata	ENDS
;	COMDAT pdata
pdata	SEGMENT
$pdata$?deallocate@?$allocator@PEAVBoid@1Application@@@std@@QEAAXQEAPEAVBoid@3Application@@_K@Z DD imagerel $LN3
	DD	imagerel $LN3+63
	DD	imagerel $unwind$?deallocate@?$allocator@PEAVBoid@1Application@@@std@@QEAAXQEAPEAVBoid@3Application@@_K@Z
pdata	ENDS
;	COMDAT pdata
pdata	SEGMENT
$pdata$?allocate@?$allocator@PEAVBoid@1Application@@@std@@QEAAPEAPEAVBoid@3Application@@_K@Z DD imagerel $LN3
	DD	imagerel $LN3+55
	DD	imagerel $unwind$?allocate@?$allocator@PEAVBoid@1Application@@@std@@QEAAPEAPEAVBoid@3Application@@_K@Z
pdata	ENDS
;	COMDAT pdata
pdata	SEGMENT
$pdata$?max_size@?$_Default_allocator_traits@V?$allocator@PEAVBoid@1Application@@@std@@@std@@SA_KAEBV?$allocator@PEAVBoid@1Application@@@2@@Z DD imagerel $LN3
	DD	imagerel $LN3+52
	DD	imagerel $unwind$?max_size@?$_Default_allocator_traits@V?$allocator@PEAVBoid@1Application@@@std@@@std@@SA_KAEBV?$allocator@PEAVBoid@1Application@@@2@@Z
pdata	ENDS
;	COMDAT pdata
pdata	SEGMENT
$pdata$??0?$_Vector_alloc@U?$_Vec_base_types@PEAVBoid@1Application@@V?$allocator@PEAVBoid@1Application@@@std@@@std@@@std@@QEAA@XZ DD imagerel $LN3
	DD	imagerel $LN3+62
	DD	imagerel $unwind$??0?$_Vector_alloc@U?$_Vec_base_types@PEAVBoid@1Application@@V?$allocator@PEAVBoid@1Application@@@std@@@std@@@std@@QEAA@XZ
pdata	ENDS
;	COMDAT pdata
pdata	SEGMENT
$pdata$??1?$_Vector_alloc@U?$_Vec_base_types@PEAVBoid@1Application@@V?$allocator@PEAVBoid@1Application@@@std@@@std@@@std@@QEAA@XZ DD imagerel $LN3
	DD	imagerel $LN3+52
	DD	imagerel $unwind$??1?$_Vector_alloc@U?$_Vec_base_types@PEAVBoid@1Application@@V?$allocator@PEAVBoid@1Application@@@std@@@std@@@std@@QEAA@XZ
pdata	ENDS
;	COMDAT pdata
pdata	SEGMENT
$pdata$?_Alloc_proxy@?$_Vector_alloc@U?$_Vec_base_types@PEAVBoid@1Application@@V?$allocator@PEAVBoid@1Application@@@std@@@std@@@std@@QEAAXXZ DD imagerel $LN3
	DD	imagerel $LN3+221
	DD	imagerel $unwind$?_Alloc_proxy@?$_Vector_alloc@U?$_Vec_base_types@PEAVBoid@1Application@@V?$allocator@PEAVBoid@1Application@@@std@@@std@@@std@@QEAAXXZ
pdata	ENDS
;	COMDAT pdata
pdata	SEGMENT
$pdata$?_Free_proxy@?$_Vector_alloc@U?$_Vec_base_types@PEAVBoid@1Application@@V?$allocator@PEAVBoid@1Application@@@std@@@std@@@std@@QEAAXXZ DD imagerel $LN3
	DD	imagerel $LN3+147
	DD	imagerel $unwind$?_Free_proxy@?$_Vector_alloc@U?$_Vec_base_types@PEAVBoid@1Application@@V?$allocator@PEAVBoid@1Application@@@std@@@std@@@std@@QEAAXXZ
pdata	ENDS
;	COMDAT pdata
pdata	SEGMENT
$pdata$?_Getpfirst@?$_Vector_alloc@U?$_Vec_base_types@PEAVBoid@1Application@@V?$allocator@PEAVBoid@1Application@@@std@@@std@@@std@@QEBAPEAPEAU_Iterator_base12@2@XZ DD imagerel $LN3
	DD	imagerel $LN3+50
	DD	imagerel $unwind$?_Getpfirst@?$_Vector_alloc@U?$_Vec_base_types@PEAVBoid@1Application@@V?$allocator@PEAVBoid@1Application@@@std@@@std@@@std@@QEBAPEAPEAU_Iterator_base12@2@XZ
pdata	ENDS
;	COMDAT pdata
pdata	SEGMENT
$pdata$?_Myproxy@?$_Vector_alloc@U?$_Vec_base_types@PEAVBoid@1Application@@V?$allocator@PEAVBoid@1Application@@@std@@@std@@@std@@QEAAAEAPEAU_Container_proxy@2@XZ DD imagerel $LN3
	DD	imagerel $LN3+52
	DD	imagerel $unwind$?_Myproxy@?$_Vector_alloc@U?$_Vec_base_types@PEAVBoid@1Application@@V?$allocator@PEAVBoid@1Application@@@std@@@std@@@std@@QEAAAEAPEAU_Container_proxy@2@XZ
pdata	ENDS
;	COMDAT pdata
pdata	SEGMENT
$pdata$?_Orphan_all@?$_Vector_alloc@U?$_Vec_base_types@PEAVBoid@1Application@@V?$allocator@PEAVBoid@1Application@@@std@@@std@@@std@@QEAAXXZ DD imagerel $LN3
	DD	imagerel $LN3+50
	DD	imagerel $unwind$?_Orphan_all@?$_Vector_alloc@U?$_Vec_base_types@PEAVBoid@1Application@@V?$allocator@PEAVBoid@1Application@@@std@@@std@@@std@@QEAAXXZ
pdata	ENDS
;	COMDAT pdata
pdata	SEGMENT
$pdata$?_Getal@?$_Vector_alloc@U?$_Vec_base_types@PEAVBoid@1Application@@V?$allocator@PEAVBoid@1Application@@@std@@@std@@@std@@QEAAAEAV?$allocator@PEAVBoid@1Application@@@2@XZ DD imagerel $LN3
	DD	imagerel $LN3+55
	DD	imagerel $unwind$?_Getal@?$_Vector_alloc@U?$_Vec_base_types@PEAVBoid@1Application@@V?$allocator@PEAVBoid@1Application@@@std@@@std@@@std@@QEAAAEAV?$allocator@PEAVBoid@1Application@@@2@XZ
pdata	ENDS
;	COMDAT pdata
pdata	SEGMENT
$pdata$?_Getal@?$_Vector_alloc@U?$_Vec_base_types@PEAVBoid@1Application@@V?$allocator@PEAVBoid@1Application@@@std@@@std@@@std@@QEBAAEBV?$allocator@PEAVBoid@1Application@@@2@XZ DD imagerel $LN3
	DD	imagerel $LN3+55
	DD	imagerel $unwind$?_Getal@?$_Vector_alloc@U?$_Vec_base_types@PEAVBoid@1Application@@V?$allocator@PEAVBoid@1Application@@@std@@@std@@@std@@QEBAAEBV?$allocator@PEAVBoid@1Application@@@2@XZ
pdata	ENDS
;	COMDAT pdata
pdata	SEGMENT
$pdata$?_Get_data@?$_Vector_alloc@U?$_Vec_base_types@PEAVBoid@1Application@@V?$allocator@PEAVBoid@1Application@@@std@@@std@@@std@@QEAAAEAV?$_Vector_val@U?$_Simple_types@PEAVBoid@1Application@@@std@@@2@XZ DD imagerel $LN3
	DD	imagerel $LN3+55
	DD	imagerel $unwind$?_Get_data@?$_Vector_alloc@U?$_Vec_base_types@PEAVBoid@1Application@@V?$allocator@PEAVBoid@1Application@@@std@@@std@@@std@@QEAAAEAV?$_Vector_val@U?$_Simple_types@PEAVBoid@1Application@@@std@@@2@XZ
pdata	ENDS
;	COMDAT pdata
pdata	SEGMENT
$pdata$?_Get_data@?$_Vector_alloc@U?$_Vec_base_types@PEAVBoid@1Application@@V?$allocator@PEAVBoid@1Application@@@std@@@std@@@std@@QEBAAEBV?$_Vector_val@U?$_Simple_types@PEAVBoid@1Application@@@std@@@2@XZ DD imagerel $LN3
	DD	imagerel $LN3+55
	DD	imagerel $unwind$?_Get_data@?$_Vector_alloc@U?$_Vec_base_types@PEAVBoid@1Application@@V?$allocator@PEAVBoid@1Application@@@std@@@std@@@std@@QEBAAEBV?$_Vector_val@U?$_Simple_types@PEAVBoid@1Application@@@std@@@2@XZ
pdata	ENDS
;	COMDAT pdata
pdata	SEGMENT
$pdata$?_Myfirst@?$_Vector_alloc@U?$_Vec_base_types@PEAVBoid@1Application@@V?$allocator@PEAVBoid@1Application@@@std@@@std@@@std@@QEAAAEAPEAPEAVBoid@3Application@@XZ DD imagerel $LN3
	DD	imagerel $LN3+56
	DD	imagerel $unwind$?_Myfirst@?$_Vector_alloc@U?$_Vec_base_types@PEAVBoid@1Application@@V?$allocator@PEAVBoid@1Application@@@std@@@std@@@std@@QEAAAEAPEAPEAVBoid@3Application@@XZ
pdata	ENDS
;	COMDAT pdata
pdata	SEGMENT
$pdata$?_Myfirst@?$_Vector_alloc@U?$_Vec_base_types@PEAVBoid@1Application@@V?$allocator@PEAVBoid@1Application@@@std@@@std@@@std@@QEBAAEBQEAPEAVBoid@3Application@@XZ DD imagerel $LN3
	DD	imagerel $LN3+56
	DD	imagerel $unwind$?_Myfirst@?$_Vector_alloc@U?$_Vec_base_types@PEAVBoid@1Application@@V?$allocator@PEAVBoid@1Application@@@std@@@std@@@std@@QEBAAEBQEAPEAVBoid@3Application@@XZ
pdata	ENDS
;	COMDAT pdata
pdata	SEGMENT
$pdata$?_Mylast@?$_Vector_alloc@U?$_Vec_base_types@PEAVBoid@1Application@@V?$allocator@PEAVBoid@1Application@@@std@@@std@@@std@@QEAAAEAPEAPEAVBoid@3Application@@XZ DD imagerel $LN3
	DD	imagerel $LN3+56
	DD	imagerel $unwind$?_Mylast@?$_Vector_alloc@U?$_Vec_base_types@PEAVBoid@1Application@@V?$allocator@PEAVBoid@1Application@@@std@@@std@@@std@@QEAAAEAPEAPEAVBoid@3Application@@XZ
pdata	ENDS
;	COMDAT pdata
pdata	SEGMENT
$pdata$?_Mylast@?$_Vector_alloc@U?$_Vec_base_types@PEAVBoid@1Application@@V?$allocator@PEAVBoid@1Application@@@std@@@std@@@std@@QEBAAEBQEAPEAVBoid@3Application@@XZ DD imagerel $LN3
	DD	imagerel $LN3+56
	DD	imagerel $unwind$?_Mylast@?$_Vector_alloc@U?$_Vec_base_types@PEAVBoid@1Application@@V?$allocator@PEAVBoid@1Application@@@std@@@std@@@std@@QEBAAEBQEAPEAVBoid@3Application@@XZ
pdata	ENDS
;	COMDAT pdata
pdata	SEGMENT
$pdata$?_Myend@?$_Vector_alloc@U?$_Vec_base_types@PEAVBoid@1Application@@V?$allocator@PEAVBoid@1Application@@@std@@@std@@@std@@QEAAAEAPEAPEAVBoid@3Application@@XZ DD imagerel $LN3
	DD	imagerel $LN3+56
	DD	imagerel $unwind$?_Myend@?$_Vector_alloc@U?$_Vec_base_types@PEAVBoid@1Application@@V?$allocator@PEAVBoid@1Application@@@std@@@std@@@std@@QEAAAEAPEAPEAVBoid@3Application@@XZ
pdata	ENDS
;	COMDAT pdata
pdata	SEGMENT
$pdata$?_Myend@?$_Vector_alloc@U?$_Vec_base_types@PEAVBoid@1Application@@V?$allocator@PEAVBoid@1Application@@@std@@@std@@@std@@QEBAAEBQEAPEAVBoid@3Application@@XZ DD imagerel $LN3
	DD	imagerel $LN3+56
	DD	imagerel $unwind$?_Myend@?$_Vector_alloc@U?$_Vec_base_types@PEAVBoid@1Application@@V?$allocator@PEAVBoid@1Application@@@std@@@std@@@std@@QEBAAEBQEAPEAVBoid@3Application@@XZ
pdata	ENDS
;	COMDAT pdata
pdata	SEGMENT
$pdata$??0?$_Vector_val@U?$_Simple_types@PEAVBoid@1Application@@@std@@@std@@QEAA@XZ DD imagerel $LN3
	DD	imagerel $LN3+82
	DD	imagerel $unwind$??0?$_Vector_val@U?$_Simple_types@PEAVBoid@1Application@@@std@@@std@@QEAA@XZ
pdata	ENDS
;	COMDAT pdata
pdata	SEGMENT
$pdata$?_Get_first@?$_Compressed_pair@V?$allocator@PEAVBoid@1Application@@@std@@V?$_Vector_val@U?$_Simple_types@PEAVBoid@1Application@@@std@@@2@$00@std@@QEAAAEAV?$allocator@PEAVBoid@1Application@@@2@XZ DD imagerel $LN3
	DD	imagerel $LN3+46
	DD	imagerel $unwind$?_Get_first@?$_Compressed_pair@V?$allocator@PEAVBoid@1Application@@@std@@V?$_Vector_val@U?$_Simple_types@PEAVBoid@1Application@@@std@@@2@$00@std@@QEAAAEAV?$allocator@PEAVBoid@1Application@@@2@XZ
pdata	ENDS
;	COMDAT pdata
pdata	SEGMENT
$pdata$?_Get_first@?$_Compressed_pair@V?$allocator@PEAVBoid@1Application@@@std@@V?$_Vector_val@U?$_Simple_types@PEAVBoid@1Application@@@std@@@2@$00@std@@QEBAAEBV?$allocator@PEAVBoid@1Application@@@2@XZ DD imagerel $LN3
	DD	imagerel $LN3+46
	DD	imagerel $unwind$?_Get_first@?$_Compressed_pair@V?$allocator@PEAVBoid@1Application@@@std@@V?$_Vector_val@U?$_Simple_types@PEAVBoid@1Application@@@std@@@2@$00@std@@QEBAAEBV?$allocator@PEAVBoid@1Application@@@2@XZ
pdata	ENDS
;	COMDAT pdata
pdata	SEGMENT
$pdata$?_Get_second@?$_Compressed_pair@V?$allocator@PEAVBoid@1Application@@@std@@V?$_Vector_val@U?$_Simple_types@PEAVBoid@1Application@@@std@@@2@$00@std@@QEAAAEAV?$_Vector_val@U?$_Simple_types@PEAVBoid@1Application@@@std@@@2@XZ DD imagerel $LN3
	DD	imagerel $LN3+46
	DD	imagerel $unwind$?_Get_second@?$_Compressed_pair@V?$allocator@PEAVBoid@1Application@@@std@@V?$_Vector_val@U?$_Simple_types@PEAVBoid@1Application@@@std@@@2@$00@std@@QEAAAEAV?$_Vector_val@U?$_Simple_types@PEAVBoid@1Application@@@std@@@2@XZ
pdata	ENDS
;	COMDAT pdata
pdata	SEGMENT
$pdata$?_Get_second@?$_Compressed_pair@V?$allocator@PEAVBoid@1Application@@@std@@V?$_Vector_val@U?$_Simple_types@PEAVBoid@1Application@@@std@@@2@$00@std@@QEBAAEBV?$_Vector_val@U?$_Simple_types@PEAVBoid@1Application@@@std@@@2@XZ DD imagerel $LN3
	DD	imagerel $LN3+46
	DD	imagerel $unwind$?_Get_second@?$_Compressed_pair@V?$allocator@PEAVBoid@1Application@@@std@@V?$_Vector_val@U?$_Simple_types@PEAVBoid@1Application@@@std@@@2@$00@std@@QEBAAEBV?$_Vector_val@U?$_Simple_types@PEAVBoid@1Application@@@std@@@2@XZ
pdata	ENDS
;	COMDAT pdata
pdata	SEGMENT
$pdata$??0?$vector@PEAVBoid@1Application@@V?$allocator@PEAVBoid@1Application@@@std@@@std@@QEAA@XZ DD imagerel $LN3
	DD	imagerel $LN3+56
	DD	imagerel $unwind$??0?$vector@PEAVBoid@1Application@@V?$allocator@PEAVBoid@1Application@@@std@@@std@@QEAA@XZ
pdata	ENDS
;	COMDAT pdata
pdata	SEGMENT
$pdata$??1?$vector@PEAVBoid@1Application@@V?$allocator@PEAVBoid@1Application@@@std@@@std@@QEAA@XZ DD imagerel $LN3
	DD	imagerel $LN3+62
	DD	imagerel $unwind$??1?$vector@PEAVBoid@1Application@@V?$allocator@PEAVBoid@1Application@@@std@@@std@@QEAA@XZ
pdata	ENDS
;	COMDAT pdata
pdata	SEGMENT
$pdata$?push_back@?$vector@PEAVBoid@1Application@@V?$allocator@PEAVBoid@1Application@@@std@@@std@@QEAAXAEBQEAVBoid@3Application@@@Z DD imagerel $LN3
	DD	imagerel $LN3+51
	DD	imagerel $unwind$?push_back@?$vector@PEAVBoid@1Application@@V?$allocator@PEAVBoid@1Application@@@std@@@std@@QEAAXAEBQEAVBoid@3Application@@@Z
pdata	ENDS
;	COMDAT pdata
pdata	SEGMENT
$pdata$?clear@?$vector@PEAVBoid@1Application@@V?$allocator@PEAVBoid@1Application@@@std@@@std@@QEAAXXZ DD imagerel $LN3
	DD	imagerel $LN3+130
	DD	imagerel $unwind$?clear@?$vector@PEAVBoid@1Application@@V?$allocator@PEAVBoid@1Application@@@std@@@std@@QEAAXXZ
pdata	ENDS
;	COMDAT pdata
pdata	SEGMENT
$pdata$?size@?$vector@PEAVBoid@1Application@@V?$allocator@PEAVBoid@1Application@@@std@@@std@@QEBA_KXZ DD imagerel $LN3
	DD	imagerel $LN3+86
	DD	imagerel $unwind$?size@?$vector@PEAVBoid@1Application@@V?$allocator@PEAVBoid@1Application@@@std@@@std@@QEBA_KXZ
pdata	ENDS
;	COMDAT pdata
pdata	SEGMENT
$pdata$?max_size@?$vector@PEAVBoid@1Application@@V?$allocator@PEAVBoid@1Application@@@std@@@std@@QEBA_KXZ DD imagerel $LN3
	DD	imagerel $LN3+95
	DD	imagerel $unwind$?max_size@?$vector@PEAVBoid@1Application@@V?$allocator@PEAVBoid@1Application@@@std@@@std@@QEBA_KXZ
pdata	ENDS
;	COMDAT pdata
pdata	SEGMENT
$pdata$?capacity@?$vector@PEAVBoid@1Application@@V?$allocator@PEAVBoid@1Application@@@std@@@std@@QEBA_KXZ DD imagerel $LN3
	DD	imagerel $LN3+86
	DD	imagerel $unwind$?capacity@?$vector@PEAVBoid@1Application@@V?$allocator@PEAVBoid@1Application@@@std@@@std@@QEBA_KXZ
pdata	ENDS
;	COMDAT pdata
pdata	SEGMENT
$pdata$?_Has_unused_capacity@?$vector@PEAVBoid@1Application@@V?$allocator@PEAVBoid@1Application@@@std@@@std@@AEBA_NXZ DD imagerel $LN5
	DD	imagerel $LN5+101
	DD	imagerel $unwind$?_Has_unused_capacity@?$vector@PEAVBoid@1Application@@V?$allocator@PEAVBoid@1Application@@@std@@@std@@AEBA_NXZ
pdata	ENDS
;	COMDAT pdata
pdata	SEGMENT
$pdata$??A?$vector@PEAVBoid@1Application@@V?$allocator@PEAVBoid@1Application@@@std@@@std@@QEAAAEAPEAVBoid@2Application@@_K@Z DD imagerel $LN12
	DD	imagerel $LN12+192
	DD	imagerel $unwind$??A?$vector@PEAVBoid@1Application@@V?$allocator@PEAVBoid@1Application@@@std@@@std@@QEAAAEAPEAVBoid@2Application@@_K@Z
pdata	ENDS
;	COMDAT pdata
pdata	SEGMENT
$pdata$??A?$vector@PEAVBoid@1Application@@V?$allocator@PEAVBoid@1Application@@@std@@@std@@QEBAAEBQEAVBoid@2Application@@_K@Z DD imagerel $LN12
	DD	imagerel $LN12+192
	DD	imagerel $unwind$??A?$vector@PEAVBoid@1Application@@V?$allocator@PEAVBoid@1Application@@@std@@@std@@QEBAAEBQEAVBoid@2Application@@_K@Z
pdata	ENDS
;	COMDAT pdata
pdata	SEGMENT
$pdata$?_Umove@?$vector@PEAVBoid@1Application@@V?$allocator@PEAVBoid@1Application@@@std@@@std@@AEAAPEAPEAVBoid@3Application@@PEAPEAV334@00@Z DD imagerel $LN3
	DD	imagerel $LN3+77
	DD	imagerel $unwind$?_Umove@?$vector@PEAVBoid@1Application@@V?$allocator@PEAVBoid@1Application@@@std@@@std@@AEAAPEAPEAVBoid@3Application@@PEAPEAV334@00@Z
pdata	ENDS
;	COMDAT pdata
pdata	SEGMENT
$pdata$?_Umove_if_noexcept1@?$vector@PEAVBoid@1Application@@V?$allocator@PEAVBoid@1Application@@@std@@@std@@AEAAXPEAPEAVBoid@3Application@@00U?$integral_constant@_N$00@2@@Z DD imagerel $LN3
	DD	imagerel $LN3+77
	DD	imagerel $unwind$?_Umove_if_noexcept1@?$vector@PEAVBoid@1Application@@V?$allocator@PEAVBoid@1Application@@@std@@@std@@AEAAXPEAPEAVBoid@3Application@@00U?$integral_constant@_N$00@2@@Z
pdata	ENDS
;	COMDAT pdata
pdata	SEGMENT
$pdata$?_Umove_if_noexcept@?$vector@PEAVBoid@1Application@@V?$allocator@PEAVBoid@1Application@@@std@@@std@@AEAAXPEAPEAVBoid@3Application@@00@Z DD imagerel $LN3
	DD	imagerel $LN3+104
	DD	imagerel $unwind$?_Umove_if_noexcept@?$vector@PEAVBoid@1Application@@V?$allocator@PEAVBoid@1Application@@@std@@@std@@AEAAXPEAPEAVBoid@3Application@@00@Z
pdata	ENDS
;	COMDAT pdata
pdata	SEGMENT
$pdata$?_Destroy@?$vector@PEAVBoid@1Application@@V?$allocator@PEAVBoid@1Application@@@std@@@std@@AEAAXPEAPEAVBoid@3Application@@0@Z DD imagerel $LN3
	DD	imagerel $LN3+68
	DD	imagerel $unwind$?_Destroy@?$vector@PEAVBoid@1Application@@V?$allocator@PEAVBoid@1Application@@@std@@@std@@AEAAXPEAPEAVBoid@3Application@@0@Z
pdata	ENDS
;	COMDAT pdata
pdata	SEGMENT
$pdata$?_Calculate_growth@?$vector@PEAVBoid@1Application@@V?$allocator@PEAVBoid@1Application@@@std@@@std@@AEBA_K_K@Z DD imagerel $LN5
	DD	imagerel $LN5+151
	DD	imagerel $unwind$?_Calculate_growth@?$vector@PEAVBoid@1Application@@V?$allocator@PEAVBoid@1Application@@@std@@@std@@AEBA_K_K@Z
pdata	ENDS
;	COMDAT pdata
pdata	SEGMENT
$pdata$?_Change_array@?$vector@PEAVBoid@1Application@@V?$allocator@PEAVBoid@1Application@@@std@@@std@@AEAAXQEAPEAVBoid@3Application@@_K1@Z DD imagerel $LN4
	DD	imagerel $LN4+250
	DD	imagerel $unwind$?_Change_array@?$vector@PEAVBoid@1Application@@V?$allocator@PEAVBoid@1Application@@@std@@@std@@AEAAXQEAPEAVBoid@3Application@@_K1@Z
pdata	ENDS
;	COMDAT pdata
pdata	SEGMENT
$pdata$?_Tidy@?$vector@PEAVBoid@1Application@@V?$allocator@PEAVBoid@1Application@@@std@@@std@@AEAAXXZ DD imagerel $LN4
	DD	imagerel $LN4+207
	DD	imagerel $unwind$?_Tidy@?$vector@PEAVBoid@1Application@@V?$allocator@PEAVBoid@1Application@@@std@@@std@@AEAAXXZ
pdata	ENDS
;	COMDAT pdata
pdata	SEGMENT
$pdata$?_Xlength@?$vector@PEAVBoid@1Application@@V?$allocator@PEAVBoid@1Application@@@std@@@std@@CAXXZ DD imagerel $LN3
	DD	imagerel $LN3+41
	DD	imagerel $unwind$?_Xlength@?$vector@PEAVBoid@1Application@@V?$allocator@PEAVBoid@1Application@@@std@@@std@@CAXXZ
pdata	ENDS
;	COMDAT pdata
pdata	SEGMENT
$pdata$?_Orphan_range@?$vector@PEAVBoid@1Application@@V?$allocator@PEAVBoid@1Application@@@std@@@std@@AEBAXPEAPEAVBoid@3Application@@0@Z DD imagerel $LN10
	DD	imagerel $LN10+227
	DD	imagerel $unwind$?_Orphan_range@?$vector@PEAVBoid@1Application@@V?$allocator@PEAVBoid@1Application@@@std@@@std@@AEBAXPEAPEAVBoid@3Application@@0@Z
pdata	ENDS
;	COMDAT pdata
pdata	SEGMENT
$pdata$?dtor$0@?0??_Orphan_range@?$vector@PEAVBoid@1Application@@V?$allocator@PEAVBoid@1Application@@@std@@@std@@AEBAXPEAPEAVBoid@3Application@@0@Z@4HA DD imagerel ?dtor$0@?0??_Orphan_range@?$vector@PEAVBoid@1Application@@V?$allocator@PEAVBoid@1Application@@@std@@@std@@AEBAXPEAPEAVBoid@3Application@@0@Z@4HA
	DD	imagerel ?dtor$0@?0??_Orphan_range@?$vector@PEAVBoid@1Application@@V?$allocator@PEAVBoid@1Application@@@std@@@std@@AEBAXPEAPEAVBoid@3Application@@0@Z@4HA+26
	DD	imagerel $unwind$?dtor$0@?0??_Orphan_range@?$vector@PEAVBoid@1Application@@V?$allocator@PEAVBoid@1Application@@@std@@@std@@AEBAXPEAPEAVBoid@3Application@@0@Z@4HA
pdata	ENDS
;	COMDAT pdata
pdata	SEGMENT
$pdata$??0Boid@0Application@@QEAA@MMAEBU?$tvec4@M$0A@@glm@@@Z DD imagerel $LN5
	DD	imagerel $LN5+236
	DD	imagerel $unwind$??0Boid@0Application@@QEAA@MMAEBU?$tvec4@M$0A@@glm@@@Z
pdata	ENDS
;	COMDAT pdata
pdata	SEGMENT
$pdata$?dtor$0@?0???0Boid@0Application@@QEAA@MMAEBU?$tvec4@M$0A@@glm@@@Z@4HA DD imagerel ?dtor$0@?0???0Boid@0Application@@QEAA@MMAEBU?$tvec4@M$0A@@glm@@@Z@4HA
	DD	imagerel ?dtor$0@?0???0Boid@0Application@@QEAA@MMAEBU?$tvec4@M$0A@@glm@@@Z@4HA+28
	DD	imagerel $unwind$?dtor$0@?0???0Boid@0Application@@QEAA@MMAEBU?$tvec4@M$0A@@glm@@@Z@4HA
pdata	ENDS
;	COMDAT pdata
pdata	SEGMENT
$pdata$??0Boid@0Application@@QEAA@MMI@Z DD imagerel $LN5
	DD	imagerel $LN5+365
	DD	imagerel $unwind$??0Boid@0Application@@QEAA@MMI@Z
pdata	ENDS
;	COMDAT pdata
pdata	SEGMENT
$pdata$?dtor$0@?0???0Boid@0Application@@QEAA@MMI@Z@4HA DD imagerel ?dtor$0@?0???0Boid@0Application@@QEAA@MMI@Z@4HA
	DD	imagerel ?dtor$0@?0???0Boid@0Application@@QEAA@MMI@Z@4HA+25
	DD	imagerel $unwind$?dtor$0@?0???0Boid@0Application@@QEAA@MMI@Z@4HA
pdata	ENDS
;	COMDAT pdata
pdata	SEGMENT
$pdata$?dtor$1@?0???0Boid@0Application@@QEAA@MMI@Z@4HA DD imagerel ?dtor$1@?0???0Boid@0Application@@QEAA@MMI@Z@4HA
	DD	imagerel ?dtor$1@?0???0Boid@0Application@@QEAA@MMI@Z@4HA+29
	DD	imagerel $unwind$?dtor$1@?0???0Boid@0Application@@QEAA@MMI@Z@4HA
pdata	ENDS
;	COMDAT pdata
pdata	SEGMENT
$pdata$??1Boid@0Application@@UEAA@XZ DD imagerel $LN3
	DD	imagerel $LN3+83
	DD	imagerel $unwind$??1Boid@0Application@@UEAA@XZ
pdata	ENDS
;	COMDAT pdata
pdata	SEGMENT
$pdata$?updatePos@Boid@1Application@@QEAAXXZ DD imagerel $LN7
	DD	imagerel $LN7+227
	DD	imagerel $unwind$?updatePos@Boid@1Application@@QEAAXXZ
pdata	ENDS
;	COMDAT pdata
pdata	SEGMENT
$pdata$?updateFlockMates@Boid@1Application@@QEAAXAEBV?$vector@PEAVBoid@1Application@@V?$allocator@PEAVBoid@1Application@@@std@@@std@@@Z DD imagerel $LN8
	DD	imagerel $LN8+196
	DD	imagerel $unwind$?updateFlockMates@Boid@1Application@@QEAAXAEBV?$vector@PEAVBoid@1Application@@V?$allocator@PEAVBoid@1Application@@@std@@@std@@@Z
pdata	ENDS
;	COMDAT pdata
pdata	SEGMENT
$pdata$?updateSteer@Boid@1Application@@QEAAXXZ DD imagerel $LN19
	DD	imagerel $LN19+1679
	DD	imagerel $unwind$?updateSteer@Boid@1Application@@QEAAXXZ
pdata	ENDS
;	COMDAT pdata
pdata	SEGMENT
$pdata$?inRadius@Boid@1Application@@AEBA_NPEBV112@@Z DD imagerel $LN5
	DD	imagerel $LN5+181
	DD	imagerel $unwind$?inRadius@Boid@1Application@@AEBA_NPEBV112@@Z
pdata	ENDS
;	COMDAT pdata
pdata	SEGMENT
$pdata$??_GBoid@0Application@@UEAAPEAXI@Z DD imagerel $LN4
	DD	imagerel $LN4+62
	DD	imagerel $unwind$??_GBoid@0Application@@UEAAPEAXI@Z
pdata	ENDS
;	COMDAT pdata
pdata	SEGMENT
$pdata$??$?YM@?$tvec2@M$0A@@glm@@QEAAAEAU01@AEBU01@@Z DD imagerel $LN3
	DD	imagerel $LN3+93
	DD	imagerel $unwind$??$?YM@?$tvec2@M$0A@@glm@@QEAAAEAU01@AEBU01@@Z
pdata	ENDS
;	COMDAT pdata
pdata	SEGMENT
$pdata$??$length@M$0A@Utvec2@glm@@@glm@@YAMAEBU?$tvec2@M$0A@@0@@Z DD imagerel $LN3
	DD	imagerel $LN3+42
	DD	imagerel $unwind$??$length@M$0A@Utvec2@glm@@@glm@@YAMAEBU?$tvec2@M$0A@@0@@Z
pdata	ENDS
;	COMDAT pdata
pdata	SEGMENT
$pdata$??$?_0M@?$tvec2@M$0A@@glm@@QEAAAEAU01@M@Z DD imagerel $LN3
	DD	imagerel $LN3+87
	DD	imagerel $unwind$??$?_0M@?$tvec2@M$0A@@glm@@QEAAAEAU01@M@Z
pdata	ENDS
;	COMDAT pdata
pdata	SEGMENT
$pdata$??$?GM$0A@@glm@@YA?AU?$tvec4@M$0A@@0@AEBU10@0@Z DD imagerel $LN3
	DD	imagerel $LN3+99
	DD	imagerel $unwind$??$?GM$0A@@glm@@YA?AU?$tvec4@M$0A@@0@AEBU10@0@Z
pdata	ENDS
;	COMDAT pdata
pdata	SEGMENT
$pdata$??$length@M$0A@Utvec4@glm@@@glm@@YAMAEBU?$tvec4@M$0A@@0@@Z DD imagerel $LN3
	DD	imagerel $LN3+42
	DD	imagerel $unwind$??$length@M$0A@Utvec4@glm@@@glm@@YAMAEBU?$tvec4@M$0A@@0@@Z
pdata	ENDS
;	COMDAT pdata
pdata	SEGMENT
$pdata$??$?0M$0A@@?$tvec3@M$0A@@glm@@QEAA@AEBU?$tvec4@M$0A@@1@@Z DD imagerel $LN3
	DD	imagerel $LN3+94
	DD	imagerel $unwind$??$?0M$0A@@?$tvec3@M$0A@@glm@@QEAA@AEBU?$tvec4@M$0A@@1@@Z
pdata	ENDS
;	COMDAT pdata
pdata	SEGMENT
$pdata$??$length@M$0A@Utvec3@glm@@@glm@@YAMAEBU?$tvec3@M$0A@@0@@Z DD imagerel $LN3
	DD	imagerel $LN3+42
	DD	imagerel $unwind$??$length@M$0A@Utvec3@glm@@@glm@@YAMAEBU?$tvec3@M$0A@@0@@Z
pdata	ENDS
;	COMDAT pdata
pdata	SEGMENT
$pdata$??$?_0M@?$tvec3@M$0A@@glm@@QEAAAEAU01@M@Z DD imagerel $LN3
	DD	imagerel $LN3+110
	DD	imagerel $unwind$??$?_0M@?$tvec3@M$0A@@glm@@QEAAAEAU01@M@Z
pdata	ENDS
;	COMDAT pdata
pdata	SEGMENT
$pdata$??$?YM@?$tvec3@M$0A@@glm@@QEAAAEAU01@AEBU01@@Z DD imagerel $LN3
	DD	imagerel $LN3+120
	DD	imagerel $unwind$??$?YM@?$tvec3@M$0A@@glm@@QEAAAEAU01@AEBU01@@Z
pdata	ENDS
;	COMDAT pdata
pdata	SEGMENT
$pdata$??$?XH@?$tvec3@M$0A@@glm@@QEAAAEAU01@H@Z DD imagerel $LN3
	DD	imagerel $LN3+129
	DD	imagerel $unwind$??$?XH@?$tvec3@M$0A@@glm@@QEAAAEAU01@H@Z
pdata	ENDS
;	COMDAT pdata
pdata	SEGMENT
$pdata$??$?YM@?$tvec4@M$0A@@glm@@QEAAAEAU01@AEBU01@@Z DD imagerel $LN3
	DD	imagerel $LN3+110
	DD	imagerel $unwind$??$?YM@?$tvec4@M$0A@@glm@@QEAAAEAU01@AEBU01@@Z
pdata	ENDS
;	COMDAT pdata
pdata	SEGMENT
$pdata$??$?_0_K@?$tvec4@M$0A@@glm@@QEAAAEAU01@_K@Z DD imagerel $LN4
	DD	imagerel $LN4+125
	DD	imagerel $unwind$??$?_0_K@?$tvec4@M$0A@@glm@@QEAAAEAU01@_K@Z
pdata	ENDS
;	COMDAT pdata
pdata	SEGMENT
$pdata$??$?_0M@?$tvec4@M$0A@@glm@@QEAAAEAU01@M@Z DD imagerel $LN3
	DD	imagerel $LN3+106
	DD	imagerel $unwind$??$?_0M@?$tvec4@M$0A@@glm@@QEAAAEAU01@M@Z
pdata	ENDS
;	COMDAT pdata
pdata	SEGMENT
$pdata$??$emplace_back@AEBQEAVBoid@1Application@@@?$vector@PEAVBoid@1Application@@V?$allocator@PEAVBoid@1Application@@@std@@@std@@QEAA@AEBQEAVBoid@2Application@@@Z DD imagerel $LN4
	DD	imagerel $LN4+122
	DD	imagerel $unwind$??$emplace_back@AEBQEAVBoid@1Application@@@?$vector@PEAVBoid@1Application@@V?$allocator@PEAVBoid@1Application@@@std@@@std@@QEAA@AEBQEAVBoid@2Application@@@Z
pdata	ENDS
;	COMDAT pdata
pdata	SEGMENT
$pdata$??$forward@AEBQEAVBoid@1Application@@@std@@YAAEBQEAVBoid@1Application@@AEBQEAV112@@Z DD imagerel $LN3
	DD	imagerel $LN3+46
	DD	imagerel $unwind$??$forward@AEBQEAVBoid@1Application@@@std@@YAAEBQEAVBoid@1Application@@AEBQEAV112@@Z
pdata	ENDS
;	COMDAT pdata
pdata	SEGMENT
$pdata$??$_Emplace_back_with_unused_capacity@AEBQEAVBoid@1Application@@@?$vector@PEAVBoid@1Application@@V?$allocator@PEAVBoid@1Application@@@std@@@std@@AEAA@AEBQEAVBoid@2Application@@@Z DD imagerel $LN3
	DD	imagerel $LN3+194
	DD	imagerel $unwind$??$_Emplace_back_with_unused_capacity@AEBQEAVBoid@1Application@@@?$vector@PEAVBoid@1Application@@V?$allocator@PEAVBoid@1Application@@@std@@@std@@AEAA@AEBQEAVBoid@2Application@@@Z
pdata	ENDS
;	COMDAT pdata
pdata	SEGMENT
$pdata$??$_Unfancy@PEAVBoid@1Application@@@std@@YAPEAPEAVBoid@1Application@@PEAPEAV112@@Z DD imagerel $LN3
	DD	imagerel $LN3+37
	DD	imagerel $unwind$??$_Unfancy@PEAVBoid@1Application@@@std@@YAPEAPEAVBoid@1Application@@PEAPEAV112@@Z
pdata	ENDS
;	COMDAT pdata
pdata	SEGMENT
$pdata$??$construct@PEAVBoid@1Application@@AEBQEAV112@@?$_Default_allocator_traits@V?$allocator@PEAVBoid@1Application@@@std@@@std@@SAXAEAV?$allocator@PEAVBoid@1Application@@@1@QEAPEAVBoid@3Application@@AEBQEAV334@@Z DD imagerel $LN3
	DD	imagerel $LN3+80
	DD	imagerel $unwind$??$construct@PEAVBoid@1Application@@AEBQEAV112@@?$_Default_allocator_traits@V?$allocator@PEAVBoid@1Application@@@std@@@std@@SAXAEAV?$allocator@PEAVBoid@1Application@@@1@QEAPEAVBoid@3Application@@AEBQEAV334@@Z
pdata	ENDS
;	COMDAT pdata
pdata	SEGMENT
$pdata$??$_Emplace_reallocate@AEBQEAVBoid@1Application@@@?$vector@PEAVBoid@1Application@@V?$allocator@PEAVBoid@1Application@@@std@@@std@@QEAAPEAPEAVBoid@2Application@@QEAPEAV223@AEBQEAV223@@Z DD imagerel $LN13
	DD	imagerel $LN13+544
	DD	imagerel $unwind$??$_Emplace_reallocate@AEBQEAVBoid@1Application@@@?$vector@PEAVBoid@1Application@@V?$allocator@PEAVBoid@1Application@@@std@@@std@@QEAAPEAPEAVBoid@2Application@@QEAPEAV223@AEBQEAV223@@Z
pdata	ENDS
;	COMDAT pdata
pdata	SEGMENT
$pdata$?catch$0@?0???$_Emplace_reallocate@AEBQEAVBoid@1Application@@@?$vector@PEAVBoid@1Application@@V?$allocator@PEAVBoid@1Application@@@std@@@std@@QEAAPEAPEAVBoid@2Application@@QEAPEAV223@AEBQEAV223@@Z@4HA DD imagerel ?catch$0@?0???$_Emplace_reallocate@AEBQEAVBoid@1Application@@@?$vector@PEAVBoid@1Application@@V?$allocator@PEAVBoid@1Application@@@std@@@std@@QEAAPEAPEAVBoid@2Application@@QEAPEAV223@AEBQEAV223@@Z@4HA
	DD	imagerel ?catch$0@?0???$_Emplace_reallocate@AEBQEAVBoid@1Application@@@?$vector@PEAVBoid@1Application@@V?$allocator@PEAVBoid@1Application@@@std@@@std@@QEAAPEAPEAVBoid@2Application@@QEAPEAV223@AEBQEAV223@@Z@4HA+75
	DD	imagerel $unwind$?catch$0@?0???$_Emplace_reallocate@AEBQEAVBoid@1Application@@@?$vector@PEAVBoid@1Application@@V?$allocator@PEAVBoid@1Application@@@std@@@std@@QEAAPEAPEAVBoid@2Application@@QEAPEAV223@AEBQEAV223@@Z@4HA
pdata	ENDS
;	COMDAT pdata
pdata	SEGMENT
$pdata$??$?0$$V@?$_Compressed_pair@V?$allocator@PEAVBoid@1Application@@@std@@V?$_Vector_val@U?$_Simple_types@PEAVBoid@1Application@@@std@@@2@$00@std@@QEAA@U_Zero_then_variadic_args_t@1@@Z DD imagerel $LN3
	DD	imagerel $LN3+62
	DD	imagerel $unwind$??$?0$$V@?$_Compressed_pair@V?$allocator@PEAVBoid@1Application@@@std@@V?$_Vector_val@U?$_Simple_types@PEAVBoid@1Application@@@std@@@2@$00@std@@QEAA@U_Zero_then_variadic_args_t@1@@Z
pdata	ENDS
;	COMDAT pdata
pdata	SEGMENT
$pdata$??$_Destroy_range@V?$allocator@PEAVBoid@1Application@@@std@@@std@@YAXPEAPEAVBoid@1Application@@0AEAV?$allocator@PEAVBoid@1Application@@@0@@Z DD imagerel $LN3
	DD	imagerel $LN3+86
	DD	imagerel $unwind$??$_Destroy_range@V?$allocator@PEAVBoid@1Application@@@std@@@std@@YAXPEAPEAVBoid@1Application@@0AEAV?$allocator@PEAVBoid@1Application@@@0@@Z
pdata	ENDS
;	COMDAT pdata
pdata	SEGMENT
$pdata$??$_Allocate@$0BA@U_Default_allocate_traits@std@@$0A@@std@@YAPEAX_K@Z DD imagerel $LN5
	DD	imagerel $LN5+74
	DD	imagerel $unwind$??$_Allocate@$0BA@U_Default_allocate_traits@std@@$0A@@std@@YAPEAX_K@Z
pdata	ENDS
;	COMDAT pdata
pdata	SEGMENT
$pdata$??$_Deallocate@$0BA@$0A@@std@@YAXPEAX_K@Z DD imagerel $LN4
	DD	imagerel $LN4+74
	DD	imagerel $unwind$??$_Deallocate@$0BA@$0A@@std@@YAXPEAX_K@Z
pdata	ENDS
;	COMDAT pdata
pdata	SEGMENT
$pdata$?allocate@?$allocator@U_Container_proxy@std@@@std@@QEAAPEAU_Container_proxy@2@_K@Z DD imagerel $LN3
	DD	imagerel $LN3+55
	DD	imagerel $unwind$?allocate@?$allocator@U_Container_proxy@std@@@std@@QEAAPEAU_Container_proxy@2@_K@Z
pdata	ENDS
;	COMDAT pdata
pdata	SEGMENT
$pdata$??$?0PEAVBoid@0Application@@@?$allocator@U_Container_proxy@std@@@std@@QEAA@AEBV?$allocator@PEAVBoid@1Application@@@1@@Z DD imagerel $LN3
	DD	imagerel $LN3+51
	DD	imagerel $unwind$??$?0PEAVBoid@0Application@@@?$allocator@U_Container_proxy@std@@@std@@QEAA@AEBV?$allocator@PEAVBoid@1Application@@@1@@Z
pdata	ENDS
;	COMDAT pdata
pdata	SEGMENT
$pdata$?deallocate@?$_Default_allocator_traits@V?$allocator@U_Container_proxy@std@@@std@@@std@@SAXAEAV?$allocator@U_Container_proxy@std@@@2@QEAU_Container_proxy@2@_K@Z DD imagerel $LN3
	DD	imagerel $LN3+60
	DD	imagerel $unwind$?deallocate@?$_Default_allocator_traits@V?$allocator@U_Container_proxy@std@@@std@@@std@@SAXAEAV?$allocator@U_Container_proxy@std@@@2@QEAU_Container_proxy@2@_K@Z
pdata	ENDS
;	COMDAT pdata
pdata	SEGMENT
$pdata$??$destroy@U_Container_proxy@std@@@?$_Default_allocator_traits@V?$allocator@U_Container_proxy@std@@@std@@@std@@SAXAEAV?$allocator@U_Container_proxy@std@@@1@QEAU_Container_proxy@1@@Z DD imagerel $LN3
	DD	imagerel $LN3+38
	DD	imagerel $unwind$??$destroy@U_Container_proxy@std@@@?$_Default_allocator_traits@V?$allocator@U_Container_proxy@std@@@std@@@std@@SAXAEAV?$allocator@U_Container_proxy@std@@@1@QEAU_Container_proxy@1@@Z
pdata	ENDS
;	COMDAT pdata
pdata	SEGMENT
$pdata$??$_Deallocate_plain@V?$allocator@U_Container_proxy@std@@@std@@$0A@@std@@YAXAEAV?$allocator@U_Container_proxy@std@@@0@QEAU_Container_proxy@0@@Z DD imagerel $LN3
	DD	imagerel $LN3+57
	DD	imagerel $unwind$??$_Deallocate_plain@V?$allocator@U_Container_proxy@std@@@std@@$0A@@std@@YAXAEAV?$allocator@U_Container_proxy@std@@@0@QEAU_Container_proxy@0@@Z
pdata	ENDS
;	COMDAT pdata
pdata	SEGMENT
$pdata$??$_Unfancy@U_Container_proxy@std@@@std@@YAPEAU_Container_proxy@0@PEAU10@@Z DD imagerel $LN3
	DD	imagerel $LN3+37
	DD	imagerel $unwind$??$_Unfancy@U_Container_proxy@std@@@std@@YAPEAU_Container_proxy@0@PEAU10@@Z
pdata	ENDS
;	COMDAT pdata
pdata	SEGMENT
$pdata$??$construct@U_Container_proxy@std@@U12@@?$_Default_allocator_traits@V?$allocator@U_Container_proxy@std@@@std@@@std@@SAXAEAV?$allocator@U_Container_proxy@std@@@1@QEAU_Container_proxy@1@$$QEAU31@@Z DD imagerel $LN3
	DD	imagerel $LN3+91
	DD	imagerel $unwind$??$construct@U_Container_proxy@std@@U12@@?$_Default_allocator_traits@V?$allocator@U_Container_proxy@std@@@std@@@std@@SAXAEAV?$allocator@U_Container_proxy@std@@@1@QEAU_Container_proxy@1@$$QEAU31@@Z
pdata	ENDS
;	COMDAT pdata
pdata	SEGMENT
$pdata$??$addressof@V?$_Vector_val@U?$_Simple_types@PEAVBoid@1Application@@@std@@@std@@@std@@YAPEAV?$_Vector_val@U?$_Simple_types@PEAVBoid@1Application@@@std@@@0@AEAV10@@Z DD imagerel $LN3
	DD	imagerel $LN3+46
	DD	imagerel $unwind$??$addressof@V?$_Vector_val@U?$_Simple_types@PEAVBoid@1Application@@@std@@@std@@@std@@YAPEAV?$_Vector_val@U?$_Simple_types@PEAVBoid@1Application@@@std@@@0@AEAV10@@Z
pdata	ENDS
;	COMDAT pdata
pdata	SEGMENT
$pdata$??$_Get_size_of_n@$0BA@@std@@YA_K_K@Z DD imagerel $LN4
	DD	imagerel $LN4+84
	DD	imagerel $unwind$??$_Get_size_of_n@$0BA@@std@@YA_K_K@Z
pdata	ENDS
;	COMDAT pdata
pdata	SEGMENT
$pdata$?call@?$compute_length@Utvec2@glm@@M$0A@$0A@@detail@glm@@SAMAEBU?$tvec2@M$0A@@3@@Z DD imagerel $LN3
	DD	imagerel $LN3+51
	DD	imagerel $unwind$?call@?$compute_length@Utvec2@glm@@M$0A@$0A@@detail@glm@@SAMAEBU?$tvec2@M$0A@@3@@Z
pdata	ENDS
;	COMDAT pdata
pdata	SEGMENT
$pdata$??$?ZM@?$tvec4@M$0A@@glm@@QEAAAEAU01@AEBU01@@Z DD imagerel $LN3
	DD	imagerel $LN3+110
	DD	imagerel $unwind$??$?ZM@?$tvec4@M$0A@@glm@@QEAAAEAU01@AEBU01@@Z
pdata	ENDS
;	COMDAT pdata
pdata	SEGMENT
$pdata$?call@?$compute_length@Utvec4@glm@@M$0A@$0A@@detail@glm@@SAMAEBU?$tvec4@M$0A@@3@@Z DD imagerel $LN3
	DD	imagerel $LN3+51
	DD	imagerel $unwind$?call@?$compute_length@Utvec4@glm@@M$0A@$0A@@detail@glm@@SAMAEBU?$tvec4@M$0A@@3@@Z
pdata	ENDS
;	COMDAT pdata
pdata	SEGMENT
$pdata$?call@?$compute_length@Utvec3@glm@@M$0A@$0A@@detail@glm@@SAMAEBU?$tvec3@M$0A@@3@@Z DD imagerel $LN3
	DD	imagerel $LN3+51
	DD	imagerel $unwind$?call@?$compute_length@Utvec3@glm@@M$0A@$0A@@detail@glm@@SAMAEBU?$tvec3@M$0A@@3@@Z
pdata	ENDS
;	COMDAT pdata
pdata	SEGMENT
$pdata$?call@?$compute_vec4_add@M$0A@$0A@@detail@glm@@SA?AU?$tvec4@M$0A@@3@AEBU43@0@Z DD imagerel $LN3
	DD	imagerel $LN3+151
	DD	imagerel $unwind$?call@?$compute_vec4_add@M$0A@$0A@@detail@glm@@SA?AU?$tvec4@M$0A@@3@AEBU43@0@Z
pdata	ENDS
;	COMDAT pdata
pdata	SEGMENT
$pdata$?call@?$compute_vec4_div@M$0A@$0A@@detail@glm@@SA?AU?$tvec4@M$0A@@3@AEBU43@0@Z DD imagerel $LN3
	DD	imagerel $LN3+151
	DD	imagerel $unwind$?call@?$compute_vec4_div@M$0A@$0A@@detail@glm@@SA?AU?$tvec4@M$0A@@3@AEBU43@0@Z
pdata	ENDS
;	COMDAT pdata
pdata	SEGMENT
$pdata$??$_Destroy_range1@V?$allocator@PEAVBoid@1Application@@@std@@@std@@YAXPEAPEAVBoid@1Application@@0AEAV?$allocator@PEAVBoid@1Application@@@0@U?$integral_constant@_N$00@0@@Z DD imagerel $LN3
	DD	imagerel $LN3+48
	DD	imagerel $unwind$??$_Destroy_range1@V?$allocator@PEAVBoid@1Application@@@std@@@std@@YAXPEAPEAVBoid@1Application@@0AEAV?$allocator@PEAVBoid@1Application@@@0@U?$integral_constant@_N$00@0@@Z
pdata	ENDS
;	COMDAT pdata
pdata	SEGMENT
$pdata$??$_Allocate_manually_vector_aligned@U_Default_allocate_traits@std@@@std@@YAPEAX_K@Z DD imagerel $LN13
	DD	imagerel $LN13+269
	DD	imagerel $unwind$??$_Allocate_manually_vector_aligned@U_Default_allocate_traits@std@@@std@@YAPEAX_K@Z
pdata	ENDS
;	COMDAT pdata
pdata	SEGMENT
$pdata$??$forward@U_Container_proxy@std@@@std@@YA$$QEAU_Container_proxy@0@AEAU10@@Z DD imagerel $LN3
	DD	imagerel $LN3+46
	DD	imagerel $unwind$??$forward@U_Container_proxy@std@@@std@@YA$$QEAU_Container_proxy@0@AEAU10@@Z
pdata	ENDS
;	COMDAT pdata
pdata	SEGMENT
$pdata$??$dot@M$0A@Utvec3@glm@@@glm@@YAMAEBU?$tvec3@M$0A@@0@0@Z DD imagerel $LN3
	DD	imagerel $LN3+51
	DD	imagerel $unwind$??$dot@M$0A@Utvec3@glm@@@glm@@YAMAEBU?$tvec3@M$0A@@0@0@Z
pdata	ENDS
;	COMDAT pdata
pdata	SEGMENT
$pdata$??$dot@M$0A@Utvec4@glm@@@glm@@YAMAEBU?$tvec4@M$0A@@0@0@Z DD imagerel $LN3
	DD	imagerel $LN3+51
	DD	imagerel $unwind$??$dot@M$0A@Utvec4@glm@@@glm@@YAMAEBU?$tvec4@M$0A@@0@0@Z
pdata	ENDS
;	COMDAT pdata
pdata	SEGMENT
$pdata$??$dot@M$0A@Utvec2@glm@@@glm@@YAMAEBU?$tvec2@M$0A@@0@0@Z DD imagerel $LN3
	DD	imagerel $LN3+51
	DD	imagerel $unwind$??$dot@M$0A@Utvec2@glm@@@glm@@YAMAEBU?$tvec2@M$0A@@0@0@Z
pdata	ENDS
;	COMDAT pdata
pdata	SEGMENT
$pdata$??$_Uninitialized_move@PEAPEAVBoid@1Application@@PEAPEAV112@V?$allocator@PEAVBoid@1Application@@@std@@@std@@YAPEAPEAVBoid@1Application@@QEAPEAV112@0PEAPEAV112@AEAV?$allocator@PEAVBoid@1Application@@@0@@Z DD imagerel $LN3
	DD	imagerel $LN3+219
	DD	imagerel $unwind$??$_Uninitialized_move@PEAPEAVBoid@1Application@@PEAPEAV112@V?$allocator@PEAVBoid@1Application@@@std@@@std@@YAPEAPEAVBoid@1Application@@QEAPEAV112@0PEAPEAV112@AEAV?$allocator@PEAVBoid@1Application@@@0@@Z
pdata	ENDS
;	COMDAT pdata
pdata	SEGMENT
$pdata$??$_Get_size_of_n@$07@std@@YA_K_K@Z DD imagerel $LN4
	DD	imagerel $LN4+87
	DD	imagerel $unwind$??$_Get_size_of_n@$07@std@@YA_K_K@Z
pdata	ENDS
;	COMDAT pdata
pdata	SEGMENT
$pdata$?call@?$compute_vec4_mul@M$0A@$0A@@detail@glm@@SA?AU?$tvec4@M$0A@@3@AEBU43@0@Z DD imagerel $LN3
	DD	imagerel $LN3+151
	DD	imagerel $unwind$?call@?$compute_vec4_mul@M$0A@$0A@@detail@glm@@SA?AU?$tvec4@M$0A@@3@AEBU43@0@Z
pdata	ENDS
;	COMDAT pdata
pdata	SEGMENT
$pdata$?call@?$compute_vec4_sub@M$0A@$0A@@detail@glm@@SA?AU?$tvec4@M$0A@@3@AEBU43@0@Z DD imagerel $LN3
	DD	imagerel $LN3+151
	DD	imagerel $unwind$?call@?$compute_vec4_sub@M$0A@$0A@@detail@glm@@SA?AU?$tvec4@M$0A@@3@AEBU43@0@Z
pdata	ENDS
;	COMDAT pdata
pdata	SEGMENT
$pdata$?call@?$compute_dot@Utvec3@glm@@M$0A@$0A@@detail@glm@@SAMAEBU?$tvec3@M$0A@@3@0@Z DD imagerel $LN3
	DD	imagerel $LN3+99
	DD	imagerel $unwind$?call@?$compute_dot@Utvec3@glm@@M$0A@$0A@@detail@glm@@SAMAEBU?$tvec3@M$0A@@3@0@Z
pdata	ENDS
;	COMDAT pdata
pdata	SEGMENT
$pdata$?call@?$compute_dot@Utvec4@glm@@M$0A@$0A@@detail@glm@@SAMAEBU?$tvec4@M$0A@@3@0@Z DD imagerel $LN3
	DD	imagerel $LN3+108
	DD	imagerel $unwind$?call@?$compute_dot@Utvec4@glm@@M$0A@$0A@@detail@glm@@SAMAEBU?$tvec4@M$0A@@3@0@Z
pdata	ENDS
;	COMDAT pdata
pdata	SEGMENT
$pdata$?call@?$compute_dot@Utvec2@glm@@M$0A@$0A@@detail@glm@@SAMAEBU?$tvec2@M$0A@@3@0@Z DD imagerel $LN3
	DD	imagerel $LN3+91
	DD	imagerel $unwind$?call@?$compute_dot@Utvec2@glm@@M$0A@$0A@@detail@glm@@SAMAEBU?$tvec2@M$0A@@3@0@Z
pdata	ENDS
;	COMDAT pdata
pdata	SEGMENT
$pdata$??$_Get_unwrapped@PEAVBoid@1Application@@@std@@YAPEAPEAVBoid@1Application@@QEAPEAV112@@Z DD imagerel $LN3
	DD	imagerel $LN3+37
	DD	imagerel $unwind$??$_Get_unwrapped@PEAVBoid@1Application@@@std@@YAPEAPEAVBoid@1Application@@QEAPEAV112@@Z
pdata	ENDS
;	COMDAT pdata
pdata	SEGMENT
$pdata$??$_Idl_distance@PEAPEAVBoid@1Application@@PEAPEAV112@@std@@YA@AEBQEAPEAVBoid@1Application@@0@Z DD imagerel $LN3
	DD	imagerel $LN3+56
	DD	imagerel $unwind$??$_Idl_distance@PEAPEAVBoid@1Application@@PEAPEAV112@@std@@YA@AEBQEAPEAVBoid@1Application@@0@Z
pdata	ENDS
;	COMDAT pdata
pdata	SEGMENT
$pdata$??$_Idl_distance1@PEAPEAVBoid@1Application@@PEAPEAV112@@std@@YA_JAEBQEAPEAVBoid@1Application@@0Urandom_access_iterator_tag@0@@Z DD imagerel $LN3
	DD	imagerel $LN3+64
	DD	imagerel $unwind$??$_Idl_distance1@PEAPEAVBoid@1Application@@PEAPEAV112@@std@@YA_JAEBQEAPEAVBoid@1Application@@0Urandom_access_iterator_tag@0@@Z
pdata	ENDS
;	COMDAT pdata
pdata	SEGMENT
$pdata$??$_Get_unwrapped_n@PEAVBoid@1Application@@_J$0A@@std@@YAPEAPEAVBoid@1Application@@QEAPEAV112@_J@Z DD imagerel $LN3
	DD	imagerel $LN3+42
	DD	imagerel $unwind$??$_Get_unwrapped_n@PEAVBoid@1Application@@_J$0A@@std@@YAPEAPEAVBoid@1Application@@QEAPEAV112@_J@Z
pdata	ENDS
;	COMDAT pdata
pdata	SEGMENT
$pdata$??$_Ptr_move_cat@PEAVBoid@1Application@@PEAV112@@std@@YA?AU_Really_trivial_ptr_iterator_tag@0@AEBQEAPEAVBoid@2Application@@0@Z DD imagerel $LN3
	DD	imagerel $LN3+47
	DD	imagerel $unwind$??$_Ptr_move_cat@PEAVBoid@1Application@@PEAV112@@std@@YA?AU_Really_trivial_ptr_iterator_tag@0@AEBQEAPEAVBoid@2Application@@0@Z
pdata	ENDS
;	COMDAT pdata
pdata	SEGMENT
$pdata$??$_Uninitialized_move_al_unchecked@PEAVBoid@1Application@@PEAV112@V?$allocator@PEAVBoid@1Application@@@std@@@std@@YAPEAPEAVBoid@1Application@@QEAPEAV112@00AEAV?$allocator@PEAVBoid@1Application@@@0@U_Really_trivial_ptr_iterator_tag@0@U?$integral_constant@_N$00@0@@Z DD imagerel $LN3
	DD	imagerel $LN3+65
	DD	imagerel $unwind$??$_Uninitialized_move_al_unchecked@PEAVBoid@1Application@@PEAV112@V?$allocator@PEAVBoid@1Application@@@std@@@std@@YAPEAPEAVBoid@1Application@@QEAPEAV112@00AEAV?$allocator@PEAVBoid@1Application@@@0@U_Really_trivial_ptr_iterator_tag@0@U?$integral_constant@_N$00@0@@Z
pdata	ENDS
;	COMDAT pdata
pdata	SEGMENT
$pdata$??$_Seek_wrapped@PEAVBoid@1Application@@@std@@YAXAEAPEAPEAVBoid@1Application@@QEAPEAV112@@Z DD imagerel $LN3
	DD	imagerel $LN3+49
	DD	imagerel $unwind$??$_Seek_wrapped@PEAVBoid@1Application@@@std@@YAXAEAPEAPEAVBoid@1Application@@QEAPEAV112@@Z
pdata	ENDS
;	COMDAT pdata
pdata	SEGMENT
$pdata$??$?DM$0A@@glm@@YA?AU?$tvec2@M$0A@@0@AEBU10@0@Z DD imagerel $LN3
	DD	imagerel $LN3+93
	DD	imagerel $unwind$??$?DM$0A@@glm@@YA?AU?$tvec2@M$0A@@0@AEBU10@0@Z
pdata	ENDS
;	COMDAT pdata
pdata	SEGMENT
$pdata$??$?DM$0A@@glm@@YA?AU?$tvec4@M$0A@@0@AEBU10@0@Z DD imagerel $LN3
	DD	imagerel $LN3+99
	DD	imagerel $unwind$??$?DM$0A@@glm@@YA?AU?$tvec4@M$0A@@0@AEBU10@0@Z
pdata	ENDS
;	COMDAT pdata
pdata	SEGMENT
$pdata$??$?DM$0A@@glm@@YA?AU?$tvec3@M$0A@@0@AEBU10@0@Z DD imagerel $LN3
	DD	imagerel $LN3+127
	DD	imagerel $unwind$??$?DM$0A@@glm@@YA?AU?$tvec3@M$0A@@0@AEBU10@0@Z
pdata	ENDS
;	COMDAT pdata
pdata	SEGMENT
$pdata$??$_Copy_memmove@PEAPEAVBoid@1Application@@PEAPEAV112@@std@@YAPEAPEAVBoid@1Application@@PEAPEAV112@00@Z DD imagerel $LN3
	DD	imagerel $LN3+122
	DD	imagerel $unwind$??$_Copy_memmove@PEAPEAVBoid@1Application@@PEAPEAV112@@std@@YAPEAPEAVBoid@1Application@@PEAPEAV112@00@Z
pdata	ENDS
;	COMDAT pdata
pdata	SEGMENT
$pdata$??$?XM@?$tvec4@M$0A@@glm@@QEAAAEAU01@AEBU01@@Z DD imagerel $LN3
	DD	imagerel $LN3+110
	DD	imagerel $unwind$??$?XM@?$tvec4@M$0A@@glm@@QEAAAEAU01@AEBU01@@Z
pdata	ENDS
;	COMDAT __real@c1000000
CONST	SEGMENT
__real@c1000000 DD 0c1000000r			; -8
CONST	ENDS
;	COMDAT __real@c0900000
CONST	SEGMENT
__real@c0900000 DD 0c0900000r			; -4.5
CONST	ENDS
;	COMDAT __real@5f800000
CONST	SEGMENT
__real@5f800000 DD 05f800000r			; 1.84467e+19
CONST	ENDS
;	COMDAT __real@461c4000
CONST	SEGMENT
__real@461c4000 DD 0461c4000r			; 10000
CONST	ENDS
;	COMDAT __real@447a0000
CONST	SEGMENT
__real@447a0000 DD 0447a0000r			; 1000
CONST	ENDS
;	COMDAT __real@41200000
CONST	SEGMENT
__real@41200000 DD 041200000r			; 10
CONST	ENDS
;	COMDAT __real@41000000
CONST	SEGMENT
__real@41000000 DD 041000000r			; 8
CONST	ENDS
;	COMDAT __real@40900000
CONST	SEGMENT
__real@40900000 DD 040900000r			; 4.5
CONST	ENDS
;	COMDAT __real@3f800000
CONST	SEGMENT
__real@3f800000 DD 03f800000r			; 1
CONST	ENDS
;	COMDAT __real@3f000000
CONST	SEGMENT
__real@3f000000 DD 03f000000r			; 0.5
CONST	ENDS
;	COMDAT __real@3e19999a
CONST	SEGMENT
__real@3e19999a DD 03e19999ar			; 0.15
CONST	ENDS
;	COMDAT __real@3dcccccd
CONST	SEGMENT
__real@3dcccccd DD 03dcccccdr			; 0.1
CONST	ENDS
;	COMDAT __real@3d4ccccd
CONST	SEGMENT
__real@3d4ccccd DD 03d4ccccdr			; 0.05
CONST	ENDS
;	COMDAT __real@3c23d70a
CONST	SEGMENT
__real@3c23d70a DD 03c23d70ar			; 0.01
CONST	ENDS
;	COMDAT rtc$TMZ
rtc$TMZ	SEGMENT
_RTC_Shutdown.rtc$TMZ DQ FLAT:_RTC_Shutdown
rtc$TMZ	ENDS
;	COMDAT rtc$IMZ
rtc$IMZ	SEGMENT
_RTC_InitBase.rtc$IMZ DQ FLAT:_RTC_InitBase
rtc$IMZ	ENDS
;	COMDAT ??_R2Renderable2D@graphics@core@@8
rdata$r	SEGMENT
??_R2Renderable2D@graphics@core@@8 DD imagerel ??_R1A@?0A@EA@Renderable2D@graphics@core@@8 ; core::graphics::Renderable2D::`RTTI Base Class Array'
	ORG $+3
rdata$r	ENDS
;	COMDAT ??_R3Renderable2D@graphics@core@@8
rdata$r	SEGMENT
??_R3Renderable2D@graphics@core@@8 DD 00H		; core::graphics::Renderable2D::`RTTI Class Hierarchy Descriptor'
	DD	00H
	DD	01H
	DD	imagerel ??_R2Renderable2D@graphics@core@@8
rdata$r	ENDS
;	COMDAT ??_R0?AVRenderable2D@graphics@core@@@8
data$r	SEGMENT
??_R0?AVRenderable2D@graphics@core@@@8 DQ FLAT:??_7type_info@@6B@ ; core::graphics::Renderable2D `RTTI Type Descriptor'
	DQ	0000000000000000H
	DB	'.?AVRenderable2D@graphics@core@@', 00H
data$r	ENDS
;	COMDAT ??_R1A@?0A@EA@Renderable2D@graphics@core@@8
rdata$r	SEGMENT
??_R1A@?0A@EA@Renderable2D@graphics@core@@8 DD imagerel ??_R0?AVRenderable2D@graphics@core@@@8 ; core::graphics::Renderable2D::`RTTI Base Class Descriptor at (0,-1,0,64)'
	DD	00H
	DD	00H
	DD	0ffffffffH
	DD	00H
	DD	040H
	DD	imagerel ??_R3Renderable2D@graphics@core@@8
rdata$r	ENDS
;	COMDAT ??_R1A@?0A@EA@Boid@0Application@@8
rdata$r	SEGMENT
??_R1A@?0A@EA@Boid@0Application@@8 DD imagerel ??_R0?AVBoid@0Application@@@8 ; Application::Boid::Boid::`RTTI Base Class Descriptor at (0,-1,0,64)'
	DD	01H
	DD	00H
	DD	0ffffffffH
	DD	00H
	DD	040H
	DD	imagerel ??_R3Boid@0Application@@8
rdata$r	ENDS
;	COMDAT ??_R2Boid@0Application@@8
rdata$r	SEGMENT
??_R2Boid@0Application@@8 DD imagerel ??_R1A@?0A@EA@Boid@0Application@@8 ; Application::Boid::Boid::`RTTI Base Class Array'
	DD	imagerel ??_R1A@?0A@EA@Renderable2D@graphics@core@@8
	ORG $+3
rdata$r	ENDS
;	COMDAT ??_R3Boid@0Application@@8
rdata$r	SEGMENT
??_R3Boid@0Application@@8 DD 00H			; Application::Boid::Boid::`RTTI Class Hierarchy Descriptor'
	DD	00H
	DD	02H
	DD	imagerel ??_R2Boid@0Application@@8
rdata$r	ENDS
;	COMDAT ??_R0?AVBoid@0Application@@@8
data$r	SEGMENT
??_R0?AVBoid@0Application@@@8 DQ FLAT:??_7type_info@@6B@ ; Application::Boid::Boid `RTTI Type Descriptor'
	DQ	0000000000000000H
	DB	'.?AVBoid@0Application@@', 00H
data$r	ENDS
;	COMDAT ??_R4Boid@0Application@@6B@
rdata$r	SEGMENT
??_R4Boid@0Application@@6B@ DD 01H			; Application::Boid::Boid::`RTTI Complete Object Locator'
	DD	00H
	DD	00H
	DD	imagerel ??_R0?AVBoid@0Application@@@8
	DD	imagerel ??_R3Boid@0Application@@8
	DD	imagerel ??_R4Boid@0Application@@6B@
rdata$r	ENDS
;	COMDAT ??_C@_1EO@GFNCMDLA@?$AAs?$AAt?$AAd?$AA?3?$AA?3?$AA_?$AAA?$AAl?$AAl?$AAo?$AAc?$AAa?$AAt?$AAe?$AA_@
CONST	SEGMENT
??_C@_1EO@GFNCMDLA@?$AAs?$AAt?$AAd?$AA?3?$AA?3?$AA_?$AAA?$AAl?$AAl?$AAo?$AAc?$AAa?$AAt?$AAe?$AA_@ DB 's'
	DB	00H, 't', 00H, 'd', 00H, ':', 00H, ':', 00H, '_', 00H, 'A', 00H
	DB	'l', 00H, 'l', 00H, 'o', 00H, 'c', 00H, 'a', 00H, 't', 00H, 'e'
	DB	00H, '_', 00H, 'm', 00H, 'a', 00H, 'n', 00H, 'u', 00H, 'a', 00H
	DB	'l', 00H, 'l', 00H, 'y', 00H, '_', 00H, 'v', 00H, 'e', 00H, 'c'
	DB	00H, 't', 00H, 'o', 00H, 'r', 00H, '_', 00H, 'a', 00H, 'l', 00H
	DB	'i', 00H, 'g', 00H, 'n', 00H, 'e', 00H, 'd', 00H, 00H, 00H ; `string'
CONST	ENDS
;	COMDAT ??_C@_0BD@OLBABOEK@vector?$DMT?$DO?5too?5long@
CONST	SEGMENT
??_C@_0BD@OLBABOEK@vector?$DMT?$DO?5too?5long@ DB 'vector<T> too long', 00H ; `string'
CONST	ENDS
;	COMDAT ??_C@_1EA@LEKOKFNB@?$AA?$CC?$AAv?$AAe?$AAc?$AAt?$AAo?$AAr?$AA?5?$AAs?$AAu?$AAb?$AAs?$AAc?$AAr?$AAi@
CONST	SEGMENT
??_C@_1EA@LEKOKFNB@?$AA?$CC?$AAv?$AAe?$AAc?$AAt?$AAo?$AAr?$AA?5?$AAs?$AAu?$AAb?$AAs?$AAc?$AAr?$AAi@ DB '"'
	DB	00H, 'v', 00H, 'e', 00H, 'c', 00H, 't', 00H, 'o', 00H, 'r', 00H
	DB	' ', 00H, 's', 00H, 'u', 00H, 'b', 00H, 's', 00H, 'c', 00H, 'r'
	DB	00H, 'i', 00H, 'p', 00H, 't', 00H, ' ', 00H, 'o', 00H, 'u', 00H
	DB	't', 00H, ' ', 00H, 'o', 00H, 'f', 00H, ' ', 00H, 'r', 00H, 'a'
	DB	00H, 'n', 00H, 'g', 00H, 'e', 00H, '"', 00H, 00H, 00H ; `string'
CONST	ENDS
;	COMDAT ??_C@_1OC@PHEOANKE@?$AAs?$AAt?$AAd?$AA?3?$AA?3?$AAv?$AAe?$AAc?$AAt?$AAo?$AAr?$AA?$DM?$AAc?$AAl?$AAa@
CONST	SEGMENT
??_C@_1OC@PHEOANKE@?$AAs?$AAt?$AAd?$AA?3?$AA?3?$AAv?$AAe?$AAc?$AAt?$AAo?$AAr?$AA?$DM?$AAc?$AAl?$AAa@ DB 's'
	DB	00H, 't', 00H, 'd', 00H, ':', 00H, ':', 00H, 'v', 00H, 'e', 00H
	DB	'c', 00H, 't', 00H, 'o', 00H, 'r', 00H, '<', 00H, 'c', 00H, 'l'
	DB	00H, 'a', 00H, 's', 00H, 's', 00H, ' ', 00H, 'A', 00H, 'p', 00H
	DB	'p', 00H, 'l', 00H, 'i', 00H, 'c', 00H, 'a', 00H, 't', 00H, 'i'
	DB	00H, 'o', 00H, 'n', 00H, ':', 00H, ':', 00H, 'B', 00H, 'o', 00H
	DB	'i', 00H, 'd', 00H, ':', 00H, ':', 00H, 'B', 00H, 'o', 00H, 'i'
	DB	00H, 'd', 00H, ' ', 00H, '*', 00H, ',', 00H, 'c', 00H, 'l', 00H
	DB	'a', 00H, 's', 00H, 's', 00H, ' ', 00H, 's', 00H, 't', 00H, 'd'
	DB	00H, ':', 00H, ':', 00H, 'a', 00H, 'l', 00H, 'l', 00H, 'o', 00H
	DB	'c', 00H, 'a', 00H, 't', 00H, 'o', 00H, 'r', 00H, '<', 00H, 'c'
	DB	00H, 'l', 00H, 'a', 00H, 's', 00H, 's', 00H, ' ', 00H, 'A', 00H
	DB	'p', 00H, 'p', 00H, 'l', 00H, 'i', 00H, 'c', 00H, 'a', 00H, 't'
	DB	00H, 'i', 00H, 'o', 00H, 'n', 00H, ':', 00H, ':', 00H, 'B', 00H
	DB	'o', 00H, 'i', 00H, 'd', 00H, ':', 00H, ':', 00H, 'B', 00H, 'o'
	DB	00H, 'i', 00H, 'd', 00H, ' ', 00H, '*', 00H, '>', 00H, ' ', 00H
	DB	'>', 00H, ':', 00H, ':', 00H, 'o', 00H, 'p', 00H, 'e', 00H, 'r'
	DB	00H, 'a', 00H, 't', 00H, 'o', 00H, 'r', 00H, ' ', 00H, '[', 00H
	DB	']', 00H, 00H, 00H				; `string'
CONST	ENDS
;	COMDAT ??_C@_1NA@LINFDFEH@?$AAc?$AA?3?$AA?2?$AAp?$AAr?$AAo?$AAg?$AAr?$AAa?$AAm?$AA?5?$AAf?$AAi?$AAl?$AAe@
CONST	SEGMENT
??_C@_1NA@LINFDFEH@?$AAc?$AA?3?$AA?2?$AAp?$AAr?$AAo?$AAg?$AAr?$AAa?$AAm?$AA?5?$AAf?$AAi?$AAl?$AAe@ DB 'c'
	DB	00H, ':', 00H, '\', 00H, 'p', 00H, 'r', 00H, 'o', 00H, 'g', 00H
	DB	'r', 00H, 'a', 00H, 'm', 00H, ' ', 00H, 'f', 00H, 'i', 00H, 'l'
	DB	00H, 'e', 00H, 's', 00H, ' ', 00H, '(', 00H, 'x', 00H, '8', 00H
	DB	'6', 00H, ')', 00H, '\', 00H, 'm', 00H, 'i', 00H, 'c', 00H, 'r'
	DB	00H, 'o', 00H, 's', 00H, 'o', 00H, 'f', 00H, 't', 00H, ' ', 00H
	DB	'v', 00H, 'i', 00H, 's', 00H, 'u', 00H, 'a', 00H, 'l', 00H, ' '
	DB	00H, 's', 00H, 't', 00H, 'u', 00H, 'd', 00H, 'i', 00H, 'o', 00H
	DB	'\', 00H, '2', 00H, '0', 00H, '1', 00H, '7', 00H, '\', 00H, 'e'
	DB	00H, 'n', 00H, 't', 00H, 'e', 00H, 'r', 00H, 'p', 00H, 'r', 00H
	DB	'i', 00H, 's', 00H, 'e', 00H, '\', 00H, 'v', 00H, 'c', 00H, '\'
	DB	00H, 't', 00H, 'o', 00H, 'o', 00H, 'l', 00H, 's', 00H, '\', 00H
	DB	'm', 00H, 's', 00H, 'v', 00H, 'c', 00H, '\', 00H, '1', 00H, '4'
	DB	00H, '.', 00H, '1', 00H, '5', 00H, '.', 00H, '2', 00H, '6', 00H
	DB	'7', 00H, '2', 00H, '6', 00H, '\', 00H, 'i', 00H, 'n', 00H, 'c'
	DB	00H, 'l', 00H, 'u', 00H, 'd', 00H, 'e', 00H, '\', 00H, 'v', 00H
	DB	'e', 00H, 'c', 00H, 't', 00H, 'o', 00H, 'r', 00H, 00H, 00H ; `string'
CONST	ENDS
;	COMDAT ??_C@_0GI@LCGNDFBO@c?3?2program?5files?5?$CIx86?$CJ?2microsof@
CONST	SEGMENT
??_C@_0GI@LCGNDFBO@c?3?2program?5files?5?$CIx86?$CJ?2microsof@ DB 'c:\pro'
	DB	'gram files (x86)\microsoft visual studio\2017\enterprise\vc\t'
	DB	'ools\msvc\14.15.26726\include\vector', 00H	; `string'
CONST	ENDS
;	COMDAT ??_C@_0BO@PFKOHNJC@vector?5subscript?5out?5of?5range@
CONST	SEGMENT
??_C@_0BO@PFKOHNJC@vector?5subscript?5out?5of?5range@ DB 'vector subscrip'
	DB	't out of range', 00H			; `string'
CONST	ENDS
;	COMDAT ??_7Boid@0Application@@6B@
CONST	SEGMENT
??_7Boid@0Application@@6B@ DQ FLAT:??_R4Boid@0Application@@6B@ ; Application::Boid::Boid::`vftable'
	DQ	FLAT:??_EBoid@0Application@@UEAAPEAXI@Z
CONST	ENDS
;	COMDAT ??_C@_1EK@NIFDJFDG@?$AAs?$AAt?$AAd?$AA?3?$AA?3?$AA_?$AAA?$AAd?$AAj?$AAu?$AAs?$AAt?$AA_?$AAm?$AAa@
CONST	SEGMENT
??_C@_1EK@NIFDJFDG@?$AAs?$AAt?$AAd?$AA?3?$AA?3?$AA_?$AAA?$AAd?$AAj?$AAu?$AAs?$AAt?$AA_?$AAm?$AAa@ DB 's'
	DB	00H, 't', 00H, 'd', 00H, ':', 00H, ':', 00H, '_', 00H, 'A', 00H
	DB	'd', 00H, 'j', 00H, 'u', 00H, 's', 00H, 't', 00H, '_', 00H, 'm'
	DB	00H, 'a', 00H, 'n', 00H, 'u', 00H, 'a', 00H, 'l', 00H, 'l', 00H
	DB	'y', 00H, '_', 00H, 'v', 00H, 'e', 00H, 'c', 00H, 't', 00H, 'o'
	DB	00H, 'r', 00H, '_', 00H, 'a', 00H, 'l', 00H, 'i', 00H, 'g', 00H
	DB	'n', 00H, 'e', 00H, 'd', 00H, 00H, 00H	; `string'
CONST	ENDS
;	COMDAT ??_C@_1NE@MCNNPIKO@?$AAc?$AA?3?$AA?2?$AAp?$AAr?$AAo?$AAg?$AAr?$AAa?$AAm?$AA?5?$AAf?$AAi?$AAl?$AAe@
CONST	SEGMENT
??_C@_1NE@MCNNPIKO@?$AAc?$AA?3?$AA?2?$AAp?$AAr?$AAo?$AAg?$AAr?$AAa?$AAm?$AA?5?$AAf?$AAi?$AAl?$AAe@ DB 'c'
	DB	00H, ':', 00H, '\', 00H, 'p', 00H, 'r', 00H, 'o', 00H, 'g', 00H
	DB	'r', 00H, 'a', 00H, 'm', 00H, ' ', 00H, 'f', 00H, 'i', 00H, 'l'
	DB	00H, 'e', 00H, 's', 00H, ' ', 00H, '(', 00H, 'x', 00H, '8', 00H
	DB	'6', 00H, ')', 00H, '\', 00H, 'm', 00H, 'i', 00H, 'c', 00H, 'r'
	DB	00H, 'o', 00H, 's', 00H, 'o', 00H, 'f', 00H, 't', 00H, ' ', 00H
	DB	'v', 00H, 'i', 00H, 's', 00H, 'u', 00H, 'a', 00H, 'l', 00H, ' '
	DB	00H, 's', 00H, 't', 00H, 'u', 00H, 'd', 00H, 'i', 00H, 'o', 00H
	DB	'\', 00H, '2', 00H, '0', 00H, '1', 00H, '7', 00H, '\', 00H, 'e'
	DB	00H, 'n', 00H, 't', 00H, 'e', 00H, 'r', 00H, 'p', 00H, 'r', 00H
	DB	'i', 00H, 's', 00H, 'e', 00H, '\', 00H, 'v', 00H, 'c', 00H, '\'
	DB	00H, 't', 00H, 'o', 00H, 'o', 00H, 'l', 00H, 's', 00H, '\', 00H
	DB	'm', 00H, 's', 00H, 'v', 00H, 'c', 00H, '\', 00H, '1', 00H, '4'
	DB	00H, '.', 00H, '1', 00H, '5', 00H, '.', 00H, '2', 00H, '6', 00H
	DB	'7', 00H, '2', 00H, '6', 00H, '\', 00H, 'i', 00H, 'n', 00H, 'c'
	DB	00H, 'l', 00H, 'u', 00H, 'd', 00H, 'e', 00H, '\', 00H, 'x', 00H
	DB	'm', 00H, 'e', 00H, 'm', 00H, 'o', 00H, 'r', 00H, 'y', 00H, '0'
	DB	00H, 00H, 00H				; `string'
CONST	ENDS
;	COMDAT ??_C@_0GK@FKLKIKPD@c?3?2program?5files?5?$CIx86?$CJ?2microsof@
CONST	SEGMENT
??_C@_0GK@FKLKIKPD@c?3?2program?5files?5?$CIx86?$CJ?2microsof@ DB 'c:\pro'
	DB	'gram files (x86)\microsoft visual studio\2017\enterprise\vc\t'
	DB	'ools\msvc\14.15.26726\include\xmemory0', 00H ; `string'
CONST	ENDS
;	COMDAT ?__LINE__Var@?0??_Adjust_manually_vector_aligned@std@@YAXAEAPEAXAEA_K@Z@4JA
_DATA	SEGMENT
?__LINE__Var@?0??_Adjust_manually_vector_aligned@std@@YAXAEAPEAXAEA_K@Z@4JA DD 072H ; `std::_Adjust_manually_vector_aligned'::`1'::__LINE__Var
_DATA	ENDS
;	COMDAT ??_C@_1CG@JNLFBNGN@?$AA?$CC?$AAi?$AAn?$AAv?$AAa?$AAl?$AAi?$AAd?$AA?5?$AAa?$AAr?$AAg?$AAu?$AAm?$AAe@
CONST	SEGMENT
??_C@_1CG@JNLFBNGN@?$AA?$CC?$AAi?$AAn?$AAv?$AAa?$AAl?$AAi?$AAd?$AA?5?$AAa?$AAr?$AAg?$AAu?$AAm?$AAe@ DB '"'
	DB	00H, 'i', 00H, 'n', 00H, 'v', 00H, 'a', 00H, 'l', 00H, 'i', 00H
	DB	'd', 00H, ' ', 00H, 'a', 00H, 'r', 00H, 'g', 00H, 'u', 00H, 'm'
	DB	00H, 'e', 00H, 'n', 00H, 't', 00H, '"', 00H, 00H, 00H ; `string'
CONST	ENDS
;	COMDAT ??_C@_02DKCKIIND@?$CFs@
CONST	SEGMENT
??_C@_02DKCKIIND@?$CFs@ DB '%s', 00H			; `string'
CONST	ENDS
;	COMDAT ??_C@_0BB@FCMFBGOM@invalid?5argument@
CONST	SEGMENT
??_C@_0BB@FCMFBGOM@invalid?5argument@ DB 'invalid argument', 00H ; `string'
CONST	ENDS
;	COMDAT xdata
xdata	SEGMENT
$unwind$??$?XM@?$tvec4@M$0A@@glm@@QEAAAEAU01@AEBU01@@Z DD 025051901H
	DD	0f2142319H
	DD	0600c700dH
	DD	0500bH
xdata	ENDS
;	COMDAT xdata
xdata	SEGMENT
$unwind$??$_Copy_memmove@PEAPEAVBoid@1Application@@PEAPEAV112@@std@@YAPEAPEAVBoid@1Application@@PEAPEAV112@00@Z DD 025031c01H
	DD	0f217231cH
	DD	05010H
xdata	ENDS
;	COMDAT xdata
xdata	SEGMENT
$unwind$??$?DM$0A@@glm@@YA?AU?$tvec3@M$0A@@0@AEBU10@0@Z DD 025031901H
	DD	0d2142319H
	DD	05010H
xdata	ENDS
;	COMDAT xdata
xdata	SEGMENT
$unwind$??$?DM$0A@@glm@@YA?AU?$tvec4@M$0A@@0@AEBU10@0@Z DD 025051b01H
	DD	0d216231bH
	DD	060117012H
	DD	05010H
xdata	ENDS
;	COMDAT xdata
xdata	SEGMENT
$unwind$??$?DM$0A@@glm@@YA?AU?$tvec2@M$0A@@0@AEBU10@0@Z DD 025031901H
	DD	0b2142319H
	DD	05010H
xdata	ENDS
;	COMDAT xdata
xdata	SEGMENT
$unwind$??$_Seek_wrapped@PEAVBoid@1Application@@@std@@YAXAEAPEAPEAVBoid@1Application@@QEAPEAV112@@Z DD 025031401H
	DD	0b20f2314H
	DD	0500bH
xdata	ENDS
;	COMDAT xdata
xdata	SEGMENT
$unwind$??$_Uninitialized_move_al_unchecked@PEAVBoid@1Application@@PEAV112@V?$allocator@PEAVBoid@1Application@@@std@@@std@@YAPEAPEAVBoid@1Application@@QEAPEAV112@00AEAV?$allocator@PEAVBoid@1Application@@@0@U_Really_trivial_ptr_iterator_tag@0@U?$integral_constant@_N$00@0@@Z DD 025031e01H
	DD	0b219231eH
	DD	05015H
xdata	ENDS
;	COMDAT xdata
xdata	SEGMENT
$unwind$??$_Ptr_move_cat@PEAVBoid@1Application@@PEAV112@@std@@YA?AU_Really_trivial_ptr_iterator_tag@0@AEBQEAPEAVBoid@2Application@@0@Z DD 025031901H
	DD	0b2142319H
	DD	05010H
xdata	ENDS
;	COMDAT xdata
xdata	SEGMENT
$unwind$??$_Get_unwrapped_n@PEAVBoid@1Application@@_J$0A@@std@@YAPEAPEAVBoid@1Application@@QEAPEAV112@_J@Z DD 025031401H
	DD	0b20f2314H
	DD	0500bH
xdata	ENDS
;	COMDAT xdata
xdata	SEGMENT
$unwind$??$_Idl_distance1@PEAPEAVBoid@1Application@@PEAPEAV112@@std@@YA_JAEBQEAPEAVBoid@1Application@@0Urandom_access_iterator_tag@0@@Z DD 025031901H
	DD	0b2142319H
	DD	05010H
xdata	ENDS
;	COMDAT xdata
xdata	SEGMENT
$unwind$??$_Idl_distance@PEAPEAVBoid@1Application@@PEAPEAV112@@std@@YA@AEBQEAPEAVBoid@1Application@@0@Z DD 025031401H
	DD	0d20f2314H
	DD	0500bH
xdata	ENDS
;	COMDAT xdata
xdata	SEGMENT
$unwind$??$_Get_unwrapped@PEAVBoid@1Application@@@std@@YAPEAPEAVBoid@1Application@@QEAPEAV112@@Z DD 025030f01H
	DD	0b20a230fH
	DD	05006H
xdata	ENDS
;	COMDAT xdata
xdata	SEGMENT
$unwind$?call@?$compute_dot@Utvec2@glm@@M$0A@$0A@@detail@glm@@SAMAEBU?$tvec2@M$0A@@3@0@Z DD 025032219H
	DD	0d20f2314H
	DD	0500bH
	DD	imagerel __GSHandlerCheck
	DD	068H
xdata	ENDS
;	COMDAT xdata
xdata	SEGMENT
$unwind$?call@?$compute_dot@Utvec4@glm@@M$0A@$0A@@detail@glm@@SAMAEBU?$tvec4@M$0A@@3@0@Z DD 025032519H
	DD	0f2122317H
	DD	0500bH
	DD	imagerel __GSHandlerCheck
	DD	070H
xdata	ENDS
;	COMDAT xdata
xdata	SEGMENT
$unwind$?call@?$compute_dot@Utvec3@glm@@M$0A@$0A@@detail@glm@@SAMAEBU?$tvec3@M$0A@@3@0@Z DD 025032519H
	DD	0f2122317H
	DD	0500bH
	DD	imagerel __GSHandlerCheck
	DD	070H
xdata	ENDS
;	COMDAT xdata
xdata	SEGMENT
$unwind$?call@?$compute_vec4_sub@M$0A@$0A@@detail@glm@@SA?AU?$tvec4@M$0A@@3@AEBU43@0@Z DD 035031c01H
	DD	0f217331cH
	DD	05010H
xdata	ENDS
;	COMDAT xdata
xdata	SEGMENT
$unwind$?call@?$compute_vec4_mul@M$0A@$0A@@detail@glm@@SA?AU?$tvec4@M$0A@@3@AEBU43@0@Z DD 035031c01H
	DD	0f217331cH
	DD	05010H
xdata	ENDS
;	COMDAT xdata
xdata	SEGMENT
$unwind$??$_Get_size_of_n@$07@std@@YA_K_K@Z DD 025030f01H
	DD	0d20a230fH
	DD	05006H
xdata	ENDS
;	COMDAT xdata
xdata	SEGMENT
$unwind$??$_Uninitialized_move@PEAPEAVBoid@1Application@@PEAPEAV112@V?$allocator@PEAVBoid@1Application@@@std@@@std@@YAPEAPEAVBoid@1Application@@QEAPEAV112@0PEAPEAV112@AEAV?$allocator@PEAVBoid@1Application@@@0@@Z DD 035042f19H
	DD	011c3321H
	DD	050150014H
	DD	imagerel __GSHandlerCheck
	DD	090H
xdata	ENDS
;	COMDAT xdata
xdata	SEGMENT
$unwind$??$dot@M$0A@Utvec2@glm@@@glm@@YAMAEBU?$tvec2@M$0A@@0@0@Z DD 025031401H
	DD	0b20f2314H
	DD	0500bH
xdata	ENDS
;	COMDAT xdata
xdata	SEGMENT
$unwind$??$dot@M$0A@Utvec4@glm@@@glm@@YAMAEBU?$tvec4@M$0A@@0@0@Z DD 025031401H
	DD	0b20f2314H
	DD	0500bH
xdata	ENDS
;	COMDAT xdata
xdata	SEGMENT
$unwind$??$dot@M$0A@Utvec3@glm@@@glm@@YAMAEBU?$tvec3@M$0A@@0@0@Z DD 025031401H
	DD	0b20f2314H
	DD	0500bH
xdata	ENDS
;	COMDAT xdata
xdata	SEGMENT
$ip2state$??$forward@U_Container_proxy@std@@@std@@YA$$QEAU_Container_proxy@0@AEAU10@@Z DD imagerel ??$forward@U_Container_proxy@std@@@std@@YA$$QEAU_Container_proxy@0@AEAU10@@Z
	DD	0ffffffffH
xdata	ENDS
;	COMDAT CONST
CONST	SEGMENT
$cppxdata$??$forward@U_Container_proxy@std@@@std@@YA$$QEAU_Container_proxy@0@AEAU10@@Z DD 019930522H
	DD	00H
	DD	00H
	DD	00H
	DD	00H
	DD	01H
	DD	imagerel $ip2state$??$forward@U_Container_proxy@std@@@std@@YA$$QEAU_Container_proxy@0@AEAU10@@Z
	DD	060H
	DD	00H
	DD	05H
CONST	ENDS
;	COMDAT xdata
xdata	SEGMENT
$unwind$??$forward@U_Container_proxy@std@@@std@@YA$$QEAU_Container_proxy@0@AEAU10@@Z DD 025031719H
	DD	0d20a230fH
	DD	05006H
	DD	imagerel __CxxFrameHandler3
	DD	imagerel $cppxdata$??$forward@U_Container_proxy@std@@@std@@YA$$QEAU_Container_proxy@0@AEAU10@@Z
xdata	ENDS
;	COMDAT xdata
xdata	SEGMENT
$unwind$??$_Allocate_manually_vector_aligned@U_Default_allocate_traits@std@@@std@@YAPEAX_K@Z DD 035041201H
	DD	010d3312H
	DD	050060012H
xdata	ENDS
;	COMDAT xdata
xdata	SEGMENT
$unwind$??$_Destroy_range1@V?$allocator@PEAVBoid@1Application@@@std@@@std@@YAXPEAPEAVBoid@1Application@@0AEAV?$allocator@PEAVBoid@1Application@@@0@U?$integral_constant@_N$00@0@@Z DD 025031e01H
	DD	0b219231eH
	DD	05015H
xdata	ENDS
;	COMDAT xdata
xdata	SEGMENT
$unwind$?call@?$compute_vec4_div@M$0A@$0A@@detail@glm@@SA?AU?$tvec4@M$0A@@3@AEBU43@0@Z DD 035031c01H
	DD	0f217331cH
	DD	05010H
xdata	ENDS
;	COMDAT xdata
xdata	SEGMENT
$unwind$?call@?$compute_vec4_add@M$0A@$0A@@detail@glm@@SA?AU?$tvec4@M$0A@@3@AEBU43@0@Z DD 035031c01H
	DD	0f217331cH
	DD	05010H
xdata	ENDS
;	COMDAT xdata
xdata	SEGMENT
$unwind$?call@?$compute_length@Utvec3@glm@@M$0A@$0A@@detail@glm@@SAMAEBU?$tvec3@M$0A@@3@@Z DD 025030f01H
	DD	0b20a230fH
	DD	05006H
xdata	ENDS
;	COMDAT xdata
xdata	SEGMENT
$unwind$?call@?$compute_length@Utvec4@glm@@M$0A@$0A@@detail@glm@@SAMAEBU?$tvec4@M$0A@@3@@Z DD 025030f01H
	DD	0b20a230fH
	DD	05006H
xdata	ENDS
;	COMDAT xdata
xdata	SEGMENT
$unwind$??$?ZM@?$tvec4@M$0A@@glm@@QEAAAEAU01@AEBU01@@Z DD 025051901H
	DD	0f2142319H
	DD	0600c700dH
	DD	0500bH
xdata	ENDS
;	COMDAT xdata
xdata	SEGMENT
$unwind$?call@?$compute_length@Utvec2@glm@@M$0A@$0A@@detail@glm@@SAMAEBU?$tvec2@M$0A@@3@@Z DD 025030f01H
	DD	0b20a230fH
	DD	05006H
xdata	ENDS
;	COMDAT xdata
xdata	SEGMENT
$unwind$??$_Get_size_of_n@$0BA@@std@@YA_K_K@Z DD 025030f01H
	DD	0d20a230fH
	DD	05006H
xdata	ENDS
;	COMDAT xdata
xdata	SEGMENT
$ip2state$??$addressof@V?$_Vector_val@U?$_Simple_types@PEAVBoid@1Application@@@std@@@std@@@std@@YAPEAV?$_Vector_val@U?$_Simple_types@PEAVBoid@1Application@@@std@@@0@AEAV10@@Z DD imagerel ??$addressof@V?$_Vector_val@U?$_Simple_types@PEAVBoid@1Application@@@std@@@std@@@std@@YAPEAV?$_Vector_val@U?$_Simple_types@PEAVBoid@1Application@@@std@@@0@AEAV10@@Z
	DD	0ffffffffH
xdata	ENDS
;	COMDAT CONST
CONST	SEGMENT
$cppxdata$??$addressof@V?$_Vector_val@U?$_Simple_types@PEAVBoid@1Application@@@std@@@std@@@std@@YAPEAV?$_Vector_val@U?$_Simple_types@PEAVBoid@1Application@@@std@@@0@AEAV10@@Z DD 019930522H
	DD	00H
	DD	00H
	DD	00H
	DD	00H
	DD	01H
	DD	imagerel $ip2state$??$addressof@V?$_Vector_val@U?$_Simple_types@PEAVBoid@1Application@@@std@@@std@@@std@@YAPEAV?$_Vector_val@U?$_Simple_types@PEAVBoid@1Application@@@std@@@0@AEAV10@@Z
	DD	060H
	DD	00H
	DD	05H
CONST	ENDS
;	COMDAT xdata
xdata	SEGMENT
$unwind$??$addressof@V?$_Vector_val@U?$_Simple_types@PEAVBoid@1Application@@@std@@@std@@@std@@YAPEAV?$_Vector_val@U?$_Simple_types@PEAVBoid@1Application@@@std@@@0@AEAV10@@Z DD 025031719H
	DD	0d20a230fH
	DD	05006H
	DD	imagerel __CxxFrameHandler3
	DD	imagerel $cppxdata$??$addressof@V?$_Vector_val@U?$_Simple_types@PEAVBoid@1Application@@@std@@@std@@@std@@YAPEAV?$_Vector_val@U?$_Simple_types@PEAVBoid@1Application@@@std@@@0@AEAV10@@Z
xdata	ENDS
;	COMDAT xdata
xdata	SEGMENT
$unwind$??$construct@U_Container_proxy@std@@U12@@?$_Default_allocator_traits@V?$allocator@U_Container_proxy@std@@@std@@@std@@SAXAEAV?$allocator@U_Container_proxy@std@@@1@QEAU_Container_proxy@1@$$QEAU31@@Z DD 025051b01H
	DD	0d216231bH
	DD	060117012H
	DD	05010H
xdata	ENDS
;	COMDAT xdata
xdata	SEGMENT
$unwind$??$_Unfancy@U_Container_proxy@std@@@std@@YAPEAU_Container_proxy@0@PEAU10@@Z DD 025030f01H
	DD	0b20a230fH
	DD	05006H
xdata	ENDS
;	COMDAT xdata
xdata	SEGMENT
$unwind$??$_Deallocate_plain@V?$allocator@U_Container_proxy@std@@@std@@$0A@@std@@YAXAEAV?$allocator@U_Container_proxy@std@@@0@QEAU_Container_proxy@0@@Z DD 025031401H
	DD	0b20f2314H
	DD	0500bH
xdata	ENDS
;	COMDAT xdata
xdata	SEGMENT
$unwind$??$destroy@U_Container_proxy@std@@@?$_Default_allocator_traits@V?$allocator@U_Container_proxy@std@@@std@@@std@@SAXAEAV?$allocator@U_Container_proxy@std@@@1@QEAU_Container_proxy@1@@Z DD 025031401H
	DD	0b20f2314H
	DD	0500bH
xdata	ENDS
;	COMDAT xdata
xdata	SEGMENT
$unwind$?deallocate@?$_Default_allocator_traits@V?$allocator@U_Container_proxy@std@@@std@@@std@@SAXAEAV?$allocator@U_Container_proxy@std@@@2@QEAU_Container_proxy@2@_K@Z DD 025031901H
	DD	0b2142319H
	DD	05010H
xdata	ENDS
;	COMDAT xdata
xdata	SEGMENT
$ip2state$??$?0PEAVBoid@0Application@@@?$allocator@U_Container_proxy@std@@@std@@QEAA@AEBV?$allocator@PEAVBoid@1Application@@@1@@Z DD imagerel ??$?0PEAVBoid@0Application@@@?$allocator@U_Container_proxy@std@@@std@@QEAA@AEBV?$allocator@PEAVBoid@1Application@@@1@@Z
	DD	0ffffffffH
xdata	ENDS
;	COMDAT CONST
CONST	SEGMENT
$cppxdata$??$?0PEAVBoid@0Application@@@?$allocator@U_Container_proxy@std@@@std@@QEAA@AEBV?$allocator@PEAVBoid@1Application@@@1@@Z DD 019930522H
	DD	00H
	DD	00H
	DD	00H
	DD	00H
	DD	01H
	DD	imagerel $ip2state$??$?0PEAVBoid@0Application@@@?$allocator@U_Container_proxy@std@@@std@@QEAA@AEBV?$allocator@PEAVBoid@1Application@@@1@@Z
	DD	060H
	DD	00H
	DD	05H
CONST	ENDS
;	COMDAT xdata
xdata	SEGMENT
$unwind$??$?0PEAVBoid@0Application@@@?$allocator@U_Container_proxy@std@@@std@@QEAA@AEBV?$allocator@PEAVBoid@1Application@@@1@@Z DD 025031c19H
	DD	0d20f2314H
	DD	0500bH
	DD	imagerel __CxxFrameHandler3
	DD	imagerel $cppxdata$??$?0PEAVBoid@0Application@@@?$allocator@U_Container_proxy@std@@@std@@QEAA@AEBV?$allocator@PEAVBoid@1Application@@@1@@Z
xdata	ENDS
;	COMDAT xdata
xdata	SEGMENT
$unwind$?allocate@?$allocator@U_Container_proxy@std@@@std@@QEAAPEAU_Container_proxy@2@_K@Z DD 025031401H
	DD	0b20f2314H
	DD	0500bH
xdata	ENDS
;	COMDAT xdata
xdata	SEGMENT
$unwind$??$_Deallocate@$0BA@$0A@@std@@YAXPEAX_K@Z DD 025031401H
	DD	0b20f2314H
	DD	0500bH
xdata	ENDS
;	COMDAT xdata
xdata	SEGMENT
$unwind$??$_Allocate@$0BA@U_Default_allocate_traits@std@@$0A@@std@@YAPEAX_K@Z DD 025030f01H
	DD	0b20a230fH
	DD	05006H
xdata	ENDS
;	COMDAT xdata
xdata	SEGMENT
$unwind$??$_Destroy_range@V?$allocator@PEAVBoid@1Application@@@std@@@std@@YAXPEAPEAVBoid@1Application@@0AEAV?$allocator@PEAVBoid@1Application@@@0@@Z DD 025041a01H
	DD	0e215231aH
	DD	050107011H
xdata	ENDS
;	COMDAT xdata
xdata	SEGMENT
$unwind$??$?0$$V@?$_Compressed_pair@V?$allocator@PEAVBoid@1Application@@@std@@V?$_Vector_val@U?$_Simple_types@PEAVBoid@1Application@@@std@@@2@$00@std@@QEAA@U_Zero_then_variadic_args_t@1@@Z DD 025031301H
	DD	0b20e2313H
	DD	0500aH
xdata	ENDS
;	COMDAT xdata
xdata	SEGMENT
$unwind$?catch$0@?0???$_Emplace_reallocate@AEBQEAVBoid@1Application@@@?$vector@PEAVBoid@1Application@@V?$allocator@PEAVBoid@1Application@@@std@@@std@@QEAAPEAPEAVBoid@2Application@@QEAPEAV223@AEBQEAV223@@Z@4HA DD 020a19H
	DD	05006320aH
	DD	imagerel __CxxFrameHandler3
	DD	imagerel $cppxdata$??$_Emplace_reallocate@AEBQEAVBoid@1Application@@@?$vector@PEAVBoid@1Application@@V?$allocator@PEAVBoid@1Application@@@std@@@std@@QEAAPEAPEAVBoid@2Application@@QEAPEAV223@AEBQEAV223@@Z
xdata	ENDS
;	COMDAT xdata
xdata	SEGMENT
$ip2state$??$_Emplace_reallocate@AEBQEAVBoid@1Application@@@?$vector@PEAVBoid@1Application@@V?$allocator@PEAVBoid@1Application@@@std@@@std@@QEAAPEAPEAVBoid@2Application@@QEAPEAV223@AEBQEAV223@@Z DD imagerel ??$_Emplace_reallocate@AEBQEAVBoid@1Application@@@?$vector@PEAVBoid@1Application@@V?$allocator@PEAVBoid@1Application@@@std@@@std@@QEAAPEAPEAVBoid@2Application@@QEAPEAV223@AEBQEAV223@@Z
	DD	0ffffffffH
	DD	imagerel ??$_Emplace_reallocate@AEBQEAVBoid@1Application@@@?$vector@PEAVBoid@1Application@@V?$allocator@PEAVBoid@1Application@@@std@@@std@@QEAAPEAPEAVBoid@2Application@@QEAPEAV223@AEBQEAV223@@Z+215
	DD	00H
	DD	imagerel ??$_Emplace_reallocate@AEBQEAVBoid@1Application@@@?$vector@PEAVBoid@1Application@@V?$allocator@PEAVBoid@1Application@@@std@@@std@@QEAAPEAPEAVBoid@2Application@@QEAPEAV223@AEBQEAV223@@Z+486
	DD	0ffffffffH
	DD	imagerel ?catch$0@?0???$_Emplace_reallocate@AEBQEAVBoid@1Application@@@?$vector@PEAVBoid@1Application@@V?$allocator@PEAVBoid@1Application@@@std@@@std@@QEAAPEAPEAVBoid@2Application@@QEAPEAV223@AEBQEAV223@@Z@4HA
	DD	00H
	DD	imagerel ?catch$0@?0???$_Emplace_reallocate@AEBQEAVBoid@1Application@@@?$vector@PEAVBoid@1Application@@V?$allocator@PEAVBoid@1Application@@@std@@@std@@QEAAPEAPEAVBoid@2Application@@QEAPEAV223@AEBQEAV223@@Z@4HA+14
	DD	01H
	DD	imagerel ?catch$0@?0???$_Emplace_reallocate@AEBQEAVBoid@1Application@@@?$vector@PEAVBoid@1Application@@V?$allocator@PEAVBoid@1Application@@@std@@@std@@QEAAPEAPEAVBoid@2Application@@QEAPEAV223@AEBQEAV223@@Z@4HA+61
	DD	00H
xdata	ENDS
;	COMDAT xdata
xdata	SEGMENT
$handlerMap$0$??$_Emplace_reallocate@AEBQEAVBoid@1Application@@@?$vector@PEAVBoid@1Application@@V?$allocator@PEAVBoid@1Application@@@std@@@std@@QEAAPEAPEAVBoid@2Application@@QEAPEAV223@AEBQEAV223@@Z DD 040H
	DD	00H
	DD	00H
	DD	imagerel ?catch$0@?0???$_Emplace_reallocate@AEBQEAVBoid@1Application@@@?$vector@PEAVBoid@1Application@@V?$allocator@PEAVBoid@1Application@@@std@@@std@@QEAAPEAPEAVBoid@2Application@@QEAPEAV223@AEBQEAV223@@Z@4HA
	DD	038H
xdata	ENDS
;	COMDAT xdata
xdata	SEGMENT
$tryMap$??$_Emplace_reallocate@AEBQEAVBoid@1Application@@@?$vector@PEAVBoid@1Application@@V?$allocator@PEAVBoid@1Application@@@std@@@std@@QEAAPEAPEAVBoid@2Application@@QEAPEAV223@AEBQEAV223@@Z DD 00H
	DD	00H
	DD	01H
	DD	01H
	DD	imagerel $handlerMap$0$??$_Emplace_reallocate@AEBQEAVBoid@1Application@@@?$vector@PEAVBoid@1Application@@V?$allocator@PEAVBoid@1Application@@@std@@@std@@QEAAPEAPEAVBoid@2Application@@QEAPEAV223@AEBQEAV223@@Z
xdata	ENDS
;	COMDAT xdata
xdata	SEGMENT
$stateUnwindMap$??$_Emplace_reallocate@AEBQEAVBoid@1Application@@@?$vector@PEAVBoid@1Application@@V?$allocator@PEAVBoid@1Application@@@std@@@std@@QEAAPEAPEAVBoid@2Application@@QEAPEAV223@AEBQEAV223@@Z DD 0ffffffffH
	DD	00H
	DD	0ffffffffH
	DD	00H
xdata	ENDS
;	COMDAT CONST
CONST	SEGMENT
$cppxdata$??$_Emplace_reallocate@AEBQEAVBoid@1Application@@@?$vector@PEAVBoid@1Application@@V?$allocator@PEAVBoid@1Application@@@std@@@std@@QEAAPEAPEAVBoid@2Application@@QEAPEAV223@AEBQEAV223@@Z DD 019930522H
	DD	02H
	DD	imagerel $stateUnwindMap$??$_Emplace_reallocate@AEBQEAVBoid@1Application@@@?$vector@PEAVBoid@1Application@@V?$allocator@PEAVBoid@1Application@@@std@@@std@@QEAAPEAPEAVBoid@2Application@@QEAPEAV223@AEBQEAV223@@Z
	DD	01H
	DD	imagerel $tryMap$??$_Emplace_reallocate@AEBQEAVBoid@1Application@@@?$vector@PEAVBoid@1Application@@V?$allocator@PEAVBoid@1Application@@@std@@@std@@QEAAPEAPEAVBoid@2Application@@QEAPEAV223@AEBQEAV223@@Z
	DD	06H
	DD	imagerel $ip2state$??$_Emplace_reallocate@AEBQEAVBoid@1Application@@@?$vector@PEAVBoid@1Application@@V?$allocator@PEAVBoid@1Application@@@std@@@std@@QEAAPEAPEAVBoid@2Application@@QEAPEAV223@AEBQEAV223@@Z
	DD	0a0H
	DD	00H
	DD	01H
CONST	ENDS
;	COMDAT xdata
xdata	SEGMENT
$unwind$??$_Emplace_reallocate@AEBQEAVBoid@1Application@@@?$vector@PEAVBoid@1Application@@V?$allocator@PEAVBoid@1Application@@@std@@@std@@QEAAPEAPEAVBoid@2Application@@QEAPEAV223@AEBQEAV223@@Z DD 025042719H
	DD	0117231cH
	DD	050100016H
	DD	imagerel __CxxFrameHandler3
	DD	imagerel $cppxdata$??$_Emplace_reallocate@AEBQEAVBoid@1Application@@@?$vector@PEAVBoid@1Application@@V?$allocator@PEAVBoid@1Application@@@std@@@std@@QEAAPEAPEAVBoid@2Application@@QEAPEAV223@AEBQEAV223@@Z
xdata	ENDS
;	COMDAT xdata
xdata	SEGMENT
$unwind$??$construct@PEAVBoid@1Application@@AEBQEAV112@@?$_Default_allocator_traits@V?$allocator@PEAVBoid@1Application@@@std@@@std@@SAXAEAV?$allocator@PEAVBoid@1Application@@@1@QEAPEAVBoid@3Application@@AEBQEAV334@@Z DD 025031901H
	DD	0d2142319H
	DD	05010H
xdata	ENDS
;	COMDAT xdata
xdata	SEGMENT
$unwind$??$_Unfancy@PEAVBoid@1Application@@@std@@YAPEAPEAVBoid@1Application@@PEAPEAV112@@Z DD 025030f01H
	DD	0b20a230fH
	DD	05006H
xdata	ENDS
;	COMDAT xdata
xdata	SEGMENT
$unwind$??$_Emplace_back_with_unused_capacity@AEBQEAVBoid@1Application@@@?$vector@PEAVBoid@1Application@@V?$allocator@PEAVBoid@1Application@@@std@@@std@@AEAA@AEBQEAVBoid@2Application@@@Z DD 025031701H
	DD	0f2122317H
	DD	0500bH
xdata	ENDS
;	COMDAT xdata
xdata	SEGMENT
$ip2state$??$forward@AEBQEAVBoid@1Application@@@std@@YAAEBQEAVBoid@1Application@@AEBQEAV112@@Z DD imagerel ??$forward@AEBQEAVBoid@1Application@@@std@@YAAEBQEAVBoid@1Application@@AEBQEAV112@@Z
	DD	0ffffffffH
xdata	ENDS
;	COMDAT CONST
CONST	SEGMENT
$cppxdata$??$forward@AEBQEAVBoid@1Application@@@std@@YAAEBQEAVBoid@1Application@@AEBQEAV112@@Z DD 019930522H
	DD	00H
	DD	00H
	DD	00H
	DD	00H
	DD	01H
	DD	imagerel $ip2state$??$forward@AEBQEAVBoid@1Application@@@std@@YAAEBQEAVBoid@1Application@@AEBQEAV112@@Z
	DD	060H
	DD	00H
	DD	05H
CONST	ENDS
;	COMDAT xdata
xdata	SEGMENT
$unwind$??$forward@AEBQEAVBoid@1Application@@@std@@YAAEBQEAVBoid@1Application@@AEBQEAV112@@Z DD 025031719H
	DD	0d20a230fH
	DD	05006H
	DD	imagerel __CxxFrameHandler3
	DD	imagerel $cppxdata$??$forward@AEBQEAVBoid@1Application@@@std@@YAAEBQEAVBoid@1Application@@AEBQEAV112@@Z
xdata	ENDS
;	COMDAT xdata
xdata	SEGMENT
$unwind$??$emplace_back@AEBQEAVBoid@1Application@@@?$vector@PEAVBoid@1Application@@V?$allocator@PEAVBoid@1Application@@@std@@@std@@QEAA@AEBQEAVBoid@2Application@@@Z DD 025031401H
	DD	0d20f2314H
	DD	0500bH
xdata	ENDS
;	COMDAT xdata
xdata	SEGMENT
$unwind$??$?_0M@?$tvec4@M$0A@@glm@@QEAAAEAU01@M@Z DD 025051a01H
	DD	0f215231aH
	DD	0600d700eH
	DD	0500cH
xdata	ENDS
;	COMDAT xdata
xdata	SEGMENT
$unwind$??$?_0_K@?$tvec4@M$0A@@glm@@QEAAAEAU01@_K@Z DD 025051901H
	DD	0f2142319H
	DD	0600c700dH
	DD	0500bH
xdata	ENDS
;	COMDAT xdata
xdata	SEGMENT
$unwind$??$?YM@?$tvec4@M$0A@@glm@@QEAAAEAU01@AEBU01@@Z DD 025051901H
	DD	0f2142319H
	DD	0600c700dH
	DD	0500bH
xdata	ENDS
;	COMDAT xdata
xdata	SEGMENT
$unwind$??$?XH@?$tvec3@M$0A@@glm@@QEAAAEAU01@H@Z DD 025031301H
	DD	0b20e2313H
	DD	0500aH
xdata	ENDS
;	COMDAT xdata
xdata	SEGMENT
$unwind$??$?YM@?$tvec3@M$0A@@glm@@QEAAAEAU01@AEBU01@@Z DD 025031401H
	DD	0b20f2314H
	DD	0500bH
xdata	ENDS
;	COMDAT xdata
xdata	SEGMENT
$unwind$??$?_0M@?$tvec3@M$0A@@glm@@QEAAAEAU01@M@Z DD 025031501H
	DD	0b2102315H
	DD	0500cH
xdata	ENDS
;	COMDAT xdata
xdata	SEGMENT
$unwind$??$length@M$0A@Utvec3@glm@@@glm@@YAMAEBU?$tvec3@M$0A@@0@@Z DD 025030f01H
	DD	0b20a230fH
	DD	05006H
xdata	ENDS
;	COMDAT xdata
xdata	SEGMENT
$unwind$??$?0M$0A@@?$tvec3@M$0A@@glm@@QEAA@AEBU?$tvec4@M$0A@@1@@Z DD 025031401H
	DD	0b20f2314H
	DD	0500bH
xdata	ENDS
;	COMDAT xdata
xdata	SEGMENT
$unwind$??$length@M$0A@Utvec4@glm@@@glm@@YAMAEBU?$tvec4@M$0A@@0@@Z DD 025030f01H
	DD	0b20a230fH
	DD	05006H
xdata	ENDS
;	COMDAT xdata
xdata	SEGMENT
$unwind$??$?GM$0A@@glm@@YA?AU?$tvec4@M$0A@@0@AEBU10@0@Z DD 025051b01H
	DD	0d216231bH
	DD	060117012H
	DD	05010H
xdata	ENDS
;	COMDAT xdata
xdata	SEGMENT
$unwind$??$?_0M@?$tvec2@M$0A@@glm@@QEAAAEAU01@M@Z DD 025031501H
	DD	0b2102315H
	DD	0500cH
xdata	ENDS
;	COMDAT xdata
xdata	SEGMENT
$unwind$??$length@M$0A@Utvec2@glm@@@glm@@YAMAEBU?$tvec2@M$0A@@0@@Z DD 025030f01H
	DD	0b20a230fH
	DD	05006H
xdata	ENDS
;	COMDAT xdata
xdata	SEGMENT
$unwind$??$?YM@?$tvec2@M$0A@@glm@@QEAAAEAU01@AEBU01@@Z DD 025031401H
	DD	0b20f2314H
	DD	0500bH
xdata	ENDS
;	COMDAT xdata
xdata	SEGMENT
$unwind$??_GBoid@0Application@@UEAAPEAXI@Z DD 025031301H
	DD	0b20e2313H
	DD	0500aH
xdata	ENDS
;	COMDAT xdata
xdata	SEGMENT
$unwind$?inRadius@Boid@1Application@@AEBA_NPEBV112@@Z DD 025031401H
	DD	0d20f2314H
	DD	0500bH
xdata	ENDS
;	COMDAT xdata
xdata	SEGMENT
$unwind$?updateSteer@Boid@1Application@@QEAAXXZ DD 035062519H
	DD	010f3314H
	DD	070080036H
	DD	050066007H
	DD	imagerel __GSHandlerCheck
	DD	01a0H
xdata	ENDS
;	COMDAT xdata
xdata	SEGMENT
$unwind$?updateFlockMates@Boid@1Application@@QEAAXAEBV?$vector@PEAVBoid@1Application@@V?$allocator@PEAVBoid@1Application@@@std@@@std@@@Z DD 025031401H
	DD	0d20f2314H
	DD	0500bH
xdata	ENDS
;	COMDAT xdata
xdata	SEGMENT
$unwind$?updatePos@Boid@1Application@@QEAAXXZ DD 025030f01H
	DD	0b20a230fH
	DD	05006H
xdata	ENDS
;	COMDAT xdata
xdata	SEGMENT
$ip2state$??1Boid@0Application@@UEAA@XZ DD imagerel ??1Boid@0Application@@UEAA@XZ
	DD	0ffffffffH
xdata	ENDS
;	COMDAT CONST
CONST	SEGMENT
$cppxdata$??1Boid@0Application@@UEAA@XZ DD 019930522H
	DD	00H
	DD	00H
	DD	00H
	DD	00H
	DD	01H
	DD	imagerel $ip2state$??1Boid@0Application@@UEAA@XZ
	DD	060H
	DD	00H
	DD	05H
CONST	ENDS
;	COMDAT xdata
xdata	SEGMENT
$unwind$??1Boid@0Application@@UEAA@XZ DD 025031719H
	DD	0d20a230fH
	DD	05006H
	DD	imagerel __CxxFrameHandler3
	DD	imagerel $cppxdata$??1Boid@0Application@@UEAA@XZ
xdata	ENDS
;	COMDAT xdata
xdata	SEGMENT
$unwind$?dtor$1@?0???0Boid@0Application@@QEAA@MMI@Z@4HA DD 020601H
	DD	050023206H
xdata	ENDS
;	COMDAT xdata
xdata	SEGMENT
$unwind$?dtor$0@?0???0Boid@0Application@@QEAA@MMI@Z@4HA DD 020601H
	DD	050023206H
xdata	ENDS
;	COMDAT xdata
xdata	SEGMENT
$ip2state$??0Boid@0Application@@QEAA@MMI@Z DD imagerel ??0Boid@0Application@@QEAA@MMI@Z
	DD	0ffffffffH
	DD	imagerel ??0Boid@0Application@@QEAA@MMI@Z+124
	DD	00H
	DD	imagerel ??0Boid@0Application@@QEAA@MMI@Z+182
	DD	01H
	DD	imagerel ??0Boid@0Application@@QEAA@MMI@Z+343
	DD	0ffffffffH
xdata	ENDS
;	COMDAT xdata
xdata	SEGMENT
$stateUnwindMap$??0Boid@0Application@@QEAA@MMI@Z DD 0ffffffffH
	DD	imagerel ?dtor$0@?0???0Boid@0Application@@QEAA@MMI@Z@4HA
	DD	00H
	DD	imagerel ?dtor$1@?0???0Boid@0Application@@QEAA@MMI@Z@4HA
xdata	ENDS
;	COMDAT CONST
CONST	SEGMENT
$cppxdata$??0Boid@0Application@@QEAA@MMI@Z DD 019930522H
	DD	02H
	DD	imagerel $stateUnwindMap$??0Boid@0Application@@QEAA@MMI@Z
	DD	00H
	DD	00H
	DD	04H
	DD	imagerel $ip2state$??0Boid@0Application@@QEAA@MMI@Z
	DD	078H
	DD	00H
	DD	01H
CONST	ENDS
;	COMDAT xdata
xdata	SEGMENT
$unwind$??0Boid@0Application@@QEAA@MMI@Z DD 035043919H
	DD	011e3323H
	DD	050170012H
	DD	imagerel __GSHandlerCheck_EH
	DD	imagerel $cppxdata$??0Boid@0Application@@QEAA@MMI@Z
	DD	08aH
xdata	ENDS
;	COMDAT xdata
xdata	SEGMENT
$unwind$?dtor$0@?0???0Boid@0Application@@QEAA@MMAEBU?$tvec4@M$0A@@glm@@@Z@4HA DD 020601H
	DD	050023206H
xdata	ENDS
;	COMDAT xdata
xdata	SEGMENT
$ip2state$??0Boid@0Application@@QEAA@MMAEBU?$tvec4@M$0A@@glm@@@Z DD imagerel ??0Boid@0Application@@QEAA@MMAEBU?$tvec4@M$0A@@glm@@@Z
	DD	0ffffffffH
	DD	imagerel ??0Boid@0Application@@QEAA@MMAEBU?$tvec4@M$0A@@glm@@@Z+156
	DD	00H
	DD	imagerel ??0Boid@0Application@@QEAA@MMAEBU?$tvec4@M$0A@@glm@@@Z+223
	DD	0ffffffffH
xdata	ENDS
;	COMDAT xdata
xdata	SEGMENT
$stateUnwindMap$??0Boid@0Application@@QEAA@MMAEBU?$tvec4@M$0A@@glm@@@Z DD 0ffffffffH
	DD	imagerel ?dtor$0@?0???0Boid@0Application@@QEAA@MMAEBU?$tvec4@M$0A@@glm@@@Z@4HA
xdata	ENDS
;	COMDAT CONST
CONST	SEGMENT
$cppxdata$??0Boid@0Application@@QEAA@MMAEBU?$tvec4@M$0A@@glm@@@Z DD 019930522H
	DD	01H
	DD	imagerel $stateUnwindMap$??0Boid@0Application@@QEAA@MMAEBU?$tvec4@M$0A@@glm@@@Z
	DD	00H
	DD	00H
	DD	03H
	DD	imagerel $ip2state$??0Boid@0Application@@QEAA@MMAEBU?$tvec4@M$0A@@glm@@@Z
	DD	088H
	DD	00H
	DD	01H
CONST	ENDS
;	COMDAT xdata
xdata	SEGMENT
$unwind$??0Boid@0Application@@QEAA@MMAEBU?$tvec4@M$0A@@glm@@@Z DD 035042b11H
	DD	011e3323H
	DD	050170014H
	DD	imagerel __CxxFrameHandler3
	DD	imagerel $cppxdata$??0Boid@0Application@@QEAA@MMAEBU?$tvec4@M$0A@@glm@@@Z
xdata	ENDS
;	COMDAT xdata
xdata	SEGMENT
$unwind$?dtor$0@?0??_Orphan_range@?$vector@PEAVBoid@1Application@@V?$allocator@PEAVBoid@1Application@@@std@@@std@@AEBAXPEAPEAVBoid@3Application@@0@Z@4HA DD 020601H
	DD	050023206H
xdata	ENDS
;	COMDAT xdata
xdata	SEGMENT
$ip2state$?_Orphan_range@?$vector@PEAVBoid@1Application@@V?$allocator@PEAVBoid@1Application@@@std@@@std@@AEBAXPEAPEAVBoid@3Application@@0@Z DD imagerel ?_Orphan_range@?$vector@PEAVBoid@1Application@@V?$allocator@PEAVBoid@1Application@@@std@@@std@@AEBAXPEAPEAVBoid@3Application@@0@Z
	DD	0ffffffffH
	DD	imagerel ?_Orphan_range@?$vector@PEAVBoid@1Application@@V?$allocator@PEAVBoid@1Application@@@std@@@std@@AEBAXPEAPEAVBoid@3Application@@0@Z+78
	DD	00H
	DD	imagerel ?_Orphan_range@?$vector@PEAVBoid@1Application@@V?$allocator@PEAVBoid@1Application@@@std@@@std@@AEBAXPEAPEAVBoid@3Application@@0@Z+199
	DD	0ffffffffH
xdata	ENDS
;	COMDAT xdata
xdata	SEGMENT
$stateUnwindMap$?_Orphan_range@?$vector@PEAVBoid@1Application@@V?$allocator@PEAVBoid@1Application@@@std@@@std@@AEBAXPEAPEAVBoid@3Application@@0@Z DD 0ffffffffH
	DD	imagerel ?dtor$0@?0??_Orphan_range@?$vector@PEAVBoid@1Application@@V?$allocator@PEAVBoid@1Application@@@std@@@std@@AEBAXPEAPEAVBoid@3Application@@0@Z@4HA
xdata	ENDS
;	COMDAT CONST
CONST	SEGMENT
$cppxdata$?_Orphan_range@?$vector@PEAVBoid@1Application@@V?$allocator@PEAVBoid@1Application@@@std@@@std@@AEBAXPEAPEAVBoid@3Application@@0@Z DD 019930522H
	DD	01H
	DD	imagerel $stateUnwindMap$?_Orphan_range@?$vector@PEAVBoid@1Application@@V?$allocator@PEAVBoid@1Application@@@std@@@std@@AEBAXPEAPEAVBoid@3Application@@0@Z
	DD	00H
	DD	00H
	DD	03H
	DD	imagerel $ip2state$?_Orphan_range@?$vector@PEAVBoid@1Application@@V?$allocator@PEAVBoid@1Application@@@std@@@std@@AEBAXPEAPEAVBoid@3Application@@0@Z
	DD	070H
	DD	00H
	DD	01H
CONST	ENDS
;	COMDAT xdata
xdata	SEGMENT
$unwind$?_Orphan_range@?$vector@PEAVBoid@1Application@@V?$allocator@PEAVBoid@1Application@@@std@@@std@@AEBAXPEAPEAVBoid@3Application@@0@Z DD 025033219H
	DD	0f217231cH
	DD	05010H
	DD	imagerel __GSHandlerCheck_EH
	DD	imagerel $cppxdata$?_Orphan_range@?$vector@PEAVBoid@1Application@@V?$allocator@PEAVBoid@1Application@@@std@@@std@@AEBAXPEAPEAVBoid@3Application@@0@Z
	DD	07aH
xdata	ENDS
;	COMDAT xdata
xdata	SEGMENT
$unwind$?_Xlength@?$vector@PEAVBoid@1Application@@V?$allocator@PEAVBoid@1Application@@@std@@@std@@CAXXZ DD 025030b01H
	DD	0b206230bH
	DD	05002H
xdata	ENDS
;	COMDAT xdata
xdata	SEGMENT
$unwind$?_Tidy@?$vector@PEAVBoid@1Application@@V?$allocator@PEAVBoid@1Application@@@std@@@std@@AEAAXXZ DD 025030f01H
	DD	0d20a230fH
	DD	05006H
xdata	ENDS
;	COMDAT xdata
xdata	SEGMENT
$unwind$?_Change_array@?$vector@PEAVBoid@1Application@@V?$allocator@PEAVBoid@1Application@@@std@@@std@@AEAAXQEAPEAVBoid@3Application@@_K1@Z DD 025031e01H
	DD	0d219231eH
	DD	05015H
xdata	ENDS
;	COMDAT xdata
xdata	SEGMENT
$unwind$?_Calculate_growth@?$vector@PEAVBoid@1Application@@V?$allocator@PEAVBoid@1Application@@@std@@@std@@AEBA_K_K@Z DD 025031701H
	DD	0f2122317H
	DD	0500bH
xdata	ENDS
;	COMDAT xdata
xdata	SEGMENT
$unwind$?_Destroy@?$vector@PEAVBoid@1Application@@V?$allocator@PEAVBoid@1Application@@@std@@@std@@AEAAXPEAPEAVBoid@3Application@@0@Z DD 025031901H
	DD	0b2142319H
	DD	05010H
xdata	ENDS
;	COMDAT xdata
xdata	SEGMENT
$unwind$?_Umove_if_noexcept@?$vector@PEAVBoid@1Application@@V?$allocator@PEAVBoid@1Application@@@std@@@std@@AEAAXPEAPEAVBoid@3Application@@00@Z DD 035052201H
	DD	011d3322H
	DD	070160011H
	DD	05015H
xdata	ENDS
;	COMDAT xdata
xdata	SEGMENT
$unwind$?_Umove_if_noexcept1@?$vector@PEAVBoid@1Application@@V?$allocator@PEAVBoid@1Application@@@std@@@std@@AEAAXPEAPEAVBoid@3Application@@00U?$integral_constant@_N$00@2@@Z DD 025031e01H
	DD	0b219231eH
	DD	05015H
xdata	ENDS
;	COMDAT xdata
xdata	SEGMENT
$unwind$?_Umove@?$vector@PEAVBoid@1Application@@V?$allocator@PEAVBoid@1Application@@@std@@@std@@AEAAPEAPEAVBoid@3Application@@PEAPEAV334@00@Z DD 025031e01H
	DD	0b219231eH
	DD	05015H
xdata	ENDS
;	COMDAT xdata
xdata	SEGMENT
$unwind$??A?$vector@PEAVBoid@1Application@@V?$allocator@PEAVBoid@1Application@@@std@@@std@@QEBAAEBQEAVBoid@2Application@@_K@Z DD 035031401H
	DD	0d20f3314H
	DD	0500bH
xdata	ENDS
;	COMDAT xdata
xdata	SEGMENT
$unwind$??A?$vector@PEAVBoid@1Application@@V?$allocator@PEAVBoid@1Application@@@std@@@std@@QEAAAEAPEAVBoid@2Application@@_K@Z DD 035031401H
	DD	0d20f3314H
	DD	0500bH
xdata	ENDS
;	COMDAT xdata
xdata	SEGMENT
$ip2state$?_Has_unused_capacity@?$vector@PEAVBoid@1Application@@V?$allocator@PEAVBoid@1Application@@@std@@@std@@AEBA_NXZ DD imagerel ?_Has_unused_capacity@?$vector@PEAVBoid@1Application@@V?$allocator@PEAVBoid@1Application@@@std@@@std@@AEBA_NXZ
	DD	0ffffffffH
xdata	ENDS
;	COMDAT CONST
CONST	SEGMENT
$cppxdata$?_Has_unused_capacity@?$vector@PEAVBoid@1Application@@V?$allocator@PEAVBoid@1Application@@@std@@@std@@AEBA_NXZ DD 019930522H
	DD	00H
	DD	00H
	DD	00H
	DD	00H
	DD	01H
	DD	imagerel $ip2state$?_Has_unused_capacity@?$vector@PEAVBoid@1Application@@V?$allocator@PEAVBoid@1Application@@@std@@@std@@AEBA_NXZ
	DD	060H
	DD	00H
	DD	05H
CONST	ENDS
;	COMDAT xdata
xdata	SEGMENT
$unwind$?_Has_unused_capacity@?$vector@PEAVBoid@1Application@@V?$allocator@PEAVBoid@1Application@@@std@@@std@@AEBA_NXZ DD 025031a19H
	DD	0f20d2312H
	DD	05006H
	DD	imagerel __CxxFrameHandler3
	DD	imagerel $cppxdata$?_Has_unused_capacity@?$vector@PEAVBoid@1Application@@V?$allocator@PEAVBoid@1Application@@@std@@@std@@AEBA_NXZ
xdata	ENDS
;	COMDAT xdata
xdata	SEGMENT
$ip2state$?capacity@?$vector@PEAVBoid@1Application@@V?$allocator@PEAVBoid@1Application@@@std@@@std@@QEBA_KXZ DD imagerel ?capacity@?$vector@PEAVBoid@1Application@@V?$allocator@PEAVBoid@1Application@@@std@@@std@@QEBA_KXZ
	DD	0ffffffffH
xdata	ENDS
;	COMDAT CONST
CONST	SEGMENT
$cppxdata$?capacity@?$vector@PEAVBoid@1Application@@V?$allocator@PEAVBoid@1Application@@@std@@@std@@QEBA_KXZ DD 019930522H
	DD	00H
	DD	00H
	DD	00H
	DD	00H
	DD	01H
	DD	imagerel $ip2state$?capacity@?$vector@PEAVBoid@1Application@@V?$allocator@PEAVBoid@1Application@@@std@@@std@@QEBA_KXZ
	DD	060H
	DD	00H
	DD	05H
CONST	ENDS
;	COMDAT xdata
xdata	SEGMENT
$unwind$?capacity@?$vector@PEAVBoid@1Application@@V?$allocator@PEAVBoid@1Application@@@std@@@std@@QEBA_KXZ DD 025031719H
	DD	0d20a230fH
	DD	05006H
	DD	imagerel __CxxFrameHandler3
	DD	imagerel $cppxdata$?capacity@?$vector@PEAVBoid@1Application@@V?$allocator@PEAVBoid@1Application@@@std@@@std@@QEBA_KXZ
xdata	ENDS
;	COMDAT xdata
xdata	SEGMENT
$ip2state$?max_size@?$vector@PEAVBoid@1Application@@V?$allocator@PEAVBoid@1Application@@@std@@@std@@QEBA_KXZ DD imagerel ?max_size@?$vector@PEAVBoid@1Application@@V?$allocator@PEAVBoid@1Application@@@std@@@std@@QEBA_KXZ
	DD	0ffffffffH
xdata	ENDS
;	COMDAT CONST
CONST	SEGMENT
$cppxdata$?max_size@?$vector@PEAVBoid@1Application@@V?$allocator@PEAVBoid@1Application@@@std@@@std@@QEBA_KXZ DD 019930522H
	DD	00H
	DD	00H
	DD	00H
	DD	00H
	DD	01H
	DD	imagerel $ip2state$?max_size@?$vector@PEAVBoid@1Application@@V?$allocator@PEAVBoid@1Application@@@std@@@std@@QEBA_KXZ
	DD	070H
	DD	00H
	DD	05H
CONST	ENDS
;	COMDAT xdata
xdata	SEGMENT
$unwind$?max_size@?$vector@PEAVBoid@1Application@@V?$allocator@PEAVBoid@1Application@@@std@@@std@@QEBA_KXZ DD 025031a19H
	DD	0f20d2312H
	DD	05006H
	DD	imagerel __CxxFrameHandler3
	DD	imagerel $cppxdata$?max_size@?$vector@PEAVBoid@1Application@@V?$allocator@PEAVBoid@1Application@@@std@@@std@@QEBA_KXZ
xdata	ENDS
;	COMDAT xdata
xdata	SEGMENT
$ip2state$?size@?$vector@PEAVBoid@1Application@@V?$allocator@PEAVBoid@1Application@@@std@@@std@@QEBA_KXZ DD imagerel ?size@?$vector@PEAVBoid@1Application@@V?$allocator@PEAVBoid@1Application@@@std@@@std@@QEBA_KXZ
	DD	0ffffffffH
xdata	ENDS
;	COMDAT CONST
CONST	SEGMENT
$cppxdata$?size@?$vector@PEAVBoid@1Application@@V?$allocator@PEAVBoid@1Application@@@std@@@std@@QEBA_KXZ DD 019930522H
	DD	00H
	DD	00H
	DD	00H
	DD	00H
	DD	01H
	DD	imagerel $ip2state$?size@?$vector@PEAVBoid@1Application@@V?$allocator@PEAVBoid@1Application@@@std@@@std@@QEBA_KXZ
	DD	060H
	DD	00H
	DD	05H
CONST	ENDS
;	COMDAT xdata
xdata	SEGMENT
$unwind$?size@?$vector@PEAVBoid@1Application@@V?$allocator@PEAVBoid@1Application@@@std@@@std@@QEBA_KXZ DD 025031719H
	DD	0d20a230fH
	DD	05006H
	DD	imagerel __CxxFrameHandler3
	DD	imagerel $cppxdata$?size@?$vector@PEAVBoid@1Application@@V?$allocator@PEAVBoid@1Application@@@std@@@std@@QEBA_KXZ
xdata	ENDS
;	COMDAT xdata
xdata	SEGMENT
$ip2state$?clear@?$vector@PEAVBoid@1Application@@V?$allocator@PEAVBoid@1Application@@@std@@@std@@QEAAXXZ DD imagerel ?clear@?$vector@PEAVBoid@1Application@@V?$allocator@PEAVBoid@1Application@@@std@@@std@@QEAAXXZ
	DD	0ffffffffH
xdata	ENDS
;	COMDAT CONST
CONST	SEGMENT
$cppxdata$?clear@?$vector@PEAVBoid@1Application@@V?$allocator@PEAVBoid@1Application@@@std@@@std@@QEAAXXZ DD 019930522H
	DD	00H
	DD	00H
	DD	00H
	DD	00H
	DD	01H
	DD	imagerel $ip2state$?clear@?$vector@PEAVBoid@1Application@@V?$allocator@PEAVBoid@1Application@@@std@@@std@@QEAAXXZ
	DD	060H
	DD	00H
	DD	05H
CONST	ENDS
;	COMDAT xdata
xdata	SEGMENT
$unwind$?clear@?$vector@PEAVBoid@1Application@@V?$allocator@PEAVBoid@1Application@@@std@@@std@@QEAAXXZ DD 025031719H
	DD	0d20a230fH
	DD	05006H
	DD	imagerel __CxxFrameHandler3
	DD	imagerel $cppxdata$?clear@?$vector@PEAVBoid@1Application@@V?$allocator@PEAVBoid@1Application@@@std@@@std@@QEAAXXZ
xdata	ENDS
;	COMDAT xdata
xdata	SEGMENT
$unwind$?push_back@?$vector@PEAVBoid@1Application@@V?$allocator@PEAVBoid@1Application@@@std@@@std@@QEAAXAEBQEAVBoid@3Application@@@Z DD 025031401H
	DD	0b20f2314H
	DD	0500bH
xdata	ENDS
;	COMDAT xdata
xdata	SEGMENT
$ip2state$??1?$vector@PEAVBoid@1Application@@V?$allocator@PEAVBoid@1Application@@@std@@@std@@QEAA@XZ DD imagerel ??1?$vector@PEAVBoid@1Application@@V?$allocator@PEAVBoid@1Application@@@std@@@std@@QEAA@XZ
	DD	0ffffffffH
xdata	ENDS
;	COMDAT CONST
CONST	SEGMENT
$cppxdata$??1?$vector@PEAVBoid@1Application@@V?$allocator@PEAVBoid@1Application@@@std@@@std@@QEAA@XZ DD 019930522H
	DD	00H
	DD	00H
	DD	00H
	DD	00H
	DD	01H
	DD	imagerel $ip2state$??1?$vector@PEAVBoid@1Application@@V?$allocator@PEAVBoid@1Application@@@std@@@std@@QEAA@XZ
	DD	060H
	DD	00H
	DD	05H
CONST	ENDS
;	COMDAT xdata
xdata	SEGMENT
$unwind$??1?$vector@PEAVBoid@1Application@@V?$allocator@PEAVBoid@1Application@@@std@@@std@@QEAA@XZ DD 025031719H
	DD	0d20a230fH
	DD	05006H
	DD	imagerel __CxxFrameHandler3
	DD	imagerel $cppxdata$??1?$vector@PEAVBoid@1Application@@V?$allocator@PEAVBoid@1Application@@@std@@@std@@QEAA@XZ
xdata	ENDS
;	COMDAT xdata
xdata	SEGMENT
$ip2state$??0?$vector@PEAVBoid@1Application@@V?$allocator@PEAVBoid@1Application@@@std@@@std@@QEAA@XZ DD imagerel ??0?$vector@PEAVBoid@1Application@@V?$allocator@PEAVBoid@1Application@@@std@@@std@@QEAA@XZ
	DD	0ffffffffH
xdata	ENDS
;	COMDAT CONST
CONST	SEGMENT
$cppxdata$??0?$vector@PEAVBoid@1Application@@V?$allocator@PEAVBoid@1Application@@@std@@@std@@QEAA@XZ DD 019930522H
	DD	00H
	DD	00H
	DD	00H
	DD	00H
	DD	01H
	DD	imagerel $ip2state$??0?$vector@PEAVBoid@1Application@@V?$allocator@PEAVBoid@1Application@@@std@@@std@@QEAA@XZ
	DD	060H
	DD	00H
	DD	05H
CONST	ENDS
;	COMDAT xdata
xdata	SEGMENT
$unwind$??0?$vector@PEAVBoid@1Application@@V?$allocator@PEAVBoid@1Application@@@std@@@std@@QEAA@XZ DD 025031719H
	DD	0d20a230fH
	DD	05006H
	DD	imagerel __CxxFrameHandler3
	DD	imagerel $cppxdata$??0?$vector@PEAVBoid@1Application@@V?$allocator@PEAVBoid@1Application@@@std@@@std@@QEAA@XZ
xdata	ENDS
;	COMDAT xdata
xdata	SEGMENT
$ip2state$?_Get_second@?$_Compressed_pair@V?$allocator@PEAVBoid@1Application@@@std@@V?$_Vector_val@U?$_Simple_types@PEAVBoid@1Application@@@std@@@2@$00@std@@QEBAAEBV?$_Vector_val@U?$_Simple_types@PEAVBoid@1Application@@@std@@@2@XZ DD imagerel ?_Get_second@?$_Compressed_pair@V?$allocator@PEAVBoid@1Application@@@std@@V?$_Vector_val@U?$_Simple_types@PEAVBoid@1Application@@@std@@@2@$00@std@@QEBAAEBV?$_Vector_val@U?$_Simple_types@PEAVBoid@1Application@@@std@@@2@XZ
	DD	0ffffffffH
xdata	ENDS
;	COMDAT CONST
CONST	SEGMENT
$cppxdata$?_Get_second@?$_Compressed_pair@V?$allocator@PEAVBoid@1Application@@@std@@V?$_Vector_val@U?$_Simple_types@PEAVBoid@1Application@@@std@@@2@$00@std@@QEBAAEBV?$_Vector_val@U?$_Simple_types@PEAVBoid@1Application@@@std@@@2@XZ DD 019930522H
	DD	00H
	DD	00H
	DD	00H
	DD	00H
	DD	01H
	DD	imagerel $ip2state$?_Get_second@?$_Compressed_pair@V?$allocator@PEAVBoid@1Application@@@std@@V?$_Vector_val@U?$_Simple_types@PEAVBoid@1Application@@@std@@@2@$00@std@@QEBAAEBV?$_Vector_val@U?$_Simple_types@PEAVBoid@1Application@@@std@@@2@XZ
	DD	060H
	DD	00H
	DD	05H
CONST	ENDS
;	COMDAT xdata
xdata	SEGMENT
$unwind$?_Get_second@?$_Compressed_pair@V?$allocator@PEAVBoid@1Application@@@std@@V?$_Vector_val@U?$_Simple_types@PEAVBoid@1Application@@@std@@@2@$00@std@@QEBAAEBV?$_Vector_val@U?$_Simple_types@PEAVBoid@1Application@@@std@@@2@XZ DD 025031719H
	DD	0d20a230fH
	DD	05006H
	DD	imagerel __CxxFrameHandler3
	DD	imagerel $cppxdata$?_Get_second@?$_Compressed_pair@V?$allocator@PEAVBoid@1Application@@@std@@V?$_Vector_val@U?$_Simple_types@PEAVBoid@1Application@@@std@@@2@$00@std@@QEBAAEBV?$_Vector_val@U?$_Simple_types@PEAVBoid@1Application@@@std@@@2@XZ
xdata	ENDS
;	COMDAT xdata
xdata	SEGMENT
$ip2state$?_Get_second@?$_Compressed_pair@V?$allocator@PEAVBoid@1Application@@@std@@V?$_Vector_val@U?$_Simple_types@PEAVBoid@1Application@@@std@@@2@$00@std@@QEAAAEAV?$_Vector_val@U?$_Simple_types@PEAVBoid@1Application@@@std@@@2@XZ DD imagerel ?_Get_second@?$_Compressed_pair@V?$allocator@PEAVBoid@1Application@@@std@@V?$_Vector_val@U?$_Simple_types@PEAVBoid@1Application@@@std@@@2@$00@std@@QEAAAEAV?$_Vector_val@U?$_Simple_types@PEAVBoid@1Application@@@std@@@2@XZ
	DD	0ffffffffH
xdata	ENDS
;	COMDAT CONST
CONST	SEGMENT
$cppxdata$?_Get_second@?$_Compressed_pair@V?$allocator@PEAVBoid@1Application@@@std@@V?$_Vector_val@U?$_Simple_types@PEAVBoid@1Application@@@std@@@2@$00@std@@QEAAAEAV?$_Vector_val@U?$_Simple_types@PEAVBoid@1Application@@@std@@@2@XZ DD 019930522H
	DD	00H
	DD	00H
	DD	00H
	DD	00H
	DD	01H
	DD	imagerel $ip2state$?_Get_second@?$_Compressed_pair@V?$allocator@PEAVBoid@1Application@@@std@@V?$_Vector_val@U?$_Simple_types@PEAVBoid@1Application@@@std@@@2@$00@std@@QEAAAEAV?$_Vector_val@U?$_Simple_types@PEAVBoid@1Application@@@std@@@2@XZ
	DD	060H
	DD	00H
	DD	05H
CONST	ENDS
;	COMDAT xdata
xdata	SEGMENT
$unwind$?_Get_second@?$_Compressed_pair@V?$allocator@PEAVBoid@1Application@@@std@@V?$_Vector_val@U?$_Simple_types@PEAVBoid@1Application@@@std@@@2@$00@std@@QEAAAEAV?$_Vector_val@U?$_Simple_types@PEAVBoid@1Application@@@std@@@2@XZ DD 025031719H
	DD	0d20a230fH
	DD	05006H
	DD	imagerel __CxxFrameHandler3
	DD	imagerel $cppxdata$?_Get_second@?$_Compressed_pair@V?$allocator@PEAVBoid@1Application@@@std@@V?$_Vector_val@U?$_Simple_types@PEAVBoid@1Application@@@std@@@2@$00@std@@QEAAAEAV?$_Vector_val@U?$_Simple_types@PEAVBoid@1Application@@@std@@@2@XZ
xdata	ENDS
;	COMDAT xdata
xdata	SEGMENT
$ip2state$?_Get_first@?$_Compressed_pair@V?$allocator@PEAVBoid@1Application@@@std@@V?$_Vector_val@U?$_Simple_types@PEAVBoid@1Application@@@std@@@2@$00@std@@QEBAAEBV?$allocator@PEAVBoid@1Application@@@2@XZ DD imagerel ?_Get_first@?$_Compressed_pair@V?$allocator@PEAVBoid@1Application@@@std@@V?$_Vector_val@U?$_Simple_types@PEAVBoid@1Application@@@std@@@2@$00@std@@QEBAAEBV?$allocator@PEAVBoid@1Application@@@2@XZ
	DD	0ffffffffH
xdata	ENDS
;	COMDAT CONST
CONST	SEGMENT
$cppxdata$?_Get_first@?$_Compressed_pair@V?$allocator@PEAVBoid@1Application@@@std@@V?$_Vector_val@U?$_Simple_types@PEAVBoid@1Application@@@std@@@2@$00@std@@QEBAAEBV?$allocator@PEAVBoid@1Application@@@2@XZ DD 019930522H
	DD	00H
	DD	00H
	DD	00H
	DD	00H
	DD	01H
	DD	imagerel $ip2state$?_Get_first@?$_Compressed_pair@V?$allocator@PEAVBoid@1Application@@@std@@V?$_Vector_val@U?$_Simple_types@PEAVBoid@1Application@@@std@@@2@$00@std@@QEBAAEBV?$allocator@PEAVBoid@1Application@@@2@XZ
	DD	060H
	DD	00H
	DD	05H
CONST	ENDS
;	COMDAT xdata
xdata	SEGMENT
$unwind$?_Get_first@?$_Compressed_pair@V?$allocator@PEAVBoid@1Application@@@std@@V?$_Vector_val@U?$_Simple_types@PEAVBoid@1Application@@@std@@@2@$00@std@@QEBAAEBV?$allocator@PEAVBoid@1Application@@@2@XZ DD 025031719H
	DD	0d20a230fH
	DD	05006H
	DD	imagerel __CxxFrameHandler3
	DD	imagerel $cppxdata$?_Get_first@?$_Compressed_pair@V?$allocator@PEAVBoid@1Application@@@std@@V?$_Vector_val@U?$_Simple_types@PEAVBoid@1Application@@@std@@@2@$00@std@@QEBAAEBV?$allocator@PEAVBoid@1Application@@@2@XZ
xdata	ENDS
;	COMDAT xdata
xdata	SEGMENT
$ip2state$?_Get_first@?$_Compressed_pair@V?$allocator@PEAVBoid@1Application@@@std@@V?$_Vector_val@U?$_Simple_types@PEAVBoid@1Application@@@std@@@2@$00@std@@QEAAAEAV?$allocator@PEAVBoid@1Application@@@2@XZ DD imagerel ?_Get_first@?$_Compressed_pair@V?$allocator@PEAVBoid@1Application@@@std@@V?$_Vector_val@U?$_Simple_types@PEAVBoid@1Application@@@std@@@2@$00@std@@QEAAAEAV?$allocator@PEAVBoid@1Application@@@2@XZ
	DD	0ffffffffH
xdata	ENDS
;	COMDAT CONST
CONST	SEGMENT
$cppxdata$?_Get_first@?$_Compressed_pair@V?$allocator@PEAVBoid@1Application@@@std@@V?$_Vector_val@U?$_Simple_types@PEAVBoid@1Application@@@std@@@2@$00@std@@QEAAAEAV?$allocator@PEAVBoid@1Application@@@2@XZ DD 019930522H
	DD	00H
	DD	00H
	DD	00H
	DD	00H
	DD	01H
	DD	imagerel $ip2state$?_Get_first@?$_Compressed_pair@V?$allocator@PEAVBoid@1Application@@@std@@V?$_Vector_val@U?$_Simple_types@PEAVBoid@1Application@@@std@@@2@$00@std@@QEAAAEAV?$allocator@PEAVBoid@1Application@@@2@XZ
	DD	060H
	DD	00H
	DD	05H
CONST	ENDS
;	COMDAT xdata
xdata	SEGMENT
$unwind$?_Get_first@?$_Compressed_pair@V?$allocator@PEAVBoid@1Application@@@std@@V?$_Vector_val@U?$_Simple_types@PEAVBoid@1Application@@@std@@@2@$00@std@@QEAAAEAV?$allocator@PEAVBoid@1Application@@@2@XZ DD 025031719H
	DD	0d20a230fH
	DD	05006H
	DD	imagerel __CxxFrameHandler3
	DD	imagerel $cppxdata$?_Get_first@?$_Compressed_pair@V?$allocator@PEAVBoid@1Application@@@std@@V?$_Vector_val@U?$_Simple_types@PEAVBoid@1Application@@@std@@@2@$00@std@@QEAAAEAV?$allocator@PEAVBoid@1Application@@@2@XZ
xdata	ENDS
;	COMDAT xdata
xdata	SEGMENT
$unwind$??0?$_Vector_val@U?$_Simple_types@PEAVBoid@1Application@@@std@@@std@@QEAA@XZ DD 025030f01H
	DD	0b20a230fH
	DD	05006H
xdata	ENDS
;	COMDAT xdata
xdata	SEGMENT
$ip2state$?_Myend@?$_Vector_alloc@U?$_Vec_base_types@PEAVBoid@1Application@@V?$allocator@PEAVBoid@1Application@@@std@@@std@@@std@@QEBAAEBQEAPEAVBoid@3Application@@XZ DD imagerel ?_Myend@?$_Vector_alloc@U?$_Vec_base_types@PEAVBoid@1Application@@V?$allocator@PEAVBoid@1Application@@@std@@@std@@@std@@QEBAAEBQEAPEAVBoid@3Application@@XZ
	DD	0ffffffffH
xdata	ENDS
;	COMDAT CONST
CONST	SEGMENT
$cppxdata$?_Myend@?$_Vector_alloc@U?$_Vec_base_types@PEAVBoid@1Application@@V?$allocator@PEAVBoid@1Application@@@std@@@std@@@std@@QEBAAEBQEAPEAVBoid@3Application@@XZ DD 019930522H
	DD	00H
	DD	00H
	DD	00H
	DD	00H
	DD	01H
	DD	imagerel $ip2state$?_Myend@?$_Vector_alloc@U?$_Vec_base_types@PEAVBoid@1Application@@V?$allocator@PEAVBoid@1Application@@@std@@@std@@@std@@QEBAAEBQEAPEAVBoid@3Application@@XZ
	DD	060H
	DD	00H
	DD	05H
CONST	ENDS
;	COMDAT xdata
xdata	SEGMENT
$unwind$?_Myend@?$_Vector_alloc@U?$_Vec_base_types@PEAVBoid@1Application@@V?$allocator@PEAVBoid@1Application@@@std@@@std@@@std@@QEBAAEBQEAPEAVBoid@3Application@@XZ DD 025031719H
	DD	0d20a230fH
	DD	05006H
	DD	imagerel __CxxFrameHandler3
	DD	imagerel $cppxdata$?_Myend@?$_Vector_alloc@U?$_Vec_base_types@PEAVBoid@1Application@@V?$allocator@PEAVBoid@1Application@@@std@@@std@@@std@@QEBAAEBQEAPEAVBoid@3Application@@XZ
xdata	ENDS
;	COMDAT xdata
xdata	SEGMENT
$ip2state$?_Myend@?$_Vector_alloc@U?$_Vec_base_types@PEAVBoid@1Application@@V?$allocator@PEAVBoid@1Application@@@std@@@std@@@std@@QEAAAEAPEAPEAVBoid@3Application@@XZ DD imagerel ?_Myend@?$_Vector_alloc@U?$_Vec_base_types@PEAVBoid@1Application@@V?$allocator@PEAVBoid@1Application@@@std@@@std@@@std@@QEAAAEAPEAPEAVBoid@3Application@@XZ
	DD	0ffffffffH
xdata	ENDS
;	COMDAT CONST
CONST	SEGMENT
$cppxdata$?_Myend@?$_Vector_alloc@U?$_Vec_base_types@PEAVBoid@1Application@@V?$allocator@PEAVBoid@1Application@@@std@@@std@@@std@@QEAAAEAPEAPEAVBoid@3Application@@XZ DD 019930522H
	DD	00H
	DD	00H
	DD	00H
	DD	00H
	DD	01H
	DD	imagerel $ip2state$?_Myend@?$_Vector_alloc@U?$_Vec_base_types@PEAVBoid@1Application@@V?$allocator@PEAVBoid@1Application@@@std@@@std@@@std@@QEAAAEAPEAPEAVBoid@3Application@@XZ
	DD	060H
	DD	00H
	DD	05H
CONST	ENDS
;	COMDAT xdata
xdata	SEGMENT
$unwind$?_Myend@?$_Vector_alloc@U?$_Vec_base_types@PEAVBoid@1Application@@V?$allocator@PEAVBoid@1Application@@@std@@@std@@@std@@QEAAAEAPEAPEAVBoid@3Application@@XZ DD 025031719H
	DD	0d20a230fH
	DD	05006H
	DD	imagerel __CxxFrameHandler3
	DD	imagerel $cppxdata$?_Myend@?$_Vector_alloc@U?$_Vec_base_types@PEAVBoid@1Application@@V?$allocator@PEAVBoid@1Application@@@std@@@std@@@std@@QEAAAEAPEAPEAVBoid@3Application@@XZ
xdata	ENDS
;	COMDAT xdata
xdata	SEGMENT
$ip2state$?_Mylast@?$_Vector_alloc@U?$_Vec_base_types@PEAVBoid@1Application@@V?$allocator@PEAVBoid@1Application@@@std@@@std@@@std@@QEBAAEBQEAPEAVBoid@3Application@@XZ DD imagerel ?_Mylast@?$_Vector_alloc@U?$_Vec_base_types@PEAVBoid@1Application@@V?$allocator@PEAVBoid@1Application@@@std@@@std@@@std@@QEBAAEBQEAPEAVBoid@3Application@@XZ
	DD	0ffffffffH
xdata	ENDS
;	COMDAT CONST
CONST	SEGMENT
$cppxdata$?_Mylast@?$_Vector_alloc@U?$_Vec_base_types@PEAVBoid@1Application@@V?$allocator@PEAVBoid@1Application@@@std@@@std@@@std@@QEBAAEBQEAPEAVBoid@3Application@@XZ DD 019930522H
	DD	00H
	DD	00H
	DD	00H
	DD	00H
	DD	01H
	DD	imagerel $ip2state$?_Mylast@?$_Vector_alloc@U?$_Vec_base_types@PEAVBoid@1Application@@V?$allocator@PEAVBoid@1Application@@@std@@@std@@@std@@QEBAAEBQEAPEAVBoid@3Application@@XZ
	DD	060H
	DD	00H
	DD	05H
CONST	ENDS
;	COMDAT xdata
xdata	SEGMENT
$unwind$?_Mylast@?$_Vector_alloc@U?$_Vec_base_types@PEAVBoid@1Application@@V?$allocator@PEAVBoid@1Application@@@std@@@std@@@std@@QEBAAEBQEAPEAVBoid@3Application@@XZ DD 025031719H
	DD	0d20a230fH
	DD	05006H
	DD	imagerel __CxxFrameHandler3
	DD	imagerel $cppxdata$?_Mylast@?$_Vector_alloc@U?$_Vec_base_types@PEAVBoid@1Application@@V?$allocator@PEAVBoid@1Application@@@std@@@std@@@std@@QEBAAEBQEAPEAVBoid@3Application@@XZ
xdata	ENDS
;	COMDAT xdata
xdata	SEGMENT
$ip2state$?_Mylast@?$_Vector_alloc@U?$_Vec_base_types@PEAVBoid@1Application@@V?$allocator@PEAVBoid@1Application@@@std@@@std@@@std@@QEAAAEAPEAPEAVBoid@3Application@@XZ DD imagerel ?_Mylast@?$_Vector_alloc@U?$_Vec_base_types@PEAVBoid@1Application@@V?$allocator@PEAVBoid@1Application@@@std@@@std@@@std@@QEAAAEAPEAPEAVBoid@3Application@@XZ
	DD	0ffffffffH
xdata	ENDS
;	COMDAT CONST
CONST	SEGMENT
$cppxdata$?_Mylast@?$_Vector_alloc@U?$_Vec_base_types@PEAVBoid@1Application@@V?$allocator@PEAVBoid@1Application@@@std@@@std@@@std@@QEAAAEAPEAPEAVBoid@3Application@@XZ DD 019930522H
	DD	00H
	DD	00H
	DD	00H
	DD	00H
	DD	01H
	DD	imagerel $ip2state$?_Mylast@?$_Vector_alloc@U?$_Vec_base_types@PEAVBoid@1Application@@V?$allocator@PEAVBoid@1Application@@@std@@@std@@@std@@QEAAAEAPEAPEAVBoid@3Application@@XZ
	DD	060H
	DD	00H
	DD	05H
CONST	ENDS
;	COMDAT xdata
xdata	SEGMENT
$unwind$?_Mylast@?$_Vector_alloc@U?$_Vec_base_types@PEAVBoid@1Application@@V?$allocator@PEAVBoid@1Application@@@std@@@std@@@std@@QEAAAEAPEAPEAVBoid@3Application@@XZ DD 025031719H
	DD	0d20a230fH
	DD	05006H
	DD	imagerel __CxxFrameHandler3
	DD	imagerel $cppxdata$?_Mylast@?$_Vector_alloc@U?$_Vec_base_types@PEAVBoid@1Application@@V?$allocator@PEAVBoid@1Application@@@std@@@std@@@std@@QEAAAEAPEAPEAVBoid@3Application@@XZ
xdata	ENDS
;	COMDAT xdata
xdata	SEGMENT
$ip2state$?_Myfirst@?$_Vector_alloc@U?$_Vec_base_types@PEAVBoid@1Application@@V?$allocator@PEAVBoid@1Application@@@std@@@std@@@std@@QEBAAEBQEAPEAVBoid@3Application@@XZ DD imagerel ?_Myfirst@?$_Vector_alloc@U?$_Vec_base_types@PEAVBoid@1Application@@V?$allocator@PEAVBoid@1Application@@@std@@@std@@@std@@QEBAAEBQEAPEAVBoid@3Application@@XZ
	DD	0ffffffffH
xdata	ENDS
;	COMDAT CONST
CONST	SEGMENT
$cppxdata$?_Myfirst@?$_Vector_alloc@U?$_Vec_base_types@PEAVBoid@1Application@@V?$allocator@PEAVBoid@1Application@@@std@@@std@@@std@@QEBAAEBQEAPEAVBoid@3Application@@XZ DD 019930522H
	DD	00H
	DD	00H
	DD	00H
	DD	00H
	DD	01H
	DD	imagerel $ip2state$?_Myfirst@?$_Vector_alloc@U?$_Vec_base_types@PEAVBoid@1Application@@V?$allocator@PEAVBoid@1Application@@@std@@@std@@@std@@QEBAAEBQEAPEAVBoid@3Application@@XZ
	DD	060H
	DD	00H
	DD	05H
CONST	ENDS
;	COMDAT xdata
xdata	SEGMENT
$unwind$?_Myfirst@?$_Vector_alloc@U?$_Vec_base_types@PEAVBoid@1Application@@V?$allocator@PEAVBoid@1Application@@@std@@@std@@@std@@QEBAAEBQEAPEAVBoid@3Application@@XZ DD 025031719H
	DD	0d20a230fH
	DD	05006H
	DD	imagerel __CxxFrameHandler3
	DD	imagerel $cppxdata$?_Myfirst@?$_Vector_alloc@U?$_Vec_base_types@PEAVBoid@1Application@@V?$allocator@PEAVBoid@1Application@@@std@@@std@@@std@@QEBAAEBQEAPEAVBoid@3Application@@XZ
xdata	ENDS
;	COMDAT xdata
xdata	SEGMENT
$ip2state$?_Myfirst@?$_Vector_alloc@U?$_Vec_base_types@PEAVBoid@1Application@@V?$allocator@PEAVBoid@1Application@@@std@@@std@@@std@@QEAAAEAPEAPEAVBoid@3Application@@XZ DD imagerel ?_Myfirst@?$_Vector_alloc@U?$_Vec_base_types@PEAVBoid@1Application@@V?$allocator@PEAVBoid@1Application@@@std@@@std@@@std@@QEAAAEAPEAPEAVBoid@3Application@@XZ
	DD	0ffffffffH
xdata	ENDS
;	COMDAT CONST
CONST	SEGMENT
$cppxdata$?_Myfirst@?$_Vector_alloc@U?$_Vec_base_types@PEAVBoid@1Application@@V?$allocator@PEAVBoid@1Application@@@std@@@std@@@std@@QEAAAEAPEAPEAVBoid@3Application@@XZ DD 019930522H
	DD	00H
	DD	00H
	DD	00H
	DD	00H
	DD	01H
	DD	imagerel $ip2state$?_Myfirst@?$_Vector_alloc@U?$_Vec_base_types@PEAVBoid@1Application@@V?$allocator@PEAVBoid@1Application@@@std@@@std@@@std@@QEAAAEAPEAPEAVBoid@3Application@@XZ
	DD	060H
	DD	00H
	DD	05H
CONST	ENDS
;	COMDAT xdata
xdata	SEGMENT
$unwind$?_Myfirst@?$_Vector_alloc@U?$_Vec_base_types@PEAVBoid@1Application@@V?$allocator@PEAVBoid@1Application@@@std@@@std@@@std@@QEAAAEAPEAPEAVBoid@3Application@@XZ DD 025031719H
	DD	0d20a230fH
	DD	05006H
	DD	imagerel __CxxFrameHandler3
	DD	imagerel $cppxdata$?_Myfirst@?$_Vector_alloc@U?$_Vec_base_types@PEAVBoid@1Application@@V?$allocator@PEAVBoid@1Application@@@std@@@std@@@std@@QEAAAEAPEAPEAVBoid@3Application@@XZ
xdata	ENDS
;	COMDAT xdata
xdata	SEGMENT
$ip2state$?_Get_data@?$_Vector_alloc@U?$_Vec_base_types@PEAVBoid@1Application@@V?$allocator@PEAVBoid@1Application@@@std@@@std@@@std@@QEBAAEBV?$_Vector_val@U?$_Simple_types@PEAVBoid@1Application@@@std@@@2@XZ DD imagerel ?_Get_data@?$_Vector_alloc@U?$_Vec_base_types@PEAVBoid@1Application@@V?$allocator@PEAVBoid@1Application@@@std@@@std@@@std@@QEBAAEBV?$_Vector_val@U?$_Simple_types@PEAVBoid@1Application@@@std@@@2@XZ
	DD	0ffffffffH
xdata	ENDS
;	COMDAT CONST
CONST	SEGMENT
$cppxdata$?_Get_data@?$_Vector_alloc@U?$_Vec_base_types@PEAVBoid@1Application@@V?$allocator@PEAVBoid@1Application@@@std@@@std@@@std@@QEBAAEBV?$_Vector_val@U?$_Simple_types@PEAVBoid@1Application@@@std@@@2@XZ DD 019930522H
	DD	00H
	DD	00H
	DD	00H
	DD	00H
	DD	01H
	DD	imagerel $ip2state$?_Get_data@?$_Vector_alloc@U?$_Vec_base_types@PEAVBoid@1Application@@V?$allocator@PEAVBoid@1Application@@@std@@@std@@@std@@QEBAAEBV?$_Vector_val@U?$_Simple_types@PEAVBoid@1Application@@@std@@@2@XZ
	DD	060H
	DD	00H
	DD	05H
CONST	ENDS
;	COMDAT xdata
xdata	SEGMENT
$unwind$?_Get_data@?$_Vector_alloc@U?$_Vec_base_types@PEAVBoid@1Application@@V?$allocator@PEAVBoid@1Application@@@std@@@std@@@std@@QEBAAEBV?$_Vector_val@U?$_Simple_types@PEAVBoid@1Application@@@std@@@2@XZ DD 025031719H
	DD	0d20a230fH
	DD	05006H
	DD	imagerel __CxxFrameHandler3
	DD	imagerel $cppxdata$?_Get_data@?$_Vector_alloc@U?$_Vec_base_types@PEAVBoid@1Application@@V?$allocator@PEAVBoid@1Application@@@std@@@std@@@std@@QEBAAEBV?$_Vector_val@U?$_Simple_types@PEAVBoid@1Application@@@std@@@2@XZ
xdata	ENDS
;	COMDAT xdata
xdata	SEGMENT
$ip2state$?_Get_data@?$_Vector_alloc@U?$_Vec_base_types@PEAVBoid@1Application@@V?$allocator@PEAVBoid@1Application@@@std@@@std@@@std@@QEAAAEAV?$_Vector_val@U?$_Simple_types@PEAVBoid@1Application@@@std@@@2@XZ DD imagerel ?_Get_data@?$_Vector_alloc@U?$_Vec_base_types@PEAVBoid@1Application@@V?$allocator@PEAVBoid@1Application@@@std@@@std@@@std@@QEAAAEAV?$_Vector_val@U?$_Simple_types@PEAVBoid@1Application@@@std@@@2@XZ
	DD	0ffffffffH
xdata	ENDS
;	COMDAT CONST
CONST	SEGMENT
$cppxdata$?_Get_data@?$_Vector_alloc@U?$_Vec_base_types@PEAVBoid@1Application@@V?$allocator@PEAVBoid@1Application@@@std@@@std@@@std@@QEAAAEAV?$_Vector_val@U?$_Simple_types@PEAVBoid@1Application@@@std@@@2@XZ DD 019930522H
	DD	00H
	DD	00H
	DD	00H
	DD	00H
	DD	01H
	DD	imagerel $ip2state$?_Get_data@?$_Vector_alloc@U?$_Vec_base_types@PEAVBoid@1Application@@V?$allocator@PEAVBoid@1Application@@@std@@@std@@@std@@QEAAAEAV?$_Vector_val@U?$_Simple_types@PEAVBoid@1Application@@@std@@@2@XZ
	DD	060H
	DD	00H
	DD	05H
CONST	ENDS
;	COMDAT xdata
xdata	SEGMENT
$unwind$?_Get_data@?$_Vector_alloc@U?$_Vec_base_types@PEAVBoid@1Application@@V?$allocator@PEAVBoid@1Application@@@std@@@std@@@std@@QEAAAEAV?$_Vector_val@U?$_Simple_types@PEAVBoid@1Application@@@std@@@2@XZ DD 025031719H
	DD	0d20a230fH
	DD	05006H
	DD	imagerel __CxxFrameHandler3
	DD	imagerel $cppxdata$?_Get_data@?$_Vector_alloc@U?$_Vec_base_types@PEAVBoid@1Application@@V?$allocator@PEAVBoid@1Application@@@std@@@std@@@std@@QEAAAEAV?$_Vector_val@U?$_Simple_types@PEAVBoid@1Application@@@std@@@2@XZ
xdata	ENDS
;	COMDAT xdata
xdata	SEGMENT
$ip2state$?_Getal@?$_Vector_alloc@U?$_Vec_base_types@PEAVBoid@1Application@@V?$allocator@PEAVBoid@1Application@@@std@@@std@@@std@@QEBAAEBV?$allocator@PEAVBoid@1Application@@@2@XZ DD imagerel ?_Getal@?$_Vector_alloc@U?$_Vec_base_types@PEAVBoid@1Application@@V?$allocator@PEAVBoid@1Application@@@std@@@std@@@std@@QEBAAEBV?$allocator@PEAVBoid@1Application@@@2@XZ
	DD	0ffffffffH
xdata	ENDS
;	COMDAT CONST
CONST	SEGMENT
$cppxdata$?_Getal@?$_Vector_alloc@U?$_Vec_base_types@PEAVBoid@1Application@@V?$allocator@PEAVBoid@1Application@@@std@@@std@@@std@@QEBAAEBV?$allocator@PEAVBoid@1Application@@@2@XZ DD 019930522H
	DD	00H
	DD	00H
	DD	00H
	DD	00H
	DD	01H
	DD	imagerel $ip2state$?_Getal@?$_Vector_alloc@U?$_Vec_base_types@PEAVBoid@1Application@@V?$allocator@PEAVBoid@1Application@@@std@@@std@@@std@@QEBAAEBV?$allocator@PEAVBoid@1Application@@@2@XZ
	DD	060H
	DD	00H
	DD	05H
CONST	ENDS
;	COMDAT xdata
xdata	SEGMENT
$unwind$?_Getal@?$_Vector_alloc@U?$_Vec_base_types@PEAVBoid@1Application@@V?$allocator@PEAVBoid@1Application@@@std@@@std@@@std@@QEBAAEBV?$allocator@PEAVBoid@1Application@@@2@XZ DD 025031719H
	DD	0d20a230fH
	DD	05006H
	DD	imagerel __CxxFrameHandler3
	DD	imagerel $cppxdata$?_Getal@?$_Vector_alloc@U?$_Vec_base_types@PEAVBoid@1Application@@V?$allocator@PEAVBoid@1Application@@@std@@@std@@@std@@QEBAAEBV?$allocator@PEAVBoid@1Application@@@2@XZ
xdata	ENDS
;	COMDAT xdata
xdata	SEGMENT
$ip2state$?_Getal@?$_Vector_alloc@U?$_Vec_base_types@PEAVBoid@1Application@@V?$allocator@PEAVBoid@1Application@@@std@@@std@@@std@@QEAAAEAV?$allocator@PEAVBoid@1Application@@@2@XZ DD imagerel ?_Getal@?$_Vector_alloc@U?$_Vec_base_types@PEAVBoid@1Application@@V?$allocator@PEAVBoid@1Application@@@std@@@std@@@std@@QEAAAEAV?$allocator@PEAVBoid@1Application@@@2@XZ
	DD	0ffffffffH
xdata	ENDS
;	COMDAT CONST
CONST	SEGMENT
$cppxdata$?_Getal@?$_Vector_alloc@U?$_Vec_base_types@PEAVBoid@1Application@@V?$allocator@PEAVBoid@1Application@@@std@@@std@@@std@@QEAAAEAV?$allocator@PEAVBoid@1Application@@@2@XZ DD 019930522H
	DD	00H
	DD	00H
	DD	00H
	DD	00H
	DD	01H
	DD	imagerel $ip2state$?_Getal@?$_Vector_alloc@U?$_Vec_base_types@PEAVBoid@1Application@@V?$allocator@PEAVBoid@1Application@@@std@@@std@@@std@@QEAAAEAV?$allocator@PEAVBoid@1Application@@@2@XZ
	DD	060H
	DD	00H
	DD	05H
CONST	ENDS
;	COMDAT xdata
xdata	SEGMENT
$unwind$?_Getal@?$_Vector_alloc@U?$_Vec_base_types@PEAVBoid@1Application@@V?$allocator@PEAVBoid@1Application@@@std@@@std@@@std@@QEAAAEAV?$allocator@PEAVBoid@1Application@@@2@XZ DD 025031719H
	DD	0d20a230fH
	DD	05006H
	DD	imagerel __CxxFrameHandler3
	DD	imagerel $cppxdata$?_Getal@?$_Vector_alloc@U?$_Vec_base_types@PEAVBoid@1Application@@V?$allocator@PEAVBoid@1Application@@@std@@@std@@@std@@QEAAAEAV?$allocator@PEAVBoid@1Application@@@2@XZ
xdata	ENDS
;	COMDAT xdata
xdata	SEGMENT
$unwind$?_Orphan_all@?$_Vector_alloc@U?$_Vec_base_types@PEAVBoid@1Application@@V?$allocator@PEAVBoid@1Application@@@std@@@std@@@std@@QEAAXXZ DD 025030f01H
	DD	0b20a230fH
	DD	05006H
xdata	ENDS
;	COMDAT xdata
xdata	SEGMENT
$ip2state$?_Myproxy@?$_Vector_alloc@U?$_Vec_base_types@PEAVBoid@1Application@@V?$allocator@PEAVBoid@1Application@@@std@@@std@@@std@@QEAAAEAPEAU_Container_proxy@2@XZ DD imagerel ?_Myproxy@?$_Vector_alloc@U?$_Vec_base_types@PEAVBoid@1Application@@V?$allocator@PEAVBoid@1Application@@@std@@@std@@@std@@QEAAAEAPEAU_Container_proxy@2@XZ
	DD	0ffffffffH
xdata	ENDS
;	COMDAT CONST
CONST	SEGMENT
$cppxdata$?_Myproxy@?$_Vector_alloc@U?$_Vec_base_types@PEAVBoid@1Application@@V?$allocator@PEAVBoid@1Application@@@std@@@std@@@std@@QEAAAEAPEAU_Container_proxy@2@XZ DD 019930522H
	DD	00H
	DD	00H
	DD	00H
	DD	00H
	DD	01H
	DD	imagerel $ip2state$?_Myproxy@?$_Vector_alloc@U?$_Vec_base_types@PEAVBoid@1Application@@V?$allocator@PEAVBoid@1Application@@@std@@@std@@@std@@QEAAAEAPEAU_Container_proxy@2@XZ
	DD	060H
	DD	00H
	DD	05H
CONST	ENDS
;	COMDAT xdata
xdata	SEGMENT
$unwind$?_Myproxy@?$_Vector_alloc@U?$_Vec_base_types@PEAVBoid@1Application@@V?$allocator@PEAVBoid@1Application@@@std@@@std@@@std@@QEAAAEAPEAU_Container_proxy@2@XZ DD 025031719H
	DD	0d20a230fH
	DD	05006H
	DD	imagerel __CxxFrameHandler3
	DD	imagerel $cppxdata$?_Myproxy@?$_Vector_alloc@U?$_Vec_base_types@PEAVBoid@1Application@@V?$allocator@PEAVBoid@1Application@@@std@@@std@@@std@@QEAAAEAPEAU_Container_proxy@2@XZ
xdata	ENDS
;	COMDAT xdata
xdata	SEGMENT
$unwind$?_Getpfirst@?$_Vector_alloc@U?$_Vec_base_types@PEAVBoid@1Application@@V?$allocator@PEAVBoid@1Application@@@std@@@std@@@std@@QEBAPEAPEAU_Iterator_base12@2@XZ DD 025030f01H
	DD	0b20a230fH
	DD	05006H
xdata	ENDS
;	COMDAT xdata
xdata	SEGMENT
$unwind$?_Free_proxy@?$_Vector_alloc@U?$_Vec_base_types@PEAVBoid@1Application@@V?$allocator@PEAVBoid@1Application@@@std@@@std@@@std@@QEAAXXZ DD 025031d19H
	DD	0d20a230fH
	DD	05006H
	DD	imagerel __GSHandlerCheck
	DD	068H
xdata	ENDS
;	COMDAT xdata
xdata	SEGMENT
$unwind$?_Alloc_proxy@?$_Vector_alloc@U?$_Vec_base_types@PEAVBoid@1Application@@V?$allocator@PEAVBoid@1Application@@@std@@@std@@@std@@QEAAXXZ DD 025042019H
	DD	010d2312H
	DD	050060012H
	DD	imagerel __GSHandlerCheck
	DD	080H
xdata	ENDS
;	COMDAT xdata
xdata	SEGMENT
$ip2state$??1?$_Vector_alloc@U?$_Vec_base_types@PEAVBoid@1Application@@V?$allocator@PEAVBoid@1Application@@@std@@@std@@@std@@QEAA@XZ DD imagerel ??1?$_Vector_alloc@U?$_Vec_base_types@PEAVBoid@1Application@@V?$allocator@PEAVBoid@1Application@@@std@@@std@@@std@@QEAA@XZ
	DD	0ffffffffH
xdata	ENDS
;	COMDAT CONST
CONST	SEGMENT
$cppxdata$??1?$_Vector_alloc@U?$_Vec_base_types@PEAVBoid@1Application@@V?$allocator@PEAVBoid@1Application@@@std@@@std@@@std@@QEAA@XZ DD 019930522H
	DD	00H
	DD	00H
	DD	00H
	DD	00H
	DD	01H
	DD	imagerel $ip2state$??1?$_Vector_alloc@U?$_Vec_base_types@PEAVBoid@1Application@@V?$allocator@PEAVBoid@1Application@@@std@@@std@@@std@@QEAA@XZ
	DD	060H
	DD	00H
	DD	05H
CONST	ENDS
;	COMDAT xdata
xdata	SEGMENT
$unwind$??1?$_Vector_alloc@U?$_Vec_base_types@PEAVBoid@1Application@@V?$allocator@PEAVBoid@1Application@@@std@@@std@@@std@@QEAA@XZ DD 025031719H
	DD	0d20a230fH
	DD	05006H
	DD	imagerel __CxxFrameHandler3
	DD	imagerel $cppxdata$??1?$_Vector_alloc@U?$_Vec_base_types@PEAVBoid@1Application@@V?$allocator@PEAVBoid@1Application@@@std@@@std@@@std@@QEAA@XZ
xdata	ENDS
;	COMDAT xdata
xdata	SEGMENT
$unwind$??0?$_Vector_alloc@U?$_Vec_base_types@PEAVBoid@1Application@@V?$allocator@PEAVBoid@1Application@@@std@@@std@@@std@@QEAA@XZ DD 025030f01H
	DD	0d20a230fH
	DD	05006H
xdata	ENDS
;	COMDAT xdata
xdata	SEGMENT
$ip2state$?max_size@?$_Default_allocator_traits@V?$allocator@PEAVBoid@1Application@@@std@@@std@@SA_KAEBV?$allocator@PEAVBoid@1Application@@@2@@Z DD imagerel ?max_size@?$_Default_allocator_traits@V?$allocator@PEAVBoid@1Application@@@std@@@std@@SA_KAEBV?$allocator@PEAVBoid@1Application@@@2@@Z
	DD	0ffffffffH
xdata	ENDS
;	COMDAT CONST
CONST	SEGMENT
$cppxdata$?max_size@?$_Default_allocator_traits@V?$allocator@PEAVBoid@1Application@@@std@@@std@@SA_KAEBV?$allocator@PEAVBoid@1Application@@@2@@Z DD 019930522H
	DD	00H
	DD	00H
	DD	00H
	DD	00H
	DD	01H
	DD	imagerel $ip2state$?max_size@?$_Default_allocator_traits@V?$allocator@PEAVBoid@1Application@@@std@@@std@@SA_KAEBV?$allocator@PEAVBoid@1Application@@@2@@Z
	DD	060H
	DD	00H
	DD	05H
CONST	ENDS
;	COMDAT xdata
xdata	SEGMENT
$unwind$?max_size@?$_Default_allocator_traits@V?$allocator@PEAVBoid@1Application@@@std@@@std@@SA_KAEBV?$allocator@PEAVBoid@1Application@@@2@@Z DD 025031719H
	DD	0d20a230fH
	DD	05006H
	DD	imagerel __CxxFrameHandler3
	DD	imagerel $cppxdata$?max_size@?$_Default_allocator_traits@V?$allocator@PEAVBoid@1Application@@@std@@@std@@SA_KAEBV?$allocator@PEAVBoid@1Application@@@2@@Z
xdata	ENDS
;	COMDAT xdata
xdata	SEGMENT
$unwind$?allocate@?$allocator@PEAVBoid@1Application@@@std@@QEAAPEAPEAVBoid@3Application@@_K@Z DD 025031401H
	DD	0b20f2314H
	DD	0500bH
xdata	ENDS
;	COMDAT xdata
xdata	SEGMENT
$unwind$?deallocate@?$allocator@PEAVBoid@1Application@@@std@@QEAAXQEAPEAVBoid@3Application@@_K@Z DD 025031901H
	DD	0b2142319H
	DD	05010H
xdata	ENDS
;	COMDAT xdata
xdata	SEGMENT
$ip2state$??0?$allocator@PEAVBoid@1Application@@@std@@QEAA@XZ DD imagerel ??0?$allocator@PEAVBoid@1Application@@@std@@QEAA@XZ
	DD	0ffffffffH
xdata	ENDS
;	COMDAT CONST
CONST	SEGMENT
$cppxdata$??0?$allocator@PEAVBoid@1Application@@@std@@QEAA@XZ DD 019930522H
	DD	00H
	DD	00H
	DD	00H
	DD	00H
	DD	01H
	DD	imagerel $ip2state$??0?$allocator@PEAVBoid@1Application@@@std@@QEAA@XZ
	DD	060H
	DD	00H
	DD	05H
CONST	ENDS
;	COMDAT xdata
xdata	SEGMENT
$unwind$??0?$allocator@PEAVBoid@1Application@@@std@@QEAA@XZ DD 025031719H
	DD	0d20a230fH
	DD	05006H
	DD	imagerel __CxxFrameHandler3
	DD	imagerel $cppxdata$??0?$allocator@PEAVBoid@1Application@@@std@@QEAA@XZ
xdata	ENDS
;	COMDAT xdata
xdata	SEGMENT
$unwind$??0?$tvec3@M$0A@@glm@@QEAA@MMM@Z DD 025032101H
	DD	0b21c2321H
	DD	05018H
xdata	ENDS
;	COMDAT xdata
xdata	SEGMENT
$ip2state$??$_Min_value@_K@std@@YAAEB_KAEB_K0@Z DD imagerel ??$_Min_value@_K@std@@YAAEB_KAEB_K0@Z
	DD	0ffffffffH
xdata	ENDS
;	COMDAT CONST
CONST	SEGMENT
$cppxdata$??$_Min_value@_K@std@@YAAEB_KAEB_K0@Z DD 019930522H
	DD	00H
	DD	00H
	DD	00H
	DD	00H
	DD	01H
	DD	imagerel $ip2state$??$_Min_value@_K@std@@YAAEB_KAEB_K0@Z
	DD	068H
	DD	00H
	DD	05H
CONST	ENDS
;	COMDAT xdata
xdata	SEGMENT
$unwind$??$_Min_value@_K@std@@YAAEB_KAEB_K0@Z DD 025031f19H
	DD	0f2122317H
	DD	0500bH
	DD	imagerel __CxxFrameHandler3
	DD	imagerel $cppxdata$??$_Min_value@_K@std@@YAAEB_KAEB_K0@Z
xdata	ENDS
;	COMDAT xdata
xdata	SEGMENT
$unwind$?_Adjust_manually_vector_aligned@std@@YAXAEAPEAXAEA_K@Z DD 035041701H
	DD	01123317H
	DD	0500b0012H
xdata	ENDS
;	COMDAT xdata
xdata	SEGMENT
$unwind$?_Allocate@_Default_allocate_traits@std@@SAPEAX_K@Z DD 025030f01H
	DD	0b20a230fH
	DD	05006H
xdata	ENDS
;	COMDAT xdata
xdata	SEGMENT
$ip2state$?_Getpnext@_Iterator_base12@std@@QEAAPEAPEAU12@XZ DD imagerel ?_Getpnext@_Iterator_base12@std@@QEAAPEAPEAU12@XZ
	DD	0ffffffffH
xdata	ENDS
;	COMDAT CONST
CONST	SEGMENT
$cppxdata$?_Getpnext@_Iterator_base12@std@@QEAAPEAPEAU12@XZ DD 019930522H
	DD	00H
	DD	00H
	DD	00H
	DD	00H
	DD	01H
	DD	imagerel $ip2state$?_Getpnext@_Iterator_base12@std@@QEAAPEAPEAU12@XZ
	DD	060H
	DD	00H
	DD	05H
CONST	ENDS
;	COMDAT xdata
xdata	SEGMENT
$unwind$?_Getpnext@_Iterator_base12@std@@QEAAPEAPEAU12@XZ DD 025031719H
	DD	0d20a230fH
	DD	05006H
	DD	imagerel __CxxFrameHandler3
	DD	imagerel $cppxdata$?_Getpnext@_Iterator_base12@std@@QEAAPEAPEAU12@XZ
xdata	ENDS
;	COMDAT xdata
xdata	SEGMENT
$ip2state$?_Clrcont@_Iterator_base12@std@@QEAAXXZ DD imagerel ?_Clrcont@_Iterator_base12@std@@QEAAXXZ
	DD	0ffffffffH
xdata	ENDS
;	COMDAT CONST
CONST	SEGMENT
$cppxdata$?_Clrcont@_Iterator_base12@std@@QEAAXXZ DD 019930522H
	DD	00H
	DD	00H
	DD	00H
	DD	00H
	DD	01H
	DD	imagerel $ip2state$?_Clrcont@_Iterator_base12@std@@QEAAXXZ
	DD	060H
	DD	00H
	DD	05H
CONST	ENDS
;	COMDAT xdata
xdata	SEGMENT
$unwind$?_Clrcont@_Iterator_base12@std@@QEAAXXZ DD 025031719H
	DD	0d20a230fH
	DD	05006H
	DD	imagerel __CxxFrameHandler3
	DD	imagerel $cppxdata$?_Clrcont@_Iterator_base12@std@@QEAAXXZ
xdata	ENDS
;	COMDAT xdata
xdata	SEGMENT
$ip2state$?_Orphan_all@_Container_base12@std@@QEAAXXZ DD imagerel ?_Orphan_all@_Container_base12@std@@QEAAXXZ
	DD	0ffffffffH
xdata	ENDS
;	COMDAT CONST
CONST	SEGMENT
$cppxdata$?_Orphan_all@_Container_base12@std@@QEAAXXZ DD 019930522H
	DD	00H
	DD	00H
	DD	00H
	DD	00H
	DD	01H
	DD	imagerel $ip2state$?_Orphan_all@_Container_base12@std@@QEAAXXZ
	DD	070H
	DD	00H
	DD	05H
CONST	ENDS
;	COMDAT xdata
xdata	SEGMENT
$unwind$?_Orphan_all@_Container_base12@std@@QEAAXXZ DD 025032819H
	DD	0f20d2312H
	DD	05006H
	DD	imagerel __GSHandlerCheck_EH
	DD	imagerel $cppxdata$?_Orphan_all@_Container_base12@std@@QEAAXXZ
	DD	07bH
xdata	ENDS
;	COMDAT xdata
xdata	SEGMENT
$ip2state$?_Getpfirst@_Container_base12@std@@QEBAPEAPEAU_Iterator_base12@2@XZ DD imagerel ?_Getpfirst@_Container_base12@std@@QEBAPEAPEAU_Iterator_base12@2@XZ
	DD	0ffffffffH
xdata	ENDS
;	COMDAT CONST
CONST	SEGMENT
$cppxdata$?_Getpfirst@_Container_base12@std@@QEBAPEAPEAU_Iterator_base12@2@XZ DD 019930522H
	DD	00H
	DD	00H
	DD	00H
	DD	00H
	DD	01H
	DD	imagerel $ip2state$?_Getpfirst@_Container_base12@std@@QEBAPEAPEAU_Iterator_base12@2@XZ
	DD	060H
	DD	00H
	DD	05H
CONST	ENDS
;	COMDAT xdata
xdata	SEGMENT
$unwind$?_Getpfirst@_Container_base12@std@@QEBAPEAPEAU_Iterator_base12@2@XZ DD 025031719H
	DD	0d20a230fH
	DD	05006H
	DD	imagerel __CxxFrameHandler3
	DD	imagerel $cppxdata$?_Getpfirst@_Container_base12@std@@QEBAPEAPEAU_Iterator_base12@2@XZ
xdata	ENDS
;	COMDAT xdata
xdata	SEGMENT
$unwind$??0_Container_base12@std@@QEAA@XZ DD 025030f01H
	DD	0b20a230fH
	DD	05006H
xdata	ENDS
;	COMDAT xdata
xdata	SEGMENT
$ip2state$??0_Container_proxy@std@@QEAA@XZ DD imagerel ??0_Container_proxy@std@@QEAA@XZ
	DD	0ffffffffH
xdata	ENDS
;	COMDAT CONST
CONST	SEGMENT
$cppxdata$??0_Container_proxy@std@@QEAA@XZ DD 019930522H
	DD	00H
	DD	00H
	DD	00H
	DD	00H
	DD	01H
	DD	imagerel $ip2state$??0_Container_proxy@std@@QEAA@XZ
	DD	060H
	DD	00H
	DD	05H
CONST	ENDS
;	COMDAT xdata
xdata	SEGMENT
$unwind$??0_Container_proxy@std@@QEAA@XZ DD 025031719H
	DD	0d20a230fH
	DD	05006H
	DD	imagerel __CxxFrameHandler3
	DD	imagerel $cppxdata$??0_Container_proxy@std@@QEAA@XZ
xdata	ENDS
;	COMDAT xdata
xdata	SEGMENT
$unwind$??0?$tvec2@M$0A@@glm@@QEAA@MM@Z DD 025031b01H
	DD	0b216231bH
	DD	05012H
xdata	ENDS
;	COMDAT xdata
xdata	SEGMENT
$unwind$??0?$tvec4@M$0A@@glm@@QEAA@MMMM@Z DD 025032101H
	DD	0b21c2321H
	DD	05018H
xdata	ENDS
;	COMDAT xdata
xdata	SEGMENT
$unwind$??0?$tvec4@M$0A@@glm@@QEAA@M@Z DD 025031501H
	DD	0b2102315H
	DD	0500cH
xdata	ENDS
;	COMDAT xdata
xdata	SEGMENT
$ip2state$?max@?$numeric_limits@_J@std@@SA_JXZ DD imagerel ?max@?$numeric_limits@_J@std@@SA_JXZ
	DD	0ffffffffH
xdata	ENDS
;	COMDAT CONST
CONST	SEGMENT
$cppxdata$?max@?$numeric_limits@_J@std@@SA_JXZ DD 019930522H
	DD	00H
	DD	00H
	DD	00H
	DD	00H
	DD	01H
	DD	imagerel $ip2state$?max@?$numeric_limits@_J@std@@SA_JXZ
	DD	060H
	DD	00H
	DD	05H
CONST	ENDS
;	COMDAT xdata
xdata	SEGMENT
$unwind$?max@?$numeric_limits@_J@std@@SA_JXZ DD 025031319H
	DD	0d206230bH
	DD	05002H
	DD	imagerel __CxxFrameHandler3
	DD	imagerel $cppxdata$?max@?$numeric_limits@_J@std@@SA_JXZ
xdata	ENDS
;	COMDAT xdata
xdata	SEGMENT
$ip2state$?sqrt@@YAMM@Z DD imagerel ?sqrt@@YAMM@Z
	DD	0ffffffffH
xdata	ENDS
;	COMDAT CONST
CONST	SEGMENT
$cppxdata$?sqrt@@YAMM@Z DD 019930522H
	DD	00H
	DD	00H
	DD	00H
	DD	00H
	DD	01H
	DD	imagerel $ip2state$?sqrt@@YAMM@Z
	DD	060H
	DD	00H
	DD	05H
CONST	ENDS
;	COMDAT xdata
xdata	SEGMENT
$unwind$?sqrt@@YAMM@Z DD 025031819H
	DD	0d20b2310H
	DD	05007H
	DD	imagerel __CxxFrameHandler3
	DD	imagerel $cppxdata$?sqrt@@YAMM@Z
xdata	ENDS
;	COMDAT xdata
xdata	SEGMENT
$ip2state$??2@YAPEAX_KPEAX@Z DD imagerel ??2@YAPEAX_KPEAX@Z
	DD	0ffffffffH
xdata	ENDS
;	COMDAT CONST
CONST	SEGMENT
$cppxdata$??2@YAPEAX_KPEAX@Z DD 019930522H
	DD	00H
	DD	00H
	DD	00H
	DD	00H
	DD	01H
	DD	imagerel $ip2state$??2@YAPEAX_KPEAX@Z
	DD	060H
	DD	00H
	DD	05H
CONST	ENDS
;	COMDAT xdata
xdata	SEGMENT
$unwind$??2@YAPEAX_KPEAX@Z DD 025031c19H
	DD	0d20f2314H
	DD	0500bH
	DD	imagerel __CxxFrameHandler3
	DD	imagerel $cppxdata$??2@YAPEAX_KPEAX@Z
xdata	ENDS
;	COMDAT xdata
xdata	SEGMENT
$unwind$?__empty_global_delete@@YAXPEAX_K@Z DD 025031401H
	DD	0b20f2314H
	DD	0500bH
xdata	ENDS
;	COMDAT xdata
xdata	SEGMENT
$unwind$?__empty_global_delete@@YAXPEAX@Z DD 025030f01H
	DD	0b20a230fH
	DD	05006H
xdata	ENDS
;	COMDAT xdata
xdata	SEGMENT
$unwind$??_H@YAXPEAX_K1P6APEAX0@Z@Z DD 025031e01H
	DD	0d219231eH
	DD	05015H
xdata	ENDS
; Function compile flags: /Odtp /RTCu /ZI
; File l:\dev\featherfallengine\depends\install\include\glm\detail\type_vec4.inl
;	COMDAT ??$?XM@?$tvec4@M$0A@@glm@@QEAAAEAU01@AEBU01@@Z
_TEXT	SEGMENT
$T1 = 64
$T2 = 80
this$ = 128
v$ = 136
??$?XM@?$tvec4@M$0A@@glm@@QEAAAEAU01@AEBU01@@Z PROC	; glm::tvec4<float,0>::operator*=<float>, COMDAT

; 425  : 	{

$LN3:
	mov	QWORD PTR [rsp+16], rdx
	mov	QWORD PTR [rsp+8], rcx
	push	rbp
	push	rsi
	push	rdi
	sub	rsp, 128				; 00000080H
	lea	rbp, QWORD PTR [rsp+32]
	lea	rcx, OFFSET FLAT:__A0704DDA_type_vec4.inl
	call	__CheckForDebuggerJustMyCode

; 426  : 		return (*this = detail::compute_vec4_mul<T, P, detail::is_aligned<P>::value>::call(*this, tvec4<T, P>(v)));

	lea	rax, QWORD PTR $T1[rbp]
	mov	rdi, rax
	mov	rsi, QWORD PTR v$[rbp]
	mov	ecx, 16
	rep movsb
	lea	r8, QWORD PTR $T1[rbp]
	mov	rdx, QWORD PTR this$[rbp]
	lea	rcx, QWORD PTR $T2[rbp]
	call	?call@?$compute_vec4_mul@M$0A@$0A@@detail@glm@@SA?AU?$tvec4@M$0A@@3@AEBU43@0@Z ; glm::detail::compute_vec4_mul<float,0,0>::call
	mov	rdi, QWORD PTR this$[rbp]
	mov	rsi, rax
	mov	ecx, 16
	rep movsb
	mov	rax, QWORD PTR this$[rbp]

; 427  : 	}

	lea	rsp, QWORD PTR [rbp+96]
	pop	rdi
	pop	rsi
	pop	rbp
	ret	0
??$?XM@?$tvec4@M$0A@@glm@@QEAAAEAU01@AEBU01@@Z ENDP	; glm::tvec4<float,0>::operator*=<float>
_TEXT	ENDS
; Function compile flags: /Odtp /RTCu /ZI
; File c:\program files (x86)\microsoft visual studio\2017\enterprise\vc\tools\msvc\14.15.26726\include\xutility
;	COMDAT ??$_Copy_memmove@PEAPEAVBoid@1Application@@PEAPEAV112@@std@@YAPEAPEAVBoid@1Application@@PEAPEAV112@00@Z
_TEXT	SEGMENT
_First_ch$ = 0
_Last_ch$ = 8
_Dest_ch$ = 16
_Count$ = 24
_First$ = 112
_Last$ = 120
_Dest$ = 128
??$_Copy_memmove@PEAPEAVBoid@1Application@@PEAPEAV112@@std@@YAPEAPEAVBoid@1Application@@PEAPEAV112@00@Z PROC ; std::_Copy_memmove<Application::Boid::Boid * *,Application::Boid::Boid * *>, COMDAT

; 2398 : 	{	// implement copy-like function as memmove

$LN3:
	mov	QWORD PTR [rsp+24], r8
	mov	QWORD PTR [rsp+16], rdx
	mov	QWORD PTR [rsp+8], rcx
	push	rbp
	sub	rsp, 128				; 00000080H
	lea	rbp, QWORD PTR [rsp+32]
	lea	rcx, OFFSET FLAT:__E8FD1B86_xutility
	call	__CheckForDebuggerJustMyCode

; 2399 : 	const char * const _First_ch = const_cast<const char *>(reinterpret_cast<const volatile char *>(_First));

	mov	rax, QWORD PTR _First$[rbp]
	mov	QWORD PTR _First_ch$[rbp], rax

; 2400 : 	const char * const _Last_ch = const_cast<const char *>(reinterpret_cast<const volatile char *>(_Last));

	mov	rax, QWORD PTR _Last$[rbp]
	mov	QWORD PTR _Last_ch$[rbp], rax

; 2401 : 	char * const _Dest_ch = const_cast<char *>(reinterpret_cast<volatile char *>(_Dest));

	mov	rax, QWORD PTR _Dest$[rbp]
	mov	QWORD PTR _Dest_ch$[rbp], rax

; 2402 : 	const auto _Count = static_cast<size_t>(_Last_ch - _First_ch);

	mov	rax, QWORD PTR _First_ch$[rbp]
	mov	rcx, QWORD PTR _Last_ch$[rbp]
	sub	rcx, rax
	mov	rax, rcx
	mov	QWORD PTR _Count$[rbp], rax

; 2403 : 	_CSTD memmove(_Dest_ch, _First_ch, _Count);

	mov	r8, QWORD PTR _Count$[rbp]
	mov	rdx, QWORD PTR _First_ch$[rbp]
	mov	rcx, QWORD PTR _Dest_ch$[rbp]
	call	memmove

; 2404 : 	return (reinterpret_cast<_OutIt>(_Dest_ch + _Count));

	mov	rax, QWORD PTR _Count$[rbp]
	mov	rcx, QWORD PTR _Dest_ch$[rbp]
	add	rcx, rax
	mov	rax, rcx

; 2405 : 	}

	lea	rsp, QWORD PTR [rbp+96]
	pop	rbp
	ret	0
??$_Copy_memmove@PEAPEAVBoid@1Application@@PEAPEAV112@@std@@YAPEAPEAVBoid@1Application@@PEAPEAV112@00@Z ENDP ; std::_Copy_memmove<Application::Boid::Boid * *,Application::Boid::Boid * *>
_TEXT	ENDS
; Function compile flags: /Odtp /RTCu /ZI
; File l:\dev\featherfallengine\depends\install\include\glm\detail\type_vec3.inl
;	COMDAT ??$?DM$0A@@glm@@YA?AU?$tvec3@M$0A@@0@AEBU10@0@Z
_TEXT	SEGMENT
tv76 = 64
__$ReturnUdt$ = 96
v1$ = 104
v2$ = 112
??$?DM$0A@@glm@@YA?AU?$tvec3@M$0A@@0@AEBU10@0@Z PROC	; glm::operator*<float,0>, COMDAT

; 664  : 	{

$LN3:
	mov	QWORD PTR [rsp+24], r8
	mov	QWORD PTR [rsp+16], rdx
	mov	QWORD PTR [rsp+8], rcx
	push	rbp
	sub	rsp, 112				; 00000070H
	lea	rbp, QWORD PTR [rsp+32]
	lea	rcx, OFFSET FLAT:__125091CA_type_vec3.inl
	call	__CheckForDebuggerJustMyCode

; 665  : 		return tvec3<T, P>(

	mov	rax, QWORD PTR v1$[rbp]
	mov	rcx, QWORD PTR v2$[rbp]
	movss	xmm0, DWORD PTR [rax+8]
	mulss	xmm0, DWORD PTR [rcx+8]
	mov	rax, QWORD PTR v1$[rbp]
	mov	rcx, QWORD PTR v2$[rbp]
	movss	xmm1, DWORD PTR [rax+4]
	mulss	xmm1, DWORD PTR [rcx+4]
	mov	rax, QWORD PTR v1$[rbp]
	mov	rcx, QWORD PTR v2$[rbp]
	movss	xmm2, DWORD PTR [rax]
	mulss	xmm2, DWORD PTR [rcx]
	movss	DWORD PTR tv76[rbp], xmm2
	movaps	xmm3, xmm0
	movaps	xmm2, xmm1
	movss	xmm0, DWORD PTR tv76[rbp]
	movaps	xmm1, xmm0
	mov	rcx, QWORD PTR __$ReturnUdt$[rbp]
	call	??0?$tvec3@M$0A@@glm@@QEAA@MMM@Z	; glm::tvec3<float,0>::tvec3<float,0>
	mov	rax, QWORD PTR __$ReturnUdt$[rbp]

; 666  : 			v1.x * v2.x,
; 667  : 			v1.y * v2.y,
; 668  : 			v1.z * v2.z);
; 669  : 	}

	lea	rsp, QWORD PTR [rbp+80]
	pop	rbp
	ret	0
??$?DM$0A@@glm@@YA?AU?$tvec3@M$0A@@0@AEBU10@0@Z ENDP	; glm::operator*<float,0>
_TEXT	ENDS
; Function compile flags: /Odtp /RTCu /ZI
; File l:\dev\featherfallengine\depends\install\include\glm\detail\type_vec4.inl
;	COMDAT ??$?DM$0A@@glm@@YA?AU?$tvec4@M$0A@@0@AEBU10@0@Z
_TEXT	SEGMENT
$T1 = 64
__$ReturnUdt$ = 112
v1$ = 120
v2$ = 128
??$?DM$0A@@glm@@YA?AU?$tvec4@M$0A@@0@AEBU10@0@Z PROC	; glm::operator*<float,0>, COMDAT

; 718  : 	{

$LN3:
	mov	QWORD PTR [rsp+24], r8
	mov	QWORD PTR [rsp+16], rdx
	mov	QWORD PTR [rsp+8], rcx
	push	rbp
	push	rsi
	push	rdi
	sub	rsp, 112				; 00000070H
	lea	rbp, QWORD PTR [rsp+32]
	lea	rcx, OFFSET FLAT:__A0704DDA_type_vec4.inl
	call	__CheckForDebuggerJustMyCode

; 719  : 		return tvec4<T, P>(v1) *= v2;

	lea	rax, QWORD PTR $T1[rbp]
	mov	rdi, rax
	mov	rsi, QWORD PTR v1$[rbp]
	mov	ecx, 16
	rep movsb
	mov	rdx, QWORD PTR v2$[rbp]
	lea	rcx, QWORD PTR $T1[rbp]
	call	??$?XM@?$tvec4@M$0A@@glm@@QEAAAEAU01@AEBU01@@Z ; glm::tvec4<float,0>::operator*=<float>
	mov	rdi, QWORD PTR __$ReturnUdt$[rbp]
	mov	rsi, rax
	mov	ecx, 16
	rep movsb
	mov	rax, QWORD PTR __$ReturnUdt$[rbp]

; 720  : 	}

	lea	rsp, QWORD PTR [rbp+80]
	pop	rdi
	pop	rsi
	pop	rbp
	ret	0
??$?DM$0A@@glm@@YA?AU?$tvec4@M$0A@@0@AEBU10@0@Z ENDP	; glm::operator*<float,0>
_TEXT	ENDS
; Function compile flags: /Odtp /RTCu /ZI
; File l:\dev\featherfallengine\depends\install\include\glm\detail\type_vec2.inl
;	COMDAT ??$?DM$0A@@glm@@YA?AU?$tvec2@M$0A@@0@AEBU10@0@Z
_TEXT	SEGMENT
__$ReturnUdt$ = 80
v1$ = 88
v2$ = 96
??$?DM$0A@@glm@@YA?AU?$tvec2@M$0A@@0@AEBU10@0@Z PROC	; glm::operator*<float,0>, COMDAT

; 573  : 	{

$LN3:
	mov	QWORD PTR [rsp+24], r8
	mov	QWORD PTR [rsp+16], rdx
	mov	QWORD PTR [rsp+8], rcx
	push	rbp
	sub	rsp, 96					; 00000060H
	lea	rbp, QWORD PTR [rsp+32]
	lea	rcx, OFFSET FLAT:__2F30B87A_type_vec2.inl
	call	__CheckForDebuggerJustMyCode

; 574  : 		return tvec2<T, P>(

	mov	rax, QWORD PTR v1$[rbp]
	mov	rcx, QWORD PTR v2$[rbp]
	movss	xmm0, DWORD PTR [rax+4]
	mulss	xmm0, DWORD PTR [rcx+4]
	mov	rax, QWORD PTR v1$[rbp]
	mov	rcx, QWORD PTR v2$[rbp]
	movss	xmm1, DWORD PTR [rax]
	mulss	xmm1, DWORD PTR [rcx]
	movaps	xmm2, xmm0
	mov	rcx, QWORD PTR __$ReturnUdt$[rbp]
	call	??0?$tvec2@M$0A@@glm@@QEAA@MM@Z		; glm::tvec2<float,0>::tvec2<float,0>
	mov	rax, QWORD PTR __$ReturnUdt$[rbp]

; 575  : 			v1.x * v2.x,
; 576  : 			v1.y * v2.y);
; 577  : 	}

	lea	rsp, QWORD PTR [rbp+64]
	pop	rbp
	ret	0
??$?DM$0A@@glm@@YA?AU?$tvec2@M$0A@@0@AEBU10@0@Z ENDP	; glm::operator*<float,0>
_TEXT	ENDS
; Function compile flags: /Odtp /RTCu /ZI
; File c:\program files (x86)\microsoft visual studio\2017\enterprise\vc\tools\msvc\14.15.26726\include\xutility
;	COMDAT ??$_Seek_wrapped@PEAVBoid@1Application@@@std@@YAXAEAPEAPEAVBoid@1Application@@QEAPEAV112@@Z
_TEXT	SEGMENT
_It$ = 80
_UIt$ = 88
??$_Seek_wrapped@PEAVBoid@1Application@@@std@@YAXAEAPEAPEAVBoid@1Application@@QEAPEAV112@@Z PROC ; std::_Seek_wrapped<Application::Boid::Boid *>, COMDAT

; 871  : 	{

$LN3:
	mov	QWORD PTR [rsp+16], rdx
	mov	QWORD PTR [rsp+8], rcx
	push	rbp
	sub	rsp, 96					; 00000060H
	lea	rbp, QWORD PTR [rsp+32]
	lea	rcx, OFFSET FLAT:__E8FD1B86_xutility
	call	__CheckForDebuggerJustMyCode

; 872  : 	_It = _UIt;

	mov	rax, QWORD PTR _It$[rbp]
	mov	rcx, QWORD PTR _UIt$[rbp]
	mov	QWORD PTR [rax], rcx

; 873  : 	}

	lea	rsp, QWORD PTR [rbp+64]
	pop	rbp
	ret	0
??$_Seek_wrapped@PEAVBoid@1Application@@@std@@YAXAEAPEAPEAVBoid@1Application@@QEAPEAV112@@Z ENDP ; std::_Seek_wrapped<Application::Boid::Boid *>
_TEXT	ENDS
; Function compile flags: /Odtp /RTCu /ZI
; File c:\program files (x86)\microsoft visual studio\2017\enterprise\vc\tools\msvc\14.15.26726\include\xmemory
;	COMDAT ??$_Uninitialized_move_al_unchecked@PEAVBoid@1Application@@PEAV112@V?$allocator@PEAVBoid@1Application@@@std@@@std@@YAPEAPEAVBoid@1Application@@QEAPEAV112@00AEAV?$allocator@PEAVBoid@1Application@@@0@U_Really_trivial_ptr_iterator_tag@0@U?$integral_constant@_N$00@0@@Z
_TEXT	SEGMENT
_First$ = 80
_Last$ = 88
_Dest$ = 96
__formal$ = 104
__formal$ = 112
__formal$ = 120
??$_Uninitialized_move_al_unchecked@PEAVBoid@1Application@@PEAV112@V?$allocator@PEAVBoid@1Application@@@std@@@std@@YAPEAPEAVBoid@1Application@@QEAPEAV112@00AEAV?$allocator@PEAVBoid@1Application@@@0@U_Really_trivial_ptr_iterator_tag@0@U?$integral_constant@_N$00@0@@Z PROC ; std::_Uninitialized_move_al_unchecked<Application::Boid::Boid *,Application::Boid::Boid *,std::allocator<Application::Boid::Boid *> >, COMDAT

; 243  : 	{	// move [_First, _Last) to raw _Dest, using default _Alloc construct, memmove optimization

$LN3:
	mov	QWORD PTR [rsp+32], r9
	mov	QWORD PTR [rsp+24], r8
	mov	QWORD PTR [rsp+16], rdx
	mov	QWORD PTR [rsp+8], rcx
	push	rbp
	sub	rsp, 96					; 00000060H
	lea	rbp, QWORD PTR [rsp+32]
	lea	rcx, OFFSET FLAT:__AD6915D3_xmemory
	call	__CheckForDebuggerJustMyCode

; 244  : 	return (_Copy_memmove(_First, _Last, _Dest));

	mov	r8, QWORD PTR _Dest$[rbp]
	mov	rdx, QWORD PTR _Last$[rbp]
	mov	rcx, QWORD PTR _First$[rbp]
	call	??$_Copy_memmove@PEAPEAVBoid@1Application@@PEAPEAV112@@std@@YAPEAPEAVBoid@1Application@@PEAPEAV112@00@Z ; std::_Copy_memmove<Application::Boid::Boid * *,Application::Boid::Boid * *>

; 245  : 	}

	lea	rsp, QWORD PTR [rbp+64]
	pop	rbp
	ret	0
??$_Uninitialized_move_al_unchecked@PEAVBoid@1Application@@PEAV112@V?$allocator@PEAVBoid@1Application@@@std@@@std@@YAPEAPEAVBoid@1Application@@QEAPEAV112@00AEAV?$allocator@PEAVBoid@1Application@@@0@U_Really_trivial_ptr_iterator_tag@0@U?$integral_constant@_N$00@0@@Z ENDP ; std::_Uninitialized_move_al_unchecked<Application::Boid::Boid *,Application::Boid::Boid *,std::allocator<Application::Boid::Boid *> >
_TEXT	ENDS
; Function compile flags: /Odtp /RTCu /ZI
; File c:\program files (x86)\microsoft visual studio\2017\enterprise\vc\tools\msvc\14.15.26726\include\xutility
;	COMDAT ??$_Ptr_move_cat@PEAVBoid@1Application@@PEAV112@@std@@YA?AU_Really_trivial_ptr_iterator_tag@0@AEBQEAPEAVBoid@2Application@@0@Z
_TEXT	SEGMENT
__$ReturnUdt$ = 80
__formal$ = 88
__formal$ = 96
??$_Ptr_move_cat@PEAVBoid@1Application@@PEAV112@@std@@YA?AU_Really_trivial_ptr_iterator_tag@0@AEBQEAPEAVBoid@2Application@@0@Z PROC ; std::_Ptr_move_cat<Application::Boid::Boid *,Application::Boid::Boid *>, COMDAT

; 1086 : 	{	// return pointer move optimization category for pointers

$LN3:
	mov	QWORD PTR [rsp+24], r8
	mov	QWORD PTR [rsp+16], rdx
	mov	QWORD PTR [rsp+8], rcx
	push	rbp
	sub	rsp, 96					; 00000060H
	lea	rbp, QWORD PTR [rsp+32]
	lea	rcx, OFFSET FLAT:__E8FD1B86_xutility
	call	__CheckForDebuggerJustMyCode

; 1087 : 	return {};

	mov	rax, QWORD PTR __$ReturnUdt$[rbp]

; 1088 : 	}

	lea	rsp, QWORD PTR [rbp+64]
	pop	rbp
	ret	0
??$_Ptr_move_cat@PEAVBoid@1Application@@PEAV112@@std@@YA?AU_Really_trivial_ptr_iterator_tag@0@AEBQEAPEAVBoid@2Application@@0@Z ENDP ; std::_Ptr_move_cat<Application::Boid::Boid *,Application::Boid::Boid *>
_TEXT	ENDS
; Function compile flags: /Odtp /RTCu /ZI
; File c:\program files (x86)\microsoft visual studio\2017\enterprise\vc\tools\msvc\14.15.26726\include\xutility
;	COMDAT ??$_Get_unwrapped_n@PEAVBoid@1Application@@_J$0A@@std@@YAPEAPEAVBoid@1Application@@QEAPEAV112@_J@Z
_TEXT	SEGMENT
_Src$ = 80
__formal$ = 88
??$_Get_unwrapped_n@PEAVBoid@1Application@@_J$0A@@std@@YAPEAPEAVBoid@1Application@@QEAPEAV112@_J@Z PROC ; std::_Get_unwrapped_n<Application::Boid::Boid *,__int64,0>, COMDAT

; 808  : 	{

$LN3:
	mov	QWORD PTR [rsp+16], rdx
	mov	QWORD PTR [rsp+8], rcx
	push	rbp
	sub	rsp, 96					; 00000060H
	lea	rbp, QWORD PTR [rsp+32]
	lea	rcx, OFFSET FLAT:__E8FD1B86_xutility
	call	__CheckForDebuggerJustMyCode

; 809  : 	return (_Src);

	mov	rax, QWORD PTR _Src$[rbp]

; 810  : 	}

	lea	rsp, QWORD PTR [rbp+64]
	pop	rbp
	ret	0
??$_Get_unwrapped_n@PEAVBoid@1Application@@_J$0A@@std@@YAPEAPEAVBoid@1Application@@QEAPEAV112@_J@Z ENDP ; std::_Get_unwrapped_n<Application::Boid::Boid *,__int64,0>
_TEXT	ENDS
; Function compile flags: /Odtp /RTCu /ZI
; File c:\program files (x86)\microsoft visual studio\2017\enterprise\vc\tools\msvc\14.15.26726\include\xutility
;	COMDAT ??$_Idl_distance1@PEAPEAVBoid@1Application@@PEAPEAV112@@std@@YA_JAEBQEAPEAVBoid@1Application@@0Urandom_access_iterator_tag@0@@Z
_TEXT	SEGMENT
_First$ = 80
_Last$ = 88
__formal$ = 96
??$_Idl_distance1@PEAPEAVBoid@1Application@@PEAPEAV112@@std@@YA_JAEBQEAPEAVBoid@1Application@@0Urandom_access_iterator_tag@0@@Z PROC ; std::_Idl_distance1<Application::Boid::Boid * *,Application::Boid::Boid * *>, COMDAT

; 967  : 	{	// _Idl_distance for random-access iterators

$LN3:
	mov	BYTE PTR [rsp+24], r8b
	mov	QWORD PTR [rsp+16], rdx
	mov	QWORD PTR [rsp+8], rcx
	push	rbp
	sub	rsp, 96					; 00000060H
	lea	rbp, QWORD PTR [rsp+32]
	lea	rcx, OFFSET FLAT:__E8FD1B86_xutility
	call	__CheckForDebuggerJustMyCode

; 968  : 	return (static_cast<_Iter_diff_t<_Checked>>(_Last - _First));

	mov	rax, QWORD PTR _Last$[rbp]
	mov	rcx, QWORD PTR _First$[rbp]
	mov	rcx, QWORD PTR [rcx]
	mov	rax, QWORD PTR [rax]
	sub	rax, rcx
	sar	rax, 3

; 969  : 	}

	lea	rsp, QWORD PTR [rbp+64]
	pop	rbp
	ret	0
??$_Idl_distance1@PEAPEAVBoid@1Application@@PEAPEAV112@@std@@YA_JAEBQEAPEAVBoid@1Application@@0Urandom_access_iterator_tag@0@@Z ENDP ; std::_Idl_distance1<Application::Boid::Boid * *,Application::Boid::Boid * *>
_TEXT	ENDS
; Function compile flags: /Odtp /RTCu /ZI
; File c:\program files (x86)\microsoft visual studio\2017\enterprise\vc\tools\msvc\14.15.26726\include\xutility
;	COMDAT ??$_Idl_distance@PEAPEAVBoid@1Application@@PEAPEAV112@@std@@YA@AEBQEAPEAVBoid@1Application@@0@Z
_TEXT	SEGMENT
$T1 = 64
_First$ = 96
_Last$ = 104
??$_Idl_distance@PEAPEAVBoid@1Application@@PEAPEAV112@@std@@YA@AEBQEAPEAVBoid@1Application@@0@Z PROC ; std::_Idl_distance<Application::Boid::Boid * *,Application::Boid::Boid * *>, COMDAT

; 974  : 	{	// tries to get the distance between _First and _Last if they are random-access iterators

$LN3:
	mov	QWORD PTR [rsp+16], rdx
	mov	QWORD PTR [rsp+8], rcx
	push	rbp
	sub	rsp, 112				; 00000070H
	lea	rbp, QWORD PTR [rsp+32]
	lea	rcx, OFFSET FLAT:__E8FD1B86_xutility
	call	__CheckForDebuggerJustMyCode

; 975  : 	return (_Idl_distance1<_Checked>(_First, _Last, _Iter_cat_t<_Iter>()));

	movzx	r8d, BYTE PTR $T1[rbp]
	mov	rdx, QWORD PTR _Last$[rbp]
	mov	rcx, QWORD PTR _First$[rbp]
	call	??$_Idl_distance1@PEAPEAVBoid@1Application@@PEAPEAV112@@std@@YA_JAEBQEAPEAVBoid@1Application@@0Urandom_access_iterator_tag@0@@Z ; std::_Idl_distance1<Application::Boid::Boid * *,Application::Boid::Boid * *>

; 976  : 	}

	lea	rsp, QWORD PTR [rbp+80]
	pop	rbp
	ret	0
??$_Idl_distance@PEAPEAVBoid@1Application@@PEAPEAV112@@std@@YA@AEBQEAPEAVBoid@1Application@@0@Z ENDP ; std::_Idl_distance<Application::Boid::Boid * *,Application::Boid::Boid * *>
_TEXT	ENDS
; Function compile flags: /Odtp /RTCu /ZI
; File c:\program files (x86)\microsoft visual studio\2017\enterprise\vc\tools\msvc\14.15.26726\include\xutility
;	COMDAT ??$_Get_unwrapped@PEAVBoid@1Application@@@std@@YAPEAPEAVBoid@1Application@@QEAPEAV112@@Z
_TEXT	SEGMENT
_Ptr$ = 80
??$_Get_unwrapped@PEAVBoid@1Application@@@std@@YAPEAPEAVBoid@1Application@@QEAPEAV112@@Z PROC ; std::_Get_unwrapped<Application::Boid::Boid *>, COMDAT

; 662  : 	{	// special case already-unwrapped pointers

$LN3:
	mov	QWORD PTR [rsp+8], rcx
	push	rbp
	sub	rsp, 96					; 00000060H
	lea	rbp, QWORD PTR [rsp+32]
	lea	rcx, OFFSET FLAT:__E8FD1B86_xutility
	call	__CheckForDebuggerJustMyCode

; 663  : 	return (_Ptr);

	mov	rax, QWORD PTR _Ptr$[rbp]

; 664  : 	}

	lea	rsp, QWORD PTR [rbp+64]
	pop	rbp
	ret	0
??$_Get_unwrapped@PEAVBoid@1Application@@@std@@YAPEAPEAVBoid@1Application@@QEAPEAV112@@Z ENDP ; std::_Get_unwrapped<Application::Boid::Boid *>
_TEXT	ENDS
; Function compile flags: /Odtp /RTCu /ZI
; File l:\dev\featherfallengine\depends\install\include\glm\detail\func_geometric.inl
;	COMDAT ?call@?$compute_dot@Utvec2@glm@@M$0A@$0A@@detail@glm@@SAMAEBU?$tvec2@M$0A@@3@0@Z
_TEXT	SEGMENT
tmp$ = 0
__$ArrayPad$ = 72
x$ = 96
y$ = 104
?call@?$compute_dot@Utvec2@glm@@M$0A@$0A@@detail@glm@@SAMAEBU?$tvec2@M$0A@@3@0@Z PROC ; glm::detail::compute_dot<glm::tvec2,float,0,0>::call, COMDAT

; 47   : 		{

$LN3:
	mov	QWORD PTR [rsp+16], rdx
	mov	QWORD PTR [rsp+8], rcx
	push	rbp
	sub	rsp, 112				; 00000070H
	lea	rbp, QWORD PTR [rsp+32]
	mov	rax, QWORD PTR __security_cookie
	xor	rax, rbp
	mov	QWORD PTR __$ArrayPad$[rbp], rax
	lea	rcx, OFFSET FLAT:__01BEA0FA_func_geometric.inl
	call	__CheckForDebuggerJustMyCode

; 48   : 			tvec2<T, P> tmp(x * y);

	mov	r8, QWORD PTR y$[rbp]
	mov	rdx, QWORD PTR x$[rbp]
	lea	rcx, QWORD PTR tmp$[rbp]
	call	??$?DM$0A@@glm@@YA?AU?$tvec2@M$0A@@0@AEBU10@0@Z ; glm::operator*<float,0>

; 49   : 			return tmp.x + tmp.y;

	movss	xmm0, DWORD PTR tmp$[rbp]
	addss	xmm0, DWORD PTR tmp$[rbp+4]

; 50   : 		}

	mov	rcx, QWORD PTR __$ArrayPad$[rbp]
	xor	rcx, rbp
	call	__security_check_cookie
	lea	rsp, QWORD PTR [rbp+80]
	pop	rbp
	ret	0
?call@?$compute_dot@Utvec2@glm@@M$0A@$0A@@detail@glm@@SAMAEBU?$tvec2@M$0A@@3@0@Z ENDP ; glm::detail::compute_dot<glm::tvec2,float,0,0>::call
_TEXT	ENDS
; Function compile flags: /Odtp /RTCu /ZI
; File l:\dev\featherfallengine\depends\install\include\glm\detail\func_geometric.inl
;	COMDAT ?call@?$compute_dot@Utvec4@glm@@M$0A@$0A@@detail@glm@@SAMAEBU?$tvec4@M$0A@@3@0@Z
_TEXT	SEGMENT
tmp$ = 0
__$ArrayPad$ = 80
x$ = 112
y$ = 120
?call@?$compute_dot@Utvec4@glm@@M$0A@$0A@@detail@glm@@SAMAEBU?$tvec4@M$0A@@3@0@Z PROC ; glm::detail::compute_dot<glm::tvec4,float,0,0>::call, COMDAT

; 67   : 		{

$LN3:
	mov	QWORD PTR [rsp+16], rdx
	mov	QWORD PTR [rsp+8], rcx
	push	rbp
	sub	rsp, 128				; 00000080H
	lea	rbp, QWORD PTR [rsp+32]
	mov	rax, QWORD PTR __security_cookie
	xor	rax, rbp
	mov	QWORD PTR __$ArrayPad$[rbp], rax
	lea	rcx, OFFSET FLAT:__01BEA0FA_func_geometric.inl
	call	__CheckForDebuggerJustMyCode

; 68   : 			tvec4<T, P> tmp(x * y);

	mov	r8, QWORD PTR y$[rbp]
	mov	rdx, QWORD PTR x$[rbp]
	lea	rcx, QWORD PTR tmp$[rbp]
	call	??$?DM$0A@@glm@@YA?AU?$tvec4@M$0A@@0@AEBU10@0@Z ; glm::operator*<float,0>

; 69   : 			return (tmp.x + tmp.y) + (tmp.z + tmp.w);

	movss	xmm0, DWORD PTR tmp$[rbp]
	addss	xmm0, DWORD PTR tmp$[rbp+4]
	movss	xmm1, DWORD PTR tmp$[rbp+8]
	addss	xmm1, DWORD PTR tmp$[rbp+12]
	addss	xmm0, xmm1

; 70   : 		}

	mov	rcx, QWORD PTR __$ArrayPad$[rbp]
	xor	rcx, rbp
	call	__security_check_cookie
	lea	rsp, QWORD PTR [rbp+96]
	pop	rbp
	ret	0
?call@?$compute_dot@Utvec4@glm@@M$0A@$0A@@detail@glm@@SAMAEBU?$tvec4@M$0A@@3@0@Z ENDP ; glm::detail::compute_dot<glm::tvec4,float,0,0>::call
_TEXT	ENDS
; Function compile flags: /Odtp /RTCu /ZI
; File l:\dev\featherfallengine\depends\install\include\glm\detail\func_geometric.inl
;	COMDAT ?call@?$compute_dot@Utvec3@glm@@M$0A@$0A@@detail@glm@@SAMAEBU?$tvec3@M$0A@@3@0@Z
_TEXT	SEGMENT
tmp$ = 0
__$ArrayPad$ = 80
x$ = 112
y$ = 120
?call@?$compute_dot@Utvec3@glm@@M$0A@$0A@@detail@glm@@SAMAEBU?$tvec3@M$0A@@3@0@Z PROC ; glm::detail::compute_dot<glm::tvec3,float,0,0>::call, COMDAT

; 57   : 		{

$LN3:
	mov	QWORD PTR [rsp+16], rdx
	mov	QWORD PTR [rsp+8], rcx
	push	rbp
	sub	rsp, 128				; 00000080H
	lea	rbp, QWORD PTR [rsp+32]
	mov	rax, QWORD PTR __security_cookie
	xor	rax, rbp
	mov	QWORD PTR __$ArrayPad$[rbp], rax
	lea	rcx, OFFSET FLAT:__01BEA0FA_func_geometric.inl
	call	__CheckForDebuggerJustMyCode

; 58   : 			tvec3<T, P> tmp(x * y);

	mov	r8, QWORD PTR y$[rbp]
	mov	rdx, QWORD PTR x$[rbp]
	lea	rcx, QWORD PTR tmp$[rbp]
	call	??$?DM$0A@@glm@@YA?AU?$tvec3@M$0A@@0@AEBU10@0@Z ; glm::operator*<float,0>

; 59   : 			return tmp.x + tmp.y + tmp.z;

	movss	xmm0, DWORD PTR tmp$[rbp]
	addss	xmm0, DWORD PTR tmp$[rbp+4]
	addss	xmm0, DWORD PTR tmp$[rbp+8]

; 60   : 		}

	mov	rcx, QWORD PTR __$ArrayPad$[rbp]
	xor	rcx, rbp
	call	__security_check_cookie
	lea	rsp, QWORD PTR [rbp+96]
	pop	rbp
	ret	0
?call@?$compute_dot@Utvec3@glm@@M$0A@$0A@@detail@glm@@SAMAEBU?$tvec3@M$0A@@3@0@Z ENDP ; glm::detail::compute_dot<glm::tvec3,float,0,0>::call
_TEXT	ENDS
; Function compile flags: /Odtp /RTCu /ZI
; File l:\dev\featherfallengine\depends\install\include\glm\detail\type_vec4.inl
;	COMDAT ?call@?$compute_vec4_sub@M$0A@$0A@@detail@glm@@SA?AU?$tvec4@M$0A@@3@AEBU43@0@Z
_TEXT	SEGMENT
tv80 = 64
__$ReturnUdt$ = 96
a$ = 104
b$ = 112
?call@?$compute_vec4_sub@M$0A@$0A@@detail@glm@@SA?AU?$tvec4@M$0A@@3@AEBU43@0@Z PROC ; glm::detail::compute_vec4_sub<float,0,0>::call, COMDAT

; 50   : 		{

$LN3:
	mov	QWORD PTR [rsp+24], r8
	mov	QWORD PTR [rsp+16], rdx
	mov	QWORD PTR [rsp+8], rcx
	push	rbp
	sub	rsp, 128				; 00000080H
	lea	rbp, QWORD PTR [rsp+48]
	lea	rcx, OFFSET FLAT:__A0704DDA_type_vec4.inl
	call	__CheckForDebuggerJustMyCode

; 51   : 			return tvec4<T, P>(a.x - b.x, a.y - b.y, a.z - b.z, a.w - b.w);

	mov	rax, QWORD PTR a$[rbp]
	mov	rcx, QWORD PTR b$[rbp]
	movss	xmm0, DWORD PTR [rax+12]
	subss	xmm0, DWORD PTR [rcx+12]
	mov	rax, QWORD PTR a$[rbp]
	mov	rcx, QWORD PTR b$[rbp]
	movss	xmm1, DWORD PTR [rax+8]
	subss	xmm1, DWORD PTR [rcx+8]
	mov	rax, QWORD PTR a$[rbp]
	mov	rcx, QWORD PTR b$[rbp]
	movss	xmm2, DWORD PTR [rax+4]
	subss	xmm2, DWORD PTR [rcx+4]
	mov	rax, QWORD PTR a$[rbp]
	mov	rcx, QWORD PTR b$[rbp]
	movss	xmm3, DWORD PTR [rax]
	subss	xmm3, DWORD PTR [rcx]
	movss	DWORD PTR tv80[rbp], xmm3
	movss	DWORD PTR [rsp+32], xmm0
	movaps	xmm3, xmm1
	movss	xmm0, DWORD PTR tv80[rbp]
	movaps	xmm1, xmm0
	mov	rcx, QWORD PTR __$ReturnUdt$[rbp]
	call	??0?$tvec4@M$0A@@glm@@QEAA@MMMM@Z	; glm::tvec4<float,0>::tvec4<float,0>
	mov	rax, QWORD PTR __$ReturnUdt$[rbp]

; 52   : 		}

	lea	rsp, QWORD PTR [rbp+80]
	pop	rbp
	ret	0
?call@?$compute_vec4_sub@M$0A@$0A@@detail@glm@@SA?AU?$tvec4@M$0A@@3@AEBU43@0@Z ENDP ; glm::detail::compute_vec4_sub<float,0,0>::call
_TEXT	ENDS
; Function compile flags: /Odtp /RTCu /ZI
; File l:\dev\featherfallengine\depends\install\include\glm\detail\type_vec4.inl
;	COMDAT ?call@?$compute_vec4_mul@M$0A@$0A@@detail@glm@@SA?AU?$tvec4@M$0A@@3@AEBU43@0@Z
_TEXT	SEGMENT
tv80 = 64
__$ReturnUdt$ = 96
a$ = 104
b$ = 112
?call@?$compute_vec4_mul@M$0A@$0A@@detail@glm@@SA?AU?$tvec4@M$0A@@3@AEBU43@0@Z PROC ; glm::detail::compute_vec4_mul<float,0,0>::call, COMDAT

; 59   : 		{

$LN3:
	mov	QWORD PTR [rsp+24], r8
	mov	QWORD PTR [rsp+16], rdx
	mov	QWORD PTR [rsp+8], rcx
	push	rbp
	sub	rsp, 128				; 00000080H
	lea	rbp, QWORD PTR [rsp+48]
	lea	rcx, OFFSET FLAT:__A0704DDA_type_vec4.inl
	call	__CheckForDebuggerJustMyCode

; 60   : 			return tvec4<T, P>(a.x * b.x, a.y * b.y, a.z * b.z, a.w * b.w);

	mov	rax, QWORD PTR a$[rbp]
	mov	rcx, QWORD PTR b$[rbp]
	movss	xmm0, DWORD PTR [rax+12]
	mulss	xmm0, DWORD PTR [rcx+12]
	mov	rax, QWORD PTR a$[rbp]
	mov	rcx, QWORD PTR b$[rbp]
	movss	xmm1, DWORD PTR [rax+8]
	mulss	xmm1, DWORD PTR [rcx+8]
	mov	rax, QWORD PTR a$[rbp]
	mov	rcx, QWORD PTR b$[rbp]
	movss	xmm2, DWORD PTR [rax+4]
	mulss	xmm2, DWORD PTR [rcx+4]
	mov	rax, QWORD PTR a$[rbp]
	mov	rcx, QWORD PTR b$[rbp]
	movss	xmm3, DWORD PTR [rax]
	mulss	xmm3, DWORD PTR [rcx]
	movss	DWORD PTR tv80[rbp], xmm3
	movss	DWORD PTR [rsp+32], xmm0
	movaps	xmm3, xmm1
	movss	xmm0, DWORD PTR tv80[rbp]
	movaps	xmm1, xmm0
	mov	rcx, QWORD PTR __$ReturnUdt$[rbp]
	call	??0?$tvec4@M$0A@@glm@@QEAA@MMMM@Z	; glm::tvec4<float,0>::tvec4<float,0>
	mov	rax, QWORD PTR __$ReturnUdt$[rbp]

; 61   : 		}

	lea	rsp, QWORD PTR [rbp+80]
	pop	rbp
	ret	0
?call@?$compute_vec4_mul@M$0A@$0A@@detail@glm@@SA?AU?$tvec4@M$0A@@3@AEBU43@0@Z ENDP ; glm::detail::compute_vec4_mul<float,0,0>::call
_TEXT	ENDS
; Function compile flags: /Odtp /RTCu /ZI
; File c:\program files (x86)\microsoft visual studio\2017\enterprise\vc\tools\msvc\14.15.26726\include\xmemory0
;	COMDAT ??$_Get_size_of_n@$07@std@@YA_K_K@Z
_TEXT	SEGMENT
_Max_possible$ = 0
_Result$ = 8
_Count$ = 96
??$_Get_size_of_n@$07@std@@YA_K_K@Z PROC		; std::_Get_size_of_n<8>, COMDAT

; 23   : 	{	// gets the size of _Count copies of a type sized _Ty_size

$LN4:
	mov	QWORD PTR [rsp+8], rcx
	push	rbp
	sub	rsp, 112				; 00000070H
	lea	rbp, QWORD PTR [rsp+32]
	lea	rcx, OFFSET FLAT:__39AEDAD7_xmemory0
	call	__CheckForDebuggerJustMyCode

; 24   : 	constexpr size_t _Max_possible = static_cast<size_t>(-1) / _Ty_size;

	mov	rax, 2305843009213693951		; 1fffffffffffffffH
	mov	QWORD PTR _Max_possible$[rbp], rax

; 25   : 	size_t _Result = _Count * _Ty_size;

	mov	rax, QWORD PTR _Count$[rbp]
	shl	rax, 3
	mov	QWORD PTR _Result$[rbp], rax

; 26   : 	if (_Max_possible < _Count)

	mov	rax, 2305843009213693951		; 1fffffffffffffffH
	cmp	QWORD PTR _Count$[rbp], rax
	jbe	SHORT $LN2@Get_size_o

; 27   : 		{	// multiply overflow, try allocating all of memory and assume the
; 28   : 			// allocation function will throw bad_alloc
; 29   : 		_Result = static_cast<size_t>(-1);

	mov	QWORD PTR _Result$[rbp], -1
$LN2@Get_size_o:

; 30   : 		}
; 31   : 
; 32   : 	return (_Result);

	mov	rax, QWORD PTR _Result$[rbp]

; 33   : 	}

	lea	rsp, QWORD PTR [rbp+80]
	pop	rbp
	ret	0
??$_Get_size_of_n@$07@std@@YA_K_K@Z ENDP		; std::_Get_size_of_n<8>
_TEXT	ENDS
; Function compile flags: /Odtp /RTCu /ZI
; File c:\program files (x86)\microsoft visual studio\2017\enterprise\vc\tools\msvc\14.15.26726\include\xmemory
;	COMDAT ??$_Uninitialized_move@PEAPEAVBoid@1Application@@PEAPEAV112@V?$allocator@PEAVBoid@1Application@@@std@@@std@@YAPEAPEAVBoid@1Application@@QEAPEAV112@0PEAPEAV112@AEAV?$allocator@PEAVBoid@1Application@@@0@@Z
_TEXT	SEGMENT
_UFirst$ = 0
_ULast$ = 8
_UDest$ = 16
$T1 = 88
$T2 = 89
__$ArrayPad$ = 96
_First$ = 128
_Last$ = 136
_Dest$ = 144
_Al$ = 152
??$_Uninitialized_move@PEAPEAVBoid@1Application@@PEAPEAV112@V?$allocator@PEAVBoid@1Application@@@std@@@std@@YAPEAPEAVBoid@1Application@@QEAPEAV112@0PEAPEAV112@AEAV?$allocator@PEAVBoid@1Application@@@0@@Z PROC ; std::_Uninitialized_move<Application::Boid::Boid * *,Application::Boid::Boid * *,std::allocator<Application::Boid::Boid *> >, COMDAT

; 251  : 	{	// move [_First, _Last) to raw _Dest, using _Al

$LN3:
	mov	QWORD PTR [rsp+32], r9
	mov	QWORD PTR [rsp+24], r8
	mov	QWORD PTR [rsp+16], rdx
	mov	QWORD PTR [rsp+8], rcx
	push	rbp
	sub	rsp, 160				; 000000a0H
	lea	rbp, QWORD PTR [rsp+48]
	mov	rax, QWORD PTR __security_cookie
	xor	rax, rbp
	mov	QWORD PTR __$ArrayPad$[rbp], rax
	lea	rcx, OFFSET FLAT:__AD6915D3_xmemory
	call	__CheckForDebuggerJustMyCode

; 252  : 		// note: only called internally from elsewhere in the STL
; 253  : 	const auto _UFirst = _Get_unwrapped(_First);

	mov	rcx, QWORD PTR _First$[rbp]
	call	??$_Get_unwrapped@PEAVBoid@1Application@@@std@@YAPEAPEAVBoid@1Application@@QEAPEAV112@@Z ; std::_Get_unwrapped<Application::Boid::Boid *>
	mov	QWORD PTR _UFirst$[rbp], rax

; 254  : 	const auto _ULast = _Get_unwrapped(_Last);

	mov	rcx, QWORD PTR _Last$[rbp]
	call	??$_Get_unwrapped@PEAVBoid@1Application@@@std@@YAPEAPEAVBoid@1Application@@QEAPEAV112@@Z ; std::_Get_unwrapped<Application::Boid::Boid *>
	mov	QWORD PTR _ULast$[rbp], rax

; 255  : 	const auto _UDest = _Get_unwrapped_n(_Dest, _Idl_distance<_InIt>(_UFirst, _ULast));

	lea	rdx, QWORD PTR _ULast$[rbp]
	lea	rcx, QWORD PTR _UFirst$[rbp]
	call	??$_Idl_distance@PEAPEAVBoid@1Application@@PEAPEAV112@@std@@YA@AEBQEAPEAVBoid@1Application@@0@Z ; std::_Idl_distance<Application::Boid::Boid * *,Application::Boid::Boid * *>
	mov	rdx, rax
	mov	rcx, QWORD PTR _Dest$[rbp]
	call	??$_Get_unwrapped_n@PEAVBoid@1Application@@_J$0A@@std@@YAPEAPEAVBoid@1Application@@QEAPEAV112@_J@Z ; std::_Get_unwrapped_n<Application::Boid::Boid *,__int64,0>
	mov	QWORD PTR _UDest$[rbp], rax

; 256  : 	_Seek_wrapped(_Dest,

	lea	r8, QWORD PTR _UDest$[rbp]
	lea	rdx, QWORD PTR _UFirst$[rbp]
	lea	rcx, QWORD PTR $T2[rbp]
	call	??$_Ptr_move_cat@PEAVBoid@1Application@@PEAV112@@std@@YA?AU_Really_trivial_ptr_iterator_tag@0@AEBQEAPEAVBoid@2Application@@0@Z ; std::_Ptr_move_cat<Application::Boid::Boid *,Application::Boid::Boid *>
	movzx	ecx, BYTE PTR $T1[rbp]
	mov	BYTE PTR [rsp+40], cl
	movzx	eax, BYTE PTR [rax]
	mov	BYTE PTR [rsp+32], al
	mov	r9, QWORD PTR _Al$[rbp]
	mov	r8, QWORD PTR _UDest$[rbp]
	mov	rdx, QWORD PTR _ULast$[rbp]
	mov	rcx, QWORD PTR _UFirst$[rbp]
	call	??$_Uninitialized_move_al_unchecked@PEAVBoid@1Application@@PEAV112@V?$allocator@PEAVBoid@1Application@@@std@@@std@@YAPEAPEAVBoid@1Application@@QEAPEAV112@00AEAV?$allocator@PEAVBoid@1Application@@@0@U_Really_trivial_ptr_iterator_tag@0@U?$integral_constant@_N$00@0@@Z ; std::_Uninitialized_move_al_unchecked<Application::Boid::Boid *,Application::Boid::Boid *,std::allocator<Application::Boid::Boid *> >
	mov	rdx, rax
	lea	rcx, QWORD PTR _Dest$[rbp]
	call	??$_Seek_wrapped@PEAVBoid@1Application@@@std@@YAXAEAPEAPEAVBoid@1Application@@QEAPEAV112@@Z ; std::_Seek_wrapped<Application::Boid::Boid *>

; 257  : 		_Uninitialized_move_al_unchecked(_UFirst, _ULast, _UDest, _Al,
; 258  : 			_Ptr_move_cat(_UFirst, _UDest),
; 259  : 			_Uses_default_construct_t<_Alloc, decltype(_Unfancy(_UDest)), decltype(_STD move(*_UFirst))>()));
; 260  : 	return (_Dest);

	mov	rax, QWORD PTR _Dest$[rbp]

; 261  : 	}

	mov	rcx, QWORD PTR __$ArrayPad$[rbp]
	xor	rcx, rbp
	call	__security_check_cookie
	lea	rsp, QWORD PTR [rbp+112]
	pop	rbp
	ret	0
??$_Uninitialized_move@PEAPEAVBoid@1Application@@PEAPEAV112@V?$allocator@PEAVBoid@1Application@@@std@@@std@@YAPEAPEAVBoid@1Application@@QEAPEAV112@0PEAPEAV112@AEAV?$allocator@PEAVBoid@1Application@@@0@@Z ENDP ; std::_Uninitialized_move<Application::Boid::Boid * *,Application::Boid::Boid * *,std::allocator<Application::Boid::Boid *> >
_TEXT	ENDS
; Function compile flags: /Odtp /RTCu /ZI
; File l:\dev\featherfallengine\depends\install\include\glm\detail\func_geometric.inl
;	COMDAT ??$dot@M$0A@Utvec2@glm@@@glm@@YAMAEBU?$tvec2@M$0A@@0@0@Z
_TEXT	SEGMENT
x$ = 80
y$ = 88
??$dot@M$0A@Utvec2@glm@@@glm@@YAMAEBU?$tvec2@M$0A@@0@0@Z PROC ; glm::dot<float,0,glm::tvec2>, COMDAT

; 172  : 	{

$LN3:
	mov	QWORD PTR [rsp+16], rdx
	mov	QWORD PTR [rsp+8], rcx
	push	rbp
	sub	rsp, 96					; 00000060H
	lea	rbp, QWORD PTR [rsp+32]
	lea	rcx, OFFSET FLAT:__01BEA0FA_func_geometric.inl
	call	__CheckForDebuggerJustMyCode

; 173  : 		GLM_STATIC_ASSERT(std::numeric_limits<T>::is_iec559, "'dot' accepts only floating-point inputs");
; 174  : 		return detail::compute_dot<vecType, T, P, detail::is_aligned<P>::value>::call(x, y);

	mov	rdx, QWORD PTR y$[rbp]
	mov	rcx, QWORD PTR x$[rbp]
	call	?call@?$compute_dot@Utvec2@glm@@M$0A@$0A@@detail@glm@@SAMAEBU?$tvec2@M$0A@@3@0@Z ; glm::detail::compute_dot<glm::tvec2,float,0,0>::call

; 175  : 	}

	lea	rsp, QWORD PTR [rbp+64]
	pop	rbp
	ret	0
??$dot@M$0A@Utvec2@glm@@@glm@@YAMAEBU?$tvec2@M$0A@@0@0@Z ENDP ; glm::dot<float,0,glm::tvec2>
_TEXT	ENDS
; Function compile flags: /Odtp /RTCu /ZI
; File l:\dev\featherfallengine\depends\install\include\glm\detail\func_geometric.inl
;	COMDAT ??$dot@M$0A@Utvec4@glm@@@glm@@YAMAEBU?$tvec4@M$0A@@0@0@Z
_TEXT	SEGMENT
x$ = 80
y$ = 88
??$dot@M$0A@Utvec4@glm@@@glm@@YAMAEBU?$tvec4@M$0A@@0@0@Z PROC ; glm::dot<float,0,glm::tvec4>, COMDAT

; 172  : 	{

$LN3:
	mov	QWORD PTR [rsp+16], rdx
	mov	QWORD PTR [rsp+8], rcx
	push	rbp
	sub	rsp, 96					; 00000060H
	lea	rbp, QWORD PTR [rsp+32]
	lea	rcx, OFFSET FLAT:__01BEA0FA_func_geometric.inl
	call	__CheckForDebuggerJustMyCode

; 173  : 		GLM_STATIC_ASSERT(std::numeric_limits<T>::is_iec559, "'dot' accepts only floating-point inputs");
; 174  : 		return detail::compute_dot<vecType, T, P, detail::is_aligned<P>::value>::call(x, y);

	mov	rdx, QWORD PTR y$[rbp]
	mov	rcx, QWORD PTR x$[rbp]
	call	?call@?$compute_dot@Utvec4@glm@@M$0A@$0A@@detail@glm@@SAMAEBU?$tvec4@M$0A@@3@0@Z ; glm::detail::compute_dot<glm::tvec4,float,0,0>::call

; 175  : 	}

	lea	rsp, QWORD PTR [rbp+64]
	pop	rbp
	ret	0
??$dot@M$0A@Utvec4@glm@@@glm@@YAMAEBU?$tvec4@M$0A@@0@0@Z ENDP ; glm::dot<float,0,glm::tvec4>
_TEXT	ENDS
; Function compile flags: /Odtp /RTCu /ZI
; File l:\dev\featherfallengine\depends\install\include\glm\detail\func_geometric.inl
;	COMDAT ??$dot@M$0A@Utvec3@glm@@@glm@@YAMAEBU?$tvec3@M$0A@@0@0@Z
_TEXT	SEGMENT
x$ = 80
y$ = 88
??$dot@M$0A@Utvec3@glm@@@glm@@YAMAEBU?$tvec3@M$0A@@0@0@Z PROC ; glm::dot<float,0,glm::tvec3>, COMDAT

; 172  : 	{

$LN3:
	mov	QWORD PTR [rsp+16], rdx
	mov	QWORD PTR [rsp+8], rcx
	push	rbp
	sub	rsp, 96					; 00000060H
	lea	rbp, QWORD PTR [rsp+32]
	lea	rcx, OFFSET FLAT:__01BEA0FA_func_geometric.inl
	call	__CheckForDebuggerJustMyCode

; 173  : 		GLM_STATIC_ASSERT(std::numeric_limits<T>::is_iec559, "'dot' accepts only floating-point inputs");
; 174  : 		return detail::compute_dot<vecType, T, P, detail::is_aligned<P>::value>::call(x, y);

	mov	rdx, QWORD PTR y$[rbp]
	mov	rcx, QWORD PTR x$[rbp]
	call	?call@?$compute_dot@Utvec3@glm@@M$0A@$0A@@detail@glm@@SAMAEBU?$tvec3@M$0A@@3@0@Z ; glm::detail::compute_dot<glm::tvec3,float,0,0>::call

; 175  : 	}

	lea	rsp, QWORD PTR [rbp+64]
	pop	rbp
	ret	0
??$dot@M$0A@Utvec3@glm@@@glm@@YAMAEBU?$tvec3@M$0A@@0@0@Z ENDP ; glm::dot<float,0,glm::tvec3>
_TEXT	ENDS
; Function compile flags: /Odtp /RTCu /ZI
; File c:\program files (x86)\microsoft visual studio\2017\enterprise\vc\tools\msvc\14.15.26726\include\type_traits
;	COMDAT ??$forward@U_Container_proxy@std@@@std@@YA$$QEAU_Container_proxy@0@AEAU10@@Z
_TEXT	SEGMENT
$T1 = 64
_Arg$ = 96
??$forward@U_Container_proxy@std@@@std@@YA$$QEAU_Container_proxy@0@AEAU10@@Z PROC ; std::forward<std::_Container_proxy>, COMDAT

; 1573 : 	{	// forward an lvalue as either an lvalue or an rvalue

$LN3:
	mov	QWORD PTR [rsp+8], rcx
	push	rbp
	sub	rsp, 112				; 00000070H
	lea	rbp, QWORD PTR [rsp+32]
	mov	QWORD PTR $T1[rbp], -2
	lea	rcx, OFFSET FLAT:__6C905C6A_type_traits
	call	__CheckForDebuggerJustMyCode
	npad	1

; 1574 : 	return (static_cast<_Ty&&>(_Arg));

	mov	rax, QWORD PTR _Arg$[rbp]

; 1575 : 	}

	lea	rsp, QWORD PTR [rbp+80]
	pop	rbp
	ret	0
??$forward@U_Container_proxy@std@@@std@@YA$$QEAU_Container_proxy@0@AEAU10@@Z ENDP ; std::forward<std::_Container_proxy>
_TEXT	ENDS
; Function compile flags: /Odtp /RTCu /ZI
; File c:\program files (x86)\microsoft visual studio\2017\enterprise\vc\tools\msvc\14.15.26726\include\xmemory0
;	COMDAT ??$_Allocate_manually_vector_aligned@U_Default_allocate_traits@std@@@std@@YAPEAX_K@Z
_TEXT	SEGMENT
_Block_size$ = 0
_Ptr_container$ = 8
_Ptr$ = 16
_Bytes$ = 112
??$_Allocate_manually_vector_aligned@U_Default_allocate_traits@std@@@std@@YAPEAX_K@Z PROC ; std::_Allocate_manually_vector_aligned<std::_Default_allocate_traits>, COMDAT

; 92   : 	{	// allocate _Bytes manually aligned to at least _Big_allocation_alignment

$LN13:
	mov	QWORD PTR [rsp+8], rcx
	push	rbp
	sub	rsp, 144				; 00000090H
	lea	rbp, QWORD PTR [rsp+48]
	lea	rcx, OFFSET FLAT:__39AEDAD7_xmemory0
	call	__CheckForDebuggerJustMyCode

; 93   : 	size_t _Block_size = _Non_user_size + _Bytes;

	mov	rax, QWORD PTR _Bytes$[rbp]
	add	rax, 47					; 0000002fH
	mov	QWORD PTR _Block_size$[rbp], rax

; 94   : 	if (_Block_size <= _Bytes)

	mov	rax, QWORD PTR _Bytes$[rbp]
	cmp	QWORD PTR _Block_size$[rbp], rax
	ja	SHORT $LN8@Allocate_m

; 95   : 		{	// add overflow, try allocating all of memory and assume the
; 96   : 			// allocation function will throw bad_alloc
; 97   : 		_Block_size = static_cast<size_t>(-1);

	mov	QWORD PTR _Block_size$[rbp], -1
$LN8@Allocate_m:

; 98   : 		}
; 99   : 
; 100  : 	const uintptr_t _Ptr_container = reinterpret_cast<uintptr_t>(_Traits::_Allocate(_Block_size));

	mov	rcx, QWORD PTR _Block_size$[rbp]
	call	?_Allocate@_Default_allocate_traits@std@@SAPEAX_K@Z ; std::_Default_allocate_traits::_Allocate
	mov	QWORD PTR _Ptr_container$[rbp], rax
$LN4@Allocate_m:

; 101  : 	_STL_VERIFY(_Ptr_container != 0, "invalid argument");	// validate even in release since we're doing p[-1]

	cmp	QWORD PTR _Ptr_container$[rbp], 0
	je	SHORT $LN9@Allocate_m
	jmp	SHORT $LN10@Allocate_m
$LN9@Allocate_m:
$LN7@Allocate_m:
	lea	rax, OFFSET FLAT:??_C@_0BB@FCMFBGOM@invalid?5argument@
	mov	QWORD PTR [rsp+40], rax
	lea	rax, OFFSET FLAT:??_C@_02DKCKIIND@?$CFs@
	mov	QWORD PTR [rsp+32], rax
	xor	r9d, r9d
	mov	r8d, 101				; 00000065H
	lea	rdx, OFFSET FLAT:??_C@_0GK@FKLKIKPD@c?3?2program?5files?5?$CIx86?$CJ?2microsof@
	mov	ecx, 2
	call	QWORD PTR __imp__CrtDbgReport
	cmp	eax, 1
	jne	SHORT $LN12@Allocate_m
	int	3
	xor	eax, eax
$LN12@Allocate_m:
	mov	QWORD PTR [rsp+32], 0
	mov	r9d, 101				; 00000065H
	lea	r8, OFFSET FLAT:??_C@_1NE@MCNNPIKO@?$AAc?$AA?3?$AA?2?$AAp?$AAr?$AAo?$AAg?$AAr?$AAa?$AAm?$AA?5?$AAf?$AAi?$AAl?$AAe@
	lea	rdx, OFFSET FLAT:??_C@_1EO@GFNCMDLA@?$AAs?$AAt?$AAd?$AA?3?$AA?3?$AA_?$AAA?$AAl?$AAl?$AAo?$AAc?$AAa?$AAt?$AAe?$AA_@
	lea	rcx, OFFSET FLAT:??_C@_1CG@JNLFBNGN@?$AA?$CC?$AAi?$AAn?$AAv?$AAa?$AAl?$AAi?$AAd?$AA?5?$AAa?$AAr?$AAg?$AAu?$AAm?$AAe@
	call	QWORD PTR __imp__invalid_parameter
	xor	eax, eax
	test	eax, eax
	jne	SHORT $LN7@Allocate_m
$LN10@Allocate_m:
	xor	eax, eax
	test	eax, eax
	jne	SHORT $LN4@Allocate_m

; 102  : 	void * const _Ptr = reinterpret_cast<void *>((_Ptr_container + _Non_user_size)
; 103  : 		& ~(_Big_allocation_alignment - 1));

	mov	rax, QWORD PTR _Ptr_container$[rbp]
	add	rax, 47					; 0000002fH
	and	rax, -32				; ffffffffffffffe0H
	mov	QWORD PTR _Ptr$[rbp], rax

; 104  : 	static_cast<uintptr_t *>(_Ptr)[-1] = _Ptr_container;

	mov	eax, 8
	imul	rax, rax, -1
	mov	rcx, QWORD PTR _Ptr$[rbp]
	mov	rdx, QWORD PTR _Ptr_container$[rbp]
	mov	QWORD PTR [rcx+rax], rdx

; 105  : 
; 106  :   #ifdef _DEBUG
; 107  : 	static_cast<uintptr_t *>(_Ptr)[-2] = _Big_allocation_sentinel;

	mov	eax, 8
	imul	rax, rax, -2
	mov	rcx, QWORD PTR _Ptr$[rbp]
	mov	rdx, -361700864190383366		; fafafafafafafafaH
	mov	QWORD PTR [rcx+rax], rdx

; 108  :   #endif /* _DEBUG */
; 109  : 	return (_Ptr);

	mov	rax, QWORD PTR _Ptr$[rbp]

; 110  : 	}

	lea	rsp, QWORD PTR [rbp+96]
	pop	rbp
	ret	0
??$_Allocate_manually_vector_aligned@U_Default_allocate_traits@std@@@std@@YAPEAX_K@Z ENDP ; std::_Allocate_manually_vector_aligned<std::_Default_allocate_traits>
_TEXT	ENDS
; Function compile flags: /Odtp /RTCu /ZI
; File c:\program files (x86)\microsoft visual studio\2017\enterprise\vc\tools\msvc\14.15.26726\include\xmemory0
;	COMDAT ??$_Destroy_range1@V?$allocator@PEAVBoid@1Application@@@std@@@std@@YAXPEAPEAVBoid@1Application@@0AEAV?$allocator@PEAVBoid@1Application@@@0@U?$integral_constant@_N$00@0@@Z
_TEXT	SEGMENT
__formal$ = 80
__formal$ = 88
__formal$ = 96
__formal$ = 104
??$_Destroy_range1@V?$allocator@PEAVBoid@1Application@@@std@@@std@@YAXPEAPEAVBoid@1Application@@0AEAV?$allocator@PEAVBoid@1Application@@@0@U?$integral_constant@_N$00@0@@Z PROC ; std::_Destroy_range1<std::allocator<Application::Boid::Boid *> >, COMDAT

; 1145 : 	{	// destroy [_First, _Last), trivially destructible and default destroy

$LN3:
	mov	BYTE PTR [rsp+32], r9b
	mov	QWORD PTR [rsp+24], r8
	mov	QWORD PTR [rsp+16], rdx
	mov	QWORD PTR [rsp+8], rcx
	push	rbp
	sub	rsp, 96					; 00000060H
	lea	rbp, QWORD PTR [rsp+32]
	lea	rcx, OFFSET FLAT:__39AEDAD7_xmemory0
	call	__CheckForDebuggerJustMyCode

; 1146 : 		// nothing to do
; 1147 : 	}

	lea	rsp, QWORD PTR [rbp+64]
	pop	rbp
	ret	0
??$_Destroy_range1@V?$allocator@PEAVBoid@1Application@@@std@@@std@@YAXPEAPEAVBoid@1Application@@0AEAV?$allocator@PEAVBoid@1Application@@@0@U?$integral_constant@_N$00@0@@Z ENDP ; std::_Destroy_range1<std::allocator<Application::Boid::Boid *> >
_TEXT	ENDS
; Function compile flags: /Odtp /RTCu /ZI
; File l:\dev\featherfallengine\depends\install\include\glm\detail\type_vec4.inl
;	COMDAT ?call@?$compute_vec4_div@M$0A@$0A@@detail@glm@@SA?AU?$tvec4@M$0A@@3@AEBU43@0@Z
_TEXT	SEGMENT
tv80 = 64
__$ReturnUdt$ = 96
a$ = 104
b$ = 112
?call@?$compute_vec4_div@M$0A@$0A@@detail@glm@@SA?AU?$tvec4@M$0A@@3@AEBU43@0@Z PROC ; glm::detail::compute_vec4_div<float,0,0>::call, COMDAT

; 68   : 		{

$LN3:
	mov	QWORD PTR [rsp+24], r8
	mov	QWORD PTR [rsp+16], rdx
	mov	QWORD PTR [rsp+8], rcx
	push	rbp
	sub	rsp, 128				; 00000080H
	lea	rbp, QWORD PTR [rsp+48]
	lea	rcx, OFFSET FLAT:__A0704DDA_type_vec4.inl
	call	__CheckForDebuggerJustMyCode

; 69   : 			return tvec4<T, P>(a.x / b.x, a.y / b.y, a.z / b.z, a.w / b.w);

	mov	rax, QWORD PTR a$[rbp]
	mov	rcx, QWORD PTR b$[rbp]
	movss	xmm0, DWORD PTR [rax+12]
	divss	xmm0, DWORD PTR [rcx+12]
	mov	rax, QWORD PTR a$[rbp]
	mov	rcx, QWORD PTR b$[rbp]
	movss	xmm1, DWORD PTR [rax+8]
	divss	xmm1, DWORD PTR [rcx+8]
	mov	rax, QWORD PTR a$[rbp]
	mov	rcx, QWORD PTR b$[rbp]
	movss	xmm2, DWORD PTR [rax+4]
	divss	xmm2, DWORD PTR [rcx+4]
	mov	rax, QWORD PTR a$[rbp]
	mov	rcx, QWORD PTR b$[rbp]
	movss	xmm3, DWORD PTR [rax]
	divss	xmm3, DWORD PTR [rcx]
	movss	DWORD PTR tv80[rbp], xmm3
	movss	DWORD PTR [rsp+32], xmm0
	movaps	xmm3, xmm1
	movss	xmm0, DWORD PTR tv80[rbp]
	movaps	xmm1, xmm0
	mov	rcx, QWORD PTR __$ReturnUdt$[rbp]
	call	??0?$tvec4@M$0A@@glm@@QEAA@MMMM@Z	; glm::tvec4<float,0>::tvec4<float,0>
	mov	rax, QWORD PTR __$ReturnUdt$[rbp]

; 70   : 		}

	lea	rsp, QWORD PTR [rbp+80]
	pop	rbp
	ret	0
?call@?$compute_vec4_div@M$0A@$0A@@detail@glm@@SA?AU?$tvec4@M$0A@@3@AEBU43@0@Z ENDP ; glm::detail::compute_vec4_div<float,0,0>::call
_TEXT	ENDS
; Function compile flags: /Odtp /RTCu /ZI
; File l:\dev\featherfallengine\depends\install\include\glm\detail\type_vec4.inl
;	COMDAT ?call@?$compute_vec4_add@M$0A@$0A@@detail@glm@@SA?AU?$tvec4@M$0A@@3@AEBU43@0@Z
_TEXT	SEGMENT
tv80 = 64
__$ReturnUdt$ = 96
a$ = 104
b$ = 112
?call@?$compute_vec4_add@M$0A@$0A@@detail@glm@@SA?AU?$tvec4@M$0A@@3@AEBU43@0@Z PROC ; glm::detail::compute_vec4_add<float,0,0>::call, COMDAT

; 41   : 		{

$LN3:
	mov	QWORD PTR [rsp+24], r8
	mov	QWORD PTR [rsp+16], rdx
	mov	QWORD PTR [rsp+8], rcx
	push	rbp
	sub	rsp, 128				; 00000080H
	lea	rbp, QWORD PTR [rsp+48]
	lea	rcx, OFFSET FLAT:__A0704DDA_type_vec4.inl
	call	__CheckForDebuggerJustMyCode

; 42   : 			return tvec4<T, P>(a.x + b.x, a.y + b.y, a.z + b.z, a.w + b.w);

	mov	rax, QWORD PTR a$[rbp]
	mov	rcx, QWORD PTR b$[rbp]
	movss	xmm0, DWORD PTR [rax+12]
	addss	xmm0, DWORD PTR [rcx+12]
	mov	rax, QWORD PTR a$[rbp]
	mov	rcx, QWORD PTR b$[rbp]
	movss	xmm1, DWORD PTR [rax+8]
	addss	xmm1, DWORD PTR [rcx+8]
	mov	rax, QWORD PTR a$[rbp]
	mov	rcx, QWORD PTR b$[rbp]
	movss	xmm2, DWORD PTR [rax+4]
	addss	xmm2, DWORD PTR [rcx+4]
	mov	rax, QWORD PTR a$[rbp]
	mov	rcx, QWORD PTR b$[rbp]
	movss	xmm3, DWORD PTR [rax]
	addss	xmm3, DWORD PTR [rcx]
	movss	DWORD PTR tv80[rbp], xmm3
	movss	DWORD PTR [rsp+32], xmm0
	movaps	xmm3, xmm1
	movss	xmm0, DWORD PTR tv80[rbp]
	movaps	xmm1, xmm0
	mov	rcx, QWORD PTR __$ReturnUdt$[rbp]
	call	??0?$tvec4@M$0A@@glm@@QEAA@MMMM@Z	; glm::tvec4<float,0>::tvec4<float,0>
	mov	rax, QWORD PTR __$ReturnUdt$[rbp]

; 43   : 		}

	lea	rsp, QWORD PTR [rbp+80]
	pop	rbp
	ret	0
?call@?$compute_vec4_add@M$0A@$0A@@detail@glm@@SA?AU?$tvec4@M$0A@@3@AEBU43@0@Z ENDP ; glm::detail::compute_vec4_add<float,0,0>::call
_TEXT	ENDS
; Function compile flags: /Odtp /RTCu /ZI
; File l:\dev\featherfallengine\depends\install\include\glm\detail\func_geometric.inl
;	COMDAT ?call@?$compute_length@Utvec3@glm@@M$0A@$0A@@detail@glm@@SAMAEBU?$tvec3@M$0A@@3@@Z
_TEXT	SEGMENT
v$ = 80
?call@?$compute_length@Utvec3@glm@@M$0A@$0A@@detail@glm@@SAMAEBU?$tvec3@M$0A@@3@@Z PROC ; glm::detail::compute_length<glm::tvec3,float,0,0>::call, COMDAT

; 17   : 		{

$LN3:
	mov	QWORD PTR [rsp+8], rcx
	push	rbp
	sub	rsp, 96					; 00000060H
	lea	rbp, QWORD PTR [rsp+32]
	lea	rcx, OFFSET FLAT:__01BEA0FA_func_geometric.inl
	call	__CheckForDebuggerJustMyCode

; 18   : 			return sqrt(dot(v, v));

	mov	rdx, QWORD PTR v$[rbp]
	mov	rcx, QWORD PTR v$[rbp]
	call	??$dot@M$0A@Utvec3@glm@@@glm@@YAMAEBU?$tvec3@M$0A@@0@0@Z ; glm::dot<float,0,glm::tvec3>
	call	?sqrt@@YAMM@Z				; sqrt

; 19   : 		}

	lea	rsp, QWORD PTR [rbp+64]
	pop	rbp
	ret	0
?call@?$compute_length@Utvec3@glm@@M$0A@$0A@@detail@glm@@SAMAEBU?$tvec3@M$0A@@3@@Z ENDP ; glm::detail::compute_length<glm::tvec3,float,0,0>::call
_TEXT	ENDS
; Function compile flags: /Odtp /RTCu /ZI
; File l:\dev\featherfallengine\depends\install\include\glm\detail\func_geometric.inl
;	COMDAT ?call@?$compute_length@Utvec4@glm@@M$0A@$0A@@detail@glm@@SAMAEBU?$tvec4@M$0A@@3@@Z
_TEXT	SEGMENT
v$ = 80
?call@?$compute_length@Utvec4@glm@@M$0A@$0A@@detail@glm@@SAMAEBU?$tvec4@M$0A@@3@@Z PROC ; glm::detail::compute_length<glm::tvec4,float,0,0>::call, COMDAT

; 17   : 		{

$LN3:
	mov	QWORD PTR [rsp+8], rcx
	push	rbp
	sub	rsp, 96					; 00000060H
	lea	rbp, QWORD PTR [rsp+32]
	lea	rcx, OFFSET FLAT:__01BEA0FA_func_geometric.inl
	call	__CheckForDebuggerJustMyCode

; 18   : 			return sqrt(dot(v, v));

	mov	rdx, QWORD PTR v$[rbp]
	mov	rcx, QWORD PTR v$[rbp]
	call	??$dot@M$0A@Utvec4@glm@@@glm@@YAMAEBU?$tvec4@M$0A@@0@0@Z ; glm::dot<float,0,glm::tvec4>
	call	?sqrt@@YAMM@Z				; sqrt

; 19   : 		}

	lea	rsp, QWORD PTR [rbp+64]
	pop	rbp
	ret	0
?call@?$compute_length@Utvec4@glm@@M$0A@$0A@@detail@glm@@SAMAEBU?$tvec4@M$0A@@3@@Z ENDP ; glm::detail::compute_length<glm::tvec4,float,0,0>::call
_TEXT	ENDS
; Function compile flags: /Odtp /RTCu /ZI
; File l:\dev\featherfallengine\depends\install\include\glm\detail\type_vec4.inl
;	COMDAT ??$?ZM@?$tvec4@M$0A@@glm@@QEAAAEAU01@AEBU01@@Z
_TEXT	SEGMENT
$T1 = 64
$T2 = 80
this$ = 128
v$ = 136
??$?ZM@?$tvec4@M$0A@@glm@@QEAAAEAU01@AEBU01@@Z PROC	; glm::tvec4<float,0>::operator-=<float>, COMDAT

; 404  : 	{

$LN3:
	mov	QWORD PTR [rsp+16], rdx
	mov	QWORD PTR [rsp+8], rcx
	push	rbp
	push	rsi
	push	rdi
	sub	rsp, 128				; 00000080H
	lea	rbp, QWORD PTR [rsp+32]
	lea	rcx, OFFSET FLAT:__A0704DDA_type_vec4.inl
	call	__CheckForDebuggerJustMyCode

; 405  : 		return (*this = detail::compute_vec4_sub<T, P, detail::is_aligned<P>::value>::call(*this, tvec4<T, P>(v)));

	lea	rax, QWORD PTR $T1[rbp]
	mov	rdi, rax
	mov	rsi, QWORD PTR v$[rbp]
	mov	ecx, 16
	rep movsb
	lea	r8, QWORD PTR $T1[rbp]
	mov	rdx, QWORD PTR this$[rbp]
	lea	rcx, QWORD PTR $T2[rbp]
	call	?call@?$compute_vec4_sub@M$0A@$0A@@detail@glm@@SA?AU?$tvec4@M$0A@@3@AEBU43@0@Z ; glm::detail::compute_vec4_sub<float,0,0>::call
	mov	rdi, QWORD PTR this$[rbp]
	mov	rsi, rax
	mov	ecx, 16
	rep movsb
	mov	rax, QWORD PTR this$[rbp]

; 406  : 	}

	lea	rsp, QWORD PTR [rbp+96]
	pop	rdi
	pop	rsi
	pop	rbp
	ret	0
??$?ZM@?$tvec4@M$0A@@glm@@QEAAAEAU01@AEBU01@@Z ENDP	; glm::tvec4<float,0>::operator-=<float>
_TEXT	ENDS
; Function compile flags: /Odtp /RTCu /ZI
; File l:\dev\featherfallengine\depends\install\include\glm\detail\func_geometric.inl
;	COMDAT ?call@?$compute_length@Utvec2@glm@@M$0A@$0A@@detail@glm@@SAMAEBU?$tvec2@M$0A@@3@@Z
_TEXT	SEGMENT
v$ = 80
?call@?$compute_length@Utvec2@glm@@M$0A@$0A@@detail@glm@@SAMAEBU?$tvec2@M$0A@@3@@Z PROC ; glm::detail::compute_length<glm::tvec2,float,0,0>::call, COMDAT

; 17   : 		{

$LN3:
	mov	QWORD PTR [rsp+8], rcx
	push	rbp
	sub	rsp, 96					; 00000060H
	lea	rbp, QWORD PTR [rsp+32]
	lea	rcx, OFFSET FLAT:__01BEA0FA_func_geometric.inl
	call	__CheckForDebuggerJustMyCode

; 18   : 			return sqrt(dot(v, v));

	mov	rdx, QWORD PTR v$[rbp]
	mov	rcx, QWORD PTR v$[rbp]
	call	??$dot@M$0A@Utvec2@glm@@@glm@@YAMAEBU?$tvec2@M$0A@@0@0@Z ; glm::dot<float,0,glm::tvec2>
	call	?sqrt@@YAMM@Z				; sqrt

; 19   : 		}

	lea	rsp, QWORD PTR [rbp+64]
	pop	rbp
	ret	0
?call@?$compute_length@Utvec2@glm@@M$0A@$0A@@detail@glm@@SAMAEBU?$tvec2@M$0A@@3@@Z ENDP ; glm::detail::compute_length<glm::tvec2,float,0,0>::call
_TEXT	ENDS
; Function compile flags: /Odtp /RTCu /ZI
; File c:\program files (x86)\microsoft visual studio\2017\enterprise\vc\tools\msvc\14.15.26726\include\xmemory0
;	COMDAT ??$_Get_size_of_n@$0BA@@std@@YA_K_K@Z
_TEXT	SEGMENT
_Max_possible$ = 0
_Result$ = 8
_Count$ = 96
??$_Get_size_of_n@$0BA@@std@@YA_K_K@Z PROC		; std::_Get_size_of_n<16>, COMDAT

; 23   : 	{	// gets the size of _Count copies of a type sized _Ty_size

$LN4:
	mov	QWORD PTR [rsp+8], rcx
	push	rbp
	sub	rsp, 112				; 00000070H
	lea	rbp, QWORD PTR [rsp+32]
	lea	rcx, OFFSET FLAT:__39AEDAD7_xmemory0
	call	__CheckForDebuggerJustMyCode

; 24   : 	constexpr size_t _Max_possible = static_cast<size_t>(-1) / _Ty_size;

	mov	rax, 1152921504606846975		; 0fffffffffffffffH
	mov	QWORD PTR _Max_possible$[rbp], rax

; 25   : 	size_t _Result = _Count * _Ty_size;

	imul	rax, QWORD PTR _Count$[rbp], 16
	mov	QWORD PTR _Result$[rbp], rax

; 26   : 	if (_Max_possible < _Count)

	mov	rax, 1152921504606846975		; 0fffffffffffffffH
	cmp	QWORD PTR _Count$[rbp], rax
	jbe	SHORT $LN2@Get_size_o

; 27   : 		{	// multiply overflow, try allocating all of memory and assume the
; 28   : 			// allocation function will throw bad_alloc
; 29   : 		_Result = static_cast<size_t>(-1);

	mov	QWORD PTR _Result$[rbp], -1
$LN2@Get_size_o:

; 30   : 		}
; 31   : 
; 32   : 	return (_Result);

	mov	rax, QWORD PTR _Result$[rbp]

; 33   : 	}

	lea	rsp, QWORD PTR [rbp+80]
	pop	rbp
	ret	0
??$_Get_size_of_n@$0BA@@std@@YA_K_K@Z ENDP		; std::_Get_size_of_n<16>
_TEXT	ENDS
; Function compile flags: /Odtp /RTCu /ZI
; File c:\program files (x86)\microsoft visual studio\2017\enterprise\vc\tools\msvc\14.15.26726\include\xstddef
;	COMDAT ??$addressof@V?$_Vector_val@U?$_Simple_types@PEAVBoid@1Application@@@std@@@std@@@std@@YAPEAV?$_Vector_val@U?$_Simple_types@PEAVBoid@1Application@@@std@@@0@AEAV10@@Z
_TEXT	SEGMENT
$T1 = 64
_Val$ = 96
??$addressof@V?$_Vector_val@U?$_Simple_types@PEAVBoid@1Application@@@std@@@std@@@std@@YAPEAV?$_Vector_val@U?$_Simple_types@PEAVBoid@1Application@@@std@@@0@AEAV10@@Z PROC ; std::addressof<std::_Vector_val<std::_Simple_types<Application::Boid::Boid *> > >, COMDAT

; 329  : 	{	// return address of _Val

$LN3:
	mov	QWORD PTR [rsp+8], rcx
	push	rbp
	sub	rsp, 112				; 00000070H
	lea	rbp, QWORD PTR [rsp+32]
	mov	QWORD PTR $T1[rbp], -2
	lea	rcx, OFFSET FLAT:__30E3E102_xstddef
	call	__CheckForDebuggerJustMyCode
	npad	1

; 330  : 	return (__builtin_addressof(_Val));

	mov	rax, QWORD PTR _Val$[rbp]

; 331  : 	}

	lea	rsp, QWORD PTR [rbp+80]
	pop	rbp
	ret	0
??$addressof@V?$_Vector_val@U?$_Simple_types@PEAVBoid@1Application@@@std@@@std@@@std@@YAPEAV?$_Vector_val@U?$_Simple_types@PEAVBoid@1Application@@@std@@@0@AEAV10@@Z ENDP ; std::addressof<std::_Vector_val<std::_Simple_types<Application::Boid::Boid *> > >
_TEXT	ENDS
; Function compile flags: /Odtp /RTCu /ZI
; File c:\program files (x86)\microsoft visual studio\2017\enterprise\vc\tools\msvc\14.15.26726\include\xmemory0
;	COMDAT ??$construct@U_Container_proxy@std@@U12@@?$_Default_allocator_traits@V?$allocator@U_Container_proxy@std@@@std@@@std@@SAXAEAV?$allocator@U_Container_proxy@std@@@1@QEAU_Container_proxy@1@$$QEAU31@@Z
_TEXT	SEGMENT
$T1 = 64
__formal$ = 112
_Ptr$ = 120
<_Args_0>$ = 128
??$construct@U_Container_proxy@std@@U12@@?$_Default_allocator_traits@V?$allocator@U_Container_proxy@std@@@std@@@std@@SAXAEAV?$allocator@U_Container_proxy@std@@@1@QEAU_Container_proxy@1@$$QEAU31@@Z PROC ; std::_Default_allocator_traits<std::allocator<std::_Container_proxy> >::construct<std::_Container_proxy,std::_Container_proxy>, COMDAT

; 879  : 		{	// construct _Objty(_Types...) at _Ptr

$LN3:
	mov	QWORD PTR [rsp+24], r8
	mov	QWORD PTR [rsp+16], rdx
	mov	QWORD PTR [rsp+8], rcx
	push	rbp
	push	rsi
	push	rdi
	sub	rsp, 112				; 00000070H
	lea	rbp, QWORD PTR [rsp+32]
	lea	rcx, OFFSET FLAT:__39AEDAD7_xmemory0
	call	__CheckForDebuggerJustMyCode
	mov	rdx, QWORD PTR _Ptr$[rbp]
	mov	ecx, 16
	call	??2@YAPEAX_KPEAX@Z			; operator new
	mov	QWORD PTR $T1[rbp], rax
	mov	rcx, QWORD PTR <_Args_0>$[rbp]
	call	??$forward@U_Container_proxy@std@@@std@@YA$$QEAU_Container_proxy@0@AEAU10@@Z ; std::forward<std::_Container_proxy>
	mov	rdi, QWORD PTR $T1[rbp]
	mov	rsi, rax
	mov	ecx, 16
	rep movsb

; 880  : 		::new (const_cast<void *>(static_cast<const volatile void *>(_Ptr)))
; 881  : 			_Objty(_STD forward<_Types>(_Args)...);
; 882  : 		}

	lea	rsp, QWORD PTR [rbp+80]
	pop	rdi
	pop	rsi
	pop	rbp
	ret	0
??$construct@U_Container_proxy@std@@U12@@?$_Default_allocator_traits@V?$allocator@U_Container_proxy@std@@@std@@@std@@SAXAEAV?$allocator@U_Container_proxy@std@@@1@QEAU_Container_proxy@1@$$QEAU31@@Z ENDP ; std::_Default_allocator_traits<std::allocator<std::_Container_proxy> >::construct<std::_Container_proxy,std::_Container_proxy>
_TEXT	ENDS
; Function compile flags: /Odtp /RTCu /ZI
; File c:\program files (x86)\microsoft visual studio\2017\enterprise\vc\tools\msvc\14.15.26726\include\xstddef
;	COMDAT ??$_Unfancy@U_Container_proxy@std@@@std@@YAPEAU_Container_proxy@0@PEAU10@@Z
_TEXT	SEGMENT
_Ptr$ = 80
??$_Unfancy@U_Container_proxy@std@@@std@@YAPEAU_Container_proxy@0@PEAU10@@Z PROC ; std::_Unfancy<std::_Container_proxy>, COMDAT

; 345  : 	{	// do nothing for plain pointers

$LN3:
	mov	QWORD PTR [rsp+8], rcx
	push	rbp
	sub	rsp, 96					; 00000060H
	lea	rbp, QWORD PTR [rsp+32]
	lea	rcx, OFFSET FLAT:__30E3E102_xstddef
	call	__CheckForDebuggerJustMyCode

; 346  : 	return (_Ptr);

	mov	rax, QWORD PTR _Ptr$[rbp]

; 347  : 	}

	lea	rsp, QWORD PTR [rbp+64]
	pop	rbp
	ret	0
??$_Unfancy@U_Container_proxy@std@@@std@@YAPEAU_Container_proxy@0@PEAU10@@Z ENDP ; std::_Unfancy<std::_Container_proxy>
_TEXT	ENDS
; Function compile flags: /Odtp /RTCu /ZI
; File c:\program files (x86)\microsoft visual studio\2017\enterprise\vc\tools\msvc\14.15.26726\include\xmemory0
;	COMDAT ??$_Deallocate_plain@V?$allocator@U_Container_proxy@std@@@std@@$0A@@std@@YAXAEAV?$allocator@U_Container_proxy@std@@@0@QEAU_Container_proxy@0@@Z
_TEXT	SEGMENT
_Al$ = 80
_Ptr$ = 88
??$_Deallocate_plain@V?$allocator@U_Container_proxy@std@@@std@@$0A@@std@@YAXAEAV?$allocator@U_Container_proxy@std@@@0@QEAU_Container_proxy@0@@Z PROC ; std::_Deallocate_plain<std::allocator<std::_Container_proxy>,0>, COMDAT

; 1212 : 	{	// deallocate a plain pointer using an allocator, non-fancy pointers special case

$LN3:
	mov	QWORD PTR [rsp+16], rdx
	mov	QWORD PTR [rsp+8], rcx
	push	rbp
	sub	rsp, 96					; 00000060H
	lea	rbp, QWORD PTR [rsp+32]
	lea	rcx, OFFSET FLAT:__39AEDAD7_xmemory0
	call	__CheckForDebuggerJustMyCode

; 1213 : 	allocator_traits<_Alloc>::deallocate(_Al, _Ptr, 1);

	mov	r8d, 1
	mov	rdx, QWORD PTR _Ptr$[rbp]
	mov	rcx, QWORD PTR _Al$[rbp]
	call	?deallocate@?$_Default_allocator_traits@V?$allocator@U_Container_proxy@std@@@std@@@std@@SAXAEAV?$allocator@U_Container_proxy@std@@@2@QEAU_Container_proxy@2@_K@Z ; std::_Default_allocator_traits<std::allocator<std::_Container_proxy> >::deallocate

; 1214 : 	}

	lea	rsp, QWORD PTR [rbp+64]
	pop	rbp
	ret	0
??$_Deallocate_plain@V?$allocator@U_Container_proxy@std@@@std@@$0A@@std@@YAXAEAV?$allocator@U_Container_proxy@std@@@0@QEAU_Container_proxy@0@@Z ENDP ; std::_Deallocate_plain<std::allocator<std::_Container_proxy>,0>
_TEXT	ENDS
; Function compile flags: /Odtp /RTCu /ZI
; File c:\program files (x86)\microsoft visual studio\2017\enterprise\vc\tools\msvc\14.15.26726\include\xmemory0
;	COMDAT ??$destroy@U_Container_proxy@std@@@?$_Default_allocator_traits@V?$allocator@U_Container_proxy@std@@@std@@@std@@SAXAEAV?$allocator@U_Container_proxy@std@@@1@QEAU_Container_proxy@1@@Z
_TEXT	SEGMENT
__formal$ = 80
_Ptr$ = 88
??$destroy@U_Container_proxy@std@@@?$_Default_allocator_traits@V?$allocator@U_Container_proxy@std@@@std@@@std@@SAXAEAV?$allocator@U_Container_proxy@std@@@1@QEAU_Container_proxy@1@@Z PROC ; std::_Default_allocator_traits<std::allocator<std::_Container_proxy> >::destroy<std::_Container_proxy>, COMDAT

; 886  : 		{	// destroy object at _Ptr

$LN3:
	mov	QWORD PTR [rsp+16], rdx
	mov	QWORD PTR [rsp+8], rcx
	push	rbp
	sub	rsp, 96					; 00000060H
	lea	rbp, QWORD PTR [rsp+32]
	lea	rcx, OFFSET FLAT:__39AEDAD7_xmemory0
	call	__CheckForDebuggerJustMyCode

; 887  : 		_Ptr->~_Uty();
; 888  : 		}

	lea	rsp, QWORD PTR [rbp+64]
	pop	rbp
	ret	0
??$destroy@U_Container_proxy@std@@@?$_Default_allocator_traits@V?$allocator@U_Container_proxy@std@@@std@@@std@@SAXAEAV?$allocator@U_Container_proxy@std@@@1@QEAU_Container_proxy@1@@Z ENDP ; std::_Default_allocator_traits<std::allocator<std::_Container_proxy> >::destroy<std::_Container_proxy>
_TEXT	ENDS
; Function compile flags: /Odtp /RTCu /ZI
; File c:\program files (x86)\microsoft visual studio\2017\enterprise\vc\tools\msvc\14.15.26726\include\xmemory0
;	COMDAT ?deallocate@?$_Default_allocator_traits@V?$allocator@U_Container_proxy@std@@@std@@@std@@SAXAEAV?$allocator@U_Container_proxy@std@@@2@QEAU_Container_proxy@2@_K@Z
_TEXT	SEGMENT
__formal$ = 80
_Ptr$ = 88
_Count$ = 96
?deallocate@?$_Default_allocator_traits@V?$allocator@U_Container_proxy@std@@@std@@@std@@SAXAEAV?$allocator@U_Container_proxy@std@@@2@QEAU_Container_proxy@2@_K@Z PROC ; std::_Default_allocator_traits<std::allocator<std::_Container_proxy> >::deallocate, COMDAT

; 871  : 		{	// deallocate _Count elements at _Ptr

$LN3:
	mov	QWORD PTR [rsp+24], r8
	mov	QWORD PTR [rsp+16], rdx
	mov	QWORD PTR [rsp+8], rcx
	push	rbp
	sub	rsp, 96					; 00000060H
	lea	rbp, QWORD PTR [rsp+32]
	lea	rcx, OFFSET FLAT:__39AEDAD7_xmemory0
	call	__CheckForDebuggerJustMyCode

; 872  : 		// no overflow check on the following multiply; we assume _Allocate did that check
; 873  : 		_Deallocate<_New_alignof<value_type>>(_Ptr, sizeof(value_type) * _Count);

	imul	rax, QWORD PTR _Count$[rbp], 16
	mov	rdx, rax
	mov	rcx, QWORD PTR _Ptr$[rbp]
	call	??$_Deallocate@$0BA@$0A@@std@@YAXPEAX_K@Z ; std::_Deallocate<16,0>

; 874  : 		}

	lea	rsp, QWORD PTR [rbp+64]
	pop	rbp
	ret	0
?deallocate@?$_Default_allocator_traits@V?$allocator@U_Container_proxy@std@@@std@@@std@@SAXAEAV?$allocator@U_Container_proxy@std@@@2@QEAU_Container_proxy@2@_K@Z ENDP ; std::_Default_allocator_traits<std::allocator<std::_Container_proxy> >::deallocate
_TEXT	ENDS
; Function compile flags: /Odtp /RTCu /ZI
; File c:\program files (x86)\microsoft visual studio\2017\enterprise\vc\tools\msvc\14.15.26726\include\xmemory0
;	COMDAT ??$?0PEAVBoid@0Application@@@?$allocator@U_Container_proxy@std@@@std@@QEAA@AEBV?$allocator@PEAVBoid@1Application@@@1@@Z
_TEXT	SEGMENT
$T1 = 64
this$ = 96
__formal$ = 104
??$?0PEAVBoid@0Application@@@?$allocator@U_Container_proxy@std@@@std@@QEAA@AEBV?$allocator@PEAVBoid@1Application@@@1@@Z PROC ; std::allocator<std::_Container_proxy>::allocator<std::_Container_proxy><Application::Boid::Boid *>, COMDAT

; 986  : 		{	// construct from a related allocator (do nothing)

$LN3:
	mov	QWORD PTR [rsp+16], rdx
	mov	QWORD PTR [rsp+8], rcx
	push	rbp
	sub	rsp, 112				; 00000070H
	lea	rbp, QWORD PTR [rsp+32]
	mov	QWORD PTR $T1[rbp], -2
	lea	rcx, OFFSET FLAT:__39AEDAD7_xmemory0
	call	__CheckForDebuggerJustMyCode
	npad	1

; 987  : 		}

	mov	rax, QWORD PTR this$[rbp]
	lea	rsp, QWORD PTR [rbp+80]
	pop	rbp
	ret	0
??$?0PEAVBoid@0Application@@@?$allocator@U_Container_proxy@std@@@std@@QEAA@AEBV?$allocator@PEAVBoid@1Application@@@1@@Z ENDP ; std::allocator<std::_Container_proxy>::allocator<std::_Container_proxy><Application::Boid::Boid *>
_TEXT	ENDS
; Function compile flags: /Odtp /RTCu /ZI
; File c:\program files (x86)\microsoft visual studio\2017\enterprise\vc\tools\msvc\14.15.26726\include\xmemory0
;	COMDAT ?allocate@?$allocator@U_Container_proxy@std@@@std@@QEAAPEAU_Container_proxy@2@_K@Z
_TEXT	SEGMENT
this$ = 80
_Count$ = 88
?allocate@?$allocator@U_Container_proxy@std@@@std@@QEAAPEAU_Container_proxy@2@_K@Z PROC ; std::allocator<std::_Container_proxy>::allocate, COMDAT

; 996  : 		{	// allocate array of _Count elements

$LN3:
	mov	QWORD PTR [rsp+16], rdx
	mov	QWORD PTR [rsp+8], rcx
	push	rbp
	sub	rsp, 96					; 00000060H
	lea	rbp, QWORD PTR [rsp+32]
	lea	rcx, OFFSET FLAT:__39AEDAD7_xmemory0
	call	__CheckForDebuggerJustMyCode

; 997  : 		return (static_cast<_Ty *>(_Allocate<_New_alignof<_Ty>>(_Get_size_of_n<sizeof(_Ty)>(_Count))));

	mov	rcx, QWORD PTR _Count$[rbp]
	call	??$_Get_size_of_n@$0BA@@std@@YA_K_K@Z	; std::_Get_size_of_n<16>
	mov	rcx, rax
	call	??$_Allocate@$0BA@U_Default_allocate_traits@std@@$0A@@std@@YAPEAX_K@Z ; std::_Allocate<16,std::_Default_allocate_traits,0>

; 998  : 		}

	lea	rsp, QWORD PTR [rbp+64]
	pop	rbp
	ret	0
?allocate@?$allocator@U_Container_proxy@std@@@std@@QEAAPEAU_Container_proxy@2@_K@Z ENDP ; std::allocator<std::_Container_proxy>::allocate
_TEXT	ENDS
; Function compile flags: /Odtp /RTCu /ZI
; File c:\program files (x86)\microsoft visual studio\2017\enterprise\vc\tools\msvc\14.15.26726\include\xmemory0
;	COMDAT ??$_Deallocate@$0BA@$0A@@std@@YAXPEAX_K@Z
_TEXT	SEGMENT
_Ptr$ = 80
_Bytes$ = 88
??$_Deallocate@$0BA@$0A@@std@@YAXPEAX_K@Z PROC		; std::_Deallocate<16,0>, COMDAT

; 199  : 	{	// deallocate storage allocated by _Allocate when !_HAS_ALIGNED_NEW || _Align <= __STDCPP_DEFAULT_NEW_ALIGNMENT__

$LN4:
	mov	QWORD PTR [rsp+16], rdx
	mov	QWORD PTR [rsp+8], rcx
	push	rbp
	sub	rsp, 96					; 00000060H
	lea	rbp, QWORD PTR [rsp+32]
	lea	rcx, OFFSET FLAT:__39AEDAD7_xmemory0
	call	__CheckForDebuggerJustMyCode

; 200  :  #if defined(_M_IX86) || defined(_M_X64)
; 201  : 	if (_Bytes >= _Big_allocation_threshold)

	cmp	QWORD PTR _Bytes$[rbp], 4096		; 00001000H
	jb	SHORT $LN2@Deallocate

; 202  : 		{	// boost the alignment of big allocations to help autovectorization
; 203  : 		_Adjust_manually_vector_aligned(_Ptr, _Bytes);

	lea	rdx, QWORD PTR _Bytes$[rbp]
	lea	rcx, QWORD PTR _Ptr$[rbp]
	call	?_Adjust_manually_vector_aligned@std@@YAXAEAPEAXAEA_K@Z ; std::_Adjust_manually_vector_aligned
$LN2@Deallocate:

; 204  : 		}
; 205  :  #endif /* defined(_M_IX86) || defined(_M_X64) */
; 206  : 
; 207  : 	::operator delete(_Ptr, _Bytes);

	mov	rdx, QWORD PTR _Bytes$[rbp]
	mov	rcx, QWORD PTR _Ptr$[rbp]
	call	??3@YAXPEAX_K@Z				; operator delete

; 208  : 	}

	lea	rsp, QWORD PTR [rbp+64]
	pop	rbp
	ret	0
??$_Deallocate@$0BA@$0A@@std@@YAXPEAX_K@Z ENDP		; std::_Deallocate<16,0>
_TEXT	ENDS
; Function compile flags: /Odtp /RTCu /ZI
; File c:\program files (x86)\microsoft visual studio\2017\enterprise\vc\tools\msvc\14.15.26726\include\xmemory0
;	COMDAT ??$_Allocate@$0BA@U_Default_allocate_traits@std@@$0A@@std@@YAPEAX_K@Z
_TEXT	SEGMENT
_Bytes$ = 80
??$_Allocate@$0BA@U_Default_allocate_traits@std@@$0A@@std@@YAPEAX_K@Z PROC ; std::_Allocate<16,std::_Default_allocate_traits,0>, COMDAT

; 180  : 	{	// allocate _Bytes when !_HAS_ALIGNED_NEW || _Align <= __STDCPP_DEFAULT_NEW_ALIGNMENT__

$LN5:
	mov	QWORD PTR [rsp+8], rcx
	push	rbp
	sub	rsp, 96					; 00000060H
	lea	rbp, QWORD PTR [rsp+32]
	lea	rcx, OFFSET FLAT:__39AEDAD7_xmemory0
	call	__CheckForDebuggerJustMyCode

; 181  :  #if defined(_M_IX86) || defined(_M_X64)
; 182  : 	if (_Bytes >= _Big_allocation_threshold)

	cmp	QWORD PTR _Bytes$[rbp], 4096		; 00001000H
	jb	SHORT $LN2@Allocate

; 183  : 		{	// boost the alignment of big allocations to help autovectorization
; 184  : 		return (_Allocate_manually_vector_aligned<_Traits>(_Bytes));

	mov	rcx, QWORD PTR _Bytes$[rbp]
	call	??$_Allocate_manually_vector_aligned@U_Default_allocate_traits@std@@@std@@YAPEAX_K@Z ; std::_Allocate_manually_vector_aligned<std::_Default_allocate_traits>
	jmp	SHORT $LN1@Allocate
$LN2@Allocate:

; 185  : 		}
; 186  :  #endif /* defined(_M_IX86) || defined(_M_X64) */
; 187  : 
; 188  : 	if (_Bytes != 0)

	cmp	QWORD PTR _Bytes$[rbp], 0
	je	SHORT $LN3@Allocate

; 189  : 		{
; 190  : 		return (_Traits::_Allocate(_Bytes));

	mov	rcx, QWORD PTR _Bytes$[rbp]
	call	?_Allocate@_Default_allocate_traits@std@@SAPEAX_K@Z ; std::_Default_allocate_traits::_Allocate
	jmp	SHORT $LN1@Allocate
$LN3@Allocate:

; 191  : 		}
; 192  : 
; 193  : 	return (nullptr);

	xor	eax, eax
$LN1@Allocate:

; 194  : 	}

	lea	rsp, QWORD PTR [rbp+64]
	pop	rbp
	ret	0
??$_Allocate@$0BA@U_Default_allocate_traits@std@@$0A@@std@@YAPEAX_K@Z ENDP ; std::_Allocate<16,std::_Default_allocate_traits,0>
_TEXT	ENDS
; Function compile flags: /Odtp /RTCu /ZI
; File c:\program files (x86)\microsoft visual studio\2017\enterprise\vc\tools\msvc\14.15.26726\include\xmemory0
;	COMDAT ??$_Destroy_range@V?$allocator@PEAVBoid@1Application@@@std@@@std@@YAXPEAPEAVBoid@1Application@@0AEAV?$allocator@PEAVBoid@1Application@@@0@@Z
_TEXT	SEGMENT
$T1 = 64
_First$ = 112
_Last$ = 120
_Al$ = 128
??$_Destroy_range@V?$allocator@PEAVBoid@1Application@@@std@@@std@@YAXPEAPEAVBoid@1Application@@0AEAV?$allocator@PEAVBoid@1Application@@@0@@Z PROC ; std::_Destroy_range<std::allocator<Application::Boid::Boid *> >, COMDAT

; 1154 : 	{	// destroy [_First, _Last), choose optimization

$LN3:
	mov	QWORD PTR [rsp+24], r8
	mov	QWORD PTR [rsp+16], rdx
	mov	QWORD PTR [rsp+8], rcx
	push	rbp
	push	rdi
	sub	rsp, 120				; 00000078H
	lea	rbp, QWORD PTR [rsp+32]
	lea	rcx, OFFSET FLAT:__39AEDAD7_xmemory0
	call	__CheckForDebuggerJustMyCode

; 1155 : 		// note that this is an optimization for debug mode codegen;
; 1156 : 		// in release mode the BE removes all of this
; 1157 : 	using _Val = typename _Alloc::value_type;
; 1158 : 	_Destroy_range1(_First, _Last, _Al, bool_constant<conjunction_v<

	lea	rax, QWORD PTR $T1[rbp]
	mov	rdi, rax
	xor	eax, eax
	mov	ecx, 1
	rep stosb
	movzx	r9d, BYTE PTR $T1[rbp]
	mov	r8, QWORD PTR _Al$[rbp]
	mov	rdx, QWORD PTR _Last$[rbp]
	mov	rcx, QWORD PTR _First$[rbp]
	call	??$_Destroy_range1@V?$allocator@PEAVBoid@1Application@@@std@@@std@@YAXPEAPEAVBoid@1Application@@0AEAV?$allocator@PEAVBoid@1Application@@@0@U?$integral_constant@_N$00@0@@Z ; std::_Destroy_range1<std::allocator<Application::Boid::Boid *> >

; 1159 : 		is_trivially_destructible<_Val>,
; 1160 : 		_Uses_default_destroy<_Alloc, _Val *>>>{});
; 1161 : 	}

	lea	rsp, QWORD PTR [rbp+88]
	pop	rdi
	pop	rbp
	ret	0
??$_Destroy_range@V?$allocator@PEAVBoid@1Application@@@std@@@std@@YAXPEAPEAVBoid@1Application@@0AEAV?$allocator@PEAVBoid@1Application@@@0@@Z ENDP ; std::_Destroy_range<std::allocator<Application::Boid::Boid *> >
_TEXT	ENDS
; Function compile flags: /Odtp /RTCu /ZI
; File c:\program files (x86)\microsoft visual studio\2017\enterprise\vc\tools\msvc\14.15.26726\include\xutility
;	COMDAT ??$?0$$V@?$_Compressed_pair@V?$allocator@PEAVBoid@1Application@@@std@@V?$_Vector_val@U?$_Simple_types@PEAVBoid@1Application@@@std@@@2@$00@std@@QEAA@U_Zero_then_variadic_args_t@1@@Z
_TEXT	SEGMENT
this$ = 80
__formal$ = 88
??$?0$$V@?$_Compressed_pair@V?$allocator@PEAVBoid@1Application@@@std@@V?$_Vector_val@U?$_Simple_types@PEAVBoid@1Application@@@std@@@2@$00@std@@QEAA@U_Zero_then_variadic_args_t@1@@Z PROC ; std::_Compressed_pair<std::allocator<Application::Boid::Boid *>,std::_Vector_val<std::_Simple_types<Application::Boid::Boid *> >,1>::_Compressed_pair<std::allocator<Application::Boid::Boid *>,std::_Vector_val<std::_Simple_types<Application::Boid::Boid *> >,1><>, COMDAT

; 277  : 		: _Ty1(), _Myval2(_STD forward<_Other2>(_Val2)...)

$LN3:
	mov	BYTE PTR [rsp+16], dl
	mov	QWORD PTR [rsp+8], rcx
	push	rbp
	sub	rsp, 96					; 00000060H
	lea	rbp, QWORD PTR [rsp+32]
	lea	rcx, OFFSET FLAT:__E8FD1B86_xutility
	call	__CheckForDebuggerJustMyCode
	mov	rcx, QWORD PTR this$[rbp]
	call	??0?$allocator@PEAVBoid@1Application@@@std@@QEAA@XZ ; std::allocator<Application::Boid::Boid *>::allocator<Application::Boid::Boid *>
	mov	rax, QWORD PTR this$[rbp]
	mov	rcx, rax
	call	??0?$_Vector_val@U?$_Simple_types@PEAVBoid@1Application@@@std@@@std@@QEAA@XZ ; std::_Vector_val<std::_Simple_types<Application::Boid::Boid *> >::_Vector_val<std::_Simple_types<Application::Boid::Boid *> >

; 278  : 		{	// construct from forwarded values
; 279  : 		}

	mov	rax, QWORD PTR this$[rbp]
	lea	rsp, QWORD PTR [rbp+64]
	pop	rbp
	ret	0
??$?0$$V@?$_Compressed_pair@V?$allocator@PEAVBoid@1Application@@@std@@V?$_Vector_val@U?$_Simple_types@PEAVBoid@1Application@@@std@@@2@$00@std@@QEAA@U_Zero_then_variadic_args_t@1@@Z ENDP ; std::_Compressed_pair<std::allocator<Application::Boid::Boid *>,std::_Vector_val<std::_Simple_types<Application::Boid::Boid *> >,1>::_Compressed_pair<std::allocator<Application::Boid::Boid *>,std::_Vector_val<std::_Simple_types<Application::Boid::Boid *> >,1><>
_TEXT	ENDS
; Function compile flags: /Odtp /RTCu /ZI
; File c:\program files (x86)\microsoft visual studio\2017\enterprise\vc\tools\msvc\14.15.26726\include\vector
;	COMDAT ??$_Emplace_reallocate@AEBQEAVBoid@1Application@@@?$vector@PEAVBoid@1Application@@V?$allocator@PEAVBoid@1Application@@@std@@@std@@QEAAPEAPEAVBoid@2Application@@QEAPEAV223@AEBQEAV223@@Z
_TEXT	SEGMENT
_Whereoff$ = 0
_Al$ = 8
_Oldsize$ = 16
_Newsize$ = 24
_Newcapacity$ = 32
_Newvec$ = 40
_Constructed_last$ = 48
_Constructed_first$ = 56
$T1 = 128
tv207 = 136
tv176 = 136
tv153 = 136
this$ = 160
_Whereptr$ = 168
<_Val_0>$ = 176
??$_Emplace_reallocate@AEBQEAVBoid@1Application@@@?$vector@PEAVBoid@1Application@@V?$allocator@PEAVBoid@1Application@@@std@@@std@@QEAAPEAPEAVBoid@2Application@@QEAPEAV223@AEBQEAV223@@Z PROC ; std::vector<Application::Boid::Boid *,std::allocator<Application::Boid::Boid *> >::_Emplace_reallocate<Application::Boid::Boid * const &>, COMDAT

; 942  : 		{	// reallocate and insert by perfectly forwarding _Val at _Whereptr

$LN13:
	mov	QWORD PTR [rsp+24], r8
	mov	QWORD PTR [rsp+16], rdx
	mov	QWORD PTR [rsp+8], rcx
	push	rbp
	sub	rsp, 176				; 000000b0H
	lea	rbp, QWORD PTR [rsp+32]
	mov	QWORD PTR $T1[rbp], -2
	lea	rcx, OFFSET FLAT:__327B7881_vector
	call	__CheckForDebuggerJustMyCode

; 943  : 			// pre: !_Has_unused_capacity()
; 944  : 		const size_type _Whereoff = static_cast<size_type>(_Whereptr - this->_Myfirst());

	mov	rcx, QWORD PTR this$[rbp]
	call	?_Myfirst@?$_Vector_alloc@U?$_Vec_base_types@PEAVBoid@1Application@@V?$allocator@PEAVBoid@1Application@@@std@@@std@@@std@@QEAAAEAPEAPEAVBoid@3Application@@XZ ; std::_Vector_alloc<std::_Vec_base_types<Application::Boid::Boid *,std::allocator<Application::Boid::Boid *> > >::_Myfirst
	mov	rax, QWORD PTR [rax]
	mov	rcx, QWORD PTR _Whereptr$[rbp]
	sub	rcx, rax
	mov	rax, rcx
	sar	rax, 3
	mov	QWORD PTR _Whereoff$[rbp], rax

; 945  : 		_Alty& _Al = this->_Getal();

	mov	rcx, QWORD PTR this$[rbp]
	call	?_Getal@?$_Vector_alloc@U?$_Vec_base_types@PEAVBoid@1Application@@V?$allocator@PEAVBoid@1Application@@@std@@@std@@@std@@QEAAAEAV?$allocator@PEAVBoid@1Application@@@2@XZ ; std::_Vector_alloc<std::_Vec_base_types<Application::Boid::Boid *,std::allocator<Application::Boid::Boid *> > >::_Getal
	mov	QWORD PTR _Al$[rbp], rax

; 946  : 		const size_type _Oldsize = size();

	mov	rcx, QWORD PTR this$[rbp]
	call	?size@?$vector@PEAVBoid@1Application@@V?$allocator@PEAVBoid@1Application@@@std@@@std@@QEBA_KXZ ; std::vector<Application::Boid::Boid *,std::allocator<Application::Boid::Boid *> >::size
	mov	QWORD PTR _Oldsize$[rbp], rax

; 947  : 
; 948  : 		if (_Oldsize == max_size())

	mov	rcx, QWORD PTR this$[rbp]
	call	?max_size@?$vector@PEAVBoid@1Application@@V?$allocator@PEAVBoid@1Application@@@std@@@std@@QEBA_KXZ ; std::vector<Application::Boid::Boid *,std::allocator<Application::Boid::Boid *> >::max_size
	cmp	QWORD PTR _Oldsize$[rbp], rax
	jne	SHORT $LN2@Emplace_re

; 949  : 			{
; 950  : 			_Xlength();

	call	?_Xlength@?$vector@PEAVBoid@1Application@@V?$allocator@PEAVBoid@1Application@@@std@@@std@@CAXXZ ; std::vector<Application::Boid::Boid *,std::allocator<Application::Boid::Boid *> >::_Xlength
$LN2@Emplace_re:

; 951  : 			}
; 952  : 
; 953  : 		const size_type _Newsize = _Oldsize + 1;

	mov	rax, QWORD PTR _Oldsize$[rbp]
	inc	rax
	mov	QWORD PTR _Newsize$[rbp], rax

; 954  : 		const size_type _Newcapacity = _Calculate_growth(_Newsize);

	mov	rdx, QWORD PTR _Newsize$[rbp]
	mov	rcx, QWORD PTR this$[rbp]
	call	?_Calculate_growth@?$vector@PEAVBoid@1Application@@V?$allocator@PEAVBoid@1Application@@@std@@@std@@AEBA_K_K@Z ; std::vector<Application::Boid::Boid *,std::allocator<Application::Boid::Boid *> >::_Calculate_growth
	mov	QWORD PTR _Newcapacity$[rbp], rax

; 955  : 
; 956  : 		const pointer _Newvec = _Al.allocate(_Newcapacity);

	mov	rdx, QWORD PTR _Newcapacity$[rbp]
	mov	rcx, QWORD PTR _Al$[rbp]
	call	?allocate@?$allocator@PEAVBoid@1Application@@@std@@QEAAPEAPEAVBoid@3Application@@_K@Z ; std::allocator<Application::Boid::Boid *>::allocate
	mov	QWORD PTR _Newvec$[rbp], rax

; 957  : 		const pointer _Constructed_last = _Newvec + _Whereoff + 1;

	mov	rax, QWORD PTR _Newvec$[rbp]
	mov	rcx, QWORD PTR _Whereoff$[rbp]
	lea	rax, QWORD PTR [rax+rcx*8+8]
	mov	QWORD PTR _Constructed_last$[rbp], rax

; 958  : 		pointer _Constructed_first = _Constructed_last;

	mov	rax, QWORD PTR _Constructed_last$[rbp]
	mov	QWORD PTR _Constructed_first$[rbp], rax

; 959  : 
; 960  : 		_TRY_BEGIN
; 961  : 		_Alty_traits::construct(_Al, _Unfancy(_Newvec + _Whereoff), _STD forward<_Valty>(_Val)...);

	mov	rax, QWORD PTR _Newvec$[rbp]
	mov	rcx, QWORD PTR _Whereoff$[rbp]
	lea	rax, QWORD PTR [rax+rcx*8]
	mov	rcx, rax
	call	??$_Unfancy@PEAVBoid@1Application@@@std@@YAPEAPEAVBoid@1Application@@PEAPEAV112@@Z ; std::_Unfancy<Application::Boid::Boid *>
	mov	QWORD PTR tv207[rbp], rax
	mov	rcx, QWORD PTR <_Val_0>$[rbp]
	call	??$forward@AEBQEAVBoid@1Application@@@std@@YAAEBQEAVBoid@1Application@@AEBQEAV112@@Z ; std::forward<Application::Boid::Boid * const &>
	mov	r8, rax
	mov	rdx, QWORD PTR tv207[rbp]
	mov	rcx, QWORD PTR _Al$[rbp]
	call	??$construct@PEAVBoid@1Application@@AEBQEAV112@@?$_Default_allocator_traits@V?$allocator@PEAVBoid@1Application@@@std@@@std@@SAXAEAV?$allocator@PEAVBoid@1Application@@@1@QEAPEAVBoid@3Application@@AEBQEAV334@@Z ; std::_Default_allocator_traits<std::allocator<Application::Boid::Boid *> >::construct<Application::Boid::Boid *,Application::Boid::Boid * const &>

; 962  : 		_Constructed_first = _Newvec + _Whereoff;

	mov	rax, QWORD PTR _Newvec$[rbp]
	mov	rcx, QWORD PTR _Whereoff$[rbp]
	lea	rax, QWORD PTR [rax+rcx*8]
	mov	QWORD PTR _Constructed_first$[rbp], rax

; 963  : 
; 964  : 		if (_Whereptr == this->_Mylast())

	mov	rcx, QWORD PTR this$[rbp]
	call	?_Mylast@?$_Vector_alloc@U?$_Vec_base_types@PEAVBoid@1Application@@V?$allocator@PEAVBoid@1Application@@@std@@@std@@@std@@QEAAAEAPEAPEAVBoid@3Application@@XZ ; std::_Vector_alloc<std::_Vec_base_types<Application::Boid::Boid *,std::allocator<Application::Boid::Boid *> > >::_Mylast
	mov	rax, QWORD PTR [rax]
	cmp	QWORD PTR _Whereptr$[rbp], rax
	jne	SHORT $LN4@Emplace_re

; 965  : 			{	// at back, provide strong guarantee
; 966  : 			_Umove_if_noexcept(this->_Myfirst(), this->_Mylast(), _Newvec);

	mov	rcx, QWORD PTR this$[rbp]
	call	?_Mylast@?$_Vector_alloc@U?$_Vec_base_types@PEAVBoid@1Application@@V?$allocator@PEAVBoid@1Application@@@std@@@std@@@std@@QEAAAEAPEAPEAVBoid@3Application@@XZ ; std::_Vector_alloc<std::_Vec_base_types<Application::Boid::Boid *,std::allocator<Application::Boid::Boid *> > >::_Mylast
	mov	QWORD PTR tv153[rbp], rax
	mov	rcx, QWORD PTR this$[rbp]
	call	?_Myfirst@?$_Vector_alloc@U?$_Vec_base_types@PEAVBoid@1Application@@V?$allocator@PEAVBoid@1Application@@@std@@@std@@@std@@QEAAAEAPEAPEAVBoid@3Application@@XZ ; std::_Vector_alloc<std::_Vec_base_types<Application::Boid::Boid *,std::allocator<Application::Boid::Boid *> > >::_Myfirst
	mov	r9, QWORD PTR _Newvec$[rbp]
	mov	rcx, QWORD PTR tv153[rbp]
	mov	r8, QWORD PTR [rcx]
	mov	rdx, QWORD PTR [rax]
	mov	rcx, QWORD PTR this$[rbp]
	call	?_Umove_if_noexcept@?$vector@PEAVBoid@1Application@@V?$allocator@PEAVBoid@1Application@@@std@@@std@@AEAAXPEAPEAVBoid@3Application@@00@Z ; std::vector<Application::Boid::Boid *,std::allocator<Application::Boid::Boid *> >::_Umove_if_noexcept

; 967  : 			}
; 968  : 		else

	jmp	SHORT $LN5@Emplace_re
$LN4@Emplace_re:

; 969  : 			{	// provide basic guarantee
; 970  : 			_Umove(this->_Myfirst(), _Whereptr, _Newvec);

	mov	rcx, QWORD PTR this$[rbp]
	call	?_Myfirst@?$_Vector_alloc@U?$_Vec_base_types@PEAVBoid@1Application@@V?$allocator@PEAVBoid@1Application@@@std@@@std@@@std@@QEAAAEAPEAPEAVBoid@3Application@@XZ ; std::_Vector_alloc<std::_Vec_base_types<Application::Boid::Boid *,std::allocator<Application::Boid::Boid *> > >::_Myfirst
	mov	r9, QWORD PTR _Newvec$[rbp]
	mov	r8, QWORD PTR _Whereptr$[rbp]
	mov	rdx, QWORD PTR [rax]
	mov	rcx, QWORD PTR this$[rbp]
	call	?_Umove@?$vector@PEAVBoid@1Application@@V?$allocator@PEAVBoid@1Application@@@std@@@std@@AEAAPEAPEAVBoid@3Application@@PEAPEAV334@00@Z ; std::vector<Application::Boid::Boid *,std::allocator<Application::Boid::Boid *> >::_Umove

; 971  : 			_Constructed_first = _Newvec;

	mov	rax, QWORD PTR _Newvec$[rbp]
	mov	QWORD PTR _Constructed_first$[rbp], rax

; 972  : 			_Umove(_Whereptr, this->_Mylast(), _Newvec + _Whereoff + 1);

	mov	rax, QWORD PTR _Newvec$[rbp]
	mov	rcx, QWORD PTR _Whereoff$[rbp]
	lea	rax, QWORD PTR [rax+rcx*8+8]
	mov	QWORD PTR tv176[rbp], rax
	mov	rcx, QWORD PTR this$[rbp]
	call	?_Mylast@?$_Vector_alloc@U?$_Vec_base_types@PEAVBoid@1Application@@V?$allocator@PEAVBoid@1Application@@@std@@@std@@@std@@QEAAAEAPEAPEAVBoid@3Application@@XZ ; std::_Vector_alloc<std::_Vec_base_types<Application::Boid::Boid *,std::allocator<Application::Boid::Boid *> > >::_Mylast
	mov	rcx, QWORD PTR tv176[rbp]
	mov	r9, rcx
	mov	r8, QWORD PTR [rax]
	mov	rdx, QWORD PTR _Whereptr$[rbp]
	mov	rcx, QWORD PTR this$[rbp]
	call	?_Umove@?$vector@PEAVBoid@1Application@@V?$allocator@PEAVBoid@1Application@@@std@@@std@@AEAAPEAPEAVBoid@3Application@@PEAPEAV334@00@Z ; std::vector<Application::Boid::Boid *,std::allocator<Application::Boid::Boid *> >::_Umove
	npad	1
$LN5@Emplace_re:
	jmp	SHORT $LN9@Emplace_re
$LN10@Emplace_re:
$LN9@Emplace_re:

; 973  : 			}
; 974  : 		_CATCH_ALL
; 975  : 		_Destroy(_Constructed_first, _Constructed_last);
; 976  : 		_Al.deallocate(_Newvec, _Newcapacity);
; 977  : 		_RERAISE;
; 978  : 		_CATCH_END
; 979  : 
; 980  : 		_Change_array(_Newvec, _Newsize, _Newcapacity);

	mov	r9, QWORD PTR _Newcapacity$[rbp]
	mov	r8, QWORD PTR _Newsize$[rbp]
	mov	rdx, QWORD PTR _Newvec$[rbp]
	mov	rcx, QWORD PTR this$[rbp]
	call	?_Change_array@?$vector@PEAVBoid@1Application@@V?$allocator@PEAVBoid@1Application@@@std@@@std@@AEAAXQEAPEAVBoid@3Application@@_K1@Z ; std::vector<Application::Boid::Boid *,std::allocator<Application::Boid::Boid *> >::_Change_array

; 981  : 		return (this->_Myfirst() + _Whereoff);

	mov	rcx, QWORD PTR this$[rbp]
	call	?_Myfirst@?$_Vector_alloc@U?$_Vec_base_types@PEAVBoid@1Application@@V?$allocator@PEAVBoid@1Application@@@std@@@std@@@std@@QEAAAEAPEAPEAVBoid@3Application@@XZ ; std::_Vector_alloc<std::_Vec_base_types<Application::Boid::Boid *,std::allocator<Application::Boid::Boid *> > >::_Myfirst
	mov	rax, QWORD PTR [rax]
	mov	rcx, QWORD PTR _Whereoff$[rbp]
	lea	rax, QWORD PTR [rax+rcx*8]

; 982  : 		}

	lea	rsp, QWORD PTR [rbp+144]
	pop	rbp
	ret	0
$LN11@Emplace_re:
??$_Emplace_reallocate@AEBQEAVBoid@1Application@@@?$vector@PEAVBoid@1Application@@V?$allocator@PEAVBoid@1Application@@@std@@@std@@QEAAPEAPEAVBoid@2Application@@QEAPEAV223@AEBQEAV223@@Z ENDP ; std::vector<Application::Boid::Boid *,std::allocator<Application::Boid::Boid *> >::_Emplace_reallocate<Application::Boid::Boid * const &>
_TEXT	ENDS
;	COMDAT text$x
text$x	SEGMENT
_Whereoff$ = 0
_Al$ = 8
_Oldsize$ = 16
_Newsize$ = 24
_Newcapacity$ = 32
_Newvec$ = 40
_Constructed_last$ = 48
_Constructed_first$ = 56
$T1 = 128
tv207 = 136
tv176 = 136
tv153 = 136
this$ = 160
_Whereptr$ = 168
<_Val_0>$ = 176
?catch$0@?0???$_Emplace_reallocate@AEBQEAVBoid@1Application@@@?$vector@PEAVBoid@1Application@@V?$allocator@PEAVBoid@1Application@@@std@@@std@@QEAAPEAPEAVBoid@2Application@@QEAPEAV223@AEBQEAV223@@Z@4HA PROC ; `std::vector<Application::Boid::Boid *,std::allocator<Application::Boid::Boid *> >::_Emplace_reallocate<Application::Boid::Boid * const &>'::`1'::catch$0

; 973  : 			}
; 974  : 		_CATCH_ALL

	mov	QWORD PTR [rsp+16], rdx
	push	rbp
	sub	rsp, 32					; 00000020H
	lea	rbp, QWORD PTR [rdx+32]
__catch$??$_Emplace_reallocate@AEBQEAVBoid@1Application@@@?$vector@PEAVBoid@1Application@@V?$allocator@PEAVBoid@1Application@@@std@@@std@@QEAAPEAPEAVBoid@2Application@@QEAPEAV223@AEBQEAV223@@Z$0:

; 973  : 			}
; 974  : 		_CATCH_ALL
; 975  : 		_Destroy(_Constructed_first, _Constructed_last);

	mov	r8, QWORD PTR _Constructed_last$[rbp]
	mov	rdx, QWORD PTR _Constructed_first$[rbp]
	mov	rcx, QWORD PTR this$[rbp]
	call	?_Destroy@?$vector@PEAVBoid@1Application@@V?$allocator@PEAVBoid@1Application@@@std@@@std@@AEAAXPEAPEAVBoid@3Application@@0@Z ; std::vector<Application::Boid::Boid *,std::allocator<Application::Boid::Boid *> >::_Destroy

; 973  : 			}
; 974  : 		_CATCH_ALL
; 975  : 		_Destroy(_Constructed_first, _Constructed_last);
; 976  : 		_Al.deallocate(_Newvec, _Newcapacity);

	mov	r8, QWORD PTR _Newcapacity$[rbp]
	mov	rdx, QWORD PTR _Newvec$[rbp]
	mov	rcx, QWORD PTR _Al$[rbp]
	call	?deallocate@?$allocator@PEAVBoid@1Application@@@std@@QEAAXQEAPEAVBoid@3Application@@_K@Z ; std::allocator<Application::Boid::Boid *>::deallocate

; 973  : 			}
; 974  : 		_CATCH_ALL
; 975  : 		_Destroy(_Constructed_first, _Constructed_last);
; 976  : 		_Al.deallocate(_Newvec, _Newcapacity);
; 977  : 		_RERAISE;

	xor	edx, edx
	xor	ecx, ecx
	call	_CxxThrowException
	npad	1

; 973  : 			}
; 974  : 		_CATCH_ALL
; 975  : 		_Destroy(_Constructed_first, _Constructed_last);
; 976  : 		_Al.deallocate(_Newvec, _Newcapacity);
; 977  : 		_RERAISE;
; 978  : 		_CATCH_END

	lea	rax, $LN10@catch$0
	add	rsp, 32					; 00000020H
	pop	rbp
	ret	0
	int	3
?catch$0@?0???$_Emplace_reallocate@AEBQEAVBoid@1Application@@@?$vector@PEAVBoid@1Application@@V?$allocator@PEAVBoid@1Application@@@std@@@std@@QEAAPEAPEAVBoid@2Application@@QEAPEAV223@AEBQEAV223@@Z@4HA ENDP ; `std::vector<Application::Boid::Boid *,std::allocator<Application::Boid::Boid *> >::_Emplace_reallocate<Application::Boid::Boid * const &>'::`1'::catch$0
text$x	ENDS
; Function compile flags: /Odtp /RTCu /ZI
;	COMDAT text$x
text$x	SEGMENT
_Whereoff$ = 0
_Al$ = 8
_Oldsize$ = 16
_Newsize$ = 24
_Newcapacity$ = 32
_Newvec$ = 40
_Constructed_last$ = 48
_Constructed_first$ = 56
$T1 = 128
tv207 = 136
tv176 = 136
tv153 = 136
this$ = 160
_Whereptr$ = 168
<_Val_0>$ = 176
?catch$0@?0???$_Emplace_reallocate@AEBQEAVBoid@1Application@@@?$vector@PEAVBoid@1Application@@V?$allocator@PEAVBoid@1Application@@@std@@@std@@QEAAPEAPEAVBoid@2Application@@QEAPEAV223@AEBQEAV223@@Z@4HA PROC ; `std::vector<Application::Boid::Boid *,std::allocator<Application::Boid::Boid *> >::_Emplace_reallocate<Application::Boid::Boid * const &>'::`1'::catch$0

; 974  : 		_CATCH_ALL

	mov	QWORD PTR [rsp+16], rdx
	push	rbp
	sub	rsp, 32					; 00000020H
	lea	rbp, QWORD PTR [rdx+32]
__catch$??$_Emplace_reallocate@AEBQEAVBoid@1Application@@@?$vector@PEAVBoid@1Application@@V?$allocator@PEAVBoid@1Application@@@std@@@std@@QEAAPEAPEAVBoid@2Application@@QEAPEAV223@AEBQEAV223@@Z$0:

; 975  : 		_Destroy(_Constructed_first, _Constructed_last);

	mov	r8, QWORD PTR _Constructed_last$[rbp]
	mov	rdx, QWORD PTR _Constructed_first$[rbp]
	mov	rcx, QWORD PTR this$[rbp]
	call	?_Destroy@?$vector@PEAVBoid@1Application@@V?$allocator@PEAVBoid@1Application@@@std@@@std@@AEAAXPEAPEAVBoid@3Application@@0@Z ; std::vector<Application::Boid::Boid *,std::allocator<Application::Boid::Boid *> >::_Destroy

; 976  : 		_Al.deallocate(_Newvec, _Newcapacity);

	mov	r8, QWORD PTR _Newcapacity$[rbp]
	mov	rdx, QWORD PTR _Newvec$[rbp]
	mov	rcx, QWORD PTR _Al$[rbp]
	call	?deallocate@?$allocator@PEAVBoid@1Application@@@std@@QEAAXQEAPEAVBoid@3Application@@_K@Z ; std::allocator<Application::Boid::Boid *>::deallocate

; 977  : 		_RERAISE;

	xor	edx, edx
	xor	ecx, ecx
	call	_CxxThrowException
	npad	1

; 978  : 		_CATCH_END

	lea	rax, $LN10@catch$0
	add	rsp, 32					; 00000020H
	pop	rbp
	ret	0
	int	3
?catch$0@?0???$_Emplace_reallocate@AEBQEAVBoid@1Application@@@?$vector@PEAVBoid@1Application@@V?$allocator@PEAVBoid@1Application@@@std@@@std@@QEAAPEAPEAVBoid@2Application@@QEAPEAV223@AEBQEAV223@@Z@4HA ENDP ; `std::vector<Application::Boid::Boid *,std::allocator<Application::Boid::Boid *> >::_Emplace_reallocate<Application::Boid::Boid * const &>'::`1'::catch$0
text$x	ENDS
; Function compile flags: /Odtp /RTCu /ZI
; File c:\program files (x86)\microsoft visual studio\2017\enterprise\vc\tools\msvc\14.15.26726\include\xmemory0
;	COMDAT ??$construct@PEAVBoid@1Application@@AEBQEAV112@@?$_Default_allocator_traits@V?$allocator@PEAVBoid@1Application@@@std@@@std@@SAXAEAV?$allocator@PEAVBoid@1Application@@@1@QEAPEAVBoid@3Application@@AEBQEAV334@@Z
_TEXT	SEGMENT
$T1 = 64
__formal$ = 96
_Ptr$ = 104
<_Args_0>$ = 112
??$construct@PEAVBoid@1Application@@AEBQEAV112@@?$_Default_allocator_traits@V?$allocator@PEAVBoid@1Application@@@std@@@std@@SAXAEAV?$allocator@PEAVBoid@1Application@@@1@QEAPEAVBoid@3Application@@AEBQEAV334@@Z PROC ; std::_Default_allocator_traits<std::allocator<Application::Boid::Boid *> >::construct<Application::Boid::Boid *,Application::Boid::Boid * const &>, COMDAT

; 879  : 		{	// construct _Objty(_Types...) at _Ptr

$LN3:
	mov	QWORD PTR [rsp+24], r8
	mov	QWORD PTR [rsp+16], rdx
	mov	QWORD PTR [rsp+8], rcx
	push	rbp
	sub	rsp, 112				; 00000070H
	lea	rbp, QWORD PTR [rsp+32]
	lea	rcx, OFFSET FLAT:__39AEDAD7_xmemory0
	call	__CheckForDebuggerJustMyCode
	mov	rdx, QWORD PTR _Ptr$[rbp]
	mov	ecx, 8
	call	??2@YAPEAX_KPEAX@Z			; operator new
	mov	QWORD PTR $T1[rbp], rax
	mov	rcx, QWORD PTR <_Args_0>$[rbp]
	call	??$forward@AEBQEAVBoid@1Application@@@std@@YAAEBQEAVBoid@1Application@@AEBQEAV112@@Z ; std::forward<Application::Boid::Boid * const &>
	mov	rcx, QWORD PTR $T1[rbp]
	mov	rax, QWORD PTR [rax]
	mov	QWORD PTR [rcx], rax

; 880  : 		::new (const_cast<void *>(static_cast<const volatile void *>(_Ptr)))
; 881  : 			_Objty(_STD forward<_Types>(_Args)...);
; 882  : 		}

	lea	rsp, QWORD PTR [rbp+80]
	pop	rbp
	ret	0
??$construct@PEAVBoid@1Application@@AEBQEAV112@@?$_Default_allocator_traits@V?$allocator@PEAVBoid@1Application@@@std@@@std@@SAXAEAV?$allocator@PEAVBoid@1Application@@@1@QEAPEAVBoid@3Application@@AEBQEAV334@@Z ENDP ; std::_Default_allocator_traits<std::allocator<Application::Boid::Boid *> >::construct<Application::Boid::Boid *,Application::Boid::Boid * const &>
_TEXT	ENDS
; Function compile flags: /Odtp /RTCu /ZI
; File c:\program files (x86)\microsoft visual studio\2017\enterprise\vc\tools\msvc\14.15.26726\include\xstddef
;	COMDAT ??$_Unfancy@PEAVBoid@1Application@@@std@@YAPEAPEAVBoid@1Application@@PEAPEAV112@@Z
_TEXT	SEGMENT
_Ptr$ = 80
??$_Unfancy@PEAVBoid@1Application@@@std@@YAPEAPEAVBoid@1Application@@PEAPEAV112@@Z PROC ; std::_Unfancy<Application::Boid::Boid *>, COMDAT

; 345  : 	{	// do nothing for plain pointers

$LN3:
	mov	QWORD PTR [rsp+8], rcx
	push	rbp
	sub	rsp, 96					; 00000060H
	lea	rbp, QWORD PTR [rsp+32]
	lea	rcx, OFFSET FLAT:__30E3E102_xstddef
	call	__CheckForDebuggerJustMyCode

; 346  : 	return (_Ptr);

	mov	rax, QWORD PTR _Ptr$[rbp]

; 347  : 	}

	lea	rsp, QWORD PTR [rbp+64]
	pop	rbp
	ret	0
??$_Unfancy@PEAVBoid@1Application@@@std@@YAPEAPEAVBoid@1Application@@PEAPEAV112@@Z ENDP ; std::_Unfancy<Application::Boid::Boid *>
_TEXT	ENDS
; Function compile flags: /Odtp /RTCu /ZI
; File c:\program files (x86)\microsoft visual studio\2017\enterprise\vc\tools\msvc\14.15.26726\include\vector
;	COMDAT ??$_Emplace_back_with_unused_capacity@AEBQEAVBoid@1Application@@@?$vector@PEAVBoid@1Application@@V?$allocator@PEAVBoid@1Application@@@std@@@std@@AEAA@AEBQEAVBoid@2Application@@@Z
_TEXT	SEGMENT
_Result$ = 0
tv142 = 72
tv89 = 72
tv64 = 72
tv67 = 80
this$ = 112
<_Val_0>$ = 120
??$_Emplace_back_with_unused_capacity@AEBQEAVBoid@1Application@@@?$vector@PEAVBoid@1Application@@V?$allocator@PEAVBoid@1Application@@@std@@@std@@AEAA@AEBQEAVBoid@2Application@@@Z PROC ; std::vector<Application::Boid::Boid *,std::allocator<Application::Boid::Boid *> >::_Emplace_back_with_unused_capacity<Application::Boid::Boid * const &>, COMDAT

; 900  : 		{	// insert by perfectly forwarding into element at end, provide strong guarantee

$LN3:
	mov	QWORD PTR [rsp+16], rdx
	mov	QWORD PTR [rsp+8], rcx
	push	rbp
	sub	rsp, 128				; 00000080H
	lea	rbp, QWORD PTR [rsp+32]
	lea	rcx, OFFSET FLAT:__327B7881_vector
	call	__CheckForDebuggerJustMyCode

; 901  : 			// pre: _Has_unused_capacity()
; 902  : 		_Alty_traits::construct(this->_Getal(), _Unfancy(this->_Mylast()), _STD forward<_Valty>(_Val)...);

	mov	rcx, QWORD PTR <_Val_0>$[rbp]
	call	??$forward@AEBQEAVBoid@1Application@@@std@@YAAEBQEAVBoid@1Application@@AEBQEAV112@@Z ; std::forward<Application::Boid::Boid * const &>
	mov	QWORD PTR tv64[rbp], rax
	mov	rcx, QWORD PTR this$[rbp]
	call	?_Mylast@?$_Vector_alloc@U?$_Vec_base_types@PEAVBoid@1Application@@V?$allocator@PEAVBoid@1Application@@@std@@@std@@@std@@QEAAAEAPEAPEAVBoid@3Application@@XZ ; std::_Vector_alloc<std::_Vec_base_types<Application::Boid::Boid *,std::allocator<Application::Boid::Boid *> > >::_Mylast
	mov	rcx, QWORD PTR [rax]
	call	??$_Unfancy@PEAVBoid@1Application@@@std@@YAPEAPEAVBoid@1Application@@PEAPEAV112@@Z ; std::_Unfancy<Application::Boid::Boid *>
	mov	QWORD PTR tv67[rbp], rax
	mov	rcx, QWORD PTR this$[rbp]
	call	?_Getal@?$_Vector_alloc@U?$_Vec_base_types@PEAVBoid@1Application@@V?$allocator@PEAVBoid@1Application@@@std@@@std@@@std@@QEAAAEAV?$allocator@PEAVBoid@1Application@@@2@XZ ; std::_Vector_alloc<std::_Vec_base_types<Application::Boid::Boid *,std::allocator<Application::Boid::Boid *> > >::_Getal
	mov	rcx, QWORD PTR tv64[rbp]
	mov	r8, rcx
	mov	rcx, QWORD PTR tv67[rbp]
	mov	rdx, rcx
	mov	rcx, rax
	call	??$construct@PEAVBoid@1Application@@AEBQEAV112@@?$_Default_allocator_traits@V?$allocator@PEAVBoid@1Application@@@std@@@std@@SAXAEAV?$allocator@PEAVBoid@1Application@@@1@QEAPEAVBoid@3Application@@AEBQEAV334@@Z ; std::_Default_allocator_traits<std::allocator<Application::Boid::Boid *> >::construct<Application::Boid::Boid *,Application::Boid::Boid * const &>

; 903  : 		_Orphan_range(this->_Mylast(), this->_Mylast());

	mov	rcx, QWORD PTR this$[rbp]
	call	?_Mylast@?$_Vector_alloc@U?$_Vec_base_types@PEAVBoid@1Application@@V?$allocator@PEAVBoid@1Application@@@std@@@std@@@std@@QEAAAEAPEAPEAVBoid@3Application@@XZ ; std::_Vector_alloc<std::_Vec_base_types<Application::Boid::Boid *,std::allocator<Application::Boid::Boid *> > >::_Mylast
	mov	QWORD PTR tv89[rbp], rax
	mov	rcx, QWORD PTR this$[rbp]
	call	?_Mylast@?$_Vector_alloc@U?$_Vec_base_types@PEAVBoid@1Application@@V?$allocator@PEAVBoid@1Application@@@std@@@std@@@std@@QEAAAEAPEAPEAVBoid@3Application@@XZ ; std::_Vector_alloc<std::_Vec_base_types<Application::Boid::Boid *,std::allocator<Application::Boid::Boid *> > >::_Mylast
	mov	rcx, QWORD PTR tv89[rbp]
	mov	r8, QWORD PTR [rcx]
	mov	rdx, QWORD PTR [rax]
	mov	rcx, QWORD PTR this$[rbp]
	call	?_Orphan_range@?$vector@PEAVBoid@1Application@@V?$allocator@PEAVBoid@1Application@@@std@@@std@@AEBAXPEAPEAVBoid@3Application@@0@Z ; std::vector<Application::Boid::Boid *,std::allocator<Application::Boid::Boid *> >::_Orphan_range

; 904  : 		_Ty& _Result = *this->_Mylast();

	mov	rcx, QWORD PTR this$[rbp]
	call	?_Mylast@?$_Vector_alloc@U?$_Vec_base_types@PEAVBoid@1Application@@V?$allocator@PEAVBoid@1Application@@@std@@@std@@@std@@QEAAAEAPEAPEAVBoid@3Application@@XZ ; std::_Vector_alloc<std::_Vec_base_types<Application::Boid::Boid *,std::allocator<Application::Boid::Boid *> > >::_Mylast
	mov	rax, QWORD PTR [rax]
	mov	QWORD PTR _Result$[rbp], rax

; 905  : 		++this->_Mylast();

	mov	rcx, QWORD PTR this$[rbp]
	call	?_Mylast@?$_Vector_alloc@U?$_Vec_base_types@PEAVBoid@1Application@@V?$allocator@PEAVBoid@1Application@@@std@@@std@@@std@@QEAAAEAPEAPEAVBoid@3Application@@XZ ; std::_Vector_alloc<std::_Vec_base_types<Application::Boid::Boid *,std::allocator<Application::Boid::Boid *> > >::_Mylast
	mov	QWORD PTR tv142[rbp], rax
	mov	rax, QWORD PTR tv142[rbp]
	mov	rax, QWORD PTR [rax]
	add	rax, 8
	mov	rcx, QWORD PTR tv142[rbp]
	mov	QWORD PTR [rcx], rax

; 906  : #if _HAS_CXX17
; 907  : 		return (_Result);
; 908  : #else /* ^^^ _HAS_CXX17 ^^^ // vvv !_HAS_CXX17 vvv */
; 909  : 		(void)_Result;
; 910  : #endif /* _HAS_CXX17 */
; 911  : 		}

	lea	rsp, QWORD PTR [rbp+96]
	pop	rbp
	ret	0
??$_Emplace_back_with_unused_capacity@AEBQEAVBoid@1Application@@@?$vector@PEAVBoid@1Application@@V?$allocator@PEAVBoid@1Application@@@std@@@std@@AEAA@AEBQEAVBoid@2Application@@@Z ENDP ; std::vector<Application::Boid::Boid *,std::allocator<Application::Boid::Boid *> >::_Emplace_back_with_unused_capacity<Application::Boid::Boid * const &>
_TEXT	ENDS
; Function compile flags: /Odtp /RTCu /ZI
; File c:\program files (x86)\microsoft visual studio\2017\enterprise\vc\tools\msvc\14.15.26726\include\type_traits
;	COMDAT ??$forward@AEBQEAVBoid@1Application@@@std@@YAAEBQEAVBoid@1Application@@AEBQEAV112@@Z
_TEXT	SEGMENT
$T1 = 64
_Arg$ = 96
??$forward@AEBQEAVBoid@1Application@@@std@@YAAEBQEAVBoid@1Application@@AEBQEAV112@@Z PROC ; std::forward<Application::Boid::Boid * const &>, COMDAT

; 1573 : 	{	// forward an lvalue as either an lvalue or an rvalue

$LN3:
	mov	QWORD PTR [rsp+8], rcx
	push	rbp
	sub	rsp, 112				; 00000070H
	lea	rbp, QWORD PTR [rsp+32]
	mov	QWORD PTR $T1[rbp], -2
	lea	rcx, OFFSET FLAT:__6C905C6A_type_traits
	call	__CheckForDebuggerJustMyCode
	npad	1

; 1574 : 	return (static_cast<_Ty&&>(_Arg));

	mov	rax, QWORD PTR _Arg$[rbp]

; 1575 : 	}

	lea	rsp, QWORD PTR [rbp+80]
	pop	rbp
	ret	0
??$forward@AEBQEAVBoid@1Application@@@std@@YAAEBQEAVBoid@1Application@@AEBQEAV112@@Z ENDP ; std::forward<Application::Boid::Boid * const &>
_TEXT	ENDS
; Function compile flags: /Odtp /RTCu /ZI
; File c:\program files (x86)\microsoft visual studio\2017\enterprise\vc\tools\msvc\14.15.26726\include\vector
;	COMDAT ??$emplace_back@AEBQEAVBoid@1Application@@@?$vector@PEAVBoid@1Application@@V?$allocator@PEAVBoid@1Application@@@std@@@std@@QEAA@AEBQEAVBoid@2Application@@@Z
_TEXT	SEGMENT
_Result$ = 0
tv74 = 72
this$ = 96
<_Val_0>$ = 104
??$emplace_back@AEBQEAVBoid@1Application@@@?$vector@PEAVBoid@1Application@@V?$allocator@PEAVBoid@1Application@@@std@@@std@@QEAA@AEBQEAVBoid@2Application@@@Z PROC ; std::vector<Application::Boid::Boid *,std::allocator<Application::Boid::Boid *> >::emplace_back<Application::Boid::Boid * const &>, COMDAT

; 916  : 		{	// insert by perfectly forwarding into element at end, provide strong guarantee

$LN4:
	mov	QWORD PTR [rsp+16], rdx
	mov	QWORD PTR [rsp+8], rcx
	push	rbp
	sub	rsp, 112				; 00000070H
	lea	rbp, QWORD PTR [rsp+32]
	lea	rcx, OFFSET FLAT:__327B7881_vector
	call	__CheckForDebuggerJustMyCode

; 917  : 		if (_Has_unused_capacity())

	mov	rcx, QWORD PTR this$[rbp]
	call	?_Has_unused_capacity@?$vector@PEAVBoid@1Application@@V?$allocator@PEAVBoid@1Application@@@std@@@std@@AEBA_NXZ ; std::vector<Application::Boid::Boid *,std::allocator<Application::Boid::Boid *> >::_Has_unused_capacity
	movzx	eax, al
	test	eax, eax
	je	SHORT $LN2@emplace_ba

; 918  : 			{
; 919  : 			return (_Emplace_back_with_unused_capacity(_STD forward<_Valty>(_Val)...));

	mov	rcx, QWORD PTR <_Val_0>$[rbp]
	call	??$forward@AEBQEAVBoid@1Application@@@std@@YAAEBQEAVBoid@1Application@@AEBQEAV112@@Z ; std::forward<Application::Boid::Boid * const &>
	mov	rdx, rax
	mov	rcx, QWORD PTR this$[rbp]
	call	??$_Emplace_back_with_unused_capacity@AEBQEAVBoid@1Application@@@?$vector@PEAVBoid@1Application@@V?$allocator@PEAVBoid@1Application@@@std@@@std@@AEAA@AEBQEAVBoid@2Application@@@Z ; std::vector<Application::Boid::Boid *,std::allocator<Application::Boid::Boid *> >::_Emplace_back_with_unused_capacity<Application::Boid::Boid * const &>
	jmp	SHORT $LN1@emplace_ba
$LN2@emplace_ba:

; 920  : 			}
; 921  : 
; 922  : 		_Ty& _Result = *_Emplace_reallocate(this->_Mylast(), _STD forward<_Valty>(_Val)...);

	mov	rcx, QWORD PTR <_Val_0>$[rbp]
	call	??$forward@AEBQEAVBoid@1Application@@@std@@YAAEBQEAVBoid@1Application@@AEBQEAV112@@Z ; std::forward<Application::Boid::Boid * const &>
	mov	QWORD PTR tv74[rbp], rax
	mov	rcx, QWORD PTR this$[rbp]
	call	?_Mylast@?$_Vector_alloc@U?$_Vec_base_types@PEAVBoid@1Application@@V?$allocator@PEAVBoid@1Application@@@std@@@std@@@std@@QEAAAEAPEAPEAVBoid@3Application@@XZ ; std::_Vector_alloc<std::_Vec_base_types<Application::Boid::Boid *,std::allocator<Application::Boid::Boid *> > >::_Mylast
	mov	rcx, QWORD PTR tv74[rbp]
	mov	r8, rcx
	mov	rdx, QWORD PTR [rax]
	mov	rcx, QWORD PTR this$[rbp]
	call	??$_Emplace_reallocate@AEBQEAVBoid@1Application@@@?$vector@PEAVBoid@1Application@@V?$allocator@PEAVBoid@1Application@@@std@@@std@@QEAAPEAPEAVBoid@2Application@@QEAPEAV223@AEBQEAV223@@Z ; std::vector<Application::Boid::Boid *,std::allocator<Application::Boid::Boid *> >::_Emplace_reallocate<Application::Boid::Boid * const &>
	mov	QWORD PTR _Result$[rbp], rax
$LN1@emplace_ba:

; 923  : #if _HAS_CXX17
; 924  : 		return (_Result);
; 925  : #else /* ^^^ _HAS_CXX17 ^^^ // vvv !_HAS_CXX17 vvv */
; 926  : 		(void)_Result;
; 927  : #endif /* _HAS_CXX17 */
; 928  : 		}

	lea	rsp, QWORD PTR [rbp+80]
	pop	rbp
	ret	0
??$emplace_back@AEBQEAVBoid@1Application@@@?$vector@PEAVBoid@1Application@@V?$allocator@PEAVBoid@1Application@@@std@@@std@@QEAA@AEBQEAVBoid@2Application@@@Z ENDP ; std::vector<Application::Boid::Boid *,std::allocator<Application::Boid::Boid *> >::emplace_back<Application::Boid::Boid * const &>
_TEXT	ENDS
; Function compile flags: /Odtp /RTCu /ZI
; File l:\dev\featherfallengine\depends\install\include\glm\detail\type_vec4.inl
;	COMDAT ??$?_0M@?$tvec4@M$0A@@glm@@QEAAAEAU01@M@Z
_TEXT	SEGMENT
$T1 = 64
$T2 = 80
this$ = 128
scalar$ = 136
??$?_0M@?$tvec4@M$0A@@glm@@QEAAAEAU01@M@Z PROC		; glm::tvec4<float,0>::operator/=<float>, COMDAT

; 432  : 	{

$LN3:
	movss	DWORD PTR [rsp+16], xmm1
	mov	QWORD PTR [rsp+8], rcx
	push	rbp
	push	rsi
	push	rdi
	sub	rsp, 128				; 00000080H
	lea	rbp, QWORD PTR [rsp+32]
	lea	rcx, OFFSET FLAT:__A0704DDA_type_vec4.inl
	call	__CheckForDebuggerJustMyCode

; 433  : 		return (*this = detail::compute_vec4_div<T, P, detail::is_aligned<P>::value>::call(*this, tvec4<T, P>(scalar)));

	movss	xmm1, DWORD PTR scalar$[rbp]
	lea	rcx, QWORD PTR $T1[rbp]
	call	??0?$tvec4@M$0A@@glm@@QEAA@M@Z		; glm::tvec4<float,0>::tvec4<float,0>
	mov	r8, rax
	mov	rdx, QWORD PTR this$[rbp]
	lea	rcx, QWORD PTR $T2[rbp]
	call	?call@?$compute_vec4_div@M$0A@$0A@@detail@glm@@SA?AU?$tvec4@M$0A@@3@AEBU43@0@Z ; glm::detail::compute_vec4_div<float,0,0>::call
	mov	rdi, QWORD PTR this$[rbp]
	mov	rsi, rax
	mov	ecx, 16
	rep movsb
	mov	rax, QWORD PTR this$[rbp]

; 434  : 	}

	lea	rsp, QWORD PTR [rbp+96]
	pop	rdi
	pop	rsi
	pop	rbp
	ret	0
??$?_0M@?$tvec4@M$0A@@glm@@QEAAAEAU01@M@Z ENDP		; glm::tvec4<float,0>::operator/=<float>
_TEXT	ENDS
; Function compile flags: /Odtp /RTCu /ZI
; File l:\dev\featherfallengine\depends\install\include\glm\detail\type_vec4.inl
;	COMDAT ??$?_0_K@?$tvec4@M$0A@@glm@@QEAAAEAU01@_K@Z
_TEXT	SEGMENT
$T1 = 64
$T2 = 80
this$ = 128
scalar$ = 136
??$?_0_K@?$tvec4@M$0A@@glm@@QEAAAEAU01@_K@Z PROC	; glm::tvec4<float,0>::operator/=<unsigned __int64>, COMDAT

; 432  : 	{

$LN4:
	mov	QWORD PTR [rsp+16], rdx
	mov	QWORD PTR [rsp+8], rcx
	push	rbp
	push	rsi
	push	rdi
	sub	rsp, 128				; 00000080H
	lea	rbp, QWORD PTR [rsp+32]
	lea	rcx, OFFSET FLAT:__A0704DDA_type_vec4.inl
	call	__CheckForDebuggerJustMyCode

; 433  : 		return (*this = detail::compute_vec4_div<T, P, detail::is_aligned<P>::value>::call(*this, tvec4<T, P>(scalar)));

	mov	rax, QWORD PTR scalar$[rbp]
	cvtsi2ss xmm0, rax
	test	rax, rax
	jge	SHORT $LN3@operator
	addss	xmm0, DWORD PTR __real@5f800000
$LN3@operator:
	movaps	xmm1, xmm0
	lea	rcx, QWORD PTR $T1[rbp]
	call	??0?$tvec4@M$0A@@glm@@QEAA@M@Z		; glm::tvec4<float,0>::tvec4<float,0>
	mov	r8, rax
	mov	rdx, QWORD PTR this$[rbp]
	lea	rcx, QWORD PTR $T2[rbp]
	call	?call@?$compute_vec4_div@M$0A@$0A@@detail@glm@@SA?AU?$tvec4@M$0A@@3@AEBU43@0@Z ; glm::detail::compute_vec4_div<float,0,0>::call
	mov	rdi, QWORD PTR this$[rbp]
	mov	rsi, rax
	mov	ecx, 16
	rep movsb
	mov	rax, QWORD PTR this$[rbp]

; 434  : 	}

	lea	rsp, QWORD PTR [rbp+96]
	pop	rdi
	pop	rsi
	pop	rbp
	ret	0
??$?_0_K@?$tvec4@M$0A@@glm@@QEAAAEAU01@_K@Z ENDP	; glm::tvec4<float,0>::operator/=<unsigned __int64>
_TEXT	ENDS
; Function compile flags: /Odtp /RTCu /ZI
; File l:\dev\featherfallengine\depends\install\include\glm\detail\type_vec4.inl
;	COMDAT ??$?YM@?$tvec4@M$0A@@glm@@QEAAAEAU01@AEBU01@@Z
_TEXT	SEGMENT
$T1 = 64
$T2 = 80
this$ = 128
v$ = 136
??$?YM@?$tvec4@M$0A@@glm@@QEAAAEAU01@AEBU01@@Z PROC	; glm::tvec4<float,0>::operator+=<float>, COMDAT

; 383  : 	{

$LN3:
	mov	QWORD PTR [rsp+16], rdx
	mov	QWORD PTR [rsp+8], rcx
	push	rbp
	push	rsi
	push	rdi
	sub	rsp, 128				; 00000080H
	lea	rbp, QWORD PTR [rsp+32]
	lea	rcx, OFFSET FLAT:__A0704DDA_type_vec4.inl
	call	__CheckForDebuggerJustMyCode

; 384  : 		return (*this = detail::compute_vec4_add<T, P, detail::is_aligned<P>::value>::call(*this, tvec4<T, P>(v)));

	lea	rax, QWORD PTR $T1[rbp]
	mov	rdi, rax
	mov	rsi, QWORD PTR v$[rbp]
	mov	ecx, 16
	rep movsb
	lea	r8, QWORD PTR $T1[rbp]
	mov	rdx, QWORD PTR this$[rbp]
	lea	rcx, QWORD PTR $T2[rbp]
	call	?call@?$compute_vec4_add@M$0A@$0A@@detail@glm@@SA?AU?$tvec4@M$0A@@3@AEBU43@0@Z ; glm::detail::compute_vec4_add<float,0,0>::call
	mov	rdi, QWORD PTR this$[rbp]
	mov	rsi, rax
	mov	ecx, 16
	rep movsb
	mov	rax, QWORD PTR this$[rbp]

; 385  : 	}

	lea	rsp, QWORD PTR [rbp+96]
	pop	rdi
	pop	rsi
	pop	rbp
	ret	0
??$?YM@?$tvec4@M$0A@@glm@@QEAAAEAU01@AEBU01@@Z ENDP	; glm::tvec4<float,0>::operator+=<float>
_TEXT	ENDS
; Function compile flags: /Odtp /RTCu /ZI
; File l:\dev\featherfallengine\depends\install\include\glm\detail\type_vec3.inl
;	COMDAT ??$?XH@?$tvec3@M$0A@@glm@@QEAAAEAU01@H@Z
_TEXT	SEGMENT
this$ = 80
scalar$ = 88
??$?XH@?$tvec3@M$0A@@glm@@QEAAAEAU01@H@Z PROC		; glm::tvec3<float,0>::operator*=<int>, COMDAT

; 242  : 	{

$LN3:
	mov	DWORD PTR [rsp+16], edx
	mov	QWORD PTR [rsp+8], rcx
	push	rbp
	sub	rsp, 96					; 00000060H
	lea	rbp, QWORD PTR [rsp+32]
	lea	rcx, OFFSET FLAT:__125091CA_type_vec3.inl
	call	__CheckForDebuggerJustMyCode

; 243  : 		this->x *= static_cast<T>(scalar);

	cvtsi2ss xmm0, DWORD PTR scalar$[rbp]
	mov	rax, QWORD PTR this$[rbp]
	movss	xmm1, DWORD PTR [rax]
	mulss	xmm1, xmm0
	movaps	xmm0, xmm1
	mov	rax, QWORD PTR this$[rbp]
	movss	DWORD PTR [rax], xmm0

; 244  : 		this->y *= static_cast<T>(scalar);

	cvtsi2ss xmm0, DWORD PTR scalar$[rbp]
	mov	rax, QWORD PTR this$[rbp]
	movss	xmm1, DWORD PTR [rax+4]
	mulss	xmm1, xmm0
	movaps	xmm0, xmm1
	mov	rax, QWORD PTR this$[rbp]
	movss	DWORD PTR [rax+4], xmm0

; 245  : 		this->z *= static_cast<T>(scalar);

	cvtsi2ss xmm0, DWORD PTR scalar$[rbp]
	mov	rax, QWORD PTR this$[rbp]
	movss	xmm1, DWORD PTR [rax+8]
	mulss	xmm1, xmm0
	movaps	xmm0, xmm1
	mov	rax, QWORD PTR this$[rbp]
	movss	DWORD PTR [rax+8], xmm0

; 246  : 		return *this;

	mov	rax, QWORD PTR this$[rbp]

; 247  : 	}

	lea	rsp, QWORD PTR [rbp+64]
	pop	rbp
	ret	0
??$?XH@?$tvec3@M$0A@@glm@@QEAAAEAU01@H@Z ENDP		; glm::tvec3<float,0>::operator*=<int>
_TEXT	ENDS
; Function compile flags: /Odtp /RTCu /ZI
; File l:\dev\featherfallengine\depends\install\include\glm\detail\type_vec3.inl
;	COMDAT ??$?YM@?$tvec3@M$0A@@glm@@QEAAAEAU01@AEBU01@@Z
_TEXT	SEGMENT
this$ = 80
v$ = 88
??$?YM@?$tvec3@M$0A@@glm@@QEAAAEAU01@AEBU01@@Z PROC	; glm::tvec3<float,0>::operator+=<float>, COMDAT

; 202  : 	{

$LN3:
	mov	QWORD PTR [rsp+16], rdx
	mov	QWORD PTR [rsp+8], rcx
	push	rbp
	sub	rsp, 96					; 00000060H
	lea	rbp, QWORD PTR [rsp+32]
	lea	rcx, OFFSET FLAT:__125091CA_type_vec3.inl
	call	__CheckForDebuggerJustMyCode

; 203  : 		this->x += static_cast<T>(v.x);

	mov	rax, QWORD PTR this$[rbp]
	mov	rcx, QWORD PTR v$[rbp]
	movss	xmm0, DWORD PTR [rax]
	addss	xmm0, DWORD PTR [rcx]
	mov	rax, QWORD PTR this$[rbp]
	movss	DWORD PTR [rax], xmm0

; 204  : 		this->y += static_cast<T>(v.y);

	mov	rax, QWORD PTR this$[rbp]
	mov	rcx, QWORD PTR v$[rbp]
	movss	xmm0, DWORD PTR [rax+4]
	addss	xmm0, DWORD PTR [rcx+4]
	mov	rax, QWORD PTR this$[rbp]
	movss	DWORD PTR [rax+4], xmm0

; 205  : 		this->z += static_cast<T>(v.z);

	mov	rax, QWORD PTR this$[rbp]
	mov	rcx, QWORD PTR v$[rbp]
	movss	xmm0, DWORD PTR [rax+8]
	addss	xmm0, DWORD PTR [rcx+8]
	mov	rax, QWORD PTR this$[rbp]
	movss	DWORD PTR [rax+8], xmm0

; 206  : 		return *this;

	mov	rax, QWORD PTR this$[rbp]

; 207  : 	}

	lea	rsp, QWORD PTR [rbp+64]
	pop	rbp
	ret	0
??$?YM@?$tvec3@M$0A@@glm@@QEAAAEAU01@AEBU01@@Z ENDP	; glm::tvec3<float,0>::operator+=<float>
_TEXT	ENDS
; Function compile flags: /Odtp /RTCu /ZI
; File l:\dev\featherfallengine\depends\install\include\glm\detail\type_vec3.inl
;	COMDAT ??$?_0M@?$tvec3@M$0A@@glm@@QEAAAEAU01@M@Z
_TEXT	SEGMENT
this$ = 80
v$ = 88
??$?_0M@?$tvec3@M$0A@@glm@@QEAAAEAU01@M@Z PROC		; glm::tvec3<float,0>::operator/=<float>, COMDAT

; 272  : 	{

$LN3:
	movss	DWORD PTR [rsp+16], xmm1
	mov	QWORD PTR [rsp+8], rcx
	push	rbp
	sub	rsp, 96					; 00000060H
	lea	rbp, QWORD PTR [rsp+32]
	lea	rcx, OFFSET FLAT:__125091CA_type_vec3.inl
	call	__CheckForDebuggerJustMyCode

; 273  : 		this->x /= static_cast<T>(v);

	mov	rax, QWORD PTR this$[rbp]
	movss	xmm0, DWORD PTR [rax]
	divss	xmm0, DWORD PTR v$[rbp]
	mov	rax, QWORD PTR this$[rbp]
	movss	DWORD PTR [rax], xmm0

; 274  : 		this->y /= static_cast<T>(v);

	mov	rax, QWORD PTR this$[rbp]
	movss	xmm0, DWORD PTR [rax+4]
	divss	xmm0, DWORD PTR v$[rbp]
	mov	rax, QWORD PTR this$[rbp]
	movss	DWORD PTR [rax+4], xmm0

; 275  : 		this->z /= static_cast<T>(v);

	mov	rax, QWORD PTR this$[rbp]
	movss	xmm0, DWORD PTR [rax+8]
	divss	xmm0, DWORD PTR v$[rbp]
	mov	rax, QWORD PTR this$[rbp]
	movss	DWORD PTR [rax+8], xmm0

; 276  : 		return *this;

	mov	rax, QWORD PTR this$[rbp]

; 277  : 	}

	lea	rsp, QWORD PTR [rbp+64]
	pop	rbp
	ret	0
??$?_0M@?$tvec3@M$0A@@glm@@QEAAAEAU01@M@Z ENDP		; glm::tvec3<float,0>::operator/=<float>
_TEXT	ENDS
; Function compile flags: /Odtp /RTCu /ZI
; File l:\dev\featherfallengine\depends\install\include\glm\detail\func_geometric.inl
;	COMDAT ??$length@M$0A@Utvec3@glm@@@glm@@YAMAEBU?$tvec3@M$0A@@0@@Z
_TEXT	SEGMENT
v$ = 80
??$length@M$0A@Utvec3@glm@@@glm@@YAMAEBU?$tvec3@M$0A@@0@@Z PROC ; glm::length<float,0,glm::tvec3>, COMDAT

; 141  : 	{

$LN3:
	mov	QWORD PTR [rsp+8], rcx
	push	rbp
	sub	rsp, 96					; 00000060H
	lea	rbp, QWORD PTR [rsp+32]
	lea	rcx, OFFSET FLAT:__01BEA0FA_func_geometric.inl
	call	__CheckForDebuggerJustMyCode

; 142  : 		GLM_STATIC_ASSERT(std::numeric_limits<T>::is_iec559, "'length' accepts only floating-point inputs");
; 143  : 
; 144  : 		return detail::compute_length<vecType, T, P, detail::is_aligned<P>::value>::call(v);

	mov	rcx, QWORD PTR v$[rbp]
	call	?call@?$compute_length@Utvec3@glm@@M$0A@$0A@@detail@glm@@SAMAEBU?$tvec3@M$0A@@3@@Z ; glm::detail::compute_length<glm::tvec3,float,0,0>::call

; 145  : 	}

	lea	rsp, QWORD PTR [rbp+64]
	pop	rbp
	ret	0
??$length@M$0A@Utvec3@glm@@@glm@@YAMAEBU?$tvec3@M$0A@@0@@Z ENDP ; glm::length<float,0,glm::tvec3>
_TEXT	ENDS
; Function compile flags: /Odtp /RTCu /ZI
; File l:\dev\featherfallengine\depends\install\include\glm\detail\type_vec3.inl
;	COMDAT ??$?0M$0A@@?$tvec3@M$0A@@glm@@QEAA@AEBU?$tvec4@M$0A@@1@@Z
_TEXT	SEGMENT
this$ = 80
v$ = 88
??$?0M$0A@@?$tvec3@M$0A@@glm@@QEAA@AEBU?$tvec4@M$0A@@1@@Z PROC ; glm::tvec3<float,0>::tvec3<float,0><float,0>, COMDAT

; 138  : 	{}

$LN3:
	mov	QWORD PTR [rsp+16], rdx
	mov	QWORD PTR [rsp+8], rcx
	push	rbp
	sub	rsp, 96					; 00000060H
	lea	rbp, QWORD PTR [rsp+32]
	lea	rcx, OFFSET FLAT:__125091CA_type_vec3.inl
	call	__CheckForDebuggerJustMyCode

; 135  : 		x(static_cast<T>(v.x)),

	mov	rax, QWORD PTR this$[rbp]
	mov	rcx, QWORD PTR v$[rbp]
	movss	xmm0, DWORD PTR [rcx]
	movss	DWORD PTR [rax], xmm0

; 136  : 		y(static_cast<T>(v.y)),

	mov	rax, QWORD PTR this$[rbp]
	mov	rcx, QWORD PTR v$[rbp]
	movss	xmm0, DWORD PTR [rcx+4]
	movss	DWORD PTR [rax+4], xmm0

; 137  : 		z(static_cast<T>(v.z))

	mov	rax, QWORD PTR this$[rbp]
	mov	rcx, QWORD PTR v$[rbp]
	movss	xmm0, DWORD PTR [rcx+8]
	movss	DWORD PTR [rax+8], xmm0

; 138  : 	{}

	mov	rax, QWORD PTR this$[rbp]
	lea	rsp, QWORD PTR [rbp+64]
	pop	rbp
	ret	0
??$?0M$0A@@?$tvec3@M$0A@@glm@@QEAA@AEBU?$tvec4@M$0A@@1@@Z ENDP ; glm::tvec3<float,0>::tvec3<float,0><float,0>
_TEXT	ENDS
; Function compile flags: /Odtp /RTCu /ZI
; File l:\dev\featherfallengine\depends\install\include\glm\detail\func_geometric.inl
;	COMDAT ??$length@M$0A@Utvec4@glm@@@glm@@YAMAEBU?$tvec4@M$0A@@0@@Z
_TEXT	SEGMENT
v$ = 80
??$length@M$0A@Utvec4@glm@@@glm@@YAMAEBU?$tvec4@M$0A@@0@@Z PROC ; glm::length<float,0,glm::tvec4>, COMDAT

; 141  : 	{

$LN3:
	mov	QWORD PTR [rsp+8], rcx
	push	rbp
	sub	rsp, 96					; 00000060H
	lea	rbp, QWORD PTR [rsp+32]
	lea	rcx, OFFSET FLAT:__01BEA0FA_func_geometric.inl
	call	__CheckForDebuggerJustMyCode

; 142  : 		GLM_STATIC_ASSERT(std::numeric_limits<T>::is_iec559, "'length' accepts only floating-point inputs");
; 143  : 
; 144  : 		return detail::compute_length<vecType, T, P, detail::is_aligned<P>::value>::call(v);

	mov	rcx, QWORD PTR v$[rbp]
	call	?call@?$compute_length@Utvec4@glm@@M$0A@$0A@@detail@glm@@SAMAEBU?$tvec4@M$0A@@3@@Z ; glm::detail::compute_length<glm::tvec4,float,0,0>::call

; 145  : 	}

	lea	rsp, QWORD PTR [rbp+64]
	pop	rbp
	ret	0
??$length@M$0A@Utvec4@glm@@@glm@@YAMAEBU?$tvec4@M$0A@@0@@Z ENDP ; glm::length<float,0,glm::tvec4>
_TEXT	ENDS
; Function compile flags: /Odtp /RTCu /ZI
; File l:\dev\featherfallengine\depends\install\include\glm\detail\type_vec4.inl
;	COMDAT ??$?GM$0A@@glm@@YA?AU?$tvec4@M$0A@@0@AEBU10@0@Z
_TEXT	SEGMENT
$T1 = 64
__$ReturnUdt$ = 112
v1$ = 120
v2$ = 128
??$?GM$0A@@glm@@YA?AU?$tvec4@M$0A@@0@AEBU10@0@Z PROC	; glm::operator-<float,0>, COMDAT

; 688  : 	{

$LN3:
	mov	QWORD PTR [rsp+24], r8
	mov	QWORD PTR [rsp+16], rdx
	mov	QWORD PTR [rsp+8], rcx
	push	rbp
	push	rsi
	push	rdi
	sub	rsp, 112				; 00000070H
	lea	rbp, QWORD PTR [rsp+32]
	lea	rcx, OFFSET FLAT:__A0704DDA_type_vec4.inl
	call	__CheckForDebuggerJustMyCode

; 689  : 		return tvec4<T, P>(v1) -= v2;

	lea	rax, QWORD PTR $T1[rbp]
	mov	rdi, rax
	mov	rsi, QWORD PTR v1$[rbp]
	mov	ecx, 16
	rep movsb
	mov	rdx, QWORD PTR v2$[rbp]
	lea	rcx, QWORD PTR $T1[rbp]
	call	??$?ZM@?$tvec4@M$0A@@glm@@QEAAAEAU01@AEBU01@@Z ; glm::tvec4<float,0>::operator-=<float>
	mov	rdi, QWORD PTR __$ReturnUdt$[rbp]
	mov	rsi, rax
	mov	ecx, 16
	rep movsb
	mov	rax, QWORD PTR __$ReturnUdt$[rbp]

; 690  : 	}

	lea	rsp, QWORD PTR [rbp+80]
	pop	rdi
	pop	rsi
	pop	rbp
	ret	0
??$?GM$0A@@glm@@YA?AU?$tvec4@M$0A@@0@AEBU10@0@Z ENDP	; glm::operator-<float,0>
_TEXT	ENDS
; Function compile flags: /Odtp /RTCu /ZI
; File l:\dev\featherfallengine\depends\install\include\glm\detail\type_vec2.inl
;	COMDAT ??$?_0M@?$tvec2@M$0A@@glm@@QEAAAEAU01@M@Z
_TEXT	SEGMENT
this$ = 80
scalar$ = 88
??$?_0M@?$tvec2@M$0A@@glm@@QEAAAEAU01@M@Z PROC		; glm::tvec2<float,0>::operator/=<float>, COMDAT

; 219  : 	{

$LN3:
	movss	DWORD PTR [rsp+16], xmm1
	mov	QWORD PTR [rsp+8], rcx
	push	rbp
	sub	rsp, 96					; 00000060H
	lea	rbp, QWORD PTR [rsp+32]
	lea	rcx, OFFSET FLAT:__2F30B87A_type_vec2.inl
	call	__CheckForDebuggerJustMyCode

; 220  : 		this->x /= static_cast<T>(scalar);

	mov	rax, QWORD PTR this$[rbp]
	movss	xmm0, DWORD PTR [rax]
	divss	xmm0, DWORD PTR scalar$[rbp]
	mov	rax, QWORD PTR this$[rbp]
	movss	DWORD PTR [rax], xmm0

; 221  : 		this->y /= static_cast<T>(scalar);

	mov	rax, QWORD PTR this$[rbp]
	movss	xmm0, DWORD PTR [rax+4]
	divss	xmm0, DWORD PTR scalar$[rbp]
	mov	rax, QWORD PTR this$[rbp]
	movss	DWORD PTR [rax+4], xmm0

; 222  : 		return *this;

	mov	rax, QWORD PTR this$[rbp]

; 223  : 	}

	lea	rsp, QWORD PTR [rbp+64]
	pop	rbp
	ret	0
??$?_0M@?$tvec2@M$0A@@glm@@QEAAAEAU01@M@Z ENDP		; glm::tvec2<float,0>::operator/=<float>
_TEXT	ENDS
; Function compile flags: /Odtp /RTCu /ZI
; File l:\dev\featherfallengine\depends\install\include\glm\detail\func_geometric.inl
;	COMDAT ??$length@M$0A@Utvec2@glm@@@glm@@YAMAEBU?$tvec2@M$0A@@0@@Z
_TEXT	SEGMENT
v$ = 80
??$length@M$0A@Utvec2@glm@@@glm@@YAMAEBU?$tvec2@M$0A@@0@@Z PROC ; glm::length<float,0,glm::tvec2>, COMDAT

; 141  : 	{

$LN3:
	mov	QWORD PTR [rsp+8], rcx
	push	rbp
	sub	rsp, 96					; 00000060H
	lea	rbp, QWORD PTR [rsp+32]
	lea	rcx, OFFSET FLAT:__01BEA0FA_func_geometric.inl
	call	__CheckForDebuggerJustMyCode

; 142  : 		GLM_STATIC_ASSERT(std::numeric_limits<T>::is_iec559, "'length' accepts only floating-point inputs");
; 143  : 
; 144  : 		return detail::compute_length<vecType, T, P, detail::is_aligned<P>::value>::call(v);

	mov	rcx, QWORD PTR v$[rbp]
	call	?call@?$compute_length@Utvec2@glm@@M$0A@$0A@@detail@glm@@SAMAEBU?$tvec2@M$0A@@3@@Z ; glm::detail::compute_length<glm::tvec2,float,0,0>::call

; 145  : 	}

	lea	rsp, QWORD PTR [rbp+64]
	pop	rbp
	ret	0
??$length@M$0A@Utvec2@glm@@@glm@@YAMAEBU?$tvec2@M$0A@@0@@Z ENDP ; glm::length<float,0,glm::tvec2>
_TEXT	ENDS
; Function compile flags: /Odtp /RTCu /ZI
; File l:\dev\featherfallengine\depends\install\include\glm\detail\type_vec2.inl
;	COMDAT ??$?YM@?$tvec2@M$0A@@glm@@QEAAAEAU01@AEBU01@@Z
_TEXT	SEGMENT
this$ = 80
v$ = 88
??$?YM@?$tvec2@M$0A@@glm@@QEAAAEAU01@AEBU01@@Z PROC	; glm::tvec2<float,0>::operator+=<float>, COMDAT

; 156  : 	{

$LN3:
	mov	QWORD PTR [rsp+16], rdx
	mov	QWORD PTR [rsp+8], rcx
	push	rbp
	sub	rsp, 96					; 00000060H
	lea	rbp, QWORD PTR [rsp+32]
	lea	rcx, OFFSET FLAT:__2F30B87A_type_vec2.inl
	call	__CheckForDebuggerJustMyCode

; 157  : 		this->x += static_cast<T>(v.x);

	mov	rax, QWORD PTR this$[rbp]
	mov	rcx, QWORD PTR v$[rbp]
	movss	xmm0, DWORD PTR [rax]
	addss	xmm0, DWORD PTR [rcx]
	mov	rax, QWORD PTR this$[rbp]
	movss	DWORD PTR [rax], xmm0

; 158  : 		this->y += static_cast<T>(v.y);

	mov	rax, QWORD PTR this$[rbp]
	mov	rcx, QWORD PTR v$[rbp]
	movss	xmm0, DWORD PTR [rax+4]
	addss	xmm0, DWORD PTR [rcx+4]
	mov	rax, QWORD PTR this$[rbp]
	movss	DWORD PTR [rax+4], xmm0

; 159  : 		return *this;

	mov	rax, QWORD PTR this$[rbp]

; 160  : 	}

	lea	rsp, QWORD PTR [rbp+64]
	pop	rbp
	ret	0
??$?YM@?$tvec2@M$0A@@glm@@QEAAAEAU01@AEBU01@@Z ENDP	; glm::tvec2<float,0>::operator+=<float>
_TEXT	ENDS
; Function compile flags: /Odtp /RTCu /ZI
;	COMDAT ??_GBoid@0Application@@UEAAPEAXI@Z
_TEXT	SEGMENT
this$ = 80
__flags$ = 88
??_GBoid@0Application@@UEAAPEAXI@Z PROC			; Application::Boid::Boid::`scalar deleting destructor', COMDAT
$LN4:
	mov	DWORD PTR [rsp+16], edx
	mov	QWORD PTR [rsp+8], rcx
	push	rbp
	sub	rsp, 96					; 00000060H
	lea	rbp, QWORD PTR [rsp+32]
	mov	rcx, QWORD PTR this$[rbp]
	call	??1Boid@0Application@@UEAA@XZ		; Application::Boid::Boid::~Boid
	mov	eax, DWORD PTR __flags$[rbp]
	and	eax, 1
	test	eax, eax
	je	SHORT $LN2@scalar
	mov	edx, 88					; 00000058H
	mov	rcx, QWORD PTR this$[rbp]
	call	??3@YAXPEAX_K@Z				; operator delete
$LN2@scalar:
	mov	rax, QWORD PTR this$[rbp]
	lea	rsp, QWORD PTR [rbp+64]
	pop	rbp
	ret	0
??_GBoid@0Application@@UEAAPEAXI@Z ENDP			; Application::Boid::Boid::`scalar deleting destructor'
_TEXT	ENDS
; Function compile flags: /Odtp /RTCu /ZI
; File l:\dev\featherfallengine\featherfall-examples\src\boids\boid.cpp
;	COMDAT ?inRadius@Boid@1Application@@AEBA_NPEBV112@@Z
_TEXT	SEGMENT
xcheck$ = 0
ycheck$ = 4
radius$ = 8
tv152 = 76
this$ = 96
boid$ = 104
?inRadius@Boid@1Application@@AEBA_NPEBV112@@Z PROC	; Application::Boid::Boid::inRadius, COMDAT

; 132  : 	bool Boid::inRadius(const Boid* boid) const {

$LN5:
	mov	QWORD PTR [rsp+16], rdx
	mov	QWORD PTR [rsp+8], rcx
	push	rbp
	sub	rsp, 112				; 00000070H
	lea	rbp, QWORD PTR [rsp+32]
	lea	rcx, OFFSET FLAT:__62129A41_boid.cpp
	call	__CheckForDebuggerJustMyCode

; 133  : 		float xcheck = (boid->position.x - this->position.x) * (boid->position.x - this->position.x);

	mov	rax, QWORD PTR boid$[rbp]
	mov	rcx, QWORD PTR this$[rbp]
	movss	xmm0, DWORD PTR [rax+8]
	subss	xmm0, DWORD PTR [rcx+8]
	mov	rax, QWORD PTR boid$[rbp]
	mov	rcx, QWORD PTR this$[rbp]
	movss	xmm1, DWORD PTR [rax+8]
	subss	xmm1, DWORD PTR [rcx+8]
	mulss	xmm0, xmm1
	movss	DWORD PTR xcheck$[rbp], xmm0

; 134  : 		float ycheck = (boid->position.y - this->position.y) * (boid->position.y - this->position.y);

	mov	rax, QWORD PTR boid$[rbp]
	mov	rcx, QWORD PTR this$[rbp]
	movss	xmm0, DWORD PTR [rax+12]
	subss	xmm0, DWORD PTR [rcx+12]
	mov	rax, QWORD PTR boid$[rbp]
	mov	rcx, QWORD PTR this$[rbp]
	movss	xmm1, DWORD PTR [rax+12]
	subss	xmm1, DWORD PTR [rcx+12]
	mulss	xmm0, xmm1
	movss	DWORD PTR ycheck$[rbp], xmm0

; 135  : 		float radius = FLOCK_RADIUS * FLOCK_RADIUS;

	movss	xmm0, DWORD PTR __real@3f800000
	movss	DWORD PTR radius$[rbp], xmm0

; 136  : 
; 137  : 		//euclidian dist x^2 + y^2 = z^2 to check for point in circle
; 138  : 		return (xcheck + ycheck < radius);

	movss	xmm0, DWORD PTR xcheck$[rbp]
	addss	xmm0, DWORD PTR ycheck$[rbp]
	movss	xmm1, DWORD PTR radius$[rbp]
	comiss	xmm1, xmm0
	jbe	SHORT $LN3@inRadius
	mov	DWORD PTR tv152[rbp], 1
	jmp	SHORT $LN4@inRadius
$LN3@inRadius:
	mov	DWORD PTR tv152[rbp], 0
$LN4@inRadius:
	movzx	eax, BYTE PTR tv152[rbp]

; 139  : 	}

	lea	rsp, QWORD PTR [rbp+80]
	pop	rbp
	ret	0
?inRadius@Boid@1Application@@AEBA_NPEBV112@@Z ENDP	; Application::Boid::Boid::inRadius
_TEXT	ENDS
; Function compile flags: /Odtp /RTCu /ZI
; File l:\dev\featherfallengine\featherfall-examples\src\boids\boid.cpp
;	COMDAT ?updateSteer@Boid@1Application@@QEAAXXZ
_TEXT	SEGMENT
output$ = 0
sep$ = 16
i$1 = 32
dist$2 = 36
diff$3 = 40
ali$ = 56
i$4 = 72
coh$ = 80
i$5 = 96
mtk$ = 104
avo$ = 120
$T6 = 200
$T7 = 216
$T8 = 232
$T9 = 244
$T10 = 260
$T11 = 272
$T12 = 288
$T13 = 304
$T14 = 312
$T15 = 320
$T16 = 328
$T17 = 336
$T18 = 344
tv412 = 352
tv344 = 352
tv248 = 352
tv204 = 352
tv168 = 352
tv135 = 352
tv80 = 352
tv73 = 352
tv186 = 360
tv145 = 360
tv90 = 360
__$ArrayPad$ = 368
this$ = 416
?updateSteer@Boid@1Application@@QEAAXXZ PROC		; Application::Boid::Boid::updateSteer, COMDAT

; 67   : 	void Boid::updateSteer() {

$LN19:
	mov	QWORD PTR [rsp+8], rcx
	push	rbp
	push	rsi
	push	rdi
	sub	rsp, 432				; 000001b0H
	lea	rbp, QWORD PTR [rsp+48]
	mov	rax, QWORD PTR __security_cookie
	xor	rax, rbp
	mov	QWORD PTR __$ArrayPad$[rbp], rax
	lea	rcx, OFFSET FLAT:__62129A41_boid.cpp
	call	__CheckForDebuggerJustMyCode

; 68   : 
; 69   : 		glm::vec3 output = glm::vec3(0.0f, 0.0f, 0.0f);

	xorps	xmm3, xmm3
	xorps	xmm2, xmm2
	xorps	xmm1, xmm1
	lea	rcx, QWORD PTR output$[rbp]
	call	??0?$tvec3@M$0A@@glm@@QEAA@MMM@Z	; glm::tvec3<float,0>::tvec3<float,0>

; 70   : 
; 71   : 		//RULE Separation
; 72   : 		glm::vec3 sep = glm::vec3(0.0f, 0.0f, 0.0f);

	xorps	xmm3, xmm3
	xorps	xmm2, xmm2
	xorps	xmm1, xmm1
	lea	rcx, QWORD PTR sep$[rbp]
	call	??0?$tvec3@M$0A@@glm@@QEAA@MMM@Z	; glm::tvec3<float,0>::tvec3<float,0>

; 73   : 		for (int i = 0; i < flockMates.size(); ++i) {

	mov	DWORD PTR i$1[rbp], 0
	jmp	SHORT $LN4@updateStee
$LN2@updateStee:
	mov	eax, DWORD PTR i$1[rbp]
	inc	eax
	mov	DWORD PTR i$1[rbp], eax
$LN4@updateStee:
	movsxd	rax, DWORD PTR i$1[rbp]
	mov	QWORD PTR tv73[rbp], rax
	mov	rcx, QWORD PTR this$[rbp]
	add	rcx, 56					; 00000038H
	call	?size@?$vector@PEAVBoid@1Application@@V?$allocator@PEAVBoid@1Application@@@std@@@std@@QEBA_KXZ ; std::vector<Application::Boid::Boid *,std::allocator<Application::Boid::Boid *> >::size
	mov	rcx, QWORD PTR tv73[rbp]
	cmp	rcx, rax
	jae	$LN3@updateStee

; 74   : 			float dist = glm::length(flockMates[i]->position - position);

	mov	rax, QWORD PTR this$[rbp]
	add	rax, 8
	mov	QWORD PTR tv80[rbp], rax
	movsxd	rcx, DWORD PTR i$1[rbp]
	mov	rdx, QWORD PTR this$[rbp]
	add	rdx, 56					; 00000038H
	mov	QWORD PTR tv90[rbp], rdx
	mov	rdx, rcx
	mov	rcx, QWORD PTR tv90[rbp]
	call	??A?$vector@PEAVBoid@1Application@@V?$allocator@PEAVBoid@1Application@@@std@@@std@@QEAAAEAPEAVBoid@2Application@@_K@Z ; std::vector<Application::Boid::Boid *,std::allocator<Application::Boid::Boid *> >::operator[]
	mov	rax, QWORD PTR [rax]
	add	rax, 8
	mov	rcx, QWORD PTR tv80[rbp]
	mov	r8, rcx
	mov	rdx, rax
	lea	rcx, QWORD PTR $T6[rbp]
	call	??$?GM$0A@@glm@@YA?AU?$tvec4@M$0A@@0@AEBU10@0@Z ; glm::operator-<float,0>
	mov	rcx, rax
	call	??$length@M$0A@Utvec4@glm@@@glm@@YAMAEBU?$tvec4@M$0A@@0@@Z ; glm::length<float,0,glm::tvec4>
	movss	DWORD PTR dist$2[rbp], xmm0

; 75   : 				if (dist < CROWD_DIST) {

	movss	xmm0, DWORD PTR __real@3e19999a
	comiss	xmm0, DWORD PTR dist$2[rbp]
	jbe	$LN11@updateStee

; 76   : 					glm::vec3 diff = flockMates[i]->position - position;

	mov	rax, QWORD PTR this$[rbp]
	add	rax, 8
	mov	QWORD PTR tv135[rbp], rax
	movsxd	rcx, DWORD PTR i$1[rbp]
	mov	rdx, QWORD PTR this$[rbp]
	add	rdx, 56					; 00000038H
	mov	QWORD PTR tv145[rbp], rdx
	mov	rdx, rcx
	mov	rcx, QWORD PTR tv145[rbp]
	call	??A?$vector@PEAVBoid@1Application@@V?$allocator@PEAVBoid@1Application@@@std@@@std@@QEAAAEAPEAVBoid@2Application@@_K@Z ; std::vector<Application::Boid::Boid *,std::allocator<Application::Boid::Boid *> >::operator[]
	mov	rax, QWORD PTR [rax]
	add	rax, 8
	mov	rcx, QWORD PTR tv135[rbp]
	mov	r8, rcx
	mov	rdx, rax
	lea	rcx, QWORD PTR $T7[rbp]
	call	??$?GM$0A@@glm@@YA?AU?$tvec4@M$0A@@0@AEBU10@0@Z ; glm::operator-<float,0>
	mov	rdx, rax
	lea	rcx, QWORD PTR diff$3[rbp]
	call	??$?0M$0A@@?$tvec3@M$0A@@glm@@QEAA@AEBU?$tvec4@M$0A@@1@@Z ; glm::tvec3<float,0>::tvec3<float,0><float,0>

; 77   : 					diff /= glm::length(diff);

	lea	rcx, QWORD PTR diff$3[rbp]
	call	??$length@M$0A@Utvec3@glm@@@glm@@YAMAEBU?$tvec3@M$0A@@0@@Z ; glm::length<float,0,glm::tvec3>
	movaps	xmm1, xmm0
	lea	rcx, QWORD PTR diff$3[rbp]
	call	??$?_0M@?$tvec3@M$0A@@glm@@QEAAAEAU01@M@Z ; glm::tvec3<float,0>::operator/=<float>

; 78   : 					diff /= dist; //weight

	movss	xmm1, DWORD PTR dist$2[rbp]
	lea	rcx, QWORD PTR diff$3[rbp]
	call	??$?_0M@?$tvec3@M$0A@@glm@@QEAAAEAU01@M@Z ; glm::tvec3<float,0>::operator/=<float>

; 79   : 					sep += diff;

	lea	rdx, QWORD PTR diff$3[rbp]
	lea	rcx, QWORD PTR sep$[rbp]
	call	??$?YM@?$tvec3@M$0A@@glm@@QEAAAEAU01@AEBU01@@Z ; glm::tvec3<float,0>::operator+=<float>
$LN11@updateStee:

; 80   : 				}
; 81   : 		}

	jmp	$LN2@updateStee
$LN3@updateStee:

; 82   : 		//sep /= glm::length(sep) * 10; //do i want this normalized??
; 83   : 		sep *= -1;

	mov	edx, -1
	lea	rcx, QWORD PTR sep$[rbp]
	call	??$?XH@?$tvec3@M$0A@@glm@@QEAAAEAU01@H@Z ; glm::tvec3<float,0>::operator*=<int>

; 84   : 
; 85   : 		//RULE Alignment
; 86   : 		glm::vec3 ali = glm::vec3(0.0f, 0.0f, 0.0f);

	xorps	xmm3, xmm3
	xorps	xmm2, xmm2
	xorps	xmm1, xmm1
	lea	rcx, QWORD PTR ali$[rbp]
	call	??0?$tvec3@M$0A@@glm@@QEAA@MMM@Z	; glm::tvec3<float,0>::tvec3<float,0>

; 87   : 		for (int i = 0; i < flockMates.size(); ++i) {

	mov	DWORD PTR i$4[rbp], 0
	jmp	SHORT $LN7@updateStee
$LN5@updateStee:
	mov	eax, DWORD PTR i$4[rbp]
	inc	eax
	mov	DWORD PTR i$4[rbp], eax
$LN7@updateStee:
	movsxd	rax, DWORD PTR i$4[rbp]
	mov	QWORD PTR tv168[rbp], rax
	mov	rcx, QWORD PTR this$[rbp]
	add	rcx, 56					; 00000038H
	call	?size@?$vector@PEAVBoid@1Application@@V?$allocator@PEAVBoid@1Application@@@std@@@std@@QEBA_KXZ ; std::vector<Application::Boid::Boid *,std::allocator<Application::Boid::Boid *> >::size
	mov	rcx, QWORD PTR tv168[rbp]
	cmp	rcx, rax
	jae	$LN6@updateStee

; 88   : 			ali += glm::vec3(flockMates[i]->direction.x, flockMates[i]->direction.y, 0.0f);

	movsxd	rax, DWORD PTR i$4[rbp]
	mov	rcx, QWORD PTR this$[rbp]
	add	rcx, 56					; 00000038H
	mov	rdx, rax
	call	??A?$vector@PEAVBoid@1Application@@V?$allocator@PEAVBoid@1Application@@@std@@@std@@QEAAAEAPEAVBoid@2Application@@_K@Z ; std::vector<Application::Boid::Boid *,std::allocator<Application::Boid::Boid *> >::operator[]
	mov	rax, QWORD PTR [rax]
	mov	QWORD PTR tv412[rbp], rax
	movsxd	rcx, DWORD PTR i$4[rbp]
	mov	rdx, QWORD PTR this$[rbp]
	add	rdx, 56					; 00000038H
	mov	QWORD PTR tv186[rbp], rdx
	mov	rdx, rcx
	mov	rcx, QWORD PTR tv186[rbp]
	call	??A?$vector@PEAVBoid@1Application@@V?$allocator@PEAVBoid@1Application@@@std@@@std@@QEAAAEAPEAVBoid@2Application@@_K@Z ; std::vector<Application::Boid::Boid *,std::allocator<Application::Boid::Boid *> >::operator[]
	mov	rax, QWORD PTR [rax]
	xorps	xmm3, xmm3
	mov	rcx, QWORD PTR tv412[rbp]
	movss	xmm2, DWORD PTR [rcx+52]
	movss	xmm1, DWORD PTR [rax+48]
	lea	rcx, QWORD PTR $T8[rbp]
	call	??0?$tvec3@M$0A@@glm@@QEAA@MMM@Z	; glm::tvec3<float,0>::tvec3<float,0>
	mov	rdx, rax
	lea	rcx, QWORD PTR ali$[rbp]
	call	??$?YM@?$tvec3@M$0A@@glm@@QEAAAEAU01@AEBU01@@Z ; glm::tvec3<float,0>::operator+=<float>

; 89   : 			ali /= glm::length(ali);

	lea	rcx, QWORD PTR ali$[rbp]
	call	??$length@M$0A@Utvec3@glm@@@glm@@YAMAEBU?$tvec3@M$0A@@0@@Z ; glm::length<float,0,glm::tvec3>
	movaps	xmm1, xmm0
	lea	rcx, QWORD PTR ali$[rbp]
	call	??$?_0M@?$tvec3@M$0A@@glm@@QEAAAEAU01@M@Z ; glm::tvec3<float,0>::operator/=<float>

; 90   : 		}

	jmp	$LN5@updateStee
$LN6@updateStee:

; 91   : 		//ali /= glm::length(ali) * 10;
; 92   : 
; 93   : 		//RULE Cohesion
; 94   : 		glm::vec4 coh = glm::vec4(0.0f, 0.0f, 0.0f, 1.0f);

	movss	xmm0, DWORD PTR __real@3f800000
	movss	DWORD PTR [rsp+32], xmm0
	xorps	xmm3, xmm3
	xorps	xmm2, xmm2
	xorps	xmm1, xmm1
	lea	rcx, QWORD PTR coh$[rbp]
	call	??0?$tvec4@M$0A@@glm@@QEAA@MMMM@Z	; glm::tvec4<float,0>::tvec4<float,0>

; 95   : 		for (int i = 0; i < flockMates.size(); ++i) {

	mov	DWORD PTR i$5[rbp], 0
	jmp	SHORT $LN10@updateStee
$LN8@updateStee:
	mov	eax, DWORD PTR i$5[rbp]
	inc	eax
	mov	DWORD PTR i$5[rbp], eax
$LN10@updateStee:
	movsxd	rax, DWORD PTR i$5[rbp]
	mov	QWORD PTR tv204[rbp], rax
	mov	rcx, QWORD PTR this$[rbp]
	add	rcx, 56					; 00000038H
	call	?size@?$vector@PEAVBoid@1Application@@V?$allocator@PEAVBoid@1Application@@@std@@@std@@QEBA_KXZ ; std::vector<Application::Boid::Boid *,std::allocator<Application::Boid::Boid *> >::size
	mov	rcx, QWORD PTR tv204[rbp]
	cmp	rcx, rax
	jae	SHORT $LN9@updateStee

; 96   : 			coh += flockMates[i]->position;

	movsxd	rax, DWORD PTR i$5[rbp]
	mov	rcx, QWORD PTR this$[rbp]
	add	rcx, 56					; 00000038H
	mov	rdx, rax
	call	??A?$vector@PEAVBoid@1Application@@V?$allocator@PEAVBoid@1Application@@@std@@@std@@QEAAAEAPEAVBoid@2Application@@_K@Z ; std::vector<Application::Boid::Boid *,std::allocator<Application::Boid::Boid *> >::operator[]
	mov	rax, QWORD PTR [rax]
	add	rax, 8
	mov	rdx, rax
	lea	rcx, QWORD PTR coh$[rbp]
	call	??$?YM@?$tvec4@M$0A@@glm@@QEAAAEAU01@AEBU01@@Z ; glm::tvec4<float,0>::operator+=<float>

; 97   : 		}

	jmp	SHORT $LN8@updateStee
$LN9@updateStee:

; 98   : 		coh /= flockMates.size();

	mov	rax, QWORD PTR this$[rbp]
	add	rax, 56					; 00000038H
	mov	rcx, rax
	call	?size@?$vector@PEAVBoid@1Application@@V?$allocator@PEAVBoid@1Application@@@std@@@std@@QEBA_KXZ ; std::vector<Application::Boid::Boid *,std::allocator<Application::Boid::Boid *> >::size
	mov	rdx, rax
	lea	rcx, QWORD PTR coh$[rbp]
	call	??$?_0_K@?$tvec4@M$0A@@glm@@QEAAAEAU01@_K@Z ; glm::tvec4<float,0>::operator/=<unsigned __int64>

; 99   : 		coh = coh - position;

	mov	rax, QWORD PTR this$[rbp]
	add	rax, 8
	mov	r8, rax
	lea	rdx, QWORD PTR coh$[rbp]
	lea	rcx, QWORD PTR $T9[rbp]
	call	??$?GM$0A@@glm@@YA?AU?$tvec4@M$0A@@0@AEBU10@0@Z ; glm::operator-<float,0>
	lea	rcx, QWORD PTR coh$[rbp]
	mov	rdi, rcx
	mov	rsi, rax
	mov	ecx, 16
	rep movsb

; 100  : 		coh /= glm::length(coh) * 10;

	lea	rcx, QWORD PTR coh$[rbp]
	call	??$length@M$0A@Utvec4@glm@@@glm@@YAMAEBU?$tvec4@M$0A@@0@@Z ; glm::length<float,0,glm::tvec4>
	mulss	xmm0, DWORD PTR __real@41200000
	movaps	xmm1, xmm0
	lea	rcx, QWORD PTR coh$[rbp]
	call	??$?_0M@?$tvec4@M$0A@@glm@@QEAAAEAU01@M@Z ; glm::tvec4<float,0>::operator/=<float>

; 101  : 
; 102  : 		//RULE Mouse Tracking
; 103  : 		glm::vec3 mtk = glm::vec3(0.0f, 0.0f, 0.0f);

	xorps	xmm3, xmm3
	xorps	xmm2, xmm2
	xorps	xmm1, xmm1
	lea	rcx, QWORD PTR mtk$[rbp]
	call	??0?$tvec3@M$0A@@glm@@QEAA@MMM@Z	; glm::tvec3<float,0>::tvec3<float,0>

; 104  : 		mtk = glm::vec4(Scene::BoidScene::trackPos.x, Scene::BoidScene::trackPos.y, 0.0f, 1.0f) - position;

	mov	rax, QWORD PTR this$[rbp]
	add	rax, 8
	mov	QWORD PTR tv248[rbp], rax
	movss	xmm0, DWORD PTR __real@3f800000
	movss	DWORD PTR [rsp+32], xmm0
	xorps	xmm3, xmm3
	movss	xmm2, DWORD PTR ?trackPos@BoidScene@Scene@Application@@2U?$tvec2@M$0A@@glm@@A+4
	movss	xmm1, DWORD PTR ?trackPos@BoidScene@Scene@Application@@2U?$tvec2@M$0A@@glm@@A
	lea	rcx, QWORD PTR $T11[rbp]
	call	??0?$tvec4@M$0A@@glm@@QEAA@MMMM@Z	; glm::tvec4<float,0>::tvec4<float,0>
	mov	rcx, QWORD PTR tv248[rbp]
	mov	r8, rcx
	mov	rdx, rax
	lea	rcx, QWORD PTR $T12[rbp]
	call	??$?GM$0A@@glm@@YA?AU?$tvec4@M$0A@@0@AEBU10@0@Z ; glm::operator-<float,0>
	mov	rdx, rax
	lea	rcx, QWORD PTR $T10[rbp]
	call	??$?0M$0A@@?$tvec3@M$0A@@glm@@QEAA@AEBU?$tvec4@M$0A@@1@@Z ; glm::tvec3<float,0>::tvec3<float,0><float,0>
	lea	rax, QWORD PTR mtk$[rbp]
	lea	rcx, QWORD PTR $T10[rbp]
	mov	rdi, rax
	mov	rsi, rcx
	mov	ecx, 12
	rep movsb

; 105  : 		mtk /= glm::length(mtk) * 0.1f;

	lea	rcx, QWORD PTR mtk$[rbp]
	call	??$length@M$0A@Utvec3@glm@@@glm@@YAMAEBU?$tvec3@M$0A@@0@@Z ; glm::length<float,0,glm::tvec3>
	mulss	xmm0, DWORD PTR __real@3dcccccd
	movaps	xmm1, xmm0
	lea	rcx, QWORD PTR mtk$[rbp]
	call	??$?_0M@?$tvec3@M$0A@@glm@@QEAAAEAU01@M@Z ; glm::tvec3<float,0>::operator/=<float>

; 106  : 
; 107  : 		//RULE Obstacle Avoidance
; 108  : 		//NOTE: for now, the obstacles are just going to be the walls
; 109  : 		glm::vec3 avo = glm::vec3(0.0f, 0.0f, 0.0f);

	xorps	xmm3, xmm3
	xorps	xmm2, xmm2
	xorps	xmm1, xmm1
	lea	rcx, QWORD PTR avo$[rbp]
	call	??0?$tvec3@M$0A@@glm@@QEAA@MMM@Z	; glm::tvec3<float,0>::tvec3<float,0>

; 110  : 		avo.x = (-4.5f - position.x) + (4.5f - position.x);

	mov	rax, QWORD PTR this$[rbp]
	movss	xmm0, DWORD PTR __real@c0900000
	subss	xmm0, DWORD PTR [rax+8]
	mov	rax, QWORD PTR this$[rbp]
	movss	xmm1, DWORD PTR __real@40900000
	subss	xmm1, DWORD PTR [rax+8]
	addss	xmm0, xmm1
	movss	DWORD PTR avo$[rbp], xmm0

; 111  : 		avo.y = (-8.0f - position.y) + (8.0f - position.y);

	mov	rax, QWORD PTR this$[rbp]
	movss	xmm0, DWORD PTR __real@c1000000
	subss	xmm0, DWORD PTR [rax+12]
	mov	rax, QWORD PTR this$[rbp]
	movss	xmm1, DWORD PTR __real@41000000
	subss	xmm1, DWORD PTR [rax+12]
	addss	xmm0, xmm1
	movss	DWORD PTR avo$[rbp+4], xmm0

; 112  : 		avo /= glm::length(avo) * 10;

	lea	rcx, QWORD PTR avo$[rbp]
	call	??$length@M$0A@Utvec3@glm@@@glm@@YAMAEBU?$tvec3@M$0A@@0@@Z ; glm::length<float,0,glm::tvec3>
	mulss	xmm0, DWORD PTR __real@41200000
	movaps	xmm1, xmm0
	lea	rcx, QWORD PTR avo$[rbp]
	call	??$?_0M@?$tvec3@M$0A@@glm@@QEAAAEAU01@M@Z ; glm::tvec3<float,0>::operator/=<float>

; 113  : 
; 114  : 
; 115  : 
; 116  : 
; 117  : 		if (Scene::BoidScene::doSeparation)    direction += glm::vec2(sep.x, sep.y);

	movzx	eax, BYTE PTR ?doSeparation@BoidScene@Scene@Application@@2_NA ; Application::Scene::BoidScene::doSeparation
	test	eax, eax
	je	SHORT $LN12@updateStee
	movss	xmm2, DWORD PTR sep$[rbp+4]
	movss	xmm1, DWORD PTR sep$[rbp]
	lea	rcx, QWORD PTR $T13[rbp]
	call	??0?$tvec2@M$0A@@glm@@QEAA@MM@Z		; glm::tvec2<float,0>::tvec2<float,0>
	mov	rcx, QWORD PTR this$[rbp]
	add	rcx, 48					; 00000030H
	mov	rdx, rax
	call	??$?YM@?$tvec2@M$0A@@glm@@QEAAAEAU01@AEBU01@@Z ; glm::tvec2<float,0>::operator+=<float>
$LN12@updateStee:

; 118  : 		if (Scene::BoidScene::doAlignment)     direction += glm::vec2(ali.x, ali.y);

	movzx	eax, BYTE PTR ?doAlignment@BoidScene@Scene@Application@@2_NA ; Application::Scene::BoidScene::doAlignment
	test	eax, eax
	je	SHORT $LN13@updateStee
	movss	xmm2, DWORD PTR ali$[rbp+4]
	movss	xmm1, DWORD PTR ali$[rbp]
	lea	rcx, QWORD PTR $T14[rbp]
	call	??0?$tvec2@M$0A@@glm@@QEAA@MM@Z		; glm::tvec2<float,0>::tvec2<float,0>
	mov	rcx, QWORD PTR this$[rbp]
	add	rcx, 48					; 00000030H
	mov	rdx, rax
	call	??$?YM@?$tvec2@M$0A@@glm@@QEAAAEAU01@AEBU01@@Z ; glm::tvec2<float,0>::operator+=<float>
$LN13@updateStee:

; 119  : 		if (Scene::BoidScene::doCohesion)      direction += glm::vec2(coh.x, coh.y);

	movzx	eax, BYTE PTR ?doCohesion@BoidScene@Scene@Application@@2_NA ; Application::Scene::BoidScene::doCohesion
	test	eax, eax
	je	SHORT $LN14@updateStee
	movss	xmm2, DWORD PTR coh$[rbp+4]
	movss	xmm1, DWORD PTR coh$[rbp]
	lea	rcx, QWORD PTR $T15[rbp]
	call	??0?$tvec2@M$0A@@glm@@QEAA@MM@Z		; glm::tvec2<float,0>::tvec2<float,0>
	mov	rcx, QWORD PTR this$[rbp]
	add	rcx, 48					; 00000030H
	mov	rdx, rax
	call	??$?YM@?$tvec2@M$0A@@glm@@QEAAAEAU01@AEBU01@@Z ; glm::tvec2<float,0>::operator+=<float>
$LN14@updateStee:

; 120  : 
; 121  : 		//add Noise
; 122  : 		if (Scene::BoidScene::doNoise)         direction += glm::vec2((rand() % 1000 / 1000.0f) - 0.5f, (rand() % 1000 / 1000.0f) - 0.5f);

	movzx	eax, BYTE PTR ?doNoise@BoidScene@Scene@Application@@2_NA ; Application::Scene::BoidScene::doNoise
	test	eax, eax
	je	SHORT $LN15@updateStee
	call	QWORD PTR __imp_rand
	cdq
	mov	ecx, 1000				; 000003e8H
	idiv	ecx
	mov	eax, edx
	cvtsi2ss xmm0, eax
	divss	xmm0, DWORD PTR __real@447a0000
	subss	xmm0, DWORD PTR __real@3f000000
	movss	DWORD PTR tv344[rbp], xmm0
	call	QWORD PTR __imp_rand
	cdq
	mov	ecx, 1000				; 000003e8H
	idiv	ecx
	mov	eax, edx
	cvtsi2ss xmm0, eax
	divss	xmm0, DWORD PTR __real@447a0000
	subss	xmm0, DWORD PTR __real@3f000000
	movss	xmm1, DWORD PTR tv344[rbp]
	movaps	xmm2, xmm1
	movaps	xmm1, xmm0
	lea	rcx, QWORD PTR $T16[rbp]
	call	??0?$tvec2@M$0A@@glm@@QEAA@MM@Z		; glm::tvec2<float,0>::tvec2<float,0>
	mov	rcx, QWORD PTR this$[rbp]
	add	rcx, 48					; 00000030H
	mov	rdx, rax
	call	??$?YM@?$tvec2@M$0A@@glm@@QEAAAEAU01@AEBU01@@Z ; glm::tvec2<float,0>::operator+=<float>
$LN15@updateStee:

; 123  : 
; 124  : 		//add Mouse Tracking
; 125  : 		if (Scene::BoidScene::doMouseTracking) direction += glm::vec2(mtk.x, mtk.y);

	movzx	eax, BYTE PTR ?doMouseTracking@BoidScene@Scene@Application@@2_NA ; Application::Scene::BoidScene::doMouseTracking
	test	eax, eax
	je	SHORT $LN16@updateStee
	movss	xmm2, DWORD PTR mtk$[rbp+4]
	movss	xmm1, DWORD PTR mtk$[rbp]
	lea	rcx, QWORD PTR $T17[rbp]
	call	??0?$tvec2@M$0A@@glm@@QEAA@MM@Z		; glm::tvec2<float,0>::tvec2<float,0>
	mov	rcx, QWORD PTR this$[rbp]
	add	rcx, 48					; 00000030H
	mov	rdx, rax
	call	??$?YM@?$tvec2@M$0A@@glm@@QEAAAEAU01@AEBU01@@Z ; glm::tvec2<float,0>::operator+=<float>
$LN16@updateStee:

; 126  : 		if (Scene::BoidScene::doAvoid)         direction += glm::vec2(avo.x, avo.y);

	movzx	eax, BYTE PTR ?doAvoid@BoidScene@Scene@Application@@2_NA ; Application::Scene::BoidScene::doAvoid
	test	eax, eax
	je	SHORT $LN17@updateStee
	movss	xmm2, DWORD PTR avo$[rbp+4]
	movss	xmm1, DWORD PTR avo$[rbp]
	lea	rcx, QWORD PTR $T18[rbp]
	call	??0?$tvec2@M$0A@@glm@@QEAA@MM@Z		; glm::tvec2<float,0>::tvec2<float,0>
	mov	rcx, QWORD PTR this$[rbp]
	add	rcx, 48					; 00000030H
	mov	rdx, rax
	call	??$?YM@?$tvec2@M$0A@@glm@@QEAAAEAU01@AEBU01@@Z ; glm::tvec2<float,0>::operator+=<float>
$LN17@updateStee:

; 127  : 
; 128  : 		direction /= glm::length(direction) * 10;

	mov	rax, QWORD PTR this$[rbp]
	add	rax, 48					; 00000030H
	mov	rcx, rax
	call	??$length@M$0A@Utvec2@glm@@@glm@@YAMAEBU?$tvec2@M$0A@@0@@Z ; glm::length<float,0,glm::tvec2>
	mulss	xmm0, DWORD PTR __real@41200000
	mov	rax, QWORD PTR this$[rbp]
	add	rax, 48					; 00000030H
	movaps	xmm1, xmm0
	mov	rcx, rax
	call	??$?_0M@?$tvec2@M$0A@@glm@@QEAAAEAU01@M@Z ; glm::tvec2<float,0>::operator/=<float>

; 129  : 
; 130  : 	}

	mov	rcx, QWORD PTR __$ArrayPad$[rbp]
	xor	rcx, rbp
	call	__security_check_cookie
	lea	rsp, QWORD PTR [rbp+384]
	pop	rdi
	pop	rsi
	pop	rbp
	ret	0
?updateSteer@Boid@1Application@@QEAAXXZ ENDP		; Application::Boid::Boid::updateSteer
_TEXT	ENDS
; Function compile flags: /Odtp /RTCu /ZI
; File l:\dev\featherfallengine\featherfall-examples\src\boids\boid.cpp
;	COMDAT ?updateFlockMates@Boid@1Application@@QEAAXAEBV?$vector@PEAVBoid@1Application@@V?$allocator@PEAVBoid@1Application@@@std@@@std@@@Z
_TEXT	SEGMENT
i$1 = 0
tv67 = 72
this$ = 96
boids$ = 104
?updateFlockMates@Boid@1Application@@QEAAXAEBV?$vector@PEAVBoid@1Application@@V?$allocator@PEAVBoid@1Application@@@std@@@std@@@Z PROC ; Application::Boid::Boid::updateFlockMates, COMDAT

; 50   : 	void Boid::updateFlockMates(const std::vector<Boid*>& boids) {

$LN8:
	mov	QWORD PTR [rsp+16], rdx
	mov	QWORD PTR [rsp+8], rcx
	push	rbp
	sub	rsp, 112				; 00000070H
	lea	rbp, QWORD PTR [rsp+32]
	lea	rcx, OFFSET FLAT:__62129A41_boid.cpp
	call	__CheckForDebuggerJustMyCode

; 51   : 
; 52   : 		flockMates.clear();

	mov	rax, QWORD PTR this$[rbp]
	add	rax, 56					; 00000038H
	mov	rcx, rax
	call	?clear@?$vector@PEAVBoid@1Application@@V?$allocator@PEAVBoid@1Application@@@std@@@std@@QEAAXXZ ; std::vector<Application::Boid::Boid *,std::allocator<Application::Boid::Boid *> >::clear

; 53   : 
; 54   : 		for (int i = 0; i < boids.size(); ++i) {

	mov	DWORD PTR i$1[rbp], 0
	jmp	SHORT $LN4@updateFloc
$LN2@updateFloc:
	mov	eax, DWORD PTR i$1[rbp]
	inc	eax
	mov	DWORD PTR i$1[rbp], eax
$LN4@updateFloc:
	movsxd	rax, DWORD PTR i$1[rbp]
	mov	QWORD PTR tv67[rbp], rax
	mov	rcx, QWORD PTR boids$[rbp]
	call	?size@?$vector@PEAVBoid@1Application@@V?$allocator@PEAVBoid@1Application@@@std@@@std@@QEBA_KXZ ; std::vector<Application::Boid::Boid *,std::allocator<Application::Boid::Boid *> >::size
	mov	rcx, QWORD PTR tv67[rbp]
	cmp	rcx, rax
	jae	SHORT $LN3@updateFloc

; 55   : 			if (boids[i] == this) {

	movsxd	rax, DWORD PTR i$1[rbp]
	mov	rdx, rax
	mov	rcx, QWORD PTR boids$[rbp]
	call	??A?$vector@PEAVBoid@1Application@@V?$allocator@PEAVBoid@1Application@@@std@@@std@@QEBAAEBQEAVBoid@2Application@@_K@Z ; std::vector<Application::Boid::Boid *,std::allocator<Application::Boid::Boid *> >::operator[]
	mov	rcx, QWORD PTR this$[rbp]
	cmp	QWORD PTR [rax], rcx
	jne	SHORT $LN5@updateFloc

; 56   : 				continue; //dont add yourself to flockmates

	jmp	SHORT $LN2@updateFloc
$LN5@updateFloc:

; 57   : 			}
; 58   : 			if (inRadius(boids[i])) {

	movsxd	rax, DWORD PTR i$1[rbp]
	mov	rdx, rax
	mov	rcx, QWORD PTR boids$[rbp]
	call	??A?$vector@PEAVBoid@1Application@@V?$allocator@PEAVBoid@1Application@@@std@@@std@@QEBAAEBQEAVBoid@2Application@@_K@Z ; std::vector<Application::Boid::Boid *,std::allocator<Application::Boid::Boid *> >::operator[]
	mov	rdx, QWORD PTR [rax]
	mov	rcx, QWORD PTR this$[rbp]
	call	?inRadius@Boid@1Application@@AEBA_NPEBV112@@Z ; Application::Boid::Boid::inRadius
	movzx	eax, al
	test	eax, eax
	je	SHORT $LN6@updateFloc

; 59   : 				//if the boid is in the radius, that boid is a flockmate
; 60   : 				flockMates.push_back(boids[i]);

	movsxd	rax, DWORD PTR i$1[rbp]
	mov	rdx, rax
	mov	rcx, QWORD PTR boids$[rbp]
	call	??A?$vector@PEAVBoid@1Application@@V?$allocator@PEAVBoid@1Application@@@std@@@std@@QEBAAEBQEAVBoid@2Application@@_K@Z ; std::vector<Application::Boid::Boid *,std::allocator<Application::Boid::Boid *> >::operator[]
	mov	rcx, QWORD PTR this$[rbp]
	add	rcx, 56					; 00000038H
	mov	rdx, rax
	call	?push_back@?$vector@PEAVBoid@1Application@@V?$allocator@PEAVBoid@1Application@@@std@@@std@@QEAAXAEBQEAVBoid@3Application@@@Z ; std::vector<Application::Boid::Boid *,std::allocator<Application::Boid::Boid *> >::push_back
$LN6@updateFloc:

; 61   : 			}
; 62   : 
; 63   : 		}

	jmp	$LN2@updateFloc
$LN3@updateFloc:

; 64   : 
; 65   : 	}

	lea	rsp, QWORD PTR [rbp+80]
	pop	rbp
	ret	0
?updateFlockMates@Boid@1Application@@QEAAXAEBV?$vector@PEAVBoid@1Application@@V?$allocator@PEAVBoid@1Application@@@std@@@std@@@Z ENDP ; Application::Boid::Boid::updateFlockMates
_TEXT	ENDS
; Function compile flags: /Odtp /RTCu /ZI
; File l:\dev\featherfallengine\featherfall-examples\src\boids\boid.cpp
;	COMDAT ?updatePos@Boid@1Application@@QEAAXXZ
_TEXT	SEGMENT
this$ = 80
?updatePos@Boid@1Application@@QEAAXXZ PROC		; Application::Boid::Boid::updatePos, COMDAT

; 32   : 	void Boid::updatePos() {

$LN7:
	mov	QWORD PTR [rsp+8], rcx
	push	rbp
	sub	rsp, 96					; 00000060H
	lea	rbp, QWORD PTR [rsp+32]
	lea	rcx, OFFSET FLAT:__62129A41_boid.cpp
	call	__CheckForDebuggerJustMyCode

; 33   : 
; 34   : 		//find the new direction to move in
; 35   : 		//glm::vec2 acc = glm::vec2(((rand() % 1000) / 10000.0f) - 0.05f, ((rand() % 1000) / 10000.0f) - 0.05f);
; 36   : 		//direction += acc;
; 37   : 		//direction /= glm::length(direction) * 10;
; 38   : 
; 39   : 		//add that move vector to the current position
; 40   : 		position.x += direction.x;

	mov	rax, QWORD PTR this$[rbp]
	mov	rcx, QWORD PTR this$[rbp]
	movss	xmm0, DWORD PTR [rax+8]
	addss	xmm0, DWORD PTR [rcx+48]
	mov	rax, QWORD PTR this$[rbp]
	movss	DWORD PTR [rax+8], xmm0

; 41   : 		position.y += direction.y;

	mov	rax, QWORD PTR this$[rbp]
	mov	rcx, QWORD PTR this$[rbp]
	movss	xmm0, DWORD PTR [rax+12]
	addss	xmm0, DWORD PTR [rcx+52]
	mov	rax, QWORD PTR this$[rbp]
	movss	DWORD PTR [rax+12], xmm0

; 42   : 
; 43   : 		//check for out of bounds collitions
; 44   : 		if (position.x > 8.0f) position.x = -8.0f;

	mov	rax, QWORD PTR this$[rbp]
	movss	xmm0, DWORD PTR [rax+8]
	comiss	xmm0, DWORD PTR __real@41000000
	jbe	SHORT $LN2@updatePos
	mov	rax, QWORD PTR this$[rbp]
	movss	xmm0, DWORD PTR __real@c1000000
	movss	DWORD PTR [rax+8], xmm0
$LN2@updatePos:

; 45   : 		if (position.x < -8.0f) position.x = 8.0f;

	mov	rax, QWORD PTR this$[rbp]
	movss	xmm0, DWORD PTR __real@c1000000
	comiss	xmm0, DWORD PTR [rax+8]
	jbe	SHORT $LN3@updatePos
	mov	rax, QWORD PTR this$[rbp]
	movss	xmm0, DWORD PTR __real@41000000
	movss	DWORD PTR [rax+8], xmm0
$LN3@updatePos:

; 46   : 		if (position.y > 4.5f) position.y = -4.5f;

	mov	rax, QWORD PTR this$[rbp]
	movss	xmm0, DWORD PTR [rax+12]
	comiss	xmm0, DWORD PTR __real@40900000
	jbe	SHORT $LN4@updatePos
	mov	rax, QWORD PTR this$[rbp]
	movss	xmm0, DWORD PTR __real@c0900000
	movss	DWORD PTR [rax+12], xmm0
$LN4@updatePos:

; 47   : 		if (position.y < -4.5f) position.y = 4.5f;

	mov	rax, QWORD PTR this$[rbp]
	movss	xmm0, DWORD PTR __real@c0900000
	comiss	xmm0, DWORD PTR [rax+12]
	jbe	SHORT $LN5@updatePos
	mov	rax, QWORD PTR this$[rbp]
	movss	xmm0, DWORD PTR __real@40900000
	movss	DWORD PTR [rax+12], xmm0
$LN5@updatePos:

; 48   : 	}

	lea	rsp, QWORD PTR [rbp+64]
	pop	rbp
	ret	0
?updatePos@Boid@1Application@@QEAAXXZ ENDP		; Application::Boid::Boid::updatePos
_TEXT	ENDS
; Function compile flags: /Odtp /RTCu /ZI
; File l:\dev\featherfallengine\featherfall-examples\src\boids\boid.cpp
;	COMDAT ??1Boid@0Application@@UEAA@XZ
_TEXT	SEGMENT
$T1 = 64
this$ = 96
??1Boid@0Application@@UEAA@XZ PROC			; Application::Boid::Boid::~Boid, COMDAT

; 28   : 	Boid::~Boid() {

$LN3:
	mov	QWORD PTR [rsp+8], rcx
	push	rbp
	sub	rsp, 112				; 00000070H
	lea	rbp, QWORD PTR [rsp+32]
	mov	QWORD PTR $T1[rbp], -2
	lea	rcx, OFFSET FLAT:__62129A41_boid.cpp
	call	__CheckForDebuggerJustMyCode
	npad	1
	mov	rax, QWORD PTR this$[rbp]
	lea	rcx, OFFSET FLAT:??_7Boid@0Application@@6B@
	mov	QWORD PTR [rax], rcx

; 29   : 
; 30   : 	}

	mov	rax, QWORD PTR this$[rbp]
	add	rax, 56					; 00000038H
	mov	rcx, rax
	call	??1?$vector@PEAVBoid@1Application@@V?$allocator@PEAVBoid@1Application@@@std@@@std@@QEAA@XZ ; std::vector<Application::Boid::Boid *,std::allocator<Application::Boid::Boid *> >::~vector<Application::Boid::Boid *,std::allocator<Application::Boid::Boid *> >
	npad	1
	mov	rcx, QWORD PTR this$[rbp]
	call	??1Renderable2D@graphics@core@@UEAA@XZ	; core::graphics::Renderable2D::~Renderable2D
	npad	1
	lea	rsp, QWORD PTR [rbp+80]
	pop	rbp
	ret	0
??1Boid@0Application@@UEAA@XZ ENDP			; Application::Boid::Boid::~Boid
_TEXT	ENDS
; Function compile flags: /Odtp /RTCu /ZI
; File l:\dev\featherfallengine\featherfall-examples\src\boids\boid.cpp
;	COMDAT ??0Boid@0Application@@QEAA@MMI@Z
_TEXT	SEGMENT
acc$ = 0
$T1 = 72
tv132 = 80
__$ArrayPad$ = 88
this$ = 112
px$ = 120
py$ = 128
pcolor$ = 136
??0Boid@0Application@@QEAA@MMI@Z PROC			; Application::Boid::Boid::Boid, COMDAT

; 21   : 	{

$LN5:
	mov	DWORD PTR [rsp+32], r9d
	movss	DWORD PTR [rsp+24], xmm2
	movss	DWORD PTR [rsp+16], xmm1
	mov	QWORD PTR [rsp+8], rcx
	push	rbp
	sub	rsp, 144				; 00000090H
	lea	rbp, QWORD PTR [rsp+48]
	mov	QWORD PTR $T1[rbp], -2
	mov	rax, QWORD PTR __security_cookie
	xor	rax, rbp
	mov	QWORD PTR __$ArrayPad$[rbp], rax
	lea	rcx, OFFSET FLAT:__62129A41_boid.cpp
	call	__CheckForDebuggerJustMyCode

; 19   : 		: Renderable2D(px, py, 0.1f, 0.1f, pcolor),

	mov	eax, DWORD PTR pcolor$[rbp]
	mov	DWORD PTR [rsp+40], eax
	movss	xmm0, DWORD PTR __real@3dcccccd
	movss	DWORD PTR [rsp+32], xmm0
	movss	xmm3, DWORD PTR __real@3dcccccd
	movss	xmm2, DWORD PTR py$[rbp]
	movss	xmm1, DWORD PTR px$[rbp]
	mov	rcx, QWORD PTR this$[rbp]
	call	??0Renderable2D@graphics@core@@QEAA@MMMMI@Z ; core::graphics::Renderable2D::Renderable2D
	npad	1

; 21   : 	{

	mov	rax, QWORD PTR this$[rbp]
	lea	rcx, OFFSET FLAT:??_7Boid@0Application@@6B@
	mov	QWORD PTR [rax], rcx

; 20   : 		  direction(glm::vec2(0.01f, 0.0f))

	mov	rax, QWORD PTR this$[rbp]
	add	rax, 48					; 00000030H
	xorps	xmm2, xmm2
	movss	xmm1, DWORD PTR __real@3c23d70a
	mov	rcx, rax
	call	??0?$tvec2@M$0A@@glm@@QEAA@MM@Z		; glm::tvec2<float,0>::tvec2<float,0>

; 21   : 	{

	mov	rax, QWORD PTR this$[rbp]
	add	rax, 56					; 00000038H
	mov	rcx, rax
	call	??0?$vector@PEAVBoid@1Application@@V?$allocator@PEAVBoid@1Application@@@std@@@std@@QEAA@XZ ; std::vector<Application::Boid::Boid *,std::allocator<Application::Boid::Boid *> >::vector<Application::Boid::Boid *,std::allocator<Application::Boid::Boid *> >
	npad	1

; 22   : 		glm::vec2 acc = glm::vec2(((rand() % 1000) / 10000.0f) - 0.05f, ((rand() % 1000) / 10000.0f) - 0.05f);

	call	QWORD PTR __imp_rand
	cdq
	mov	ecx, 1000				; 000003e8H
	idiv	ecx
	mov	eax, edx
	cvtsi2ss xmm0, eax
	divss	xmm0, DWORD PTR __real@461c4000
	subss	xmm0, DWORD PTR __real@3d4ccccd
	movss	DWORD PTR tv132[rbp], xmm0
	call	QWORD PTR __imp_rand
	cdq
	mov	ecx, 1000				; 000003e8H
	idiv	ecx
	mov	eax, edx
	cvtsi2ss xmm0, eax
	divss	xmm0, DWORD PTR __real@461c4000
	subss	xmm0, DWORD PTR __real@3d4ccccd
	movss	xmm1, DWORD PTR tv132[rbp]
	movaps	xmm2, xmm1
	movaps	xmm1, xmm0
	lea	rcx, QWORD PTR acc$[rbp]
	call	??0?$tvec2@M$0A@@glm@@QEAA@MM@Z		; glm::tvec2<float,0>::tvec2<float,0>

; 23   : 		direction += acc;

	mov	rax, QWORD PTR this$[rbp]
	add	rax, 48					; 00000030H
	lea	rdx, QWORD PTR acc$[rbp]
	mov	rcx, rax
	call	??$?YM@?$tvec2@M$0A@@glm@@QEAAAEAU01@AEBU01@@Z ; glm::tvec2<float,0>::operator+=<float>

; 24   : 		direction /= glm::length(direction) * 10;

	mov	rax, QWORD PTR this$[rbp]
	add	rax, 48					; 00000030H
	mov	rcx, rax
	call	??$length@M$0A@Utvec2@glm@@@glm@@YAMAEBU?$tvec2@M$0A@@0@@Z ; glm::length<float,0,glm::tvec2>
	mulss	xmm0, DWORD PTR __real@41200000
	mov	rax, QWORD PTR this$[rbp]
	add	rax, 48					; 00000030H
	movaps	xmm1, xmm0
	mov	rcx, rax
	call	??$?_0M@?$tvec2@M$0A@@glm@@QEAAAEAU01@M@Z ; glm::tvec2<float,0>::operator/=<float>
	npad	1

; 25   : 
; 26   : 	}

	mov	rax, QWORD PTR this$[rbp]
	mov	rcx, QWORD PTR __$ArrayPad$[rbp]
	xor	rcx, rbp
	call	__security_check_cookie
	lea	rsp, QWORD PTR [rbp+96]
	pop	rbp
	ret	0
??0Boid@0Application@@QEAA@MMI@Z ENDP			; Application::Boid::Boid::Boid
_TEXT	ENDS
;	COMDAT text$x
text$x	SEGMENT
acc$ = 0
$T1 = 72
tv132 = 80
__$ArrayPad$ = 88
this$ = 112
px$ = 120
py$ = 128
pcolor$ = 136
?dtor$0@?0???0Boid@0Application@@QEAA@MMI@Z@4HA PROC	; `Application::dtor$0::Boid::Boid'::`1'::dtor$0
	push	rbp
	sub	rsp, 32					; 00000020H
	lea	rbp, QWORD PTR [rdx+48]
	mov	rcx, QWORD PTR this$[rbp]
	call	??1Renderable2D@graphics@core@@UEAA@XZ	; core::graphics::Renderable2D::~Renderable2D
	add	rsp, 32					; 00000020H
	pop	rbp
	ret	0
?dtor$0@?0???0Boid@0Application@@QEAA@MMI@Z@4HA ENDP	; `Application::dtor$0::Boid::Boid'::`1'::dtor$0
text$x	ENDS
;	COMDAT text$x
text$x	SEGMENT
acc$ = 0
$T1 = 72
tv132 = 80
__$ArrayPad$ = 88
this$ = 112
px$ = 120
py$ = 128
pcolor$ = 136
?dtor$1@?0???0Boid@0Application@@QEAA@MMI@Z@4HA PROC	; `Application::dtor$1::Boid::Boid'::`1'::dtor$1
	push	rbp
	sub	rsp, 32					; 00000020H
	lea	rbp, QWORD PTR [rdx+48]
	mov	rcx, QWORD PTR this$[rbp]
	add	rcx, 56					; 00000038H
	call	??1?$vector@PEAVBoid@1Application@@V?$allocator@PEAVBoid@1Application@@@std@@@std@@QEAA@XZ ; std::vector<Application::Boid::Boid *,std::allocator<Application::Boid::Boid *> >::~vector<Application::Boid::Boid *,std::allocator<Application::Boid::Boid *> >
	add	rsp, 32					; 00000020H
	pop	rbp
	ret	0
?dtor$1@?0???0Boid@0Application@@QEAA@MMI@Z@4HA ENDP	; `Application::dtor$1::Boid::Boid'::`1'::dtor$1
text$x	ENDS
; Function compile flags: /Odtp /RTCu /ZI
;	COMDAT text$x
text$x	SEGMENT
acc$ = 0
$T1 = 72
tv132 = 80
__$ArrayPad$ = 88
this$ = 112
px$ = 120
py$ = 128
pcolor$ = 136
?dtor$0@?0???0Boid@0Application@@QEAA@MMI@Z@4HA PROC	; `Application::dtor$0::Boid::Boid'::`1'::dtor$0
	push	rbp
	sub	rsp, 32					; 00000020H
	lea	rbp, QWORD PTR [rdx+48]
	mov	rcx, QWORD PTR this$[rbp]
	call	??1Renderable2D@graphics@core@@UEAA@XZ	; core::graphics::Renderable2D::~Renderable2D
	add	rsp, 32					; 00000020H
	pop	rbp
	ret	0
?dtor$0@?0???0Boid@0Application@@QEAA@MMI@Z@4HA ENDP	; `Application::dtor$0::Boid::Boid'::`1'::dtor$0
text$x	ENDS
; Function compile flags: /Odtp /RTCu /ZI
;	COMDAT text$x
text$x	SEGMENT
acc$ = 0
$T1 = 72
tv132 = 80
__$ArrayPad$ = 88
this$ = 112
px$ = 120
py$ = 128
pcolor$ = 136
?dtor$1@?0???0Boid@0Application@@QEAA@MMI@Z@4HA PROC	; `Application::dtor$1::Boid::Boid'::`1'::dtor$1
	push	rbp
	sub	rsp, 32					; 00000020H
	lea	rbp, QWORD PTR [rdx+48]
	mov	rcx, QWORD PTR this$[rbp]
	add	rcx, 56					; 00000038H
	call	??1?$vector@PEAVBoid@1Application@@V?$allocator@PEAVBoid@1Application@@@std@@@std@@QEAA@XZ ; std::vector<Application::Boid::Boid *,std::allocator<Application::Boid::Boid *> >::~vector<Application::Boid::Boid *,std::allocator<Application::Boid::Boid *> >
	add	rsp, 32					; 00000020H
	pop	rbp
	ret	0
?dtor$1@?0???0Boid@0Application@@QEAA@MMI@Z@4HA ENDP	; `Application::dtor$1::Boid::Boid'::`1'::dtor$1
text$x	ENDS
; Function compile flags: /Odtp /RTCu /ZI
; File l:\dev\featherfallengine\featherfall-examples\src\boids\boid.cpp
;	COMDAT ??0Boid@0Application@@QEAA@MMAEBU?$tvec4@M$0A@@glm@@@Z
_TEXT	SEGMENT
$T1 = 64
$T2 = 72
$T3 = 88
tv72 = 96
this$ = 128
px$ = 136
py$ = 144
pcolor$ = 152
??0Boid@0Application@@QEAA@MMAEBU?$tvec4@M$0A@@glm@@@Z PROC ; Application::Boid::Boid::Boid, COMDAT

; 15   : 	{

$LN5:
	mov	QWORD PTR [rsp+32], r9
	movss	DWORD PTR [rsp+24], xmm2
	movss	DWORD PTR [rsp+16], xmm1
	mov	QWORD PTR [rsp+8], rcx
	push	rbp
	sub	rsp, 160				; 000000a0H
	lea	rbp, QWORD PTR [rsp+48]
	mov	QWORD PTR $T3[rbp], -2
	lea	rcx, OFFSET FLAT:__62129A41_boid.cpp
	call	__CheckForDebuggerJustMyCode

; 9    : 		: Renderable2D(

	movss	xmm2, DWORD PTR __real@3dcccccd
	movss	xmm1, DWORD PTR __real@3dcccccd
	lea	rcx, QWORD PTR $T1[rbp]
	call	??0?$tvec2@M$0A@@glm@@QEAA@MM@Z		; glm::tvec2<float,0>::tvec2<float,0>
	mov	QWORD PTR tv72[rbp], rax
	movss	xmm0, DWORD PTR __real@3f800000
	movss	DWORD PTR [rsp+32], xmm0
	xorps	xmm3, xmm3
	movss	xmm2, DWORD PTR py$[rbp]
	movss	xmm1, DWORD PTR px$[rbp]
	lea	rcx, QWORD PTR $T2[rbp]
	call	??0?$tvec4@M$0A@@glm@@QEAA@MMMM@Z	; glm::tvec4<float,0>::tvec4<float,0>
	mov	r9, QWORD PTR pcolor$[rbp]
	mov	rcx, QWORD PTR tv72[rbp]
	mov	r8, rcx
	mov	rdx, rax
	mov	rcx, QWORD PTR this$[rbp]
	call	??0Renderable2D@graphics@core@@QEAA@AEBU?$tvec4@M$0A@@glm@@AEBU?$tvec2@M$0A@@4@0@Z ; core::graphics::Renderable2D::Renderable2D
	npad	1

; 15   : 	{

	mov	rax, QWORD PTR this$[rbp]
	lea	rcx, OFFSET FLAT:??_7Boid@0Application@@6B@
	mov	QWORD PTR [rax], rcx

; 10   : 			glm::vec4(px, py, 0.0f, 1.0f),
; 11   : 			glm::vec2(0.1f, 0.1f), 
; 12   : 			pcolor
; 13   : 		  ), direction(glm::vec2(0.01f, 0.0f))

	mov	rax, QWORD PTR this$[rbp]
	add	rax, 48					; 00000030H
	xorps	xmm2, xmm2
	movss	xmm1, DWORD PTR __real@3c23d70a
	mov	rcx, rax
	call	??0?$tvec2@M$0A@@glm@@QEAA@MM@Z		; glm::tvec2<float,0>::tvec2<float,0>

; 15   : 	{

	mov	rax, QWORD PTR this$[rbp]
	add	rax, 56					; 00000038H
	mov	rcx, rax
	call	??0?$vector@PEAVBoid@1Application@@V?$allocator@PEAVBoid@1Application@@@std@@@std@@QEAA@XZ ; std::vector<Application::Boid::Boid *,std::allocator<Application::Boid::Boid *> >::vector<Application::Boid::Boid *,std::allocator<Application::Boid::Boid *> >
	npad	1

; 16   : 	}

	mov	rax, QWORD PTR this$[rbp]
	lea	rsp, QWORD PTR [rbp+112]
	pop	rbp
	ret	0
??0Boid@0Application@@QEAA@MMAEBU?$tvec4@M$0A@@glm@@@Z ENDP ; Application::Boid::Boid::Boid
_TEXT	ENDS
;	COMDAT text$x
text$x	SEGMENT
$T1 = 64
$T2 = 72
$T3 = 88
tv72 = 96
this$ = 128
px$ = 136
py$ = 144
pcolor$ = 152
?dtor$0@?0???0Boid@0Application@@QEAA@MMAEBU?$tvec4@M$0A@@glm@@@Z@4HA PROC ; `Application::dtor$0::Boid::Boid'::`1'::dtor$0
	push	rbp
	sub	rsp, 32					; 00000020H
	lea	rbp, QWORD PTR [rdx+48]
	mov	rcx, QWORD PTR this$[rbp]
	call	??1Renderable2D@graphics@core@@UEAA@XZ	; core::graphics::Renderable2D::~Renderable2D
	add	rsp, 32					; 00000020H
	pop	rbp
	ret	0
?dtor$0@?0???0Boid@0Application@@QEAA@MMAEBU?$tvec4@M$0A@@glm@@@Z@4HA ENDP ; `Application::dtor$0::Boid::Boid'::`1'::dtor$0
text$x	ENDS
; Function compile flags: /Odtp /RTCu /ZI
;	COMDAT text$x
text$x	SEGMENT
$T1 = 64
$T2 = 72
$T3 = 88
tv72 = 96
this$ = 128
px$ = 136
py$ = 144
pcolor$ = 152
?dtor$0@?0???0Boid@0Application@@QEAA@MMAEBU?$tvec4@M$0A@@glm@@@Z@4HA PROC ; `Application::dtor$0::Boid::Boid'::`1'::dtor$0
	push	rbp
	sub	rsp, 32					; 00000020H
	lea	rbp, QWORD PTR [rdx+48]
	mov	rcx, QWORD PTR this$[rbp]
	call	??1Renderable2D@graphics@core@@UEAA@XZ	; core::graphics::Renderable2D::~Renderable2D
	add	rsp, 32					; 00000020H
	pop	rbp
	ret	0
?dtor$0@?0???0Boid@0Application@@QEAA@MMAEBU?$tvec4@M$0A@@glm@@@Z@4HA ENDP ; `Application::dtor$0::Boid::Boid'::`1'::dtor$0
text$x	ENDS
; Function compile flags: /Odtp /RTCu /ZI
; File c:\program files (x86)\microsoft visual studio\2017\enterprise\vc\tools\msvc\14.15.26726\include\vector
;	COMDAT ?_Orphan_range@?$vector@PEAVBoid@1Application@@V?$allocator@PEAVBoid@1Application@@@std@@@std@@AEBAXPEAPEAVBoid@3Application@@0@Z
_TEXT	SEGMENT
_Lock$ = 0
_Pnext$ = 8
$T1 = 80
__$ArrayPad$ = 88
this$ = 112
_First$ = 120
_Last$ = 128
?_Orphan_range@?$vector@PEAVBoid@1Application@@V?$allocator@PEAVBoid@1Application@@@std@@@std@@AEBAXPEAPEAVBoid@3Application@@0@Z PROC ; std::vector<Application::Boid::Boid *,std::allocator<Application::Boid::Boid *> >::_Orphan_range, COMDAT

; 1936 : 		{	// orphan iterators within specified (inclusive) range

$LN10:
	mov	QWORD PTR [rsp+24], r8
	mov	QWORD PTR [rsp+16], rdx
	mov	QWORD PTR [rsp+8], rcx
	push	rbp
	sub	rsp, 128				; 00000080H
	lea	rbp, QWORD PTR [rsp+32]
	mov	QWORD PTR $T1[rbp], -2
	mov	rax, QWORD PTR __security_cookie
	xor	rax, rbp
	mov	QWORD PTR __$ArrayPad$[rbp], rax
	lea	rcx, OFFSET FLAT:__327B7881_vector
	call	__CheckForDebuggerJustMyCode

; 1937 : 		_Lockit _Lock(_LOCK_DEBUG);

	mov	edx, 3
	lea	rcx, QWORD PTR _Lock$[rbp]
	call	QWORD PTR __imp_??0_Lockit@std@@QEAA@H@Z
	npad	1

; 1938 : 
; 1939 : 		const_iterator ** _Pnext = reinterpret_cast<const_iterator **>(this->_Getpfirst());

	mov	rcx, QWORD PTR this$[rbp]
	call	?_Getpfirst@?$_Vector_alloc@U?$_Vec_base_types@PEAVBoid@1Application@@V?$allocator@PEAVBoid@1Application@@@std@@@std@@@std@@QEBAPEAPEAU_Iterator_base12@2@XZ ; std::_Vector_alloc<std::_Vec_base_types<Application::Boid::Boid *,std::allocator<Application::Boid::Boid *> > >::_Getpfirst
	mov	QWORD PTR _Pnext$[rbp], rax

; 1940 : 
; 1941 : 		if (_Pnext)

	cmp	QWORD PTR _Pnext$[rbp], 0
	je	SHORT $LN4@Orphan_ran
$LN2@Orphan_ran:

; 1942 : 			{
; 1943 : 			while (*_Pnext)

	mov	rax, QWORD PTR _Pnext$[rbp]
	cmp	QWORD PTR [rax], 0
	je	SHORT $LN4@Orphan_ran

; 1944 : 				{
; 1945 : 				if ((*_Pnext)->_Ptr < _First || _Last < (*_Pnext)->_Ptr)

	mov	rax, QWORD PTR _Pnext$[rbp]
	mov	rax, QWORD PTR [rax]
	mov	rcx, QWORD PTR _First$[rbp]
	cmp	QWORD PTR [rax+16], rcx
	jb	SHORT $LN7@Orphan_ran
	mov	rax, QWORD PTR _Pnext$[rbp]
	mov	rax, QWORD PTR [rax]
	mov	rax, QWORD PTR [rax+16]
	cmp	QWORD PTR _Last$[rbp], rax
	jae	SHORT $LN5@Orphan_ran
$LN7@Orphan_ran:

; 1946 : 					{	// skip the iterator
; 1947 : 					_Pnext = reinterpret_cast<const_iterator **>((*_Pnext)->_Getpnext());

	mov	rax, QWORD PTR _Pnext$[rbp]
	mov	rcx, QWORD PTR [rax]
	call	?_Getpnext@_Iterator_base12@std@@QEAAPEAPEAU12@XZ ; std::_Iterator_base12::_Getpnext
	mov	QWORD PTR _Pnext$[rbp], rax

; 1948 : 					}
; 1949 : 				else

	jmp	SHORT $LN6@Orphan_ran
$LN5@Orphan_ran:

; 1950 : 					{	// orphan the iterator
; 1951 : 					(*_Pnext)->_Clrcont();

	mov	rax, QWORD PTR _Pnext$[rbp]
	mov	rcx, QWORD PTR [rax]
	call	?_Clrcont@_Iterator_base12@std@@QEAAXXZ	; std::_Iterator_base12::_Clrcont

; 1952 : 					*_Pnext = *reinterpret_cast<const_iterator **>((*_Pnext)->_Getpnext());

	mov	rax, QWORD PTR _Pnext$[rbp]
	mov	rcx, QWORD PTR [rax]
	call	?_Getpnext@_Iterator_base12@std@@QEAAPEAPEAU12@XZ ; std::_Iterator_base12::_Getpnext
	mov	rcx, QWORD PTR _Pnext$[rbp]
	mov	rax, QWORD PTR [rax]
	mov	QWORD PTR [rcx], rax
$LN6@Orphan_ran:

; 1953 : 					}
; 1954 : 				}

	jmp	SHORT $LN2@Orphan_ran
$LN4@Orphan_ran:

; 1955 : 			}
; 1956 : 		}

	lea	rcx, QWORD PTR _Lock$[rbp]
	call	QWORD PTR __imp_??1_Lockit@std@@QEAA@XZ
	mov	rcx, QWORD PTR __$ArrayPad$[rbp]
	xor	rcx, rbp
	call	__security_check_cookie
	lea	rsp, QWORD PTR [rbp+96]
	pop	rbp
	ret	0
?_Orphan_range@?$vector@PEAVBoid@1Application@@V?$allocator@PEAVBoid@1Application@@@std@@@std@@AEBAXPEAPEAVBoid@3Application@@0@Z ENDP ; std::vector<Application::Boid::Boid *,std::allocator<Application::Boid::Boid *> >::_Orphan_range
_TEXT	ENDS
;	COMDAT text$x
text$x	SEGMENT
_Lock$ = 0
_Pnext$ = 8
$T1 = 80
__$ArrayPad$ = 88
this$ = 112
_First$ = 120
_Last$ = 128
?dtor$0@?0??_Orphan_range@?$vector@PEAVBoid@1Application@@V?$allocator@PEAVBoid@1Application@@@std@@@std@@AEBAXPEAPEAVBoid@3Application@@0@Z@4HA PROC ; `std::vector<Application::Boid::Boid *,std::allocator<Application::Boid::Boid *> >::_Orphan_range'::`1'::dtor$0
	push	rbp
	sub	rsp, 32					; 00000020H
	lea	rbp, QWORD PTR [rdx+32]
	lea	rcx, QWORD PTR _Lock$[rbp]
	call	QWORD PTR __imp_??1_Lockit@std@@QEAA@XZ
	add	rsp, 32					; 00000020H
	pop	rbp
	ret	0
?dtor$0@?0??_Orphan_range@?$vector@PEAVBoid@1Application@@V?$allocator@PEAVBoid@1Application@@@std@@@std@@AEBAXPEAPEAVBoid@3Application@@0@Z@4HA ENDP ; `std::vector<Application::Boid::Boid *,std::allocator<Application::Boid::Boid *> >::_Orphan_range'::`1'::dtor$0
text$x	ENDS
; Function compile flags: /Odtp /RTCu /ZI
;	COMDAT text$x
text$x	SEGMENT
_Lock$ = 0
_Pnext$ = 8
$T1 = 80
__$ArrayPad$ = 88
this$ = 112
_First$ = 120
_Last$ = 128
?dtor$0@?0??_Orphan_range@?$vector@PEAVBoid@1Application@@V?$allocator@PEAVBoid@1Application@@@std@@@std@@AEBAXPEAPEAVBoid@3Application@@0@Z@4HA PROC ; `std::vector<Application::Boid::Boid *,std::allocator<Application::Boid::Boid *> >::_Orphan_range'::`1'::dtor$0
	push	rbp
	sub	rsp, 32					; 00000020H
	lea	rbp, QWORD PTR [rdx+32]
	lea	rcx, QWORD PTR _Lock$[rbp]
	call	QWORD PTR __imp_??1_Lockit@std@@QEAA@XZ
	add	rsp, 32					; 00000020H
	pop	rbp
	ret	0
?dtor$0@?0??_Orphan_range@?$vector@PEAVBoid@1Application@@V?$allocator@PEAVBoid@1Application@@@std@@@std@@AEBAXPEAPEAVBoid@3Application@@0@Z@4HA ENDP ; `std::vector<Application::Boid::Boid *,std::allocator<Application::Boid::Boid *> >::_Orphan_range'::`1'::dtor$0
text$x	ENDS
; Function compile flags: /Odtp /RTCu /ZI
; File c:\program files (x86)\microsoft visual studio\2017\enterprise\vc\tools\msvc\14.15.26726\include\vector
;	COMDAT ?_Xlength@?$vector@PEAVBoid@1Application@@V?$allocator@PEAVBoid@1Application@@@std@@@std@@CAXXZ
_TEXT	SEGMENT
?_Xlength@?$vector@PEAVBoid@1Application@@V?$allocator@PEAVBoid@1Application@@@std@@@std@@CAXXZ PROC ; std::vector<Application::Boid::Boid *,std::allocator<Application::Boid::Boid *> >::_Xlength, COMDAT

; 1925 : 		{	// report a length_error

$LN3:
	push	rbp
	sub	rsp, 96					; 00000060H
	lea	rbp, QWORD PTR [rsp+32]
	lea	rcx, OFFSET FLAT:__327B7881_vector
	call	__CheckForDebuggerJustMyCode

; 1926 : 		_Xlength_error("vector<T> too long");

	lea	rcx, OFFSET FLAT:??_C@_0BD@OLBABOEK@vector?$DMT?$DO?5too?5long@
	call	?_Xlength_error@std@@YAXPEBD@Z		; std::_Xlength_error
$LN2@Xlength:

; 1927 : 		}

	lea	rsp, QWORD PTR [rbp+64]
	pop	rbp
	ret	0
?_Xlength@?$vector@PEAVBoid@1Application@@V?$allocator@PEAVBoid@1Application@@@std@@@std@@CAXXZ ENDP ; std::vector<Application::Boid::Boid *,std::allocator<Application::Boid::Boid *> >::_Xlength
_TEXT	ENDS
; Function compile flags: /Odtp /RTCu /ZI
; File c:\program files (x86)\microsoft visual studio\2017\enterprise\vc\tools\msvc\14.15.26726\include\vector
;	COMDAT ?_Tidy@?$vector@PEAVBoid@1Application@@V?$allocator@PEAVBoid@1Application@@@std@@@std@@AEAAXXZ
_TEXT	SEGMENT
tv131 = 64
tv82 = 64
tv138 = 72
this$ = 96
?_Tidy@?$vector@PEAVBoid@1Application@@V?$allocator@PEAVBoid@1Application@@@std@@@std@@AEAAXXZ PROC ; std::vector<Application::Boid::Boid *,std::allocator<Application::Boid::Boid *> >::_Tidy, COMDAT

; 1910 : 		{	// free all storage

$LN4:
	mov	QWORD PTR [rsp+8], rcx
	push	rbp
	sub	rsp, 112				; 00000070H
	lea	rbp, QWORD PTR [rsp+32]
	lea	rcx, OFFSET FLAT:__327B7881_vector
	call	__CheckForDebuggerJustMyCode

; 1911 : 		this->_Orphan_all();

	mov	rcx, QWORD PTR this$[rbp]
	call	?_Orphan_all@?$_Vector_alloc@U?$_Vec_base_types@PEAVBoid@1Application@@V?$allocator@PEAVBoid@1Application@@@std@@@std@@@std@@QEAAXXZ ; std::_Vector_alloc<std::_Vec_base_types<Application::Boid::Boid *,std::allocator<Application::Boid::Boid *> > >::_Orphan_all

; 1912 : 
; 1913 : 		if (this->_Myfirst() != pointer())

	mov	rcx, QWORD PTR this$[rbp]
	call	?_Myfirst@?$_Vector_alloc@U?$_Vec_base_types@PEAVBoid@1Application@@V?$allocator@PEAVBoid@1Application@@@std@@@std@@@std@@QEAAAEAPEAPEAVBoid@3Application@@XZ ; std::_Vector_alloc<std::_Vec_base_types<Application::Boid::Boid *,std::allocator<Application::Boid::Boid *> > >::_Myfirst
	cmp	QWORD PTR [rax], 0
	je	$LN2@Tidy

; 1914 : 			{	// destroy and deallocate old array
; 1915 : 			_Destroy(this->_Myfirst(), this->_Mylast());

	mov	rcx, QWORD PTR this$[rbp]
	call	?_Mylast@?$_Vector_alloc@U?$_Vec_base_types@PEAVBoid@1Application@@V?$allocator@PEAVBoid@1Application@@@std@@@std@@@std@@QEAAAEAPEAPEAVBoid@3Application@@XZ ; std::_Vector_alloc<std::_Vec_base_types<Application::Boid::Boid *,std::allocator<Application::Boid::Boid *> > >::_Mylast
	mov	QWORD PTR tv82[rbp], rax
	mov	rcx, QWORD PTR this$[rbp]
	call	?_Myfirst@?$_Vector_alloc@U?$_Vec_base_types@PEAVBoid@1Application@@V?$allocator@PEAVBoid@1Application@@@std@@@std@@@std@@QEAAAEAPEAPEAVBoid@3Application@@XZ ; std::_Vector_alloc<std::_Vec_base_types<Application::Boid::Boid *,std::allocator<Application::Boid::Boid *> > >::_Myfirst
	mov	rcx, QWORD PTR tv82[rbp]
	mov	r8, QWORD PTR [rcx]
	mov	rdx, QWORD PTR [rax]
	mov	rcx, QWORD PTR this$[rbp]
	call	?_Destroy@?$vector@PEAVBoid@1Application@@V?$allocator@PEAVBoid@1Application@@@std@@@std@@AEAAXPEAPEAVBoid@3Application@@0@Z ; std::vector<Application::Boid::Boid *,std::allocator<Application::Boid::Boid *> >::_Destroy

; 1916 : 			this->_Getal().deallocate(this->_Myfirst(), capacity());

	mov	rcx, QWORD PTR this$[rbp]
	call	?capacity@?$vector@PEAVBoid@1Application@@V?$allocator@PEAVBoid@1Application@@@std@@@std@@QEBA_KXZ ; std::vector<Application::Boid::Boid *,std::allocator<Application::Boid::Boid *> >::capacity
	mov	QWORD PTR tv131[rbp], rax
	mov	rcx, QWORD PTR this$[rbp]
	call	?_Myfirst@?$_Vector_alloc@U?$_Vec_base_types@PEAVBoid@1Application@@V?$allocator@PEAVBoid@1Application@@@std@@@std@@@std@@QEAAAEAPEAPEAVBoid@3Application@@XZ ; std::_Vector_alloc<std::_Vec_base_types<Application::Boid::Boid *,std::allocator<Application::Boid::Boid *> > >::_Myfirst
	mov	QWORD PTR tv138[rbp], rax
	mov	rcx, QWORD PTR this$[rbp]
	call	?_Getal@?$_Vector_alloc@U?$_Vec_base_types@PEAVBoid@1Application@@V?$allocator@PEAVBoid@1Application@@@std@@@std@@@std@@QEAAAEAV?$allocator@PEAVBoid@1Application@@@2@XZ ; std::_Vector_alloc<std::_Vec_base_types<Application::Boid::Boid *,std::allocator<Application::Boid::Boid *> > >::_Getal
	mov	rcx, QWORD PTR tv131[rbp]
	mov	r8, rcx
	mov	rcx, QWORD PTR tv138[rbp]
	mov	rdx, QWORD PTR [rcx]
	mov	rcx, rax
	call	?deallocate@?$allocator@PEAVBoid@1Application@@@std@@QEAAXQEAPEAVBoid@3Application@@_K@Z ; std::allocator<Application::Boid::Boid *>::deallocate

; 1917 : 
; 1918 : 			this->_Myfirst() = pointer();

	mov	rcx, QWORD PTR this$[rbp]
	call	?_Myfirst@?$_Vector_alloc@U?$_Vec_base_types@PEAVBoid@1Application@@V?$allocator@PEAVBoid@1Application@@@std@@@std@@@std@@QEAAAEAPEAPEAVBoid@3Application@@XZ ; std::_Vector_alloc<std::_Vec_base_types<Application::Boid::Boid *,std::allocator<Application::Boid::Boid *> > >::_Myfirst
	mov	QWORD PTR [rax], 0

; 1919 : 			this->_Mylast() = pointer();

	mov	rcx, QWORD PTR this$[rbp]
	call	?_Mylast@?$_Vector_alloc@U?$_Vec_base_types@PEAVBoid@1Application@@V?$allocator@PEAVBoid@1Application@@@std@@@std@@@std@@QEAAAEAPEAPEAVBoid@3Application@@XZ ; std::_Vector_alloc<std::_Vec_base_types<Application::Boid::Boid *,std::allocator<Application::Boid::Boid *> > >::_Mylast
	mov	QWORD PTR [rax], 0

; 1920 : 			this->_Myend() = pointer();

	mov	rcx, QWORD PTR this$[rbp]
	call	?_Myend@?$_Vector_alloc@U?$_Vec_base_types@PEAVBoid@1Application@@V?$allocator@PEAVBoid@1Application@@@std@@@std@@@std@@QEAAAEAPEAPEAVBoid@3Application@@XZ ; std::_Vector_alloc<std::_Vec_base_types<Application::Boid::Boid *,std::allocator<Application::Boid::Boid *> > >::_Myend
	mov	QWORD PTR [rax], 0
$LN2@Tidy:

; 1921 : 			}
; 1922 : 		}

	lea	rsp, QWORD PTR [rbp+80]
	pop	rbp
	ret	0
?_Tidy@?$vector@PEAVBoid@1Application@@V?$allocator@PEAVBoid@1Application@@@std@@@std@@AEAAXXZ ENDP ; std::vector<Application::Boid::Boid *,std::allocator<Application::Boid::Boid *> >::_Tidy
_TEXT	ENDS
; Function compile flags: /Odtp /RTCu /ZI
; File c:\program files (x86)\microsoft visual studio\2017\enterprise\vc\tools\msvc\14.15.26726\include\vector
;	COMDAT ?_Change_array@?$vector@PEAVBoid@1Application@@V?$allocator@PEAVBoid@1Application@@@std@@@std@@AEAAXQEAPEAVBoid@3Application@@_K1@Z
_TEXT	SEGMENT
tv161 = 64
tv153 = 64
tv131 = 64
tv82 = 64
tv138 = 72
this$ = 96
_Newvec$ = 104
_Newsize$ = 112
_Newcapacity$ = 120
?_Change_array@?$vector@PEAVBoid@1Application@@V?$allocator@PEAVBoid@1Application@@@std@@@std@@AEAAXQEAPEAVBoid@3Application@@_K1@Z PROC ; std::vector<Application::Boid::Boid *,std::allocator<Application::Boid::Boid *> >::_Change_array, COMDAT

; 1895 : 		{	// orphan all iterators, discard old array, acquire new array

$LN4:
	mov	QWORD PTR [rsp+32], r9
	mov	QWORD PTR [rsp+24], r8
	mov	QWORD PTR [rsp+16], rdx
	mov	QWORD PTR [rsp+8], rcx
	push	rbp
	sub	rsp, 112				; 00000070H
	lea	rbp, QWORD PTR [rsp+32]
	lea	rcx, OFFSET FLAT:__327B7881_vector
	call	__CheckForDebuggerJustMyCode

; 1896 : 		this->_Orphan_all();

	mov	rcx, QWORD PTR this$[rbp]
	call	?_Orphan_all@?$_Vector_alloc@U?$_Vec_base_types@PEAVBoid@1Application@@V?$allocator@PEAVBoid@1Application@@@std@@@std@@@std@@QEAAXXZ ; std::_Vector_alloc<std::_Vec_base_types<Application::Boid::Boid *,std::allocator<Application::Boid::Boid *> > >::_Orphan_all

; 1897 : 
; 1898 : 		if (this->_Myfirst() != pointer())

	mov	rcx, QWORD PTR this$[rbp]
	call	?_Myfirst@?$_Vector_alloc@U?$_Vec_base_types@PEAVBoid@1Application@@V?$allocator@PEAVBoid@1Application@@@std@@@std@@@std@@QEAAAEAPEAPEAVBoid@3Application@@XZ ; std::_Vector_alloc<std::_Vec_base_types<Application::Boid::Boid *,std::allocator<Application::Boid::Boid *> > >::_Myfirst
	cmp	QWORD PTR [rax], 0
	je	SHORT $LN2@Change_arr

; 1899 : 			{	// destroy and deallocate old array
; 1900 : 			_Destroy(this->_Myfirst(), this->_Mylast());

	mov	rcx, QWORD PTR this$[rbp]
	call	?_Mylast@?$_Vector_alloc@U?$_Vec_base_types@PEAVBoid@1Application@@V?$allocator@PEAVBoid@1Application@@@std@@@std@@@std@@QEAAAEAPEAPEAVBoid@3Application@@XZ ; std::_Vector_alloc<std::_Vec_base_types<Application::Boid::Boid *,std::allocator<Application::Boid::Boid *> > >::_Mylast
	mov	QWORD PTR tv82[rbp], rax
	mov	rcx, QWORD PTR this$[rbp]
	call	?_Myfirst@?$_Vector_alloc@U?$_Vec_base_types@PEAVBoid@1Application@@V?$allocator@PEAVBoid@1Application@@@std@@@std@@@std@@QEAAAEAPEAPEAVBoid@3Application@@XZ ; std::_Vector_alloc<std::_Vec_base_types<Application::Boid::Boid *,std::allocator<Application::Boid::Boid *> > >::_Myfirst
	mov	rcx, QWORD PTR tv82[rbp]
	mov	r8, QWORD PTR [rcx]
	mov	rdx, QWORD PTR [rax]
	mov	rcx, QWORD PTR this$[rbp]
	call	?_Destroy@?$vector@PEAVBoid@1Application@@V?$allocator@PEAVBoid@1Application@@@std@@@std@@AEAAXPEAPEAVBoid@3Application@@0@Z ; std::vector<Application::Boid::Boid *,std::allocator<Application::Boid::Boid *> >::_Destroy

; 1901 : 			this->_Getal().deallocate(this->_Myfirst(), capacity());

	mov	rcx, QWORD PTR this$[rbp]
	call	?capacity@?$vector@PEAVBoid@1Application@@V?$allocator@PEAVBoid@1Application@@@std@@@std@@QEBA_KXZ ; std::vector<Application::Boid::Boid *,std::allocator<Application::Boid::Boid *> >::capacity
	mov	QWORD PTR tv131[rbp], rax
	mov	rcx, QWORD PTR this$[rbp]
	call	?_Myfirst@?$_Vector_alloc@U?$_Vec_base_types@PEAVBoid@1Application@@V?$allocator@PEAVBoid@1Application@@@std@@@std@@@std@@QEAAAEAPEAPEAVBoid@3Application@@XZ ; std::_Vector_alloc<std::_Vec_base_types<Application::Boid::Boid *,std::allocator<Application::Boid::Boid *> > >::_Myfirst
	mov	QWORD PTR tv138[rbp], rax
	mov	rcx, QWORD PTR this$[rbp]
	call	?_Getal@?$_Vector_alloc@U?$_Vec_base_types@PEAVBoid@1Application@@V?$allocator@PEAVBoid@1Application@@@std@@@std@@@std@@QEAAAEAV?$allocator@PEAVBoid@1Application@@@2@XZ ; std::_Vector_alloc<std::_Vec_base_types<Application::Boid::Boid *,std::allocator<Application::Boid::Boid *> > >::_Getal
	mov	rcx, QWORD PTR tv131[rbp]
	mov	r8, rcx
	mov	rcx, QWORD PTR tv138[rbp]
	mov	rdx, QWORD PTR [rcx]
	mov	rcx, rax
	call	?deallocate@?$allocator@PEAVBoid@1Application@@@std@@QEAAXQEAPEAVBoid@3Application@@_K@Z ; std::allocator<Application::Boid::Boid *>::deallocate
$LN2@Change_arr:

; 1902 : 			}
; 1903 : 
; 1904 : 		this->_Myfirst() = _Newvec;

	mov	rcx, QWORD PTR this$[rbp]
	call	?_Myfirst@?$_Vector_alloc@U?$_Vec_base_types@PEAVBoid@1Application@@V?$allocator@PEAVBoid@1Application@@@std@@@std@@@std@@QEAAAEAPEAPEAVBoid@3Application@@XZ ; std::_Vector_alloc<std::_Vec_base_types<Application::Boid::Boid *,std::allocator<Application::Boid::Boid *> > >::_Myfirst
	mov	rcx, QWORD PTR _Newvec$[rbp]
	mov	QWORD PTR [rax], rcx

; 1905 : 		this->_Mylast() = _Newvec + _Newsize;

	mov	rax, QWORD PTR _Newvec$[rbp]
	mov	rcx, QWORD PTR _Newsize$[rbp]
	lea	rax, QWORD PTR [rax+rcx*8]
	mov	QWORD PTR tv153[rbp], rax
	mov	rcx, QWORD PTR this$[rbp]
	call	?_Mylast@?$_Vector_alloc@U?$_Vec_base_types@PEAVBoid@1Application@@V?$allocator@PEAVBoid@1Application@@@std@@@std@@@std@@QEAAAEAPEAPEAVBoid@3Application@@XZ ; std::_Vector_alloc<std::_Vec_base_types<Application::Boid::Boid *,std::allocator<Application::Boid::Boid *> > >::_Mylast
	mov	rcx, QWORD PTR tv153[rbp]
	mov	QWORD PTR [rax], rcx

; 1906 : 		this->_Myend() = _Newvec + _Newcapacity;

	mov	rax, QWORD PTR _Newvec$[rbp]
	mov	rcx, QWORD PTR _Newcapacity$[rbp]
	lea	rax, QWORD PTR [rax+rcx*8]
	mov	QWORD PTR tv161[rbp], rax
	mov	rcx, QWORD PTR this$[rbp]
	call	?_Myend@?$_Vector_alloc@U?$_Vec_base_types@PEAVBoid@1Application@@V?$allocator@PEAVBoid@1Application@@@std@@@std@@@std@@QEAAAEAPEAPEAVBoid@3Application@@XZ ; std::_Vector_alloc<std::_Vec_base_types<Application::Boid::Boid *,std::allocator<Application::Boid::Boid *> > >::_Myend
	mov	rcx, QWORD PTR tv161[rbp]
	mov	QWORD PTR [rax], rcx

; 1907 : 		}

	lea	rsp, QWORD PTR [rbp+80]
	pop	rbp
	ret	0
?_Change_array@?$vector@PEAVBoid@1Application@@V?$allocator@PEAVBoid@1Application@@@std@@@std@@AEAAXQEAPEAVBoid@3Application@@_K1@Z ENDP ; std::vector<Application::Boid::Boid *,std::allocator<Application::Boid::Boid *> >::_Change_array
_TEXT	ENDS
; Function compile flags: /Odtp /RTCu /ZI
; File c:\program files (x86)\microsoft visual studio\2017\enterprise\vc\tools\msvc\14.15.26726\include\vector
;	COMDAT ?_Calculate_growth@?$vector@PEAVBoid@1Application@@V?$allocator@PEAVBoid@1Application@@@std@@@std@@AEBA_K_K@Z
_TEXT	SEGMENT
_Oldcapacity$ = 0
_Geometric$ = 8
tv67 = 80
this$ = 112
_Newsize$ = 120
?_Calculate_growth@?$vector@PEAVBoid@1Application@@V?$allocator@PEAVBoid@1Application@@@std@@@std@@AEBA_K_K@Z PROC ; std::vector<Application::Boid::Boid *,std::allocator<Application::Boid::Boid *> >::_Calculate_growth, COMDAT

; 1853 : 		{	// given _Oldcapacity and _Newsize, calculate geometric growth

$LN5:
	mov	QWORD PTR [rsp+16], rdx
	mov	QWORD PTR [rsp+8], rcx
	push	rbp
	sub	rsp, 128				; 00000080H
	lea	rbp, QWORD PTR [rsp+32]
	lea	rcx, OFFSET FLAT:__327B7881_vector
	call	__CheckForDebuggerJustMyCode

; 1854 : 		const size_type _Oldcapacity = capacity();

	mov	rcx, QWORD PTR this$[rbp]
	call	?capacity@?$vector@PEAVBoid@1Application@@V?$allocator@PEAVBoid@1Application@@@std@@@std@@QEBA_KXZ ; std::vector<Application::Boid::Boid *,std::allocator<Application::Boid::Boid *> >::capacity
	mov	QWORD PTR _Oldcapacity$[rbp], rax

; 1855 : 
; 1856 : 		if (_Oldcapacity > max_size() - _Oldcapacity / 2)

	mov	rcx, QWORD PTR this$[rbp]
	call	?max_size@?$vector@PEAVBoid@1Application@@V?$allocator@PEAVBoid@1Application@@@std@@@std@@QEBA_KXZ ; std::vector<Application::Boid::Boid *,std::allocator<Application::Boid::Boid *> >::max_size
	mov	QWORD PTR tv67[rbp], rax
	xor	edx, edx
	mov	rax, QWORD PTR _Oldcapacity$[rbp]
	mov	ecx, 2
	div	rcx
	mov	rcx, QWORD PTR tv67[rbp]
	sub	rcx, rax
	mov	rax, rcx
	cmp	QWORD PTR _Oldcapacity$[rbp], rax
	jbe	SHORT $LN2@Calculate_

; 1857 : 			{
; 1858 : 			return (_Newsize);	// geometric growth would overflow

	mov	rax, QWORD PTR _Newsize$[rbp]
	jmp	SHORT $LN1@Calculate_
$LN2@Calculate_:

; 1859 : 			}
; 1860 : 
; 1861 : 		const size_type _Geometric = _Oldcapacity + _Oldcapacity / 2;

	xor	edx, edx
	mov	rax, QWORD PTR _Oldcapacity$[rbp]
	mov	ecx, 2
	div	rcx
	mov	rcx, QWORD PTR _Oldcapacity$[rbp]
	add	rcx, rax
	mov	rax, rcx
	mov	QWORD PTR _Geometric$[rbp], rax

; 1862 : 
; 1863 : 		if (_Geometric < _Newsize)

	mov	rax, QWORD PTR _Newsize$[rbp]
	cmp	QWORD PTR _Geometric$[rbp], rax
	jae	SHORT $LN3@Calculate_

; 1864 : 			{
; 1865 : 			return (_Newsize);	// geometric growth would be insufficient

	mov	rax, QWORD PTR _Newsize$[rbp]
	jmp	SHORT $LN1@Calculate_
$LN3@Calculate_:

; 1866 : 			}
; 1867 : 
; 1868 : 		return (_Geometric);	// geometric growth is sufficient

	mov	rax, QWORD PTR _Geometric$[rbp]
$LN1@Calculate_:

; 1869 : 		}

	lea	rsp, QWORD PTR [rbp+96]
	pop	rbp
	ret	0
?_Calculate_growth@?$vector@PEAVBoid@1Application@@V?$allocator@PEAVBoid@1Application@@@std@@@std@@AEBA_K_K@Z ENDP ; std::vector<Application::Boid::Boid *,std::allocator<Application::Boid::Boid *> >::_Calculate_growth
_TEXT	ENDS
; Function compile flags: /Odtp /RTCu /ZI
; File c:\program files (x86)\microsoft visual studio\2017\enterprise\vc\tools\msvc\14.15.26726\include\vector
;	COMDAT ?_Destroy@?$vector@PEAVBoid@1Application@@V?$allocator@PEAVBoid@1Application@@@std@@@std@@AEAAXPEAPEAVBoid@3Application@@0@Z
_TEXT	SEGMENT
this$ = 80
_First$ = 88
_Last$ = 96
?_Destroy@?$vector@PEAVBoid@1Application@@V?$allocator@PEAVBoid@1Application@@@std@@@std@@AEAAXPEAPEAVBoid@3Application@@0@Z PROC ; std::vector<Application::Boid::Boid *,std::allocator<Application::Boid::Boid *> >::_Destroy, COMDAT

; 1848 : 		{	// destroy [_First, _Last) using allocator

$LN3:
	mov	QWORD PTR [rsp+24], r8
	mov	QWORD PTR [rsp+16], rdx
	mov	QWORD PTR [rsp+8], rcx
	push	rbp
	sub	rsp, 96					; 00000060H
	lea	rbp, QWORD PTR [rsp+32]
	lea	rcx, OFFSET FLAT:__327B7881_vector
	call	__CheckForDebuggerJustMyCode

; 1849 : 		_Destroy_range(_First, _Last, this->_Getal());

	mov	rcx, QWORD PTR this$[rbp]
	call	?_Getal@?$_Vector_alloc@U?$_Vec_base_types@PEAVBoid@1Application@@V?$allocator@PEAVBoid@1Application@@@std@@@std@@@std@@QEAAAEAV?$allocator@PEAVBoid@1Application@@@2@XZ ; std::_Vector_alloc<std::_Vec_base_types<Application::Boid::Boid *,std::allocator<Application::Boid::Boid *> > >::_Getal
	mov	r8, rax
	mov	rdx, QWORD PTR _Last$[rbp]
	mov	rcx, QWORD PTR _First$[rbp]
	call	??$_Destroy_range@V?$allocator@PEAVBoid@1Application@@@std@@@std@@YAXPEAPEAVBoid@1Application@@0AEAV?$allocator@PEAVBoid@1Application@@@0@@Z ; std::_Destroy_range<std::allocator<Application::Boid::Boid *> >

; 1850 : 		}

	lea	rsp, QWORD PTR [rbp+64]
	pop	rbp
	ret	0
?_Destroy@?$vector@PEAVBoid@1Application@@V?$allocator@PEAVBoid@1Application@@@std@@@std@@AEAAXPEAPEAVBoid@3Application@@0@Z ENDP ; std::vector<Application::Boid::Boid *,std::allocator<Application::Boid::Boid *> >::_Destroy
_TEXT	ENDS
; Function compile flags: /Odtp /RTCu /ZI
; File c:\program files (x86)\microsoft visual studio\2017\enterprise\vc\tools\msvc\14.15.26726\include\vector
;	COMDAT ?_Umove_if_noexcept@?$vector@PEAVBoid@1Application@@V?$allocator@PEAVBoid@1Application@@@std@@@std@@AEAAXPEAPEAVBoid@3Application@@00@Z
_TEXT	SEGMENT
$T1 = 64
this$ = 112
_First$ = 120
_Last$ = 128
_Dest$ = 136
?_Umove_if_noexcept@?$vector@PEAVBoid@1Application@@V?$allocator@PEAVBoid@1Application@@@std@@@std@@AEAAXPEAPEAVBoid@3Application@@00@Z PROC ; std::vector<Application::Boid::Boid *,std::allocator<Application::Boid::Boid *> >::_Umove_if_noexcept, COMDAT

; 1842 : 		{	// move_if_noexcept [_First, _Last) to raw _Dest, using allocator

$LN3:
	mov	QWORD PTR [rsp+32], r9
	mov	QWORD PTR [rsp+24], r8
	mov	QWORD PTR [rsp+16], rdx
	mov	QWORD PTR [rsp+8], rcx
	push	rbp
	push	rdi
	sub	rsp, 136				; 00000088H
	lea	rbp, QWORD PTR [rsp+48]
	lea	rcx, OFFSET FLAT:__327B7881_vector
	call	__CheckForDebuggerJustMyCode

; 1843 : 		_Umove_if_noexcept1(_First, _Last, _Dest,

	lea	rax, QWORD PTR $T1[rbp]
	mov	rdi, rax
	xor	eax, eax
	mov	ecx, 1
	rep stosb
	movzx	eax, BYTE PTR $T1[rbp]
	mov	BYTE PTR [rsp+32], al
	mov	r9, QWORD PTR _Dest$[rbp]
	mov	r8, QWORD PTR _Last$[rbp]
	mov	rdx, QWORD PTR _First$[rbp]
	mov	rcx, QWORD PTR this$[rbp]
	call	?_Umove_if_noexcept1@?$vector@PEAVBoid@1Application@@V?$allocator@PEAVBoid@1Application@@@std@@@std@@AEAAXPEAPEAVBoid@3Application@@00U?$integral_constant@_N$00@2@@Z ; std::vector<Application::Boid::Boid *,std::allocator<Application::Boid::Boid *> >::_Umove_if_noexcept1

; 1844 : 			bool_constant<disjunction_v<is_nothrow_move_constructible<_Ty>, negation<is_copy_constructible<_Ty>>>>{});
; 1845 : 		}

	lea	rsp, QWORD PTR [rbp+88]
	pop	rdi
	pop	rbp
	ret	0
?_Umove_if_noexcept@?$vector@PEAVBoid@1Application@@V?$allocator@PEAVBoid@1Application@@@std@@@std@@AEAAXPEAPEAVBoid@3Application@@00@Z ENDP ; std::vector<Application::Boid::Boid *,std::allocator<Application::Boid::Boid *> >::_Umove_if_noexcept
_TEXT	ENDS
; Function compile flags: /Odtp /RTCu /ZI
; File c:\program files (x86)\microsoft visual studio\2017\enterprise\vc\tools\msvc\14.15.26726\include\vector
;	COMDAT ?_Umove_if_noexcept1@?$vector@PEAVBoid@1Application@@V?$allocator@PEAVBoid@1Application@@@std@@@std@@AEAAXPEAPEAVBoid@3Application@@00U?$integral_constant@_N$00@2@@Z
_TEXT	SEGMENT
this$ = 80
_First$ = 88
_Last$ = 96
_Dest$ = 104
__formal$ = 112
?_Umove_if_noexcept1@?$vector@PEAVBoid@1Application@@V?$allocator@PEAVBoid@1Application@@@std@@@std@@AEAAXPEAPEAVBoid@3Application@@00U?$integral_constant@_N$00@2@@Z PROC ; std::vector<Application::Boid::Boid *,std::allocator<Application::Boid::Boid *> >::_Umove_if_noexcept1, COMDAT

; 1832 : 		{	// move [_First, _Last) to raw _Dest, using allocator

$LN3:
	mov	QWORD PTR [rsp+32], r9
	mov	QWORD PTR [rsp+24], r8
	mov	QWORD PTR [rsp+16], rdx
	mov	QWORD PTR [rsp+8], rcx
	push	rbp
	sub	rsp, 96					; 00000060H
	lea	rbp, QWORD PTR [rsp+32]
	lea	rcx, OFFSET FLAT:__327B7881_vector
	call	__CheckForDebuggerJustMyCode

; 1833 : 		_Uninitialized_move(_First, _Last, _Dest, this->_Getal());

	mov	rcx, QWORD PTR this$[rbp]
	call	?_Getal@?$_Vector_alloc@U?$_Vec_base_types@PEAVBoid@1Application@@V?$allocator@PEAVBoid@1Application@@@std@@@std@@@std@@QEAAAEAV?$allocator@PEAVBoid@1Application@@@2@XZ ; std::_Vector_alloc<std::_Vec_base_types<Application::Boid::Boid *,std::allocator<Application::Boid::Boid *> > >::_Getal
	mov	r9, rax
	mov	r8, QWORD PTR _Dest$[rbp]
	mov	rdx, QWORD PTR _Last$[rbp]
	mov	rcx, QWORD PTR _First$[rbp]
	call	??$_Uninitialized_move@PEAPEAVBoid@1Application@@PEAPEAV112@V?$allocator@PEAVBoid@1Application@@@std@@@std@@YAPEAPEAVBoid@1Application@@QEAPEAV112@0PEAPEAV112@AEAV?$allocator@PEAVBoid@1Application@@@0@@Z ; std::_Uninitialized_move<Application::Boid::Boid * *,Application::Boid::Boid * *,std::allocator<Application::Boid::Boid *> >

; 1834 : 		}

	lea	rsp, QWORD PTR [rbp+64]
	pop	rbp
	ret	0
?_Umove_if_noexcept1@?$vector@PEAVBoid@1Application@@V?$allocator@PEAVBoid@1Application@@@std@@@std@@AEAAXPEAPEAVBoid@3Application@@00U?$integral_constant@_N$00@2@@Z ENDP ; std::vector<Application::Boid::Boid *,std::allocator<Application::Boid::Boid *> >::_Umove_if_noexcept1
_TEXT	ENDS
; Function compile flags: /Odtp /RTCu /ZI
; File c:\program files (x86)\microsoft visual studio\2017\enterprise\vc\tools\msvc\14.15.26726\include\vector
;	COMDAT ?_Umove@?$vector@PEAVBoid@1Application@@V?$allocator@PEAVBoid@1Application@@@std@@@std@@AEAAPEAPEAVBoid@3Application@@PEAPEAV334@00@Z
_TEXT	SEGMENT
this$ = 80
_First$ = 88
_Last$ = 96
_Dest$ = 104
?_Umove@?$vector@PEAVBoid@1Application@@V?$allocator@PEAVBoid@1Application@@@std@@@std@@AEAAPEAPEAVBoid@3Application@@PEAPEAV334@00@Z PROC ; std::vector<Application::Boid::Boid *,std::allocator<Application::Boid::Boid *> >::_Umove, COMDAT

; 1827 : 		{	// move [_First, _Last) to raw _Dest, using allocator

$LN3:
	mov	QWORD PTR [rsp+32], r9
	mov	QWORD PTR [rsp+24], r8
	mov	QWORD PTR [rsp+16], rdx
	mov	QWORD PTR [rsp+8], rcx
	push	rbp
	sub	rsp, 96					; 00000060H
	lea	rbp, QWORD PTR [rsp+32]
	lea	rcx, OFFSET FLAT:__327B7881_vector
	call	__CheckForDebuggerJustMyCode

; 1828 : 		return (_Uninitialized_move(_First, _Last, _Dest, this->_Getal()));

	mov	rcx, QWORD PTR this$[rbp]
	call	?_Getal@?$_Vector_alloc@U?$_Vec_base_types@PEAVBoid@1Application@@V?$allocator@PEAVBoid@1Application@@@std@@@std@@@std@@QEAAAEAV?$allocator@PEAVBoid@1Application@@@2@XZ ; std::_Vector_alloc<std::_Vec_base_types<Application::Boid::Boid *,std::allocator<Application::Boid::Boid *> > >::_Getal
	mov	r9, rax
	mov	r8, QWORD PTR _Dest$[rbp]
	mov	rdx, QWORD PTR _Last$[rbp]
	mov	rcx, QWORD PTR _First$[rbp]
	call	??$_Uninitialized_move@PEAPEAVBoid@1Application@@PEAPEAV112@V?$allocator@PEAVBoid@1Application@@@std@@@std@@YAPEAPEAVBoid@1Application@@QEAPEAV112@0PEAPEAV112@AEAV?$allocator@PEAVBoid@1Application@@@0@@Z ; std::_Uninitialized_move<Application::Boid::Boid * *,Application::Boid::Boid * *,std::allocator<Application::Boid::Boid *> >

; 1829 : 		}

	lea	rsp, QWORD PTR [rbp+64]
	pop	rbp
	ret	0
?_Umove@?$vector@PEAVBoid@1Application@@V?$allocator@PEAVBoid@1Application@@@std@@@std@@AEAAPEAPEAVBoid@3Application@@PEAPEAV334@00@Z ENDP ; std::vector<Application::Boid::Boid *,std::allocator<Application::Boid::Boid *> >::_Umove
_TEXT	ENDS
; Function compile flags: /Odtp /RTCu /ZI
; File c:\program files (x86)\microsoft visual studio\2017\enterprise\vc\tools\msvc\14.15.26726\include\vector
;	COMDAT ??A?$vector@PEAVBoid@1Application@@V?$allocator@PEAVBoid@1Application@@@std@@@std@@QEBAAEBQEAVBoid@2Application@@_K@Z
_TEXT	SEGMENT
this$ = 80
_Pos$ = 88
??A?$vector@PEAVBoid@1Application@@V?$allocator@PEAVBoid@1Application@@@std@@@std@@QEBAAEBQEAVBoid@2Application@@_K@Z PROC ; std::vector<Application::Boid::Boid *,std::allocator<Application::Boid::Boid *> >::operator[], COMDAT

; 1740 : 		{	// subscript nonmutable sequence

$LN12:
	mov	QWORD PTR [rsp+16], rdx
	mov	QWORD PTR [rsp+8], rcx
	push	rbp
	sub	rsp, 112				; 00000070H
	lea	rbp, QWORD PTR [rsp+48]
	lea	rcx, OFFSET FLAT:__327B7881_vector
	call	__CheckForDebuggerJustMyCode
$LN4@operator:

; 1741 :  #if _ITERATOR_DEBUG_LEVEL != 0
; 1742 : 		_STL_VERIFY(_Pos < size(), "vector subscript out of range");

	mov	rcx, QWORD PTR this$[rbp]
	call	?size@?$vector@PEAVBoid@1Application@@V?$allocator@PEAVBoid@1Application@@@std@@@std@@QEBA_KXZ ; std::vector<Application::Boid::Boid *,std::allocator<Application::Boid::Boid *> >::size
	cmp	QWORD PTR _Pos$[rbp], rax
	jae	SHORT $LN8@operator
	jmp	SHORT $LN9@operator
$LN8@operator:
$LN7@operator:
	lea	rax, OFFSET FLAT:??_C@_0BO@PFKOHNJC@vector?5subscript?5out?5of?5range@
	mov	QWORD PTR [rsp+40], rax
	lea	rax, OFFSET FLAT:??_C@_02DKCKIIND@?$CFs@
	mov	QWORD PTR [rsp+32], rax
	xor	r9d, r9d
	mov	r8d, 1742				; 000006ceH
	lea	rdx, OFFSET FLAT:??_C@_0GI@LCGNDFBO@c?3?2program?5files?5?$CIx86?$CJ?2microsof@
	mov	ecx, 2
	call	QWORD PTR __imp__CrtDbgReport
	cmp	eax, 1
	jne	SHORT $LN11@operator
	int	3
	xor	eax, eax
$LN11@operator:
	mov	QWORD PTR [rsp+32], 0
	mov	r9d, 1742				; 000006ceH
	lea	r8, OFFSET FLAT:??_C@_1NA@LINFDFEH@?$AAc?$AA?3?$AA?2?$AAp?$AAr?$AAo?$AAg?$AAr?$AAa?$AAm?$AA?5?$AAf?$AAi?$AAl?$AAe@
	lea	rdx, OFFSET FLAT:??_C@_1OC@PHEOANKE@?$AAs?$AAt?$AAd?$AA?3?$AA?3?$AAv?$AAe?$AAc?$AAt?$AAo?$AAr?$AA?$DM?$AAc?$AAl?$AAa@
	lea	rcx, OFFSET FLAT:??_C@_1EA@LEKOKFNB@?$AA?$CC?$AAv?$AAe?$AAc?$AAt?$AAo?$AAr?$AA?5?$AAs?$AAu?$AAb?$AAs?$AAc?$AAr?$AAi@
	call	QWORD PTR __imp__invalid_parameter
	xor	eax, eax
	test	eax, eax
	jne	SHORT $LN7@operator
$LN9@operator:
	xor	eax, eax
	test	eax, eax
	jne	$LN4@operator

; 1743 :  #endif /* _ITERATOR_DEBUG_LEVEL != 0 */
; 1744 : 
; 1745 : 		return (this->_Myfirst()[_Pos]);

	mov	rcx, QWORD PTR this$[rbp]
	call	?_Myfirst@?$_Vector_alloc@U?$_Vec_base_types@PEAVBoid@1Application@@V?$allocator@PEAVBoid@1Application@@@std@@@std@@@std@@QEBAAEBQEAPEAVBoid@3Application@@XZ ; std::_Vector_alloc<std::_Vec_base_types<Application::Boid::Boid *,std::allocator<Application::Boid::Boid *> > >::_Myfirst
	mov	rax, QWORD PTR [rax]
	mov	rcx, QWORD PTR _Pos$[rbp]
	lea	rax, QWORD PTR [rax+rcx*8]

; 1746 : 		}

	lea	rsp, QWORD PTR [rbp+64]
	pop	rbp
	ret	0
??A?$vector@PEAVBoid@1Application@@V?$allocator@PEAVBoid@1Application@@@std@@@std@@QEBAAEBQEAVBoid@2Application@@_K@Z ENDP ; std::vector<Application::Boid::Boid *,std::allocator<Application::Boid::Boid *> >::operator[]
_TEXT	ENDS
; Function compile flags: /Odtp /RTCu /ZI
; File c:\program files (x86)\microsoft visual studio\2017\enterprise\vc\tools\msvc\14.15.26726\include\vector
;	COMDAT ??A?$vector@PEAVBoid@1Application@@V?$allocator@PEAVBoid@1Application@@@std@@@std@@QEAAAEAPEAVBoid@2Application@@_K@Z
_TEXT	SEGMENT
this$ = 80
_Pos$ = 88
??A?$vector@PEAVBoid@1Application@@V?$allocator@PEAVBoid@1Application@@@std@@@std@@QEAAAEAPEAVBoid@2Application@@_K@Z PROC ; std::vector<Application::Boid::Boid *,std::allocator<Application::Boid::Boid *> >::operator[], COMDAT

; 1731 : 		{	// subscript mutable sequence

$LN12:
	mov	QWORD PTR [rsp+16], rdx
	mov	QWORD PTR [rsp+8], rcx
	push	rbp
	sub	rsp, 112				; 00000070H
	lea	rbp, QWORD PTR [rsp+48]
	lea	rcx, OFFSET FLAT:__327B7881_vector
	call	__CheckForDebuggerJustMyCode
$LN4@operator:

; 1732 :  #if _ITERATOR_DEBUG_LEVEL != 0
; 1733 : 		_STL_VERIFY(_Pos < size(), "vector subscript out of range");

	mov	rcx, QWORD PTR this$[rbp]
	call	?size@?$vector@PEAVBoid@1Application@@V?$allocator@PEAVBoid@1Application@@@std@@@std@@QEBA_KXZ ; std::vector<Application::Boid::Boid *,std::allocator<Application::Boid::Boid *> >::size
	cmp	QWORD PTR _Pos$[rbp], rax
	jae	SHORT $LN8@operator
	jmp	SHORT $LN9@operator
$LN8@operator:
$LN7@operator:
	lea	rax, OFFSET FLAT:??_C@_0BO@PFKOHNJC@vector?5subscript?5out?5of?5range@
	mov	QWORD PTR [rsp+40], rax
	lea	rax, OFFSET FLAT:??_C@_02DKCKIIND@?$CFs@
	mov	QWORD PTR [rsp+32], rax
	xor	r9d, r9d
	mov	r8d, 1733				; 000006c5H
	lea	rdx, OFFSET FLAT:??_C@_0GI@LCGNDFBO@c?3?2program?5files?5?$CIx86?$CJ?2microsof@
	mov	ecx, 2
	call	QWORD PTR __imp__CrtDbgReport
	cmp	eax, 1
	jne	SHORT $LN11@operator
	int	3
	xor	eax, eax
$LN11@operator:
	mov	QWORD PTR [rsp+32], 0
	mov	r9d, 1733				; 000006c5H
	lea	r8, OFFSET FLAT:??_C@_1NA@LINFDFEH@?$AAc?$AA?3?$AA?2?$AAp?$AAr?$AAo?$AAg?$AAr?$AAa?$AAm?$AA?5?$AAf?$AAi?$AAl?$AAe@
	lea	rdx, OFFSET FLAT:??_C@_1OC@PHEOANKE@?$AAs?$AAt?$AAd?$AA?3?$AA?3?$AAv?$AAe?$AAc?$AAt?$AAo?$AAr?$AA?$DM?$AAc?$AAl?$AAa@
	lea	rcx, OFFSET FLAT:??_C@_1EA@LEKOKFNB@?$AA?$CC?$AAv?$AAe?$AAc?$AAt?$AAo?$AAr?$AA?5?$AAs?$AAu?$AAb?$AAs?$AAc?$AAr?$AAi@
	call	QWORD PTR __imp__invalid_parameter
	xor	eax, eax
	test	eax, eax
	jne	SHORT $LN7@operator
$LN9@operator:
	xor	eax, eax
	test	eax, eax
	jne	$LN4@operator

; 1734 :  #endif /* _ITERATOR_DEBUG_LEVEL != 0 */
; 1735 : 
; 1736 : 		return (this->_Myfirst()[_Pos]);

	mov	rcx, QWORD PTR this$[rbp]
	call	?_Myfirst@?$_Vector_alloc@U?$_Vec_base_types@PEAVBoid@1Application@@V?$allocator@PEAVBoid@1Application@@@std@@@std@@@std@@QEAAAEAPEAPEAVBoid@3Application@@XZ ; std::_Vector_alloc<std::_Vec_base_types<Application::Boid::Boid *,std::allocator<Application::Boid::Boid *> > >::_Myfirst
	mov	rax, QWORD PTR [rax]
	mov	rcx, QWORD PTR _Pos$[rbp]
	lea	rax, QWORD PTR [rax+rcx*8]

; 1737 : 		}

	lea	rsp, QWORD PTR [rbp+64]
	pop	rbp
	ret	0
??A?$vector@PEAVBoid@1Application@@V?$allocator@PEAVBoid@1Application@@@std@@@std@@QEAAAEAPEAVBoid@2Application@@_K@Z ENDP ; std::vector<Application::Boid::Boid *,std::allocator<Application::Boid::Boid *> >::operator[]
_TEXT	ENDS
; Function compile flags: /Odtp /RTCu /ZI
; File c:\program files (x86)\microsoft visual studio\2017\enterprise\vc\tools\msvc\14.15.26726\include\vector
;	COMDAT ?_Has_unused_capacity@?$vector@PEAVBoid@1Application@@V?$allocator@PEAVBoid@1Application@@@std@@@std@@AEBA_NXZ
_TEXT	SEGMENT
$T1 = 64
tv69 = 72
tv77 = 80
this$ = 112
?_Has_unused_capacity@?$vector@PEAVBoid@1Application@@V?$allocator@PEAVBoid@1Application@@@std@@@std@@AEBA_NXZ PROC ; std::vector<Application::Boid::Boid *,std::allocator<Application::Boid::Boid *> >::_Has_unused_capacity, COMDAT

; 1725 : 		{	// micro-optimization for capacity() != size()

$LN5:
	mov	QWORD PTR [rsp+8], rcx
	push	rbp
	sub	rsp, 128				; 00000080H
	lea	rbp, QWORD PTR [rsp+32]
	mov	QWORD PTR $T1[rbp], -2
	lea	rcx, OFFSET FLAT:__327B7881_vector
	call	__CheckForDebuggerJustMyCode
	npad	1

; 1726 : 		return (this->_Myend() != this->_Mylast());

	mov	rcx, QWORD PTR this$[rbp]
	call	?_Myend@?$_Vector_alloc@U?$_Vec_base_types@PEAVBoid@1Application@@V?$allocator@PEAVBoid@1Application@@@std@@@std@@@std@@QEBAAEBQEAPEAVBoid@3Application@@XZ ; std::_Vector_alloc<std::_Vec_base_types<Application::Boid::Boid *,std::allocator<Application::Boid::Boid *> > >::_Myend
	npad	1
	mov	QWORD PTR tv69[rbp], rax
	mov	rcx, QWORD PTR this$[rbp]
	call	?_Mylast@?$_Vector_alloc@U?$_Vec_base_types@PEAVBoid@1Application@@V?$allocator@PEAVBoid@1Application@@@std@@@std@@@std@@QEBAAEBQEAPEAVBoid@3Application@@XZ ; std::_Vector_alloc<std::_Vec_base_types<Application::Boid::Boid *,std::allocator<Application::Boid::Boid *> > >::_Mylast
	npad	1
	mov	rax, QWORD PTR [rax]
	mov	rcx, QWORD PTR tv69[rbp]
	cmp	QWORD PTR [rcx], rax
	je	SHORT $LN3@Has_unused
	mov	DWORD PTR tv77[rbp], 1
	jmp	SHORT $LN4@Has_unused
$LN3@Has_unused:
	mov	DWORD PTR tv77[rbp], 0
$LN4@Has_unused:
	movzx	eax, BYTE PTR tv77[rbp]

; 1727 : 		}

	lea	rsp, QWORD PTR [rbp+96]
	pop	rbp
	ret	0
?_Has_unused_capacity@?$vector@PEAVBoid@1Application@@V?$allocator@PEAVBoid@1Application@@@std@@@std@@AEBA_NXZ ENDP ; std::vector<Application::Boid::Boid *,std::allocator<Application::Boid::Boid *> >::_Has_unused_capacity
_TEXT	ENDS
; Function compile flags: /Odtp /RTCu /ZI
; File c:\program files (x86)\microsoft visual studio\2017\enterprise\vc\tools\msvc\14.15.26726\include\vector
;	COMDAT ?capacity@?$vector@PEAVBoid@1Application@@V?$allocator@PEAVBoid@1Application@@@std@@@std@@QEBA_KXZ
_TEXT	SEGMENT
$T1 = 64
tv69 = 72
this$ = 96
?capacity@?$vector@PEAVBoid@1Application@@V?$allocator@PEAVBoid@1Application@@@std@@@std@@QEBA_KXZ PROC ; std::vector<Application::Boid::Boid *,std::allocator<Application::Boid::Boid *> >::capacity, COMDAT

; 1714 : 		{	// return current length of allocated storage

$LN3:
	mov	QWORD PTR [rsp+8], rcx
	push	rbp
	sub	rsp, 112				; 00000070H
	lea	rbp, QWORD PTR [rsp+32]
	mov	QWORD PTR $T1[rbp], -2
	lea	rcx, OFFSET FLAT:__327B7881_vector
	call	__CheckForDebuggerJustMyCode
	npad	1

; 1715 : 		return (static_cast<size_type>(this->_Myend() - this->_Myfirst()));

	mov	rcx, QWORD PTR this$[rbp]
	call	?_Myend@?$_Vector_alloc@U?$_Vec_base_types@PEAVBoid@1Application@@V?$allocator@PEAVBoid@1Application@@@std@@@std@@@std@@QEBAAEBQEAPEAVBoid@3Application@@XZ ; std::_Vector_alloc<std::_Vec_base_types<Application::Boid::Boid *,std::allocator<Application::Boid::Boid *> > >::_Myend
	npad	1
	mov	QWORD PTR tv69[rbp], rax
	mov	rcx, QWORD PTR this$[rbp]
	call	?_Myfirst@?$_Vector_alloc@U?$_Vec_base_types@PEAVBoid@1Application@@V?$allocator@PEAVBoid@1Application@@@std@@@std@@@std@@QEBAAEBQEAPEAVBoid@3Application@@XZ ; std::_Vector_alloc<std::_Vec_base_types<Application::Boid::Boid *,std::allocator<Application::Boid::Boid *> > >::_Myfirst
	npad	1
	mov	rax, QWORD PTR [rax]
	mov	rcx, QWORD PTR tv69[rbp]
	mov	rcx, QWORD PTR [rcx]
	sub	rcx, rax
	mov	rax, rcx
	sar	rax, 3

; 1716 : 		}

	lea	rsp, QWORD PTR [rbp+80]
	pop	rbp
	ret	0
?capacity@?$vector@PEAVBoid@1Application@@V?$allocator@PEAVBoid@1Application@@@std@@@std@@QEBA_KXZ ENDP ; std::vector<Application::Boid::Boid *,std::allocator<Application::Boid::Boid *> >::capacity
_TEXT	ENDS
; Function compile flags: /Odtp /RTCu /ZI
; File c:\program files (x86)\microsoft visual studio\2017\enterprise\vc\tools\msvc\14.15.26726\include\vector
;	COMDAT ?max_size@?$vector@PEAVBoid@1Application@@V?$allocator@PEAVBoid@1Application@@@std@@@std@@QEBA_KXZ
_TEXT	SEGMENT
$T1 = 64
$T2 = 72
$T3 = 80
this$ = 112
?max_size@?$vector@PEAVBoid@1Application@@V?$allocator@PEAVBoid@1Application@@@std@@@std@@QEBA_KXZ PROC ; std::vector<Application::Boid::Boid *,std::allocator<Application::Boid::Boid *> >::max_size, COMDAT

; 1708 : 		{	// return maximum possible length of sequence

$LN3:
	mov	QWORD PTR [rsp+8], rcx
	push	rbp
	sub	rsp, 128				; 00000080H
	lea	rbp, QWORD PTR [rsp+32]
	mov	QWORD PTR $T3[rbp], -2
	lea	rcx, OFFSET FLAT:__327B7881_vector
	call	__CheckForDebuggerJustMyCode
	npad	1

; 1709 : 		return (_Min_value(static_cast<size_type>((numeric_limits<difference_type>::max)()),

	mov	rcx, QWORD PTR this$[rbp]
	call	?_Getal@?$_Vector_alloc@U?$_Vec_base_types@PEAVBoid@1Application@@V?$allocator@PEAVBoid@1Application@@@std@@@std@@@std@@QEBAAEBV?$allocator@PEAVBoid@1Application@@@2@XZ ; std::_Vector_alloc<std::_Vec_base_types<Application::Boid::Boid *,std::allocator<Application::Boid::Boid *> > >::_Getal
	npad	1
	mov	rcx, rax
	call	?max_size@?$_Default_allocator_traits@V?$allocator@PEAVBoid@1Application@@@std@@@std@@SA_KAEBV?$allocator@PEAVBoid@1Application@@@2@@Z ; std::_Default_allocator_traits<std::allocator<Application::Boid::Boid *> >::max_size
	npad	1
	mov	QWORD PTR $T1[rbp], rax
	call	?max@?$numeric_limits@_J@std@@SA_JXZ	; std::numeric_limits<__int64>::max
	npad	1
	mov	QWORD PTR $T2[rbp], rax
	lea	rdx, QWORD PTR $T1[rbp]
	lea	rcx, QWORD PTR $T2[rbp]
	call	??$_Min_value@_K@std@@YAAEB_KAEB_K0@Z	; std::_Min_value<unsigned __int64>
	npad	1
	mov	rax, QWORD PTR [rax]

; 1710 : 			_Alty_traits::max_size(this->_Getal())));
; 1711 : 		}

	lea	rsp, QWORD PTR [rbp+96]
	pop	rbp
	ret	0
?max_size@?$vector@PEAVBoid@1Application@@V?$allocator@PEAVBoid@1Application@@@std@@@std@@QEBA_KXZ ENDP ; std::vector<Application::Boid::Boid *,std::allocator<Application::Boid::Boid *> >::max_size
_TEXT	ENDS
; Function compile flags: /Odtp /RTCu /ZI
; File c:\program files (x86)\microsoft visual studio\2017\enterprise\vc\tools\msvc\14.15.26726\include\vector
;	COMDAT ?size@?$vector@PEAVBoid@1Application@@V?$allocator@PEAVBoid@1Application@@@std@@@std@@QEBA_KXZ
_TEXT	SEGMENT
$T1 = 64
tv69 = 72
this$ = 96
?size@?$vector@PEAVBoid@1Application@@V?$allocator@PEAVBoid@1Application@@@std@@@std@@QEBA_KXZ PROC ; std::vector<Application::Boid::Boid *,std::allocator<Application::Boid::Boid *> >::size, COMDAT

; 1703 : 		{	// return length of sequence

$LN3:
	mov	QWORD PTR [rsp+8], rcx
	push	rbp
	sub	rsp, 112				; 00000070H
	lea	rbp, QWORD PTR [rsp+32]
	mov	QWORD PTR $T1[rbp], -2
	lea	rcx, OFFSET FLAT:__327B7881_vector
	call	__CheckForDebuggerJustMyCode
	npad	1

; 1704 : 		return (static_cast<size_type>(this->_Mylast() - this->_Myfirst()));

	mov	rcx, QWORD PTR this$[rbp]
	call	?_Mylast@?$_Vector_alloc@U?$_Vec_base_types@PEAVBoid@1Application@@V?$allocator@PEAVBoid@1Application@@@std@@@std@@@std@@QEBAAEBQEAPEAVBoid@3Application@@XZ ; std::_Vector_alloc<std::_Vec_base_types<Application::Boid::Boid *,std::allocator<Application::Boid::Boid *> > >::_Mylast
	npad	1
	mov	QWORD PTR tv69[rbp], rax
	mov	rcx, QWORD PTR this$[rbp]
	call	?_Myfirst@?$_Vector_alloc@U?$_Vec_base_types@PEAVBoid@1Application@@V?$allocator@PEAVBoid@1Application@@@std@@@std@@@std@@QEBAAEBQEAPEAVBoid@3Application@@XZ ; std::_Vector_alloc<std::_Vec_base_types<Application::Boid::Boid *,std::allocator<Application::Boid::Boid *> > >::_Myfirst
	npad	1
	mov	rax, QWORD PTR [rax]
	mov	rcx, QWORD PTR tv69[rbp]
	mov	rcx, QWORD PTR [rcx]
	sub	rcx, rax
	mov	rax, rcx
	sar	rax, 3

; 1705 : 		}

	lea	rsp, QWORD PTR [rbp+80]
	pop	rbp
	ret	0
?size@?$vector@PEAVBoid@1Application@@V?$allocator@PEAVBoid@1Application@@@std@@@std@@QEBA_KXZ ENDP ; std::vector<Application::Boid::Boid *,std::allocator<Application::Boid::Boid *> >::size
_TEXT	ENDS
; Function compile flags: /Odtp /RTCu /ZI
; File c:\program files (x86)\microsoft visual studio\2017\enterprise\vc\tools\msvc\14.15.26726\include\vector
;	COMDAT ?clear@?$vector@PEAVBoid@1Application@@V?$allocator@PEAVBoid@1Application@@@std@@@std@@QEAAXXZ
_TEXT	SEGMENT
$T1 = 64
tv95 = 72
tv75 = 72
this$ = 96
?clear@?$vector@PEAVBoid@1Application@@V?$allocator@PEAVBoid@1Application@@@std@@@std@@QEAAXXZ PROC ; std::vector<Application::Boid::Boid *,std::allocator<Application::Boid::Boid *> >::clear, COMDAT

; 1589 : 		{	// erase all

$LN3:
	mov	QWORD PTR [rsp+8], rcx
	push	rbp
	sub	rsp, 112				; 00000070H
	lea	rbp, QWORD PTR [rsp+32]
	mov	QWORD PTR $T1[rbp], -2
	lea	rcx, OFFSET FLAT:__327B7881_vector
	call	__CheckForDebuggerJustMyCode
	npad	1

; 1590 : 		this->_Orphan_all();

	mov	rcx, QWORD PTR this$[rbp]
	call	?_Orphan_all@?$_Vector_alloc@U?$_Vec_base_types@PEAVBoid@1Application@@V?$allocator@PEAVBoid@1Application@@@std@@@std@@@std@@QEAAXXZ ; std::_Vector_alloc<std::_Vec_base_types<Application::Boid::Boid *,std::allocator<Application::Boid::Boid *> > >::_Orphan_all
	npad	1

; 1591 : 		_Destroy(this->_Myfirst(), this->_Mylast());

	mov	rcx, QWORD PTR this$[rbp]
	call	?_Mylast@?$_Vector_alloc@U?$_Vec_base_types@PEAVBoid@1Application@@V?$allocator@PEAVBoid@1Application@@@std@@@std@@@std@@QEAAAEAPEAPEAVBoid@3Application@@XZ ; std::_Vector_alloc<std::_Vec_base_types<Application::Boid::Boid *,std::allocator<Application::Boid::Boid *> > >::_Mylast
	npad	1
	mov	QWORD PTR tv75[rbp], rax
	mov	rcx, QWORD PTR this$[rbp]
	call	?_Myfirst@?$_Vector_alloc@U?$_Vec_base_types@PEAVBoid@1Application@@V?$allocator@PEAVBoid@1Application@@@std@@@std@@@std@@QEAAAEAPEAPEAVBoid@3Application@@XZ ; std::_Vector_alloc<std::_Vec_base_types<Application::Boid::Boid *,std::allocator<Application::Boid::Boid *> > >::_Myfirst
	npad	1
	mov	rcx, QWORD PTR tv75[rbp]
	mov	r8, QWORD PTR [rcx]
	mov	rdx, QWORD PTR [rax]
	mov	rcx, QWORD PTR this$[rbp]
	call	?_Destroy@?$vector@PEAVBoid@1Application@@V?$allocator@PEAVBoid@1Application@@@std@@@std@@AEAAXPEAPEAVBoid@3Application@@0@Z ; std::vector<Application::Boid::Boid *,std::allocator<Application::Boid::Boid *> >::_Destroy
	npad	1

; 1592 : 		this->_Mylast() = this->_Myfirst();

	mov	rcx, QWORD PTR this$[rbp]
	call	?_Myfirst@?$_Vector_alloc@U?$_Vec_base_types@PEAVBoid@1Application@@V?$allocator@PEAVBoid@1Application@@@std@@@std@@@std@@QEAAAEAPEAPEAVBoid@3Application@@XZ ; std::_Vector_alloc<std::_Vec_base_types<Application::Boid::Boid *,std::allocator<Application::Boid::Boid *> > >::_Myfirst
	npad	1
	mov	QWORD PTR tv95[rbp], rax
	mov	rcx, QWORD PTR this$[rbp]
	call	?_Mylast@?$_Vector_alloc@U?$_Vec_base_types@PEAVBoid@1Application@@V?$allocator@PEAVBoid@1Application@@@std@@@std@@@std@@QEAAAEAPEAPEAVBoid@3Application@@XZ ; std::_Vector_alloc<std::_Vec_base_types<Application::Boid::Boid *,std::allocator<Application::Boid::Boid *> > >::_Mylast
	npad	1
	mov	rcx, QWORD PTR tv95[rbp]
	mov	rcx, QWORD PTR [rcx]
	mov	QWORD PTR [rax], rcx

; 1593 : 		}

	lea	rsp, QWORD PTR [rbp+80]
	pop	rbp
	ret	0
?clear@?$vector@PEAVBoid@1Application@@V?$allocator@PEAVBoid@1Application@@@std@@@std@@QEAAXXZ ENDP ; std::vector<Application::Boid::Boid *,std::allocator<Application::Boid::Boid *> >::clear
_TEXT	ENDS
; Function compile flags: /Odtp /RTCu /ZI
; File c:\program files (x86)\microsoft visual studio\2017\enterprise\vc\tools\msvc\14.15.26726\include\vector
;	COMDAT ?push_back@?$vector@PEAVBoid@1Application@@V?$allocator@PEAVBoid@1Application@@@std@@@std@@QEAAXAEBQEAVBoid@3Application@@@Z
_TEXT	SEGMENT
this$ = 80
_Val$ = 88
?push_back@?$vector@PEAVBoid@1Application@@V?$allocator@PEAVBoid@1Application@@@std@@@std@@QEAAXAEBQEAVBoid@3Application@@@Z PROC ; std::vector<Application::Boid::Boid *,std::allocator<Application::Boid::Boid *> >::push_back, COMDAT

; 931  : 		{	// insert element at end, provide strong guarantee

$LN3:
	mov	QWORD PTR [rsp+16], rdx
	mov	QWORD PTR [rsp+8], rcx
	push	rbp
	sub	rsp, 96					; 00000060H
	lea	rbp, QWORD PTR [rsp+32]
	lea	rcx, OFFSET FLAT:__327B7881_vector
	call	__CheckForDebuggerJustMyCode

; 932  : 		emplace_back(_Val);

	mov	rdx, QWORD PTR _Val$[rbp]
	mov	rcx, QWORD PTR this$[rbp]
	call	??$emplace_back@AEBQEAVBoid@1Application@@@?$vector@PEAVBoid@1Application@@V?$allocator@PEAVBoid@1Application@@@std@@@std@@QEAA@AEBQEAVBoid@2Application@@@Z ; std::vector<Application::Boid::Boid *,std::allocator<Application::Boid::Boid *> >::emplace_back<Application::Boid::Boid * const &>

; 933  : 		}

	lea	rsp, QWORD PTR [rbp+64]
	pop	rbp
	ret	0
?push_back@?$vector@PEAVBoid@1Application@@V?$allocator@PEAVBoid@1Application@@@std@@@std@@QEAAXAEBQEAVBoid@3Application@@@Z ENDP ; std::vector<Application::Boid::Boid *,std::allocator<Application::Boid::Boid *> >::push_back
_TEXT	ENDS
; Function compile flags: /Odtp /RTCu /ZI
; File c:\program files (x86)\microsoft visual studio\2017\enterprise\vc\tools\msvc\14.15.26726\include\vector
;	COMDAT ??1?$vector@PEAVBoid@1Application@@V?$allocator@PEAVBoid@1Application@@@std@@@std@@QEAA@XZ
_TEXT	SEGMENT
$T1 = 64
this$ = 96
??1?$vector@PEAVBoid@1Application@@V?$allocator@PEAVBoid@1Application@@@std@@@std@@QEAA@XZ PROC ; std::vector<Application::Boid::Boid *,std::allocator<Application::Boid::Boid *> >::~vector<Application::Boid::Boid *,std::allocator<Application::Boid::Boid *> >, COMDAT

; 893  : 		{	// destroy the object

$LN3:
	mov	QWORD PTR [rsp+8], rcx
	push	rbp
	sub	rsp, 112				; 00000070H
	lea	rbp, QWORD PTR [rsp+32]
	mov	QWORD PTR $T1[rbp], -2
	lea	rcx, OFFSET FLAT:__327B7881_vector
	call	__CheckForDebuggerJustMyCode
	npad	1

; 894  : 		_Tidy();

	mov	rcx, QWORD PTR this$[rbp]
	call	?_Tidy@?$vector@PEAVBoid@1Application@@V?$allocator@PEAVBoid@1Application@@@std@@@std@@AEAAXXZ ; std::vector<Application::Boid::Boid *,std::allocator<Application::Boid::Boid *> >::_Tidy
	npad	1

; 895  : 		}

	mov	rcx, QWORD PTR this$[rbp]
	call	??1?$_Vector_alloc@U?$_Vec_base_types@PEAVBoid@1Application@@V?$allocator@PEAVBoid@1Application@@@std@@@std@@@std@@QEAA@XZ ; std::_Vector_alloc<std::_Vec_base_types<Application::Boid::Boid *,std::allocator<Application::Boid::Boid *> > >::~_Vector_alloc<std::_Vec_base_types<Application::Boid::Boid *,std::allocator<Application::Boid::Boid *> > >
	npad	1
	lea	rsp, QWORD PTR [rbp+80]
	pop	rbp
	ret	0
??1?$vector@PEAVBoid@1Application@@V?$allocator@PEAVBoid@1Application@@@std@@@std@@QEAA@XZ ENDP ; std::vector<Application::Boid::Boid *,std::allocator<Application::Boid::Boid *> >::~vector<Application::Boid::Boid *,std::allocator<Application::Boid::Boid *> >
_TEXT	ENDS
; Function compile flags: /Odtp /RTCu /ZI
; File c:\program files (x86)\microsoft visual studio\2017\enterprise\vc\tools\msvc\14.15.26726\include\vector
;	COMDAT ??0?$vector@PEAVBoid@1Application@@V?$allocator@PEAVBoid@1Application@@@std@@@std@@QEAA@XZ
_TEXT	SEGMENT
$T1 = 64
this$ = 96
??0?$vector@PEAVBoid@1Application@@V?$allocator@PEAVBoid@1Application@@@std@@@std@@QEAA@XZ PROC ; std::vector<Application::Boid::Boid *,std::allocator<Application::Boid::Boid *> >::vector<Application::Boid::Boid *,std::allocator<Application::Boid::Boid *> >, COMDAT

; 651  : 		{	// construct empty vector

$LN3:
	mov	QWORD PTR [rsp+8], rcx
	push	rbp
	sub	rsp, 112				; 00000070H
	lea	rbp, QWORD PTR [rsp+32]
	mov	QWORD PTR $T1[rbp], -2
	lea	rcx, OFFSET FLAT:__327B7881_vector
	call	__CheckForDebuggerJustMyCode
	npad	1

; 650  : 		: _Mybase()

	mov	rcx, QWORD PTR this$[rbp]
	call	??0?$_Vector_alloc@U?$_Vec_base_types@PEAVBoid@1Application@@V?$allocator@PEAVBoid@1Application@@@std@@@std@@@std@@QEAA@XZ ; std::_Vector_alloc<std::_Vec_base_types<Application::Boid::Boid *,std::allocator<Application::Boid::Boid *> > >::_Vector_alloc<std::_Vec_base_types<Application::Boid::Boid *,std::allocator<Application::Boid::Boid *> > >
	npad	1

; 652  : 		}

	mov	rax, QWORD PTR this$[rbp]
	lea	rsp, QWORD PTR [rbp+80]
	pop	rbp
	ret	0
??0?$vector@PEAVBoid@1Application@@V?$allocator@PEAVBoid@1Application@@@std@@@std@@QEAA@XZ ENDP ; std::vector<Application::Boid::Boid *,std::allocator<Application::Boid::Boid *> >::vector<Application::Boid::Boid *,std::allocator<Application::Boid::Boid *> >
_TEXT	ENDS
; Function compile flags: /Odtp /RTCu /ZI
; File c:\program files (x86)\microsoft visual studio\2017\enterprise\vc\tools\msvc\14.15.26726\include\xutility
;	COMDAT ?_Get_second@?$_Compressed_pair@V?$allocator@PEAVBoid@1Application@@@std@@V?$_Vector_val@U?$_Simple_types@PEAVBoid@1Application@@@std@@@2@$00@std@@QEBAAEBV?$_Vector_val@U?$_Simple_types@PEAVBoid@1Application@@@std@@@2@XZ
_TEXT	SEGMENT
$T1 = 64
this$ = 96
?_Get_second@?$_Compressed_pair@V?$allocator@PEAVBoid@1Application@@@std@@V?$_Vector_val@U?$_Simple_types@PEAVBoid@1Application@@@std@@@2@$00@std@@QEBAAEBV?$_Vector_val@U?$_Simple_types@PEAVBoid@1Application@@@std@@@2@XZ PROC ; std::_Compressed_pair<std::allocator<Application::Boid::Boid *>,std::_Vector_val<std::_Simple_types<Application::Boid::Boid *> >,1>::_Get_second, COMDAT

; 306  : 		{	// return const reference to second

$LN3:
	mov	QWORD PTR [rsp+8], rcx
	push	rbp
	sub	rsp, 112				; 00000070H
	lea	rbp, QWORD PTR [rsp+32]
	mov	QWORD PTR $T1[rbp], -2
	lea	rcx, OFFSET FLAT:__E8FD1B86_xutility
	call	__CheckForDebuggerJustMyCode
	npad	1

; 307  : 		return (_Myval2);

	mov	rax, QWORD PTR this$[rbp]

; 308  : 		}

	lea	rsp, QWORD PTR [rbp+80]
	pop	rbp
	ret	0
?_Get_second@?$_Compressed_pair@V?$allocator@PEAVBoid@1Application@@@std@@V?$_Vector_val@U?$_Simple_types@PEAVBoid@1Application@@@std@@@2@$00@std@@QEBAAEBV?$_Vector_val@U?$_Simple_types@PEAVBoid@1Application@@@std@@@2@XZ ENDP ; std::_Compressed_pair<std::allocator<Application::Boid::Boid *>,std::_Vector_val<std::_Simple_types<Application::Boid::Boid *> >,1>::_Get_second
_TEXT	ENDS
; Function compile flags: /Odtp /RTCu /ZI
; File c:\program files (x86)\microsoft visual studio\2017\enterprise\vc\tools\msvc\14.15.26726\include\xutility
;	COMDAT ?_Get_second@?$_Compressed_pair@V?$allocator@PEAVBoid@1Application@@@std@@V?$_Vector_val@U?$_Simple_types@PEAVBoid@1Application@@@std@@@2@$00@std@@QEAAAEAV?$_Vector_val@U?$_Simple_types@PEAVBoid@1Application@@@std@@@2@XZ
_TEXT	SEGMENT
$T1 = 64
this$ = 96
?_Get_second@?$_Compressed_pair@V?$allocator@PEAVBoid@1Application@@@std@@V?$_Vector_val@U?$_Simple_types@PEAVBoid@1Application@@@std@@@2@$00@std@@QEAAAEAV?$_Vector_val@U?$_Simple_types@PEAVBoid@1Application@@@std@@@2@XZ PROC ; std::_Compressed_pair<std::allocator<Application::Boid::Boid *>,std::_Vector_val<std::_Simple_types<Application::Boid::Boid *> >,1>::_Get_second, COMDAT

; 301  : 		{	// return reference to second

$LN3:
	mov	QWORD PTR [rsp+8], rcx
	push	rbp
	sub	rsp, 112				; 00000070H
	lea	rbp, QWORD PTR [rsp+32]
	mov	QWORD PTR $T1[rbp], -2
	lea	rcx, OFFSET FLAT:__E8FD1B86_xutility
	call	__CheckForDebuggerJustMyCode
	npad	1

; 302  : 		return (_Myval2);

	mov	rax, QWORD PTR this$[rbp]

; 303  : 		}

	lea	rsp, QWORD PTR [rbp+80]
	pop	rbp
	ret	0
?_Get_second@?$_Compressed_pair@V?$allocator@PEAVBoid@1Application@@@std@@V?$_Vector_val@U?$_Simple_types@PEAVBoid@1Application@@@std@@@2@$00@std@@QEAAAEAV?$_Vector_val@U?$_Simple_types@PEAVBoid@1Application@@@std@@@2@XZ ENDP ; std::_Compressed_pair<std::allocator<Application::Boid::Boid *>,std::_Vector_val<std::_Simple_types<Application::Boid::Boid *> >,1>::_Get_second
_TEXT	ENDS
; Function compile flags: /Odtp /RTCu /ZI
; File c:\program files (x86)\microsoft visual studio\2017\enterprise\vc\tools\msvc\14.15.26726\include\xutility
;	COMDAT ?_Get_first@?$_Compressed_pair@V?$allocator@PEAVBoid@1Application@@@std@@V?$_Vector_val@U?$_Simple_types@PEAVBoid@1Application@@@std@@@2@$00@std@@QEBAAEBV?$allocator@PEAVBoid@1Application@@@2@XZ
_TEXT	SEGMENT
$T1 = 64
this$ = 96
?_Get_first@?$_Compressed_pair@V?$allocator@PEAVBoid@1Application@@@std@@V?$_Vector_val@U?$_Simple_types@PEAVBoid@1Application@@@std@@@2@$00@std@@QEBAAEBV?$allocator@PEAVBoid@1Application@@@2@XZ PROC ; std::_Compressed_pair<std::allocator<Application::Boid::Boid *>,std::_Vector_val<std::_Simple_types<Application::Boid::Boid *> >,1>::_Get_first, COMDAT

; 296  : 		{	// return const reference to first

$LN3:
	mov	QWORD PTR [rsp+8], rcx
	push	rbp
	sub	rsp, 112				; 00000070H
	lea	rbp, QWORD PTR [rsp+32]
	mov	QWORD PTR $T1[rbp], -2
	lea	rcx, OFFSET FLAT:__E8FD1B86_xutility
	call	__CheckForDebuggerJustMyCode
	npad	1

; 297  : 		return (*this);

	mov	rax, QWORD PTR this$[rbp]

; 298  : 		}

	lea	rsp, QWORD PTR [rbp+80]
	pop	rbp
	ret	0
?_Get_first@?$_Compressed_pair@V?$allocator@PEAVBoid@1Application@@@std@@V?$_Vector_val@U?$_Simple_types@PEAVBoid@1Application@@@std@@@2@$00@std@@QEBAAEBV?$allocator@PEAVBoid@1Application@@@2@XZ ENDP ; std::_Compressed_pair<std::allocator<Application::Boid::Boid *>,std::_Vector_val<std::_Simple_types<Application::Boid::Boid *> >,1>::_Get_first
_TEXT	ENDS
; Function compile flags: /Odtp /RTCu /ZI
; File c:\program files (x86)\microsoft visual studio\2017\enterprise\vc\tools\msvc\14.15.26726\include\xutility
;	COMDAT ?_Get_first@?$_Compressed_pair@V?$allocator@PEAVBoid@1Application@@@std@@V?$_Vector_val@U?$_Simple_types@PEAVBoid@1Application@@@std@@@2@$00@std@@QEAAAEAV?$allocator@PEAVBoid@1Application@@@2@XZ
_TEXT	SEGMENT
$T1 = 64
this$ = 96
?_Get_first@?$_Compressed_pair@V?$allocator@PEAVBoid@1Application@@@std@@V?$_Vector_val@U?$_Simple_types@PEAVBoid@1Application@@@std@@@2@$00@std@@QEAAAEAV?$allocator@PEAVBoid@1Application@@@2@XZ PROC ; std::_Compressed_pair<std::allocator<Application::Boid::Boid *>,std::_Vector_val<std::_Simple_types<Application::Boid::Boid *> >,1>::_Get_first, COMDAT

; 291  : 		{	// return reference to first

$LN3:
	mov	QWORD PTR [rsp+8], rcx
	push	rbp
	sub	rsp, 112				; 00000070H
	lea	rbp, QWORD PTR [rsp+32]
	mov	QWORD PTR $T1[rbp], -2
	lea	rcx, OFFSET FLAT:__E8FD1B86_xutility
	call	__CheckForDebuggerJustMyCode
	npad	1

; 292  : 		return (*this);

	mov	rax, QWORD PTR this$[rbp]

; 293  : 		}

	lea	rsp, QWORD PTR [rbp+80]
	pop	rbp
	ret	0
?_Get_first@?$_Compressed_pair@V?$allocator@PEAVBoid@1Application@@@std@@V?$_Vector_val@U?$_Simple_types@PEAVBoid@1Application@@@std@@@2@$00@std@@QEAAAEAV?$allocator@PEAVBoid@1Application@@@2@XZ ENDP ; std::_Compressed_pair<std::allocator<Application::Boid::Boid *>,std::_Vector_val<std::_Simple_types<Application::Boid::Boid *> >,1>::_Get_first
_TEXT	ENDS
; Function compile flags: /Odtp /RTCu /ZI
; File c:\program files (x86)\microsoft visual studio\2017\enterprise\vc\tools\msvc\14.15.26726\include\vector
;	COMDAT ??0?$_Vector_val@U?$_Simple_types@PEAVBoid@1Application@@@std@@@std@@QEAA@XZ
_TEXT	SEGMENT
this$ = 80
??0?$_Vector_val@U?$_Simple_types@PEAVBoid@1Application@@@std@@@std@@QEAA@XZ PROC ; std::_Vector_val<std::_Simple_types<Application::Boid::Boid *> >::_Vector_val<std::_Simple_types<Application::Boid::Boid *> >, COMDAT

; 392  : 		{	// initialize values

$LN3:
	mov	QWORD PTR [rsp+8], rcx
	push	rbp
	sub	rsp, 96					; 00000060H
	lea	rbp, QWORD PTR [rsp+32]
	lea	rcx, OFFSET FLAT:__327B7881_vector
	call	__CheckForDebuggerJustMyCode
	mov	rcx, QWORD PTR this$[rbp]
	call	??0_Container_base12@std@@QEAA@XZ	; std::_Container_base12::_Container_base12

; 389  : 		: _Myfirst(),

	mov	rax, QWORD PTR this$[rbp]
	mov	QWORD PTR [rax+8], 0

; 390  : 		_Mylast(),

	mov	rax, QWORD PTR this$[rbp]
	mov	QWORD PTR [rax+16], 0

; 391  : 		_Myend()

	mov	rax, QWORD PTR this$[rbp]
	mov	QWORD PTR [rax+24], 0

; 393  : 		}

	mov	rax, QWORD PTR this$[rbp]
	lea	rsp, QWORD PTR [rbp+64]
	pop	rbp
	ret	0
??0?$_Vector_val@U?$_Simple_types@PEAVBoid@1Application@@@std@@@std@@QEAA@XZ ENDP ; std::_Vector_val<std::_Simple_types<Application::Boid::Boid *> >::_Vector_val<std::_Simple_types<Application::Boid::Boid *> >
_TEXT	ENDS
; Function compile flags: /Odtp /RTCu /ZI
; File c:\program files (x86)\microsoft visual studio\2017\enterprise\vc\tools\msvc\14.15.26726\include\vector
;	COMDAT ?_Myend@?$_Vector_alloc@U?$_Vec_base_types@PEAVBoid@1Application@@V?$allocator@PEAVBoid@1Application@@@std@@@std@@@std@@QEBAAEBQEAPEAVBoid@3Application@@XZ
_TEXT	SEGMENT
$T1 = 64
this$ = 96
?_Myend@?$_Vector_alloc@U?$_Vec_base_types@PEAVBoid@1Application@@V?$allocator@PEAVBoid@1Application@@@std@@@std@@@std@@QEBAAEBQEAPEAVBoid@3Application@@XZ PROC ; std::_Vector_alloc<std::_Vec_base_types<Application::Boid::Boid *,std::allocator<Application::Boid::Boid *> > >::_Myend, COMDAT

; 600  : 		{	// return const reference to _Myend

$LN3:
	mov	QWORD PTR [rsp+8], rcx
	push	rbp
	sub	rsp, 112				; 00000070H
	lea	rbp, QWORD PTR [rsp+32]
	mov	QWORD PTR $T1[rbp], -2
	lea	rcx, OFFSET FLAT:__327B7881_vector
	call	__CheckForDebuggerJustMyCode
	npad	1

; 601  : 		return (_Get_data()._Myend);

	mov	rcx, QWORD PTR this$[rbp]
	call	?_Get_data@?$_Vector_alloc@U?$_Vec_base_types@PEAVBoid@1Application@@V?$allocator@PEAVBoid@1Application@@@std@@@std@@@std@@QEBAAEBV?$_Vector_val@U?$_Simple_types@PEAVBoid@1Application@@@std@@@2@XZ ; std::_Vector_alloc<std::_Vec_base_types<Application::Boid::Boid *,std::allocator<Application::Boid::Boid *> > >::_Get_data
	npad	1
	add	rax, 24

; 602  : 		}

	lea	rsp, QWORD PTR [rbp+80]
	pop	rbp
	ret	0
?_Myend@?$_Vector_alloc@U?$_Vec_base_types@PEAVBoid@1Application@@V?$allocator@PEAVBoid@1Application@@@std@@@std@@@std@@QEBAAEBQEAPEAVBoid@3Application@@XZ ENDP ; std::_Vector_alloc<std::_Vec_base_types<Application::Boid::Boid *,std::allocator<Application::Boid::Boid *> > >::_Myend
_TEXT	ENDS
; Function compile flags: /Odtp /RTCu /ZI
; File c:\program files (x86)\microsoft visual studio\2017\enterprise\vc\tools\msvc\14.15.26726\include\vector
;	COMDAT ?_Myend@?$_Vector_alloc@U?$_Vec_base_types@PEAVBoid@1Application@@V?$allocator@PEAVBoid@1Application@@@std@@@std@@@std@@QEAAAEAPEAPEAVBoid@3Application@@XZ
_TEXT	SEGMENT
$T1 = 64
this$ = 96
?_Myend@?$_Vector_alloc@U?$_Vec_base_types@PEAVBoid@1Application@@V?$allocator@PEAVBoid@1Application@@@std@@@std@@@std@@QEAAAEAPEAPEAVBoid@3Application@@XZ PROC ; std::_Vector_alloc<std::_Vec_base_types<Application::Boid::Boid *,std::allocator<Application::Boid::Boid *> > >::_Myend, COMDAT

; 595  : 		{	// return reference to _Myend

$LN3:
	mov	QWORD PTR [rsp+8], rcx
	push	rbp
	sub	rsp, 112				; 00000070H
	lea	rbp, QWORD PTR [rsp+32]
	mov	QWORD PTR $T1[rbp], -2
	lea	rcx, OFFSET FLAT:__327B7881_vector
	call	__CheckForDebuggerJustMyCode
	npad	1

; 596  : 		return (_Get_data()._Myend);

	mov	rcx, QWORD PTR this$[rbp]
	call	?_Get_data@?$_Vector_alloc@U?$_Vec_base_types@PEAVBoid@1Application@@V?$allocator@PEAVBoid@1Application@@@std@@@std@@@std@@QEAAAEAV?$_Vector_val@U?$_Simple_types@PEAVBoid@1Application@@@std@@@2@XZ ; std::_Vector_alloc<std::_Vec_base_types<Application::Boid::Boid *,std::allocator<Application::Boid::Boid *> > >::_Get_data
	npad	1
	add	rax, 24

; 597  : 		}

	lea	rsp, QWORD PTR [rbp+80]
	pop	rbp
	ret	0
?_Myend@?$_Vector_alloc@U?$_Vec_base_types@PEAVBoid@1Application@@V?$allocator@PEAVBoid@1Application@@@std@@@std@@@std@@QEAAAEAPEAPEAVBoid@3Application@@XZ ENDP ; std::_Vector_alloc<std::_Vec_base_types<Application::Boid::Boid *,std::allocator<Application::Boid::Boid *> > >::_Myend
_TEXT	ENDS
; Function compile flags: /Odtp /RTCu /ZI
; File c:\program files (x86)\microsoft visual studio\2017\enterprise\vc\tools\msvc\14.15.26726\include\vector
;	COMDAT ?_Mylast@?$_Vector_alloc@U?$_Vec_base_types@PEAVBoid@1Application@@V?$allocator@PEAVBoid@1Application@@@std@@@std@@@std@@QEBAAEBQEAPEAVBoid@3Application@@XZ
_TEXT	SEGMENT
$T1 = 64
this$ = 96
?_Mylast@?$_Vector_alloc@U?$_Vec_base_types@PEAVBoid@1Application@@V?$allocator@PEAVBoid@1Application@@@std@@@std@@@std@@QEBAAEBQEAPEAVBoid@3Application@@XZ PROC ; std::_Vector_alloc<std::_Vec_base_types<Application::Boid::Boid *,std::allocator<Application::Boid::Boid *> > >::_Mylast, COMDAT

; 590  : 		{	// return const reference to _Mylast

$LN3:
	mov	QWORD PTR [rsp+8], rcx
	push	rbp
	sub	rsp, 112				; 00000070H
	lea	rbp, QWORD PTR [rsp+32]
	mov	QWORD PTR $T1[rbp], -2
	lea	rcx, OFFSET FLAT:__327B7881_vector
	call	__CheckForDebuggerJustMyCode
	npad	1

; 591  : 		return (_Get_data()._Mylast);

	mov	rcx, QWORD PTR this$[rbp]
	call	?_Get_data@?$_Vector_alloc@U?$_Vec_base_types@PEAVBoid@1Application@@V?$allocator@PEAVBoid@1Application@@@std@@@std@@@std@@QEBAAEBV?$_Vector_val@U?$_Simple_types@PEAVBoid@1Application@@@std@@@2@XZ ; std::_Vector_alloc<std::_Vec_base_types<Application::Boid::Boid *,std::allocator<Application::Boid::Boid *> > >::_Get_data
	npad	1
	add	rax, 16

; 592  : 		}

	lea	rsp, QWORD PTR [rbp+80]
	pop	rbp
	ret	0
?_Mylast@?$_Vector_alloc@U?$_Vec_base_types@PEAVBoid@1Application@@V?$allocator@PEAVBoid@1Application@@@std@@@std@@@std@@QEBAAEBQEAPEAVBoid@3Application@@XZ ENDP ; std::_Vector_alloc<std::_Vec_base_types<Application::Boid::Boid *,std::allocator<Application::Boid::Boid *> > >::_Mylast
_TEXT	ENDS
; Function compile flags: /Odtp /RTCu /ZI
; File c:\program files (x86)\microsoft visual studio\2017\enterprise\vc\tools\msvc\14.15.26726\include\vector
;	COMDAT ?_Mylast@?$_Vector_alloc@U?$_Vec_base_types@PEAVBoid@1Application@@V?$allocator@PEAVBoid@1Application@@@std@@@std@@@std@@QEAAAEAPEAPEAVBoid@3Application@@XZ
_TEXT	SEGMENT
$T1 = 64
this$ = 96
?_Mylast@?$_Vector_alloc@U?$_Vec_base_types@PEAVBoid@1Application@@V?$allocator@PEAVBoid@1Application@@@std@@@std@@@std@@QEAAAEAPEAPEAVBoid@3Application@@XZ PROC ; std::_Vector_alloc<std::_Vec_base_types<Application::Boid::Boid *,std::allocator<Application::Boid::Boid *> > >::_Mylast, COMDAT

; 585  : 		{	// return reference to _Mylast

$LN3:
	mov	QWORD PTR [rsp+8], rcx
	push	rbp
	sub	rsp, 112				; 00000070H
	lea	rbp, QWORD PTR [rsp+32]
	mov	QWORD PTR $T1[rbp], -2
	lea	rcx, OFFSET FLAT:__327B7881_vector
	call	__CheckForDebuggerJustMyCode
	npad	1

; 586  : 		return (_Get_data()._Mylast);

	mov	rcx, QWORD PTR this$[rbp]
	call	?_Get_data@?$_Vector_alloc@U?$_Vec_base_types@PEAVBoid@1Application@@V?$allocator@PEAVBoid@1Application@@@std@@@std@@@std@@QEAAAEAV?$_Vector_val@U?$_Simple_types@PEAVBoid@1Application@@@std@@@2@XZ ; std::_Vector_alloc<std::_Vec_base_types<Application::Boid::Boid *,std::allocator<Application::Boid::Boid *> > >::_Get_data
	npad	1
	add	rax, 16

; 587  : 		}

	lea	rsp, QWORD PTR [rbp+80]
	pop	rbp
	ret	0
?_Mylast@?$_Vector_alloc@U?$_Vec_base_types@PEAVBoid@1Application@@V?$allocator@PEAVBoid@1Application@@@std@@@std@@@std@@QEAAAEAPEAPEAVBoid@3Application@@XZ ENDP ; std::_Vector_alloc<std::_Vec_base_types<Application::Boid::Boid *,std::allocator<Application::Boid::Boid *> > >::_Mylast
_TEXT	ENDS
; Function compile flags: /Odtp /RTCu /ZI
; File c:\program files (x86)\microsoft visual studio\2017\enterprise\vc\tools\msvc\14.15.26726\include\vector
;	COMDAT ?_Myfirst@?$_Vector_alloc@U?$_Vec_base_types@PEAVBoid@1Application@@V?$allocator@PEAVBoid@1Application@@@std@@@std@@@std@@QEBAAEBQEAPEAVBoid@3Application@@XZ
_TEXT	SEGMENT
$T1 = 64
this$ = 96
?_Myfirst@?$_Vector_alloc@U?$_Vec_base_types@PEAVBoid@1Application@@V?$allocator@PEAVBoid@1Application@@@std@@@std@@@std@@QEBAAEBQEAPEAVBoid@3Application@@XZ PROC ; std::_Vector_alloc<std::_Vec_base_types<Application::Boid::Boid *,std::allocator<Application::Boid::Boid *> > >::_Myfirst, COMDAT

; 580  : 		{	// return const reference to _Myfirst

$LN3:
	mov	QWORD PTR [rsp+8], rcx
	push	rbp
	sub	rsp, 112				; 00000070H
	lea	rbp, QWORD PTR [rsp+32]
	mov	QWORD PTR $T1[rbp], -2
	lea	rcx, OFFSET FLAT:__327B7881_vector
	call	__CheckForDebuggerJustMyCode
	npad	1

; 581  : 		return (_Get_data()._Myfirst);

	mov	rcx, QWORD PTR this$[rbp]
	call	?_Get_data@?$_Vector_alloc@U?$_Vec_base_types@PEAVBoid@1Application@@V?$allocator@PEAVBoid@1Application@@@std@@@std@@@std@@QEBAAEBV?$_Vector_val@U?$_Simple_types@PEAVBoid@1Application@@@std@@@2@XZ ; std::_Vector_alloc<std::_Vec_base_types<Application::Boid::Boid *,std::allocator<Application::Boid::Boid *> > >::_Get_data
	npad	1
	add	rax, 8

; 582  : 		}

	lea	rsp, QWORD PTR [rbp+80]
	pop	rbp
	ret	0
?_Myfirst@?$_Vector_alloc@U?$_Vec_base_types@PEAVBoid@1Application@@V?$allocator@PEAVBoid@1Application@@@std@@@std@@@std@@QEBAAEBQEAPEAVBoid@3Application@@XZ ENDP ; std::_Vector_alloc<std::_Vec_base_types<Application::Boid::Boid *,std::allocator<Application::Boid::Boid *> > >::_Myfirst
_TEXT	ENDS
; Function compile flags: /Odtp /RTCu /ZI
; File c:\program files (x86)\microsoft visual studio\2017\enterprise\vc\tools\msvc\14.15.26726\include\vector
;	COMDAT ?_Myfirst@?$_Vector_alloc@U?$_Vec_base_types@PEAVBoid@1Application@@V?$allocator@PEAVBoid@1Application@@@std@@@std@@@std@@QEAAAEAPEAPEAVBoid@3Application@@XZ
_TEXT	SEGMENT
$T1 = 64
this$ = 96
?_Myfirst@?$_Vector_alloc@U?$_Vec_base_types@PEAVBoid@1Application@@V?$allocator@PEAVBoid@1Application@@@std@@@std@@@std@@QEAAAEAPEAPEAVBoid@3Application@@XZ PROC ; std::_Vector_alloc<std::_Vec_base_types<Application::Boid::Boid *,std::allocator<Application::Boid::Boid *> > >::_Myfirst, COMDAT

; 575  : 		{	// return reference to _Myfirst

$LN3:
	mov	QWORD PTR [rsp+8], rcx
	push	rbp
	sub	rsp, 112				; 00000070H
	lea	rbp, QWORD PTR [rsp+32]
	mov	QWORD PTR $T1[rbp], -2
	lea	rcx, OFFSET FLAT:__327B7881_vector
	call	__CheckForDebuggerJustMyCode
	npad	1

; 576  : 		return (_Get_data()._Myfirst);

	mov	rcx, QWORD PTR this$[rbp]
	call	?_Get_data@?$_Vector_alloc@U?$_Vec_base_types@PEAVBoid@1Application@@V?$allocator@PEAVBoid@1Application@@@std@@@std@@@std@@QEAAAEAV?$_Vector_val@U?$_Simple_types@PEAVBoid@1Application@@@std@@@2@XZ ; std::_Vector_alloc<std::_Vec_base_types<Application::Boid::Boid *,std::allocator<Application::Boid::Boid *> > >::_Get_data
	npad	1
	add	rax, 8

; 577  : 		}

	lea	rsp, QWORD PTR [rbp+80]
	pop	rbp
	ret	0
?_Myfirst@?$_Vector_alloc@U?$_Vec_base_types@PEAVBoid@1Application@@V?$allocator@PEAVBoid@1Application@@@std@@@std@@@std@@QEAAAEAPEAPEAVBoid@3Application@@XZ ENDP ; std::_Vector_alloc<std::_Vec_base_types<Application::Boid::Boid *,std::allocator<Application::Boid::Boid *> > >::_Myfirst
_TEXT	ENDS
; Function compile flags: /Odtp /RTCu /ZI
; File c:\program files (x86)\microsoft visual studio\2017\enterprise\vc\tools\msvc\14.15.26726\include\vector
;	COMDAT ?_Get_data@?$_Vector_alloc@U?$_Vec_base_types@PEAVBoid@1Application@@V?$allocator@PEAVBoid@1Application@@@std@@@std@@@std@@QEBAAEBV?$_Vector_val@U?$_Simple_types@PEAVBoid@1Application@@@std@@@2@XZ
_TEXT	SEGMENT
$T1 = 64
this$ = 96
?_Get_data@?$_Vector_alloc@U?$_Vec_base_types@PEAVBoid@1Application@@V?$allocator@PEAVBoid@1Application@@@std@@@std@@@std@@QEBAAEBV?$_Vector_val@U?$_Simple_types@PEAVBoid@1Application@@@std@@@2@XZ PROC ; std::_Vector_alloc<std::_Vec_base_types<Application::Boid::Boid *,std::allocator<Application::Boid::Boid *> > >::_Get_data, COMDAT

; 559  : 		{	// return const reference to _Vector_val

$LN3:
	mov	QWORD PTR [rsp+8], rcx
	push	rbp
	sub	rsp, 112				; 00000070H
	lea	rbp, QWORD PTR [rsp+32]
	mov	QWORD PTR $T1[rbp], -2
	lea	rcx, OFFSET FLAT:__327B7881_vector
	call	__CheckForDebuggerJustMyCode
	npad	1

; 560  : 		return (_Mypair._Get_second());

	mov	rax, QWORD PTR this$[rbp]
	mov	rcx, rax
	call	?_Get_second@?$_Compressed_pair@V?$allocator@PEAVBoid@1Application@@@std@@V?$_Vector_val@U?$_Simple_types@PEAVBoid@1Application@@@std@@@2@$00@std@@QEBAAEBV?$_Vector_val@U?$_Simple_types@PEAVBoid@1Application@@@std@@@2@XZ ; std::_Compressed_pair<std::allocator<Application::Boid::Boid *>,std::_Vector_val<std::_Simple_types<Application::Boid::Boid *> >,1>::_Get_second
	npad	1

; 561  : 		}

	lea	rsp, QWORD PTR [rbp+80]
	pop	rbp
	ret	0
?_Get_data@?$_Vector_alloc@U?$_Vec_base_types@PEAVBoid@1Application@@V?$allocator@PEAVBoid@1Application@@@std@@@std@@@std@@QEBAAEBV?$_Vector_val@U?$_Simple_types@PEAVBoid@1Application@@@std@@@2@XZ ENDP ; std::_Vector_alloc<std::_Vec_base_types<Application::Boid::Boid *,std::allocator<Application::Boid::Boid *> > >::_Get_data
_TEXT	ENDS
; Function compile flags: /Odtp /RTCu /ZI
; File c:\program files (x86)\microsoft visual studio\2017\enterprise\vc\tools\msvc\14.15.26726\include\vector
;	COMDAT ?_Get_data@?$_Vector_alloc@U?$_Vec_base_types@PEAVBoid@1Application@@V?$allocator@PEAVBoid@1Application@@@std@@@std@@@std@@QEAAAEAV?$_Vector_val@U?$_Simple_types@PEAVBoid@1Application@@@std@@@2@XZ
_TEXT	SEGMENT
$T1 = 64
this$ = 96
?_Get_data@?$_Vector_alloc@U?$_Vec_base_types@PEAVBoid@1Application@@V?$allocator@PEAVBoid@1Application@@@std@@@std@@@std@@QEAAAEAV?$_Vector_val@U?$_Simple_types@PEAVBoid@1Application@@@std@@@2@XZ PROC ; std::_Vector_alloc<std::_Vec_base_types<Application::Boid::Boid *,std::allocator<Application::Boid::Boid *> > >::_Get_data, COMDAT

; 554  : 		{	// return reference to _Vector_val

$LN3:
	mov	QWORD PTR [rsp+8], rcx
	push	rbp
	sub	rsp, 112				; 00000070H
	lea	rbp, QWORD PTR [rsp+32]
	mov	QWORD PTR $T1[rbp], -2
	lea	rcx, OFFSET FLAT:__327B7881_vector
	call	__CheckForDebuggerJustMyCode
	npad	1

; 555  : 		return (_Mypair._Get_second());

	mov	rax, QWORD PTR this$[rbp]
	mov	rcx, rax
	call	?_Get_second@?$_Compressed_pair@V?$allocator@PEAVBoid@1Application@@@std@@V?$_Vector_val@U?$_Simple_types@PEAVBoid@1Application@@@std@@@2@$00@std@@QEAAAEAV?$_Vector_val@U?$_Simple_types@PEAVBoid@1Application@@@std@@@2@XZ ; std::_Compressed_pair<std::allocator<Application::Boid::Boid *>,std::_Vector_val<std::_Simple_types<Application::Boid::Boid *> >,1>::_Get_second
	npad	1

; 556  : 		}

	lea	rsp, QWORD PTR [rbp+80]
	pop	rbp
	ret	0
?_Get_data@?$_Vector_alloc@U?$_Vec_base_types@PEAVBoid@1Application@@V?$allocator@PEAVBoid@1Application@@@std@@@std@@@std@@QEAAAEAV?$_Vector_val@U?$_Simple_types@PEAVBoid@1Application@@@std@@@2@XZ ENDP ; std::_Vector_alloc<std::_Vec_base_types<Application::Boid::Boid *,std::allocator<Application::Boid::Boid *> > >::_Get_data
_TEXT	ENDS
; Function compile flags: /Odtp /RTCu /ZI
; File c:\program files (x86)\microsoft visual studio\2017\enterprise\vc\tools\msvc\14.15.26726\include\vector
;	COMDAT ?_Getal@?$_Vector_alloc@U?$_Vec_base_types@PEAVBoid@1Application@@V?$allocator@PEAVBoid@1Application@@@std@@@std@@@std@@QEBAAEBV?$allocator@PEAVBoid@1Application@@@2@XZ
_TEXT	SEGMENT
$T1 = 64
this$ = 96
?_Getal@?$_Vector_alloc@U?$_Vec_base_types@PEAVBoid@1Application@@V?$allocator@PEAVBoid@1Application@@@std@@@std@@@std@@QEBAAEBV?$allocator@PEAVBoid@1Application@@@2@XZ PROC ; std::_Vector_alloc<std::_Vec_base_types<Application::Boid::Boid *,std::allocator<Application::Boid::Boid *> > >::_Getal, COMDAT

; 549  : 		{	// return const reference to allocator

$LN3:
	mov	QWORD PTR [rsp+8], rcx
	push	rbp
	sub	rsp, 112				; 00000070H
	lea	rbp, QWORD PTR [rsp+32]
	mov	QWORD PTR $T1[rbp], -2
	lea	rcx, OFFSET FLAT:__327B7881_vector
	call	__CheckForDebuggerJustMyCode
	npad	1

; 550  : 		return (_Mypair._Get_first());

	mov	rax, QWORD PTR this$[rbp]
	mov	rcx, rax
	call	?_Get_first@?$_Compressed_pair@V?$allocator@PEAVBoid@1Application@@@std@@V?$_Vector_val@U?$_Simple_types@PEAVBoid@1Application@@@std@@@2@$00@std@@QEBAAEBV?$allocator@PEAVBoid@1Application@@@2@XZ ; std::_Compressed_pair<std::allocator<Application::Boid::Boid *>,std::_Vector_val<std::_Simple_types<Application::Boid::Boid *> >,1>::_Get_first
	npad	1

; 551  : 		}

	lea	rsp, QWORD PTR [rbp+80]
	pop	rbp
	ret	0
?_Getal@?$_Vector_alloc@U?$_Vec_base_types@PEAVBoid@1Application@@V?$allocator@PEAVBoid@1Application@@@std@@@std@@@std@@QEBAAEBV?$allocator@PEAVBoid@1Application@@@2@XZ ENDP ; std::_Vector_alloc<std::_Vec_base_types<Application::Boid::Boid *,std::allocator<Application::Boid::Boid *> > >::_Getal
_TEXT	ENDS
; Function compile flags: /Odtp /RTCu /ZI
; File c:\program files (x86)\microsoft visual studio\2017\enterprise\vc\tools\msvc\14.15.26726\include\vector
;	COMDAT ?_Getal@?$_Vector_alloc@U?$_Vec_base_types@PEAVBoid@1Application@@V?$allocator@PEAVBoid@1Application@@@std@@@std@@@std@@QEAAAEAV?$allocator@PEAVBoid@1Application@@@2@XZ
_TEXT	SEGMENT
$T1 = 64
this$ = 96
?_Getal@?$_Vector_alloc@U?$_Vec_base_types@PEAVBoid@1Application@@V?$allocator@PEAVBoid@1Application@@@std@@@std@@@std@@QEAAAEAV?$allocator@PEAVBoid@1Application@@@2@XZ PROC ; std::_Vector_alloc<std::_Vec_base_types<Application::Boid::Boid *,std::allocator<Application::Boid::Boid *> > >::_Getal, COMDAT

; 544  : 		{	// return reference to allocator

$LN3:
	mov	QWORD PTR [rsp+8], rcx
	push	rbp
	sub	rsp, 112				; 00000070H
	lea	rbp, QWORD PTR [rsp+32]
	mov	QWORD PTR $T1[rbp], -2
	lea	rcx, OFFSET FLAT:__327B7881_vector
	call	__CheckForDebuggerJustMyCode
	npad	1

; 545  : 		return (_Mypair._Get_first());

	mov	rax, QWORD PTR this$[rbp]
	mov	rcx, rax
	call	?_Get_first@?$_Compressed_pair@V?$allocator@PEAVBoid@1Application@@@std@@V?$_Vector_val@U?$_Simple_types@PEAVBoid@1Application@@@std@@@2@$00@std@@QEAAAEAV?$allocator@PEAVBoid@1Application@@@2@XZ ; std::_Compressed_pair<std::allocator<Application::Boid::Boid *>,std::_Vector_val<std::_Simple_types<Application::Boid::Boid *> >,1>::_Get_first
	npad	1

; 546  : 		}

	lea	rsp, QWORD PTR [rbp+80]
	pop	rbp
	ret	0
?_Getal@?$_Vector_alloc@U?$_Vec_base_types@PEAVBoid@1Application@@V?$allocator@PEAVBoid@1Application@@@std@@@std@@@std@@QEAAAEAV?$allocator@PEAVBoid@1Application@@@2@XZ ENDP ; std::_Vector_alloc<std::_Vec_base_types<Application::Boid::Boid *,std::allocator<Application::Boid::Boid *> > >::_Getal
_TEXT	ENDS
; Function compile flags: /Odtp /RTCu /ZI
; File c:\program files (x86)\microsoft visual studio\2017\enterprise\vc\tools\msvc\14.15.26726\include\vector
;	COMDAT ?_Orphan_all@?$_Vector_alloc@U?$_Vec_base_types@PEAVBoid@1Application@@V?$allocator@PEAVBoid@1Application@@@std@@@std@@@std@@QEAAXXZ
_TEXT	SEGMENT
this$ = 80
?_Orphan_all@?$_Vector_alloc@U?$_Vec_base_types@PEAVBoid@1Application@@V?$allocator@PEAVBoid@1Application@@@std@@@std@@@std@@QEAAXXZ PROC ; std::_Vector_alloc<std::_Vec_base_types<Application::Boid::Boid *,std::allocator<Application::Boid::Boid *> > >::_Orphan_all, COMDAT

; 534  : 		{	// orphan all iterators

$LN3:
	mov	QWORD PTR [rsp+8], rcx
	push	rbp
	sub	rsp, 96					; 00000060H
	lea	rbp, QWORD PTR [rsp+32]
	lea	rcx, OFFSET FLAT:__327B7881_vector
	call	__CheckForDebuggerJustMyCode

; 535  : 		_Get_data()._Orphan_all();

	mov	rcx, QWORD PTR this$[rbp]
	call	?_Get_data@?$_Vector_alloc@U?$_Vec_base_types@PEAVBoid@1Application@@V?$allocator@PEAVBoid@1Application@@@std@@@std@@@std@@QEAAAEAV?$_Vector_val@U?$_Simple_types@PEAVBoid@1Application@@@std@@@2@XZ ; std::_Vector_alloc<std::_Vec_base_types<Application::Boid::Boid *,std::allocator<Application::Boid::Boid *> > >::_Get_data
	mov	rcx, rax
	call	?_Orphan_all@_Container_base12@std@@QEAAXXZ ; std::_Container_base12::_Orphan_all

; 536  : 		}

	lea	rsp, QWORD PTR [rbp+64]
	pop	rbp
	ret	0
?_Orphan_all@?$_Vector_alloc@U?$_Vec_base_types@PEAVBoid@1Application@@V?$allocator@PEAVBoid@1Application@@@std@@@std@@@std@@QEAAXXZ ENDP ; std::_Vector_alloc<std::_Vec_base_types<Application::Boid::Boid *,std::allocator<Application::Boid::Boid *> > >::_Orphan_all
_TEXT	ENDS
; Function compile flags: /Odtp /RTCu /ZI
; File c:\program files (x86)\microsoft visual studio\2017\enterprise\vc\tools\msvc\14.15.26726\include\vector
;	COMDAT ?_Myproxy@?$_Vector_alloc@U?$_Vec_base_types@PEAVBoid@1Application@@V?$allocator@PEAVBoid@1Application@@@std@@@std@@@std@@QEAAAEAPEAU_Container_proxy@2@XZ
_TEXT	SEGMENT
$T1 = 64
this$ = 96
?_Myproxy@?$_Vector_alloc@U?$_Vec_base_types@PEAVBoid@1Application@@V?$allocator@PEAVBoid@1Application@@@std@@@std@@@std@@QEAAAEAPEAU_Container_proxy@2@XZ PROC ; std::_Vector_alloc<std::_Vec_base_types<Application::Boid::Boid *,std::allocator<Application::Boid::Boid *> > >::_Myproxy, COMDAT

; 523  : 		{	// return reference to _Myproxy

$LN3:
	mov	QWORD PTR [rsp+8], rcx
	push	rbp
	sub	rsp, 112				; 00000070H
	lea	rbp, QWORD PTR [rsp+32]
	mov	QWORD PTR $T1[rbp], -2
	lea	rcx, OFFSET FLAT:__327B7881_vector
	call	__CheckForDebuggerJustMyCode
	npad	1

; 524  : 		return (_Get_data()._Myproxy);

	mov	rcx, QWORD PTR this$[rbp]
	call	?_Get_data@?$_Vector_alloc@U?$_Vec_base_types@PEAVBoid@1Application@@V?$allocator@PEAVBoid@1Application@@@std@@@std@@@std@@QEAAAEAV?$_Vector_val@U?$_Simple_types@PEAVBoid@1Application@@@std@@@2@XZ ; std::_Vector_alloc<std::_Vec_base_types<Application::Boid::Boid *,std::allocator<Application::Boid::Boid *> > >::_Get_data
	npad	1

; 525  : 		}

	lea	rsp, QWORD PTR [rbp+80]
	pop	rbp
	ret	0
?_Myproxy@?$_Vector_alloc@U?$_Vec_base_types@PEAVBoid@1Application@@V?$allocator@PEAVBoid@1Application@@@std@@@std@@@std@@QEAAAEAPEAU_Container_proxy@2@XZ ENDP ; std::_Vector_alloc<std::_Vec_base_types<Application::Boid::Boid *,std::allocator<Application::Boid::Boid *> > >::_Myproxy
_TEXT	ENDS
; Function compile flags: /Odtp /RTCu /ZI
; File c:\program files (x86)\microsoft visual studio\2017\enterprise\vc\tools\msvc\14.15.26726\include\vector
;	COMDAT ?_Getpfirst@?$_Vector_alloc@U?$_Vec_base_types@PEAVBoid@1Application@@V?$allocator@PEAVBoid@1Application@@@std@@@std@@@std@@QEBAPEAPEAU_Iterator_base12@2@XZ
_TEXT	SEGMENT
this$ = 80
?_Getpfirst@?$_Vector_alloc@U?$_Vec_base_types@PEAVBoid@1Application@@V?$allocator@PEAVBoid@1Application@@@std@@@std@@@std@@QEBAPEAPEAU_Iterator_base12@2@XZ PROC ; std::_Vector_alloc<std::_Vec_base_types<Application::Boid::Boid *,std::allocator<Application::Boid::Boid *> > >::_Getpfirst, COMDAT

; 518  : 		{	// get address of iterator chain

$LN3:
	mov	QWORD PTR [rsp+8], rcx
	push	rbp
	sub	rsp, 96					; 00000060H
	lea	rbp, QWORD PTR [rsp+32]
	lea	rcx, OFFSET FLAT:__327B7881_vector
	call	__CheckForDebuggerJustMyCode

; 519  : 		return (_Get_data()._Getpfirst());

	mov	rcx, QWORD PTR this$[rbp]
	call	?_Get_data@?$_Vector_alloc@U?$_Vec_base_types@PEAVBoid@1Application@@V?$allocator@PEAVBoid@1Application@@@std@@@std@@@std@@QEBAAEBV?$_Vector_val@U?$_Simple_types@PEAVBoid@1Application@@@std@@@2@XZ ; std::_Vector_alloc<std::_Vec_base_types<Application::Boid::Boid *,std::allocator<Application::Boid::Boid *> > >::_Get_data
	mov	rcx, rax
	call	?_Getpfirst@_Container_base12@std@@QEBAPEAPEAU_Iterator_base12@2@XZ ; std::_Container_base12::_Getpfirst

; 520  : 		}

	lea	rsp, QWORD PTR [rbp+64]
	pop	rbp
	ret	0
?_Getpfirst@?$_Vector_alloc@U?$_Vec_base_types@PEAVBoid@1Application@@V?$allocator@PEAVBoid@1Application@@@std@@@std@@@std@@QEBAPEAPEAU_Iterator_base12@2@XZ ENDP ; std::_Vector_alloc<std::_Vec_base_types<Application::Boid::Boid *,std::allocator<Application::Boid::Boid *> > >::_Getpfirst
_TEXT	ENDS
; Function compile flags: /Odtp /RTCu /ZI
; File c:\program files (x86)\microsoft visual studio\2017\enterprise\vc\tools\msvc\14.15.26726\include\vector
;	COMDAT ?_Free_proxy@?$_Vector_alloc@U?$_Vec_base_types@PEAVBoid@1Application@@V?$allocator@PEAVBoid@1Application@@@std@@@std@@@std@@QEAAXXZ
_TEXT	SEGMENT
_Proxy_allocator$ = 0
__$ArrayPad$ = 72
this$ = 96
?_Free_proxy@?$_Vector_alloc@U?$_Vec_base_types@PEAVBoid@1Application@@V?$allocator@PEAVBoid@1Application@@@std@@@std@@@std@@QEAAXXZ PROC ; std::_Vector_alloc<std::_Vec_base_types<Application::Boid::Boid *,std::allocator<Application::Boid::Boid *> > >::_Free_proxy, COMDAT

; 509  : 		{	// destroy proxy

$LN3:
	mov	QWORD PTR [rsp+8], rcx
	push	rbp
	sub	rsp, 112				; 00000070H
	lea	rbp, QWORD PTR [rsp+32]
	mov	rax, QWORD PTR __security_cookie
	xor	rax, rbp
	mov	QWORD PTR __$ArrayPad$[rbp], rax
	lea	rcx, OFFSET FLAT:__327B7881_vector
	call	__CheckForDebuggerJustMyCode

; 510  : 		_Alproxy _Proxy_allocator(_Getal());

	mov	rcx, QWORD PTR this$[rbp]
	call	?_Getal@?$_Vector_alloc@U?$_Vec_base_types@PEAVBoid@1Application@@V?$allocator@PEAVBoid@1Application@@@std@@@std@@@std@@QEAAAEAV?$allocator@PEAVBoid@1Application@@@2@XZ ; std::_Vector_alloc<std::_Vec_base_types<Application::Boid::Boid *,std::allocator<Application::Boid::Boid *> > >::_Getal
	mov	rdx, rax
	lea	rcx, QWORD PTR _Proxy_allocator$[rbp]
	call	??$?0PEAVBoid@0Application@@@?$allocator@U_Container_proxy@std@@@std@@QEAA@AEBV?$allocator@PEAVBoid@1Application@@@1@@Z ; std::allocator<std::_Container_proxy>::allocator<std::_Container_proxy><Application::Boid::Boid *>

; 511  : 		_Orphan_all();

	mov	rcx, QWORD PTR this$[rbp]
	call	?_Orphan_all@?$_Vector_alloc@U?$_Vec_base_types@PEAVBoid@1Application@@V?$allocator@PEAVBoid@1Application@@@std@@@std@@@std@@QEAAXXZ ; std::_Vector_alloc<std::_Vec_base_types<Application::Boid::Boid *,std::allocator<Application::Boid::Boid *> > >::_Orphan_all

; 512  : 		_Alproxy_traits::destroy(_Proxy_allocator, _Myproxy());

	mov	rcx, QWORD PTR this$[rbp]
	call	?_Myproxy@?$_Vector_alloc@U?$_Vec_base_types@PEAVBoid@1Application@@V?$allocator@PEAVBoid@1Application@@@std@@@std@@@std@@QEAAAEAPEAU_Container_proxy@2@XZ ; std::_Vector_alloc<std::_Vec_base_types<Application::Boid::Boid *,std::allocator<Application::Boid::Boid *> > >::_Myproxy
	mov	rdx, QWORD PTR [rax]
	lea	rcx, QWORD PTR _Proxy_allocator$[rbp]
	call	??$destroy@U_Container_proxy@std@@@?$_Default_allocator_traits@V?$allocator@U_Container_proxy@std@@@std@@@std@@SAXAEAV?$allocator@U_Container_proxy@std@@@1@QEAU_Container_proxy@1@@Z ; std::_Default_allocator_traits<std::allocator<std::_Container_proxy> >::destroy<std::_Container_proxy>

; 513  : 		_Deallocate_plain(_Proxy_allocator, _Myproxy());

	mov	rcx, QWORD PTR this$[rbp]
	call	?_Myproxy@?$_Vector_alloc@U?$_Vec_base_types@PEAVBoid@1Application@@V?$allocator@PEAVBoid@1Application@@@std@@@std@@@std@@QEAAAEAPEAU_Container_proxy@2@XZ ; std::_Vector_alloc<std::_Vec_base_types<Application::Boid::Boid *,std::allocator<Application::Boid::Boid *> > >::_Myproxy
	mov	rdx, QWORD PTR [rax]
	lea	rcx, QWORD PTR _Proxy_allocator$[rbp]
	call	??$_Deallocate_plain@V?$allocator@U_Container_proxy@std@@@std@@$0A@@std@@YAXAEAV?$allocator@U_Container_proxy@std@@@0@QEAU_Container_proxy@0@@Z ; std::_Deallocate_plain<std::allocator<std::_Container_proxy>,0>

; 514  : 		_Myproxy() = nullptr;

	mov	rcx, QWORD PTR this$[rbp]
	call	?_Myproxy@?$_Vector_alloc@U?$_Vec_base_types@PEAVBoid@1Application@@V?$allocator@PEAVBoid@1Application@@@std@@@std@@@std@@QEAAAEAPEAU_Container_proxy@2@XZ ; std::_Vector_alloc<std::_Vec_base_types<Application::Boid::Boid *,std::allocator<Application::Boid::Boid *> > >::_Myproxy
	mov	QWORD PTR [rax], 0

; 515  : 		}

	mov	rcx, QWORD PTR __$ArrayPad$[rbp]
	xor	rcx, rbp
	call	__security_check_cookie
	lea	rsp, QWORD PTR [rbp+80]
	pop	rbp
	ret	0
?_Free_proxy@?$_Vector_alloc@U?$_Vec_base_types@PEAVBoid@1Application@@V?$allocator@PEAVBoid@1Application@@@std@@@std@@@std@@QEAAXXZ ENDP ; std::_Vector_alloc<std::_Vec_base_types<Application::Boid::Boid *,std::allocator<Application::Boid::Boid *> > >::_Free_proxy
_TEXT	ENDS
; Function compile flags: /Odtp /RTCu /ZI
; File c:\program files (x86)\microsoft visual studio\2017\enterprise\vc\tools\msvc\14.15.26726\include\vector
;	COMDAT ?_Alloc_proxy@?$_Vector_alloc@U?$_Vec_base_types@PEAVBoid@1Application@@V?$allocator@PEAVBoid@1Application@@@std@@@std@@@std@@QEAAXXZ
_TEXT	SEGMENT
_Proxy_allocator$ = 0
$T1 = 72
tv91 = 88
tv79 = 88
tv70 = 88
__$ArrayPad$ = 96
this$ = 128
?_Alloc_proxy@?$_Vector_alloc@U?$_Vec_base_types@PEAVBoid@1Application@@V?$allocator@PEAVBoid@1Application@@@std@@@std@@@std@@QEAAXXZ PROC ; std::_Vector_alloc<std::_Vec_base_types<Application::Boid::Boid *,std::allocator<Application::Boid::Boid *> > >::_Alloc_proxy, COMDAT

; 501  : 		{	// construct proxy

$LN3:
	mov	QWORD PTR [rsp+8], rcx
	push	rbp
	sub	rsp, 144				; 00000090H
	lea	rbp, QWORD PTR [rsp+32]
	mov	rax, QWORD PTR __security_cookie
	xor	rax, rbp
	mov	QWORD PTR __$ArrayPad$[rbp], rax
	lea	rcx, OFFSET FLAT:__327B7881_vector
	call	__CheckForDebuggerJustMyCode

; 502  : 		_Alproxy _Proxy_allocator(_Getal());

	mov	rcx, QWORD PTR this$[rbp]
	call	?_Getal@?$_Vector_alloc@U?$_Vec_base_types@PEAVBoid@1Application@@V?$allocator@PEAVBoid@1Application@@@std@@@std@@@std@@QEAAAEAV?$allocator@PEAVBoid@1Application@@@2@XZ ; std::_Vector_alloc<std::_Vec_base_types<Application::Boid::Boid *,std::allocator<Application::Boid::Boid *> > >::_Getal
	mov	rdx, rax
	lea	rcx, QWORD PTR _Proxy_allocator$[rbp]
	call	??$?0PEAVBoid@0Application@@@?$allocator@U_Container_proxy@std@@@std@@QEAA@AEBV?$allocator@PEAVBoid@1Application@@@1@@Z ; std::allocator<std::_Container_proxy>::allocator<std::_Container_proxy><Application::Boid::Boid *>

; 503  : 		_Myproxy() = _Unfancy(_Proxy_allocator.allocate(1));

	mov	edx, 1
	lea	rcx, QWORD PTR _Proxy_allocator$[rbp]
	call	?allocate@?$allocator@U_Container_proxy@std@@@std@@QEAAPEAU_Container_proxy@2@_K@Z ; std::allocator<std::_Container_proxy>::allocate
	mov	rcx, rax
	call	??$_Unfancy@U_Container_proxy@std@@@std@@YAPEAU_Container_proxy@0@PEAU10@@Z ; std::_Unfancy<std::_Container_proxy>
	mov	QWORD PTR tv70[rbp], rax
	mov	rcx, QWORD PTR this$[rbp]
	call	?_Myproxy@?$_Vector_alloc@U?$_Vec_base_types@PEAVBoid@1Application@@V?$allocator@PEAVBoid@1Application@@@std@@@std@@@std@@QEAAAEAPEAU_Container_proxy@2@XZ ; std::_Vector_alloc<std::_Vec_base_types<Application::Boid::Boid *,std::allocator<Application::Boid::Boid *> > >::_Myproxy
	mov	rcx, QWORD PTR tv70[rbp]
	mov	QWORD PTR [rax], rcx

; 504  : 		_Alproxy_traits::construct(_Proxy_allocator, _Myproxy(), _Container_proxy());

	lea	rcx, QWORD PTR $T1[rbp]
	call	??0_Container_proxy@std@@QEAA@XZ	; std::_Container_proxy::_Container_proxy
	mov	QWORD PTR tv79[rbp], rax
	mov	rcx, QWORD PTR this$[rbp]
	call	?_Myproxy@?$_Vector_alloc@U?$_Vec_base_types@PEAVBoid@1Application@@V?$allocator@PEAVBoid@1Application@@@std@@@std@@@std@@QEAAAEAPEAU_Container_proxy@2@XZ ; std::_Vector_alloc<std::_Vec_base_types<Application::Boid::Boid *,std::allocator<Application::Boid::Boid *> > >::_Myproxy
	mov	rcx, QWORD PTR tv79[rbp]
	mov	r8, rcx
	mov	rdx, QWORD PTR [rax]
	lea	rcx, QWORD PTR _Proxy_allocator$[rbp]
	call	??$construct@U_Container_proxy@std@@U12@@?$_Default_allocator_traits@V?$allocator@U_Container_proxy@std@@@std@@@std@@SAXAEAV?$allocator@U_Container_proxy@std@@@1@QEAU_Container_proxy@1@$$QEAU31@@Z ; std::_Default_allocator_traits<std::allocator<std::_Container_proxy> >::construct<std::_Container_proxy,std::_Container_proxy>

; 505  : 		_Myproxy()->_Mycont = _STD addressof(_Get_data());

	mov	rcx, QWORD PTR this$[rbp]
	call	?_Get_data@?$_Vector_alloc@U?$_Vec_base_types@PEAVBoid@1Application@@V?$allocator@PEAVBoid@1Application@@@std@@@std@@@std@@QEAAAEAV?$_Vector_val@U?$_Simple_types@PEAVBoid@1Application@@@std@@@2@XZ ; std::_Vector_alloc<std::_Vec_base_types<Application::Boid::Boid *,std::allocator<Application::Boid::Boid *> > >::_Get_data
	mov	rcx, rax
	call	??$addressof@V?$_Vector_val@U?$_Simple_types@PEAVBoid@1Application@@@std@@@std@@@std@@YAPEAV?$_Vector_val@U?$_Simple_types@PEAVBoid@1Application@@@std@@@0@AEAV10@@Z ; std::addressof<std::_Vector_val<std::_Simple_types<Application::Boid::Boid *> > >
	mov	QWORD PTR tv91[rbp], rax
	mov	rcx, QWORD PTR this$[rbp]
	call	?_Myproxy@?$_Vector_alloc@U?$_Vec_base_types@PEAVBoid@1Application@@V?$allocator@PEAVBoid@1Application@@@std@@@std@@@std@@QEAAAEAPEAU_Container_proxy@2@XZ ; std::_Vector_alloc<std::_Vec_base_types<Application::Boid::Boid *,std::allocator<Application::Boid::Boid *> > >::_Myproxy
	mov	rax, QWORD PTR [rax]
	mov	rcx, QWORD PTR tv91[rbp]
	mov	QWORD PTR [rax], rcx

; 506  : 		}

	mov	rcx, QWORD PTR __$ArrayPad$[rbp]
	xor	rcx, rbp
	call	__security_check_cookie
	lea	rsp, QWORD PTR [rbp+112]
	pop	rbp
	ret	0
?_Alloc_proxy@?$_Vector_alloc@U?$_Vec_base_types@PEAVBoid@1Application@@V?$allocator@PEAVBoid@1Application@@@std@@@std@@@std@@QEAAXXZ ENDP ; std::_Vector_alloc<std::_Vec_base_types<Application::Boid::Boid *,std::allocator<Application::Boid::Boid *> > >::_Alloc_proxy
_TEXT	ENDS
; Function compile flags: /Odtp /RTCu /ZI
; File c:\program files (x86)\microsoft visual studio\2017\enterprise\vc\tools\msvc\14.15.26726\include\vector
;	COMDAT ??1?$_Vector_alloc@U?$_Vec_base_types@PEAVBoid@1Application@@V?$allocator@PEAVBoid@1Application@@@std@@@std@@@std@@QEAA@XZ
_TEXT	SEGMENT
$T1 = 64
this$ = 96
??1?$_Vector_alloc@U?$_Vec_base_types@PEAVBoid@1Application@@V?$allocator@PEAVBoid@1Application@@@std@@@std@@@std@@QEAA@XZ PROC ; std::_Vector_alloc<std::_Vec_base_types<Application::Boid::Boid *,std::allocator<Application::Boid::Boid *> > >::~_Vector_alloc<std::_Vec_base_types<Application::Boid::Boid *,std::allocator<Application::Boid::Boid *> > >, COMDAT

; 460  : 		{	// destroy proxy

$LN3:
	mov	QWORD PTR [rsp+8], rcx
	push	rbp
	sub	rsp, 112				; 00000070H
	lea	rbp, QWORD PTR [rsp+32]
	mov	QWORD PTR $T1[rbp], -2
	lea	rcx, OFFSET FLAT:__327B7881_vector
	call	__CheckForDebuggerJustMyCode
	npad	1

; 461  : 		_Free_proxy();

	mov	rcx, QWORD PTR this$[rbp]
	call	?_Free_proxy@?$_Vector_alloc@U?$_Vec_base_types@PEAVBoid@1Application@@V?$allocator@PEAVBoid@1Application@@@std@@@std@@@std@@QEAAXXZ ; std::_Vector_alloc<std::_Vec_base_types<Application::Boid::Boid *,std::allocator<Application::Boid::Boid *> > >::_Free_proxy
	npad	1

; 462  : 		}

	lea	rsp, QWORD PTR [rbp+80]
	pop	rbp
	ret	0
??1?$_Vector_alloc@U?$_Vec_base_types@PEAVBoid@1Application@@V?$allocator@PEAVBoid@1Application@@@std@@@std@@@std@@QEAA@XZ ENDP ; std::_Vector_alloc<std::_Vec_base_types<Application::Boid::Boid *,std::allocator<Application::Boid::Boid *> > >::~_Vector_alloc<std::_Vec_base_types<Application::Boid::Boid *,std::allocator<Application::Boid::Boid *> > >
_TEXT	ENDS
; Function compile flags: /Odtp /RTCu /ZI
; File c:\program files (x86)\microsoft visual studio\2017\enterprise\vc\tools\msvc\14.15.26726\include\vector
;	COMDAT ??0?$_Vector_alloc@U?$_Vec_base_types@PEAVBoid@1Application@@V?$allocator@PEAVBoid@1Application@@@std@@@std@@@std@@QEAA@XZ
_TEXT	SEGMENT
$T1 = 64
this$ = 96
??0?$_Vector_alloc@U?$_Vec_base_types@PEAVBoid@1Application@@V?$allocator@PEAVBoid@1Application@@@std@@@std@@@std@@QEAA@XZ PROC ; std::_Vector_alloc<std::_Vec_base_types<Application::Boid::Boid *,std::allocator<Application::Boid::Boid *> > >::_Vector_alloc<std::_Vec_base_types<Application::Boid::Boid *,std::allocator<Application::Boid::Boid *> > >, COMDAT

; 446  : 		{	// default construct allocator

$LN3:
	mov	QWORD PTR [rsp+8], rcx
	push	rbp
	sub	rsp, 112				; 00000070H
	lea	rbp, QWORD PTR [rsp+32]
	lea	rcx, OFFSET FLAT:__327B7881_vector
	call	__CheckForDebuggerJustMyCode

; 445  : 		: _Mypair(_Zero_then_variadic_args_t())

	mov	rax, QWORD PTR this$[rbp]
	movzx	edx, BYTE PTR $T1[rbp]
	mov	rcx, rax
	call	??$?0$$V@?$_Compressed_pair@V?$allocator@PEAVBoid@1Application@@@std@@V?$_Vector_val@U?$_Simple_types@PEAVBoid@1Application@@@std@@@2@$00@std@@QEAA@U_Zero_then_variadic_args_t@1@@Z ; std::_Compressed_pair<std::allocator<Application::Boid::Boid *>,std::_Vector_val<std::_Simple_types<Application::Boid::Boid *> >,1>::_Compressed_pair<std::allocator<Application::Boid::Boid *>,std::_Vector_val<std::_Simple_types<Application::Boid::Boid *> >,1><>

; 447  : 		_Alloc_proxy();

	mov	rcx, QWORD PTR this$[rbp]
	call	?_Alloc_proxy@?$_Vector_alloc@U?$_Vec_base_types@PEAVBoid@1Application@@V?$allocator@PEAVBoid@1Application@@@std@@@std@@@std@@QEAAXXZ ; std::_Vector_alloc<std::_Vec_base_types<Application::Boid::Boid *,std::allocator<Application::Boid::Boid *> > >::_Alloc_proxy

; 448  : 		}

	mov	rax, QWORD PTR this$[rbp]
	lea	rsp, QWORD PTR [rbp+80]
	pop	rbp
	ret	0
??0?$_Vector_alloc@U?$_Vec_base_types@PEAVBoid@1Application@@V?$allocator@PEAVBoid@1Application@@@std@@@std@@@std@@QEAA@XZ ENDP ; std::_Vector_alloc<std::_Vec_base_types<Application::Boid::Boid *,std::allocator<Application::Boid::Boid *> > >::_Vector_alloc<std::_Vec_base_types<Application::Boid::Boid *,std::allocator<Application::Boid::Boid *> > >
_TEXT	ENDS
; Function compile flags: /Odtp /RTCu /ZI
; File c:\program files (x86)\microsoft visual studio\2017\enterprise\vc\tools\msvc\14.15.26726\include\xmemory0
;	COMDAT ?max_size@?$_Default_allocator_traits@V?$allocator@PEAVBoid@1Application@@@std@@@std@@SA_KAEBV?$allocator@PEAVBoid@1Application@@@2@@Z
_TEXT	SEGMENT
$T1 = 64
__formal$ = 96
?max_size@?$_Default_allocator_traits@V?$allocator@PEAVBoid@1Application@@@std@@@std@@SA_KAEBV?$allocator@PEAVBoid@1Application@@@2@@Z PROC ; std::_Default_allocator_traits<std::allocator<Application::Boid::Boid *> >::max_size, COMDAT

; 891  : 		{	// get maximum size

$LN3:
	mov	QWORD PTR [rsp+8], rcx
	push	rbp
	sub	rsp, 112				; 00000070H
	lea	rbp, QWORD PTR [rsp+32]
	mov	QWORD PTR $T1[rbp], -2
	lea	rcx, OFFSET FLAT:__39AEDAD7_xmemory0
	call	__CheckForDebuggerJustMyCode
	npad	1

; 892  : 		return (static_cast<size_t>(-1) / sizeof(value_type));

	mov	rax, 2305843009213693951		; 1fffffffffffffffH

; 893  : 		}

	lea	rsp, QWORD PTR [rbp+80]
	pop	rbp
	ret	0
?max_size@?$_Default_allocator_traits@V?$allocator@PEAVBoid@1Application@@@std@@@std@@SA_KAEBV?$allocator@PEAVBoid@1Application@@@2@@Z ENDP ; std::_Default_allocator_traits<std::allocator<Application::Boid::Boid *> >::max_size
_TEXT	ENDS
; Function compile flags: /Odtp /RTCu /ZI
; File c:\program files (x86)\microsoft visual studio\2017\enterprise\vc\tools\msvc\14.15.26726\include\xmemory0
;	COMDAT ?allocate@?$allocator@PEAVBoid@1Application@@@std@@QEAAPEAPEAVBoid@3Application@@_K@Z
_TEXT	SEGMENT
this$ = 80
_Count$ = 88
?allocate@?$allocator@PEAVBoid@1Application@@@std@@QEAAPEAPEAVBoid@3Application@@_K@Z PROC ; std::allocator<Application::Boid::Boid *>::allocate, COMDAT

; 996  : 		{	// allocate array of _Count elements

$LN3:
	mov	QWORD PTR [rsp+16], rdx
	mov	QWORD PTR [rsp+8], rcx
	push	rbp
	sub	rsp, 96					; 00000060H
	lea	rbp, QWORD PTR [rsp+32]
	lea	rcx, OFFSET FLAT:__39AEDAD7_xmemory0
	call	__CheckForDebuggerJustMyCode

; 997  : 		return (static_cast<_Ty *>(_Allocate<_New_alignof<_Ty>>(_Get_size_of_n<sizeof(_Ty)>(_Count))));

	mov	rcx, QWORD PTR _Count$[rbp]
	call	??$_Get_size_of_n@$07@std@@YA_K_K@Z	; std::_Get_size_of_n<8>
	mov	rcx, rax
	call	??$_Allocate@$0BA@U_Default_allocate_traits@std@@$0A@@std@@YAPEAX_K@Z ; std::_Allocate<16,std::_Default_allocate_traits,0>

; 998  : 		}

	lea	rsp, QWORD PTR [rbp+64]
	pop	rbp
	ret	0
?allocate@?$allocator@PEAVBoid@1Application@@@std@@QEAAPEAPEAVBoid@3Application@@_K@Z ENDP ; std::allocator<Application::Boid::Boid *>::allocate
_TEXT	ENDS
; Function compile flags: /Odtp /RTCu /ZI
; File c:\program files (x86)\microsoft visual studio\2017\enterprise\vc\tools\msvc\14.15.26726\include\xmemory0
;	COMDAT ?deallocate@?$allocator@PEAVBoid@1Application@@@std@@QEAAXQEAPEAVBoid@3Application@@_K@Z
_TEXT	SEGMENT
this$ = 80
_Ptr$ = 88
_Count$ = 96
?deallocate@?$allocator@PEAVBoid@1Application@@@std@@QEAAXQEAPEAVBoid@3Application@@_K@Z PROC ; std::allocator<Application::Boid::Boid *>::deallocate, COMDAT

; 990  : 		{	// deallocate object at _Ptr

$LN3:
	mov	QWORD PTR [rsp+24], r8
	mov	QWORD PTR [rsp+16], rdx
	mov	QWORD PTR [rsp+8], rcx
	push	rbp
	sub	rsp, 96					; 00000060H
	lea	rbp, QWORD PTR [rsp+32]
	lea	rcx, OFFSET FLAT:__39AEDAD7_xmemory0
	call	__CheckForDebuggerJustMyCode

; 991  : 		// no overflow check on the following multiply; we assume _Allocate did that check
; 992  : 		_Deallocate<_New_alignof<_Ty>>(_Ptr, sizeof(_Ty) * _Count);

	mov	rax, QWORD PTR _Count$[rbp]
	shl	rax, 3
	mov	rdx, rax
	mov	rcx, QWORD PTR _Ptr$[rbp]
	call	??$_Deallocate@$0BA@$0A@@std@@YAXPEAX_K@Z ; std::_Deallocate<16,0>

; 993  : 		}

	lea	rsp, QWORD PTR [rbp+64]
	pop	rbp
	ret	0
?deallocate@?$allocator@PEAVBoid@1Application@@@std@@QEAAXQEAPEAVBoid@3Application@@_K@Z ENDP ; std::allocator<Application::Boid::Boid *>::deallocate
_TEXT	ENDS
; Function compile flags: /Odtp /RTCu /ZI
; File c:\program files (x86)\microsoft visual studio\2017\enterprise\vc\tools\msvc\14.15.26726\include\xmemory0
;	COMDAT ??0?$allocator@PEAVBoid@1Application@@@std@@QEAA@XZ
_TEXT	SEGMENT
$T1 = 64
this$ = 96
??0?$allocator@PEAVBoid@1Application@@@std@@QEAA@XZ PROC ; std::allocator<Application::Boid::Boid *>::allocator<Application::Boid::Boid *>, COMDAT

; 979  : 	constexpr allocator() noexcept

$LN3:
	mov	QWORD PTR [rsp+8], rcx
	push	rbp
	sub	rsp, 112				; 00000070H
	lea	rbp, QWORD PTR [rsp+32]
	mov	QWORD PTR $T1[rbp], -2
	lea	rcx, OFFSET FLAT:__39AEDAD7_xmemory0
	call	__CheckForDebuggerJustMyCode
	npad	1

; 980  : 		{	// construct default allocator (do nothing)
; 981  : 		}

	mov	rax, QWORD PTR this$[rbp]
	lea	rsp, QWORD PTR [rbp+80]
	pop	rbp
	ret	0
??0?$allocator@PEAVBoid@1Application@@@std@@QEAA@XZ ENDP ; std::allocator<Application::Boid::Boid *>::allocator<Application::Boid::Boid *>
_TEXT	ENDS
; Function compile flags: /Odtp /RTCu /ZI
; File l:\dev\featherfallengine\depends\install\include\glm\detail\type_vec3.inl
;	COMDAT ??0?$tvec3@M$0A@@glm@@QEAA@MMM@Z
_TEXT	SEGMENT
this$ = 80
a$ = 88
b$ = 96
c$ = 104
??0?$tvec3@M$0A@@glm@@QEAA@MMM@Z PROC			; glm::tvec3<float,0>::tvec3<float,0>, COMDAT

; 70   : 	{}

$LN3:
	movss	DWORD PTR [rsp+32], xmm3
	movss	DWORD PTR [rsp+24], xmm2
	movss	DWORD PTR [rsp+16], xmm1
	mov	QWORD PTR [rsp+8], rcx
	push	rbp
	sub	rsp, 96					; 00000060H
	lea	rbp, QWORD PTR [rsp+32]
	lea	rcx, OFFSET FLAT:__125091CA_type_vec3.inl
	call	__CheckForDebuggerJustMyCode

; 69   : 		: x(a), y(b), z(c)

	mov	rax, QWORD PTR this$[rbp]
	movss	xmm0, DWORD PTR a$[rbp]
	movss	DWORD PTR [rax], xmm0
	mov	rax, QWORD PTR this$[rbp]
	movss	xmm0, DWORD PTR b$[rbp]
	movss	DWORD PTR [rax+4], xmm0
	mov	rax, QWORD PTR this$[rbp]
	movss	xmm0, DWORD PTR c$[rbp]
	movss	DWORD PTR [rax+8], xmm0

; 70   : 	{}

	mov	rax, QWORD PTR this$[rbp]
	lea	rsp, QWORD PTR [rbp+64]
	pop	rbp
	ret	0
??0?$tvec3@M$0A@@glm@@QEAA@MMM@Z ENDP			; glm::tvec3<float,0>::tvec3<float,0>
_TEXT	ENDS
; Function compile flags: /Odtp /RTCu /ZI
; File c:\program files (x86)\microsoft visual studio\2017\enterprise\vc\tools\msvc\14.15.26726\include\utility
;	COMDAT ??$_Min_value@_K@std@@YAAEB_KAEB_K0@Z
_TEXT	SEGMENT
$T1 = 64
$T2 = 72
tv65 = 80
_Left$ = 112
_Right$ = 120
??$_Min_value@_K@std@@YAAEB_KAEB_K0@Z PROC		; std::_Min_value<unsigned __int64>, COMDAT

; 23   : 	{	// return smaller of _Left and _Right

$LN5:
	mov	QWORD PTR [rsp+16], rdx
	mov	QWORD PTR [rsp+8], rcx
	push	rbp
	sub	rsp, 128				; 00000080H
	lea	rbp, QWORD PTR [rsp+32]
	mov	QWORD PTR $T2[rbp], -2
	lea	rcx, OFFSET FLAT:__C7FC7610_utility
	call	__CheckForDebuggerJustMyCode
	npad	1

; 24   : 	return (_Right < _Left ? _Right : _Left);

	mov	rax, QWORD PTR _Right$[rbp]
	mov	rcx, QWORD PTR _Left$[rbp]
	mov	rcx, QWORD PTR [rcx]
	cmp	QWORD PTR [rax], rcx
	jae	SHORT $LN3@Min_value
	mov	rax, QWORD PTR _Right$[rbp]
	mov	QWORD PTR tv65[rbp], rax
	jmp	SHORT $LN4@Min_value
$LN3@Min_value:
	mov	rax, QWORD PTR _Left$[rbp]
	mov	QWORD PTR tv65[rbp], rax
$LN4@Min_value:
	mov	rax, QWORD PTR tv65[rbp]
	mov	QWORD PTR $T1[rbp], rax
	mov	rax, QWORD PTR $T1[rbp]

; 25   : 	}

	lea	rsp, QWORD PTR [rbp+96]
	pop	rbp
	ret	0
??$_Min_value@_K@std@@YAAEB_KAEB_K0@Z ENDP		; std::_Min_value<unsigned __int64>
_TEXT	ENDS
; Function compile flags: /Odtp /RTCu /ZI
; File c:\program files (x86)\microsoft visual studio\2017\enterprise\vc\tools\msvc\14.15.26726\include\xmemory0
;	COMDAT ?_Adjust_manually_vector_aligned@std@@YAXAEAPEAXAEA_K@Z
_TEXT	SEGMENT
_Ptr_user$ = 0
_Ptr_container$ = 8
_Min_back_shift$ = 16
_Back_shift$ = 24
_Ptr$ = 112
_Bytes$ = 120
?_Adjust_manually_vector_aligned@std@@YAXAEAPEAXAEA_K@Z PROC ; std::_Adjust_manually_vector_aligned, COMDAT

; 114  : 	{	// adjust parameters from _Allocate_manually_vector_aligned to pass to operator delete

$LN21:
	mov	QWORD PTR [rsp+16], rdx
	mov	QWORD PTR [rsp+8], rcx
	push	rbp
	sub	rsp, 144				; 00000090H
	lea	rbp, QWORD PTR [rsp+48]
	lea	rcx, OFFSET FLAT:__39AEDAD7_xmemory0
	call	__CheckForDebuggerJustMyCode

; 115  : 	_Bytes += _Non_user_size;

	mov	rax, QWORD PTR _Bytes$[rbp]
	mov	rax, QWORD PTR [rax]
	add	rax, 47					; 0000002fH
	mov	rcx, QWORD PTR _Bytes$[rbp]
	mov	QWORD PTR [rcx], rax

; 116  : 
; 117  : 	const uintptr_t * const _Ptr_user = reinterpret_cast<uintptr_t *>(_Ptr);

	mov	rax, QWORD PTR _Ptr$[rbp]
	mov	rax, QWORD PTR [rax]
	mov	QWORD PTR _Ptr_user$[rbp], rax

; 118  : 	const uintptr_t _Ptr_container = _Ptr_user[-1];

	mov	eax, 8
	imul	rax, rax, -1
	mov	rcx, QWORD PTR _Ptr_user$[rbp]
	mov	rax, QWORD PTR [rcx+rax]
	mov	QWORD PTR _Ptr_container$[rbp], rax
$LN4@Adjust_man:

; 119  : 
; 120  : 	// If the following asserts, it likely means that we are performing
; 121  : 	// an aligned delete on memory coming from an unaligned allocation.
; 122  : 	_STL_ASSERT(_Ptr_user[-2] == _Big_allocation_sentinel, "invalid argument");

	mov	eax, 8
	imul	rax, rax, -2
	mov	rcx, QWORD PTR _Ptr_user$[rbp]
	mov	rdx, -361700864190383366		; fafafafafafafafaH
	cmp	QWORD PTR [rcx+rax], rdx
	jne	SHORT $LN14@Adjust_man
	jmp	SHORT $LN15@Adjust_man
$LN14@Adjust_man:
$LN7@Adjust_man:
	mov	eax, DWORD PTR ?__LINE__Var@?0??_Adjust_manually_vector_aligned@std@@YAXAEAPEAXAEA_K@Z@4JA
	add	eax, 8
	lea	rcx, OFFSET FLAT:??_C@_0BB@FCMFBGOM@invalid?5argument@
	mov	QWORD PTR [rsp+40], rcx
	lea	rcx, OFFSET FLAT:??_C@_02DKCKIIND@?$CFs@
	mov	QWORD PTR [rsp+32], rcx
	xor	r9d, r9d
	mov	r8d, eax
	lea	rdx, OFFSET FLAT:??_C@_0GK@FKLKIKPD@c?3?2program?5files?5?$CIx86?$CJ?2microsof@
	mov	ecx, 2
	call	QWORD PTR __imp__CrtDbgReport
	cmp	eax, 1
	jne	SHORT $LN19@Adjust_man
	int	3
	xor	eax, eax
$LN19@Adjust_man:
	mov	eax, DWORD PTR ?__LINE__Var@?0??_Adjust_manually_vector_aligned@std@@YAXAEAPEAXAEA_K@Z@4JA
	add	eax, 8
	mov	QWORD PTR [rsp+32], 0
	mov	r9d, eax
	lea	r8, OFFSET FLAT:??_C@_1NE@MCNNPIKO@?$AAc?$AA?3?$AA?2?$AAp?$AAr?$AAo?$AAg?$AAr?$AAa?$AAm?$AA?5?$AAf?$AAi?$AAl?$AAe@
	lea	rdx, OFFSET FLAT:??_C@_1EK@NIFDJFDG@?$AAs?$AAt?$AAd?$AA?3?$AA?3?$AA_?$AAA?$AAd?$AAj?$AAu?$AAs?$AAt?$AA_?$AAm?$AAa@
	lea	rcx, OFFSET FLAT:??_C@_1CG@JNLFBNGN@?$AA?$CC?$AAi?$AAn?$AAv?$AAa?$AAl?$AAi?$AAd?$AA?5?$AAa?$AAr?$AAg?$AAu?$AAm?$AAe@
	call	QWORD PTR __imp__invalid_parameter
	xor	eax, eax
	test	eax, eax
	jne	SHORT $LN7@Adjust_man
$LN15@Adjust_man:
	xor	eax, eax
	test	eax, eax
	jne	$LN4@Adjust_man

; 123  : 
; 124  : 	// Extra paranoia on aligned allocation/deallocation; ensure _Ptr_container is
; 125  : 	// in range [_Min_back_shift, _Non_user_size]
; 126  :   #ifdef _DEBUG
; 127  : 	constexpr uintptr_t _Min_back_shift = 2 * sizeof(void *);

	mov	QWORD PTR _Min_back_shift$[rbp], 16

; 128  :   #else /* ^^^ _DEBUG ^^^ // vvv !_DEBUG vvv */
; 129  : 	constexpr uintptr_t _Min_back_shift = sizeof(void *);
; 130  :   #endif /* _DEBUG */
; 131  : 	const uintptr_t _Back_shift = reinterpret_cast<uintptr_t>(_Ptr) - _Ptr_container;

	mov	rax, QWORD PTR _Ptr$[rbp]
	mov	rcx, QWORD PTR _Ptr_container$[rbp]
	mov	rax, QWORD PTR [rax]
	sub	rax, rcx
	mov	QWORD PTR _Back_shift$[rbp], rax
$LN10@Adjust_man:

; 132  : 	_STL_VERIFY(_Back_shift >= _Min_back_shift && _Back_shift <= _Non_user_size, "invalid argument");

	cmp	QWORD PTR _Back_shift$[rbp], 16
	jb	SHORT $LN16@Adjust_man
	cmp	QWORD PTR _Back_shift$[rbp], 47		; 0000002fH
	ja	SHORT $LN16@Adjust_man
	jmp	SHORT $LN17@Adjust_man
$LN16@Adjust_man:
$LN13@Adjust_man:
	mov	eax, DWORD PTR ?__LINE__Var@?0??_Adjust_manually_vector_aligned@std@@YAXAEAPEAXAEA_K@Z@4JA
	add	eax, 18
	lea	rcx, OFFSET FLAT:??_C@_0BB@FCMFBGOM@invalid?5argument@
	mov	QWORD PTR [rsp+40], rcx
	lea	rcx, OFFSET FLAT:??_C@_02DKCKIIND@?$CFs@
	mov	QWORD PTR [rsp+32], rcx
	xor	r9d, r9d
	mov	r8d, eax
	lea	rdx, OFFSET FLAT:??_C@_0GK@FKLKIKPD@c?3?2program?5files?5?$CIx86?$CJ?2microsof@
	mov	ecx, 2
	call	QWORD PTR __imp__CrtDbgReport
	cmp	eax, 1
	jne	SHORT $LN20@Adjust_man
	int	3
	xor	eax, eax
$LN20@Adjust_man:
	mov	eax, DWORD PTR ?__LINE__Var@?0??_Adjust_manually_vector_aligned@std@@YAXAEAPEAXAEA_K@Z@4JA
	add	eax, 18
	mov	QWORD PTR [rsp+32], 0
	mov	r9d, eax
	lea	r8, OFFSET FLAT:??_C@_1NE@MCNNPIKO@?$AAc?$AA?3?$AA?2?$AAp?$AAr?$AAo?$AAg?$AAr?$AAa?$AAm?$AA?5?$AAf?$AAi?$AAl?$AAe@
	lea	rdx, OFFSET FLAT:??_C@_1EK@NIFDJFDG@?$AAs?$AAt?$AAd?$AA?3?$AA?3?$AA_?$AAA?$AAd?$AAj?$AAu?$AAs?$AAt?$AA_?$AAm?$AAa@
	lea	rcx, OFFSET FLAT:??_C@_1CG@JNLFBNGN@?$AA?$CC?$AAi?$AAn?$AAv?$AAa?$AAl?$AAi?$AAd?$AA?5?$AAa?$AAr?$AAg?$AAu?$AAm?$AAe@
	call	QWORD PTR __imp__invalid_parameter
	xor	eax, eax
	test	eax, eax
	jne	SHORT $LN13@Adjust_man
$LN17@Adjust_man:
	xor	eax, eax
	test	eax, eax
	jne	$LN10@Adjust_man

; 133  : 	_Ptr = reinterpret_cast<void *>(_Ptr_container);

	mov	rax, QWORD PTR _Ptr$[rbp]
	mov	rcx, QWORD PTR _Ptr_container$[rbp]
	mov	QWORD PTR [rax], rcx

; 134  : 	}

	lea	rsp, QWORD PTR [rbp+96]
	pop	rbp
	ret	0
?_Adjust_manually_vector_aligned@std@@YAXAEAPEAXAEA_K@Z ENDP ; std::_Adjust_manually_vector_aligned
_TEXT	ENDS
; Function compile flags: /Odtp /RTCu /ZI
; File c:\program files (x86)\microsoft visual studio\2017\enterprise\vc\tools\msvc\14.15.26726\include\xmemory0
;	COMDAT ?_Allocate@_Default_allocate_traits@std@@SAPEAX_K@Z
_TEXT	SEGMENT
_Bytes$ = 80
?_Allocate@_Default_allocate_traits@std@@SAPEAX_K@Z PROC ; std::_Default_allocate_traits::_Allocate, COMDAT

; 51   : 		{

$LN3:
	mov	QWORD PTR [rsp+8], rcx
	push	rbp
	sub	rsp, 96					; 00000060H
	lea	rbp, QWORD PTR [rsp+32]
	lea	rcx, OFFSET FLAT:__39AEDAD7_xmemory0
	call	__CheckForDebuggerJustMyCode

; 52   : 		return (::operator new(_Bytes));

	mov	rcx, QWORD PTR _Bytes$[rbp]
	call	??2@YAPEAX_K@Z				; operator new

; 53   : 		}

	lea	rsp, QWORD PTR [rbp+64]
	pop	rbp
	ret	0
?_Allocate@_Default_allocate_traits@std@@SAPEAX_K@Z ENDP ; std::_Default_allocate_traits::_Allocate
_TEXT	ENDS
; Function compile flags: /Odtp /RTCu /ZI
; File c:\program files (x86)\microsoft visual studio\2017\enterprise\vc\tools\msvc\14.15.26726\include\xutility
;	COMDAT ?_Getpnext@_Iterator_base12@std@@QEAAPEAPEAU12@XZ
_TEXT	SEGMENT
$T1 = 64
this$ = 96
?_Getpnext@_Iterator_base12@std@@QEAAPEAPEAU12@XZ PROC	; std::_Iterator_base12::_Getpnext, COMDAT

; 186  : 		{	// get address of remaining iterator chain

$LN3:
	mov	QWORD PTR [rsp+8], rcx
	push	rbp
	sub	rsp, 112				; 00000070H
	lea	rbp, QWORD PTR [rsp+32]
	mov	QWORD PTR $T1[rbp], -2
	lea	rcx, OFFSET FLAT:__E8FD1B86_xutility
	call	__CheckForDebuggerJustMyCode
	npad	1

; 187  : 		return (&_Mynextiter);

	mov	rax, QWORD PTR this$[rbp]
	add	rax, 8

; 188  : 		}

	lea	rsp, QWORD PTR [rbp+80]
	pop	rbp
	ret	0
?_Getpnext@_Iterator_base12@std@@QEAAPEAPEAU12@XZ ENDP	; std::_Iterator_base12::_Getpnext
_TEXT	ENDS
; Function compile flags: /Odtp /RTCu /ZI
; File c:\program files (x86)\microsoft visual studio\2017\enterprise\vc\tools\msvc\14.15.26726\include\xutility
;	COMDAT ?_Clrcont@_Iterator_base12@std@@QEAAXXZ
_TEXT	SEGMENT
$T1 = 64
this$ = 96
?_Clrcont@_Iterator_base12@std@@QEAAXXZ PROC		; std::_Iterator_base12::_Clrcont, COMDAT

; 176  : 		{	// disown owning container

$LN3:
	mov	QWORD PTR [rsp+8], rcx
	push	rbp
	sub	rsp, 112				; 00000070H
	lea	rbp, QWORD PTR [rsp+32]
	mov	QWORD PTR $T1[rbp], -2
	lea	rcx, OFFSET FLAT:__E8FD1B86_xutility
	call	__CheckForDebuggerJustMyCode
	npad	1

; 177  : 		_Myproxy = nullptr;

	mov	rax, QWORD PTR this$[rbp]
	mov	QWORD PTR [rax], 0

; 178  : 		}

	lea	rsp, QWORD PTR [rbp+80]
	pop	rbp
	ret	0
?_Clrcont@_Iterator_base12@std@@QEAAXXZ ENDP		; std::_Iterator_base12::_Clrcont
_TEXT	ENDS
; Function compile flags: /Odtp /RTCu /ZI
; File c:\program files (x86)\microsoft visual studio\2017\enterprise\vc\tools\msvc\14.15.26726\include\xutility
;	COMDAT ?_Orphan_all@_Container_base12@std@@QEAAXXZ
_TEXT	SEGMENT
_Lock$1 = 0
_Pnext$2 = 8
$T3 = 80
__$ArrayPad$ = 88
this$ = 112
?_Orphan_all@_Container_base12@std@@QEAAXXZ PROC	; std::_Container_base12::_Orphan_all, COMDAT

; 214  : 	{	// orphan all iterators

$LN7:
	mov	QWORD PTR [rsp+8], rcx
	push	rbp
	sub	rsp, 128				; 00000080H
	lea	rbp, QWORD PTR [rsp+32]
	mov	QWORD PTR $T3[rbp], -2
	mov	rax, QWORD PTR __security_cookie
	xor	rax, rbp
	mov	QWORD PTR __$ArrayPad$[rbp], rax
	lea	rcx, OFFSET FLAT:__E8FD1B86_xutility
	call	__CheckForDebuggerJustMyCode
	npad	1

; 215  :  #if _ITERATOR_DEBUG_LEVEL == 2
; 216  : 	if (_Myproxy != nullptr)

	mov	rax, QWORD PTR this$[rbp]
	cmp	QWORD PTR [rax], 0
	je	SHORT $LN5@Orphan_all

; 217  : 		{	// proxy allocated, drain it
; 218  : 		_Lockit _Lock(_LOCK_DEBUG);

	mov	edx, 3
	lea	rcx, QWORD PTR _Lock$1[rbp]
	call	QWORD PTR __imp_??0_Lockit@std@@QEAA@H@Z
	npad	1

; 219  : 
; 220  : 		for (_Iterator_base12 **_Pnext = &_Myproxy->_Myfirstiter;

	mov	rax, QWORD PTR this$[rbp]
	mov	rax, QWORD PTR [rax]
	add	rax, 8
	mov	QWORD PTR _Pnext$2[rbp], rax
	jmp	SHORT $LN4@Orphan_all
$LN2@Orphan_all:

; 221  : 			*_Pnext != nullptr; *_Pnext = (*_Pnext)->_Mynextiter)

	mov	rax, QWORD PTR _Pnext$2[rbp]
	mov	rax, QWORD PTR [rax]
	mov	rcx, QWORD PTR _Pnext$2[rbp]
	mov	rax, QWORD PTR [rax+8]
	mov	QWORD PTR [rcx], rax
$LN4@Orphan_all:
	mov	rax, QWORD PTR _Pnext$2[rbp]
	cmp	QWORD PTR [rax], 0
	je	SHORT $LN3@Orphan_all

; 222  : 			(*_Pnext)->_Myproxy = nullptr;

	mov	rax, QWORD PTR _Pnext$2[rbp]
	mov	rax, QWORD PTR [rax]
	mov	QWORD PTR [rax], 0
	jmp	SHORT $LN2@Orphan_all
$LN3@Orphan_all:

; 223  : 		_Myproxy->_Myfirstiter = nullptr;

	mov	rax, QWORD PTR this$[rbp]
	mov	rax, QWORD PTR [rax]
	mov	QWORD PTR [rax+8], 0

; 224  : 		}

	lea	rcx, QWORD PTR _Lock$1[rbp]
	call	QWORD PTR __imp_??1_Lockit@std@@QEAA@XZ
	npad	1
$LN5@Orphan_all:

; 225  :  #endif /* _ITERATOR_DEBUG_LEVEL == 2 */
; 226  : 	}

	mov	rcx, QWORD PTR __$ArrayPad$[rbp]
	xor	rcx, rbp
	call	__security_check_cookie
	npad	1
	lea	rsp, QWORD PTR [rbp+96]
	pop	rbp
	ret	0
?_Orphan_all@_Container_base12@std@@QEAAXXZ ENDP	; std::_Container_base12::_Orphan_all
_TEXT	ENDS
; Function compile flags: /Odtp /RTCu /ZI
; File c:\program files (x86)\microsoft visual studio\2017\enterprise\vc\tools\msvc\14.15.26726\include\xutility
;	COMDAT ?_Getpfirst@_Container_base12@std@@QEBAPEAPEAU_Iterator_base12@2@XZ
_TEXT	SEGMENT
$T1 = 64
tv68 = 72
this$ = 96
?_Getpfirst@_Container_base12@std@@QEBAPEAPEAU_Iterator_base12@2@XZ PROC ; std::_Container_base12::_Getpfirst, COMDAT

; 95   : 		{	// get address of iterator chain

$LN5:
	mov	QWORD PTR [rsp+8], rcx
	push	rbp
	sub	rsp, 112				; 00000070H
	lea	rbp, QWORD PTR [rsp+32]
	mov	QWORD PTR $T1[rbp], -2
	lea	rcx, OFFSET FLAT:__E8FD1B86_xutility
	call	__CheckForDebuggerJustMyCode
	npad	1

; 96   : 		return (_Myproxy == nullptr ? nullptr : &_Myproxy->_Myfirstiter);

	mov	rax, QWORD PTR this$[rbp]
	cmp	QWORD PTR [rax], 0
	jne	SHORT $LN3@Getpfirst
	mov	QWORD PTR tv68[rbp], 0
	jmp	SHORT $LN4@Getpfirst
$LN3@Getpfirst:
	mov	rax, QWORD PTR this$[rbp]
	mov	rax, QWORD PTR [rax]
	add	rax, 8
	mov	QWORD PTR tv68[rbp], rax
$LN4@Getpfirst:
	mov	rax, QWORD PTR tv68[rbp]

; 97   : 		}

	lea	rsp, QWORD PTR [rbp+80]
	pop	rbp
	ret	0
?_Getpfirst@_Container_base12@std@@QEBAPEAPEAU_Iterator_base12@2@XZ ENDP ; std::_Container_base12::_Getpfirst
_TEXT	ENDS
; Function compile flags: /Odtp /RTCu /ZI
; File c:\program files (x86)\microsoft visual studio\2017\enterprise\vc\tools\msvc\14.15.26726\include\xutility
;	COMDAT ??0_Container_base12@std@@QEAA@XZ
_TEXT	SEGMENT
this$ = 80
??0_Container_base12@std@@QEAA@XZ PROC			; std::_Container_base12::_Container_base12, COMDAT

; 81   : 		{	// construct childless container

$LN3:
	mov	QWORD PTR [rsp+8], rcx
	push	rbp
	sub	rsp, 96					; 00000060H
	lea	rbp, QWORD PTR [rsp+32]
	lea	rcx, OFFSET FLAT:__E8FD1B86_xutility
	call	__CheckForDebuggerJustMyCode

; 80   : 		: _Myproxy(nullptr)

	mov	rax, QWORD PTR this$[rbp]
	mov	QWORD PTR [rax], 0

; 82   : 		}

	mov	rax, QWORD PTR this$[rbp]
	lea	rsp, QWORD PTR [rbp+64]
	pop	rbp
	ret	0
??0_Container_base12@std@@QEAA@XZ ENDP			; std::_Container_base12::_Container_base12
_TEXT	ENDS
; Function compile flags: /Odtp /RTCu /ZI
; File c:\program files (x86)\microsoft visual studio\2017\enterprise\vc\tools\msvc\14.15.26726\include\xutility
;	COMDAT ??0_Container_proxy@std@@QEAA@XZ
_TEXT	SEGMENT
$T1 = 64
this$ = 96
??0_Container_proxy@std@@QEAA@XZ PROC			; std::_Container_proxy::_Container_proxy, COMDAT

; 69   : 		{	// construct from pointers

$LN3:
	mov	QWORD PTR [rsp+8], rcx
	push	rbp
	sub	rsp, 112				; 00000070H
	lea	rbp, QWORD PTR [rsp+32]
	mov	QWORD PTR $T1[rbp], -2
	lea	rcx, OFFSET FLAT:__E8FD1B86_xutility
	call	__CheckForDebuggerJustMyCode
	npad	1

; 68   : 		: _Mycont(nullptr), _Myfirstiter(nullptr)

	mov	rax, QWORD PTR this$[rbp]
	mov	QWORD PTR [rax], 0
	mov	rax, QWORD PTR this$[rbp]
	mov	QWORD PTR [rax+8], 0

; 70   : 		}

	mov	rax, QWORD PTR this$[rbp]
	lea	rsp, QWORD PTR [rbp+80]
	pop	rbp
	ret	0
??0_Container_proxy@std@@QEAA@XZ ENDP			; std::_Container_proxy::_Container_proxy
_TEXT	ENDS
; Function compile flags: /Odtp /RTCu /ZI
; File l:\dev\featherfallengine\depends\install\include\glm\detail\type_vec2.inl
;	COMDAT ??0?$tvec2@M$0A@@glm@@QEAA@MM@Z
_TEXT	SEGMENT
this$ = 80
s1$ = 88
s2$ = 96
??0?$tvec2@M$0A@@glm@@QEAA@MM@Z PROC			; glm::tvec2<float,0>::tvec2<float,0>, COMDAT

; 57   : 	{}

$LN3:
	movss	DWORD PTR [rsp+24], xmm2
	movss	DWORD PTR [rsp+16], xmm1
	mov	QWORD PTR [rsp+8], rcx
	push	rbp
	sub	rsp, 96					; 00000060H
	lea	rbp, QWORD PTR [rsp+32]
	lea	rcx, OFFSET FLAT:__2F30B87A_type_vec2.inl
	call	__CheckForDebuggerJustMyCode

; 56   : 		: x(s1), y(s2)

	mov	rax, QWORD PTR this$[rbp]
	movss	xmm0, DWORD PTR s1$[rbp]
	movss	DWORD PTR [rax], xmm0
	mov	rax, QWORD PTR this$[rbp]
	movss	xmm0, DWORD PTR s2$[rbp]
	movss	DWORD PTR [rax+4], xmm0

; 57   : 	{}

	mov	rax, QWORD PTR this$[rbp]
	lea	rsp, QWORD PTR [rbp+64]
	pop	rbp
	ret	0
??0?$tvec2@M$0A@@glm@@QEAA@MM@Z ENDP			; glm::tvec2<float,0>::tvec2<float,0>
_TEXT	ENDS
; Function compile flags: /Odtp /RTCu /ZI
; File l:\dev\featherfallengine\depends\install\include\glm\detail\type_vec4.inl
;	COMDAT ??0?$tvec4@M$0A@@glm@@QEAA@MMMM@Z
_TEXT	SEGMENT
this$ = 80
a$ = 88
b$ = 96
c$ = 104
d$ = 112
??0?$tvec4@M$0A@@glm@@QEAA@MMMM@Z PROC			; glm::tvec4<float,0>::tvec4<float,0>, COMDAT

; 193  : 	{}

$LN3:
	movss	DWORD PTR [rsp+32], xmm3
	movss	DWORD PTR [rsp+24], xmm2
	movss	DWORD PTR [rsp+16], xmm1
	mov	QWORD PTR [rsp+8], rcx
	push	rbp
	sub	rsp, 96					; 00000060H
	lea	rbp, QWORD PTR [rsp+32]
	lea	rcx, OFFSET FLAT:__A0704DDA_type_vec4.inl
	call	__CheckForDebuggerJustMyCode

; 192  : 		: x(a), y(b), z(c), w(d)

	mov	rax, QWORD PTR this$[rbp]
	movss	xmm0, DWORD PTR a$[rbp]
	movss	DWORD PTR [rax], xmm0
	mov	rax, QWORD PTR this$[rbp]
	movss	xmm0, DWORD PTR b$[rbp]
	movss	DWORD PTR [rax+4], xmm0
	mov	rax, QWORD PTR this$[rbp]
	movss	xmm0, DWORD PTR c$[rbp]
	movss	DWORD PTR [rax+8], xmm0
	mov	rax, QWORD PTR this$[rbp]
	movss	xmm0, DWORD PTR d$[rbp]
	movss	DWORD PTR [rax+12], xmm0

; 193  : 	{}

	mov	rax, QWORD PTR this$[rbp]
	lea	rsp, QWORD PTR [rbp+64]
	pop	rbp
	ret	0
??0?$tvec4@M$0A@@glm@@QEAA@MMMM@Z ENDP			; glm::tvec4<float,0>::tvec4<float,0>
_TEXT	ENDS
; Function compile flags: /Odtp /RTCu /ZI
; File l:\dev\featherfallengine\depends\install\include\glm\detail\type_vec4.inl
;	COMDAT ??0?$tvec4@M$0A@@glm@@QEAA@M@Z
_TEXT	SEGMENT
this$ = 80
scalar$ = 88
??0?$tvec4@M$0A@@glm@@QEAA@M@Z PROC			; glm::tvec4<float,0>::tvec4<float,0>, COMDAT

; 188  : 	{}

$LN3:
	movss	DWORD PTR [rsp+16], xmm1
	mov	QWORD PTR [rsp+8], rcx
	push	rbp
	sub	rsp, 96					; 00000060H
	lea	rbp, QWORD PTR [rsp+32]
	lea	rcx, OFFSET FLAT:__A0704DDA_type_vec4.inl
	call	__CheckForDebuggerJustMyCode

; 187  : 		: x(scalar), y(scalar), z(scalar), w(scalar)

	mov	rax, QWORD PTR this$[rbp]
	movss	xmm0, DWORD PTR scalar$[rbp]
	movss	DWORD PTR [rax], xmm0
	mov	rax, QWORD PTR this$[rbp]
	movss	xmm0, DWORD PTR scalar$[rbp]
	movss	DWORD PTR [rax+4], xmm0
	mov	rax, QWORD PTR this$[rbp]
	movss	xmm0, DWORD PTR scalar$[rbp]
	movss	DWORD PTR [rax+8], xmm0
	mov	rax, QWORD PTR this$[rbp]
	movss	xmm0, DWORD PTR scalar$[rbp]
	movss	DWORD PTR [rax+12], xmm0

; 188  : 	{}

	mov	rax, QWORD PTR this$[rbp]
	lea	rsp, QWORD PTR [rbp+64]
	pop	rbp
	ret	0
??0?$tvec4@M$0A@@glm@@QEAA@M@Z ENDP			; glm::tvec4<float,0>::tvec4<float,0>
_TEXT	ENDS
; Function compile flags: /Odtp /RTCu /ZI
; File c:\program files (x86)\microsoft visual studio\2017\enterprise\vc\tools\msvc\14.15.26726\include\limits
;	COMDAT ?max@?$numeric_limits@_J@std@@SA_JXZ
_TEXT	SEGMENT
$T1 = 64
?max@?$numeric_limits@_J@std@@SA_JXZ PROC		; std::numeric_limits<__int64>::max, COMDAT

; 893  : 		{	// return maximum value

$LN3:
	push	rbp
	sub	rsp, 112				; 00000070H
	lea	rbp, QWORD PTR [rsp+32]
	mov	QWORD PTR $T1[rbp], -2
	lea	rcx, OFFSET FLAT:__7FD60861_limits
	call	__CheckForDebuggerJustMyCode
	npad	1

; 894  : 		return (LLONG_MAX);

	mov	rax, 9223372036854775807		; 7fffffffffffffffH

; 895  : 		}

	lea	rsp, QWORD PTR [rbp+80]
	pop	rbp
	ret	0
?max@?$numeric_limits@_J@std@@SA_JXZ ENDP		; std::numeric_limits<__int64>::max
_TEXT	ENDS
; Function compile flags: /Odtp /RTCu /ZI
; File c:\program files (x86)\microsoft visual studio\2017\enterprise\vc\tools\msvc\14.15.26726\include\cmath
;	COMDAT ?sqrt@@YAMM@Z
_TEXT	SEGMENT
$T1 = 64
_Xx$ = 96
?sqrt@@YAMM@Z PROC					; sqrt, COMDAT

; 294  : 	{

$LN3:
	movss	DWORD PTR [rsp+8], xmm0
	push	rbp
	sub	rsp, 112				; 00000070H
	lea	rbp, QWORD PTR [rsp+32]
	mov	QWORD PTR $T1[rbp], -2
	lea	rcx, OFFSET FLAT:__5340138E_cmath
	call	__CheckForDebuggerJustMyCode
	npad	1

; 295  : 	return (_CSTD sqrtf(_Xx));

	movss	xmm0, DWORD PTR _Xx$[rbp]
	call	QWORD PTR __imp_sqrtf
	npad	1

; 296  : 	}

	lea	rsp, QWORD PTR [rbp+80]
	pop	rbp
	ret	0
?sqrt@@YAMM@Z ENDP					; sqrt
_TEXT	ENDS
; Function compile flags: /Odtp /RTCu /ZI
; File c:\program files (x86)\microsoft visual studio\2017\enterprise\vc\tools\msvc\14.15.26726\include\vcruntime_new.h
;	COMDAT ??2@YAPEAX_KPEAX@Z
_TEXT	SEGMENT
$T1 = 64
_Size$ = 96
_Where$ = 104
??2@YAPEAX_KPEAX@Z PROC					; operator new, COMDAT

; 185  :     {

$LN3:
	mov	QWORD PTR [rsp+16], rdx
	mov	QWORD PTR [rsp+8], rcx
	push	rbp
	sub	rsp, 112				; 00000070H
	lea	rbp, QWORD PTR [rsp+32]
	mov	QWORD PTR $T1[rbp], -2
	lea	rcx, OFFSET FLAT:__C3726024_vcruntime_new.h
	call	__CheckForDebuggerJustMyCode
	npad	1

; 186  :         (void)_Size;
; 187  :         return _Where;

	mov	rax, QWORD PTR _Where$[rbp]

; 188  :     }

	lea	rsp, QWORD PTR [rbp+80]
	pop	rbp
	ret	0
??2@YAPEAX_KPEAX@Z ENDP					; operator new
_TEXT	ENDS
; Function compile flags: /Odtp /RTCu /ZI
; File l:\dev\featherfallengine\featherfall-examples\src\boids\boid.cpp
;	COMDAT ?__empty_global_delete@@YAXPEAX_K@Z
_TEXT	SEGMENT
__formal$ = 80
__formal$ = 88
?__empty_global_delete@@YAXPEAX_K@Z PROC		; __empty_global_delete, COMDAT

$LN3:
	mov	QWORD PTR [rsp+16], rdx
	mov	QWORD PTR [rsp+8], rcx
	push	rbp
	sub	rsp, 96					; 00000060H
	lea	rbp, QWORD PTR [rsp+32]
	lea	rcx, OFFSET FLAT:__62129A41_boid.cpp
	call	__CheckForDebuggerJustMyCode
	lea	rsp, QWORD PTR [rbp+64]
	pop	rbp
	ret	0
?__empty_global_delete@@YAXPEAX_K@Z ENDP		; __empty_global_delete
_TEXT	ENDS
; Function compile flags: /Odtp /RTCu /ZI
; File l:\dev\featherfallengine\featherfall-examples\src\boids\boid.cpp
;	COMDAT ?__empty_global_delete@@YAXPEAX@Z
_TEXT	SEGMENT
__formal$ = 80
?__empty_global_delete@@YAXPEAX@Z PROC			; __empty_global_delete, COMDAT

$LN3:
	mov	QWORD PTR [rsp+8], rcx
	push	rbp
	sub	rsp, 96					; 00000060H
	lea	rbp, QWORD PTR [rsp+32]
	lea	rcx, OFFSET FLAT:__62129A41_boid.cpp
	call	__CheckForDebuggerJustMyCode
	lea	rsp, QWORD PTR [rbp+64]
	pop	rbp
	ret	0
?__empty_global_delete@@YAXPEAX@Z ENDP			; __empty_global_delete
_TEXT	ENDS
; Function compile flags: /Odtp /RTCu /ZI
;	COMDAT ??_H@YAXPEAX_K1P6APEAX0@Z@Z
_TEXT	SEGMENT
tv66 = 64
tv67 = 72
__t$ = 96
__s$ = 104
__n$ = 112
__f$ = 120
??_H@YAXPEAX_K1P6APEAX0@Z@Z PROC			; `vector constructor iterator', COMDAT
$LN7:
	mov	QWORD PTR [rsp+32], r9
	mov	QWORD PTR [rsp+24], r8
	mov	QWORD PTR [rsp+16], rdx
	mov	QWORD PTR [rsp+8], rcx
	push	rbp
	sub	rsp, 112				; 00000070H
	lea	rbp, QWORD PTR [rsp+32]
$LN2@vector:
	mov	rax, QWORD PTR __n$[rbp]
	mov	QWORD PTR tv66[rbp], rax
	mov	rax, QWORD PTR __n$[rbp]
	dec	rax
	mov	QWORD PTR __n$[rbp], rax
	cmp	QWORD PTR tv66[rbp], 0
	jbe	SHORT $LN5@vector
	mov	DWORD PTR tv67[rbp], 1
	jmp	SHORT $LN6@vector
$LN5@vector:
	mov	DWORD PTR tv67[rbp], 0
$LN6@vector:
	cmp	DWORD PTR tv67[rbp], 0
	je	SHORT $LN3@vector
	mov	rcx, QWORD PTR __t$[rbp]
	call	QWORD PTR __f$[rbp]
	mov	rax, QWORD PTR __s$[rbp]
	mov	rcx, QWORD PTR __t$[rbp]
	add	rcx, rax
	mov	rax, rcx
	mov	QWORD PTR __t$[rbp], rax
	jmp	SHORT $LN2@vector
$LN3@vector:
	lea	rsp, QWORD PTR [rbp+80]
	pop	rbp
	ret	0
??_H@YAXPEAX_K1P6APEAX0@Z@Z ENDP			; `vector constructor iterator'
_TEXT	ENDS
END
