; Listing generated by Microsoft (R) Optimizing Compiler Version 19.14.26433.0 

include listing.inc

INCLUDELIB MSVCRTD
INCLUDELIB OLDNAMES

PUBLIC	??_H@YAXPEAX_K1P6APEAX0@Z@Z			; `vector constructor iterator'
PUBLIC	?__empty_global_delete@@YAXPEAX@Z		; __empty_global_delete
PUBLIC	?__empty_global_delete@@YAXPEAX_K@Z		; __empty_global_delete
PUBLIC	?max@?$numeric_limits@_J@std@@SA_JXZ		; std::numeric_limits<__int64>::max
PUBLIC	?length@?$tvec4@M$0A@@glm@@SAHXZ		; glm::tvec4<float,0>::length
PUBLIC	??A?$tvec4@M$0A@@glm@@QEAAAEAMH@Z		; glm::tvec4<float,0>::operator[]
PUBLIC	??0?$tvec4@M$0A@@glm@@QEAA@XZ			; glm::tvec4<float,0>::tvec4<float,0>
PUBLIC	??0?$tvec4@M$0A@@glm@@QEAA@MMMM@Z		; glm::tvec4<float,0>::tvec4<float,0>
PUBLIC	??2@YAPEAX_KPEAX@Z				; operator new
PUBLIC	?length@?$char_traits@D@std@@SA_KQEBD@Z		; std::char_traits<char>::length
PUBLIC	?copy@?$char_traits@D@std@@SAPEADQEADQEBD_K@Z	; std::char_traits<char>::copy
PUBLIC	?move@?$char_traits@D@std@@SAPEADQEADQEBD_K@Z	; std::char_traits<char>::move
PUBLIC	?assign@?$char_traits@D@std@@SAXAEADAEBD@Z	; std::char_traits<char>::assign
PUBLIC	??0_Container_proxy@std@@QEAA@XZ		; std::_Container_proxy::_Container_proxy
PUBLIC	??0_Container_base12@std@@QEAA@XZ		; std::_Container_base12::_Container_base12
PUBLIC	?_Orphan_all@_Container_base12@std@@QEAAXXZ	; std::_Container_base12::_Orphan_all
PUBLIC	??$_Get_size_of_n@$00@std@@YA_K_K@Z		; std::_Get_size_of_n<1>
PUBLIC	?_Allocate@_Default_allocate_traits@std@@SAPEAX_K@Z ; std::_Default_allocate_traits::_Allocate
PUBLIC	?_Adjust_manually_vector_aligned@std@@YAXAEAPEAXAEA_K@Z ; std::_Adjust_manually_vector_aligned
PUBLIC	??$_Convert_size@_K@std@@YA_K_K@Z		; std::_Convert_size<unsigned __int64>
PUBLIC	??$_Min_value@_K@std@@YAAEB_KAEB_K0@Z		; std::_Min_value<unsigned __int64>
PUBLIC	??0?$allocator@D@std@@QEAA@XZ			; std::allocator<char>::allocator<char>
PUBLIC	?deallocate@?$allocator@D@std@@QEAAXQEAD_K@Z	; std::allocator<char>::deallocate
PUBLIC	?allocate@?$allocator@D@std@@QEAAPEAD_K@Z	; std::allocator<char>::allocate
PUBLIC	?max_size@?$_Default_allocator_traits@V?$allocator@D@std@@@std@@SA_KAEBV?$allocator@D@2@@Z ; std::_Default_allocator_traits<std::allocator<char> >::max_size
PUBLIC	??0?$_String_val@U?$_Simple_types@D@std@@@std@@QEAA@XZ ; std::_String_val<std::_Simple_types<char> >::_String_val<std::_Simple_types<char> >
PUBLIC	?_Myptr@?$_String_val@U?$_Simple_types@D@std@@@std@@QEAAPEADXZ ; std::_String_val<std::_Simple_types<char> >::_Myptr
PUBLIC	?_Large_string_engaged@?$_String_val@U?$_Simple_types@D@std@@@std@@QEBA_NXZ ; std::_String_val<std::_Simple_types<char> >::_Large_string_engaged
PUBLIC	??0_Bxty@?$_String_val@U?$_Simple_types@D@std@@@std@@QEAA@XZ ; std::_String_val<std::_Simple_types<char> >::_Bxty::_Bxty
PUBLIC	??1_Bxty@?$_String_val@U?$_Simple_types@D@std@@@std@@QEAA@XZ ; std::_String_val<std::_Simple_types<char> >::_Bxty::~_Bxty
PUBLIC	??1?$_String_val@U?$_Simple_types@D@std@@@std@@QEAA@XZ ; std::_String_val<std::_Simple_types<char> >::~_String_val<std::_Simple_types<char> >
PUBLIC	??0?$_String_alloc@U?$_String_base_types@DV?$allocator@D@std@@@std@@@std@@QEAA@XZ ; std::_String_alloc<std::_String_base_types<char,std::allocator<char> > >::_String_alloc<std::_String_base_types<char,std::allocator<char> > >
PUBLIC	??1?$_String_alloc@U?$_String_base_types@DV?$allocator@D@std@@@std@@@std@@QEAA@XZ ; std::_String_alloc<std::_String_base_types<char,std::allocator<char> > >::~_String_alloc<std::_String_base_types<char,std::allocator<char> > >
PUBLIC	?_Alloc_proxy@?$_String_alloc@U?$_String_base_types@DV?$allocator@D@std@@@std@@@std@@QEAAXXZ ; std::_String_alloc<std::_String_base_types<char,std::allocator<char> > >::_Alloc_proxy
PUBLIC	?_Free_proxy@?$_String_alloc@U?$_String_base_types@DV?$allocator@D@std@@@std@@@std@@QEAAXXZ ; std::_String_alloc<std::_String_base_types<char,std::allocator<char> > >::_Free_proxy
PUBLIC	?_Myproxy@?$_String_alloc@U?$_String_base_types@DV?$allocator@D@std@@@std@@@std@@QEAAAEAPEAU_Container_proxy@2@XZ ; std::_String_alloc<std::_String_base_types<char,std::allocator<char> > >::_Myproxy
PUBLIC	?_Orphan_all@?$_String_alloc@U?$_String_base_types@DV?$allocator@D@std@@@std@@@std@@QEAAXXZ ; std::_String_alloc<std::_String_base_types<char,std::allocator<char> > >::_Orphan_all
PUBLIC	?_Getal@?$_String_alloc@U?$_String_base_types@DV?$allocator@D@std@@@std@@@std@@QEAAAEAV?$allocator@D@2@XZ ; std::_String_alloc<std::_String_base_types<char,std::allocator<char> > >::_Getal
PUBLIC	?_Getal@?$_String_alloc@U?$_String_base_types@DV?$allocator@D@std@@@std@@@std@@QEBAAEBV?$allocator@D@2@XZ ; std::_String_alloc<std::_String_base_types<char,std::allocator<char> > >::_Getal
PUBLIC	?_Get_data@?$_String_alloc@U?$_String_base_types@DV?$allocator@D@std@@@std@@@std@@QEAAAEAV?$_String_val@U?$_Simple_types@D@std@@@2@XZ ; std::_String_alloc<std::_String_base_types<char,std::allocator<char> > >::_Get_data
PUBLIC	?_Get_data@?$_String_alloc@U?$_String_base_types@DV?$allocator@D@std@@@std@@@std@@QEBAAEBV?$_String_val@U?$_Simple_types@D@std@@@2@XZ ; std::_String_alloc<std::_String_base_types<char,std::allocator<char> > >::_Get_data
PUBLIC	?_Get_first@?$_Compressed_pair@V?$allocator@D@std@@V?$_String_val@U?$_Simple_types@D@std@@@2@$00@std@@QEAAAEAV?$allocator@D@2@XZ ; std::_Compressed_pair<std::allocator<char>,std::_String_val<std::_Simple_types<char> >,1>::_Get_first
PUBLIC	?_Get_first@?$_Compressed_pair@V?$allocator@D@std@@V?$_String_val@U?$_Simple_types@D@std@@@2@$00@std@@QEBAAEBV?$allocator@D@2@XZ ; std::_Compressed_pair<std::allocator<char>,std::_String_val<std::_Simple_types<char> >,1>::_Get_first
PUBLIC	?_Get_second@?$_Compressed_pair@V?$allocator@D@std@@V?$_String_val@U?$_Simple_types@D@std@@@2@$00@std@@QEAAAEAV?$_String_val@U?$_Simple_types@D@std@@@2@XZ ; std::_Compressed_pair<std::allocator<char>,std::_String_val<std::_Simple_types<char> >,1>::_Get_second
PUBLIC	?_Get_second@?$_Compressed_pair@V?$allocator@D@std@@V?$_String_val@U?$_Simple_types@D@std@@@2@$00@std@@QEBAAEBV?$_String_val@U?$_Simple_types@D@std@@@2@XZ ; std::_Compressed_pair<std::allocator<char>,std::_String_val<std::_Simple_types<char> >,1>::_Get_second
PUBLIC	??1?$_Compressed_pair@V?$allocator@D@std@@V?$_String_val@U?$_Simple_types@D@std@@@2@$00@std@@QEAA@XZ ; std::_Compressed_pair<std::allocator<char>,std::_String_val<std::_Simple_types<char> >,1>::~_Compressed_pair<std::allocator<char>,std::_String_val<std::_Simple_types<char> >,1>
PUBLIC	??0?$basic_string@DU?$char_traits@D@std@@V?$allocator@D@2@@std@@QEAA@QEBD@Z ; std::basic_string<char,std::char_traits<char>,std::allocator<char> >::basic_string<char,std::char_traits<char>,std::allocator<char> >
PUBLIC	??1?$basic_string@DU?$char_traits@D@std@@V?$allocator@D@2@@std@@QEAA@XZ ; std::basic_string<char,std::char_traits<char>,std::allocator<char> >::~basic_string<char,std::char_traits<char>,std::allocator<char> >
PUBLIC	?assign@?$basic_string@DU?$char_traits@D@std@@V?$allocator@D@2@@std@@QEAAAEAV12@QEBD_K@Z ; std::basic_string<char,std::char_traits<char>,std::allocator<char> >::assign
PUBLIC	?assign@?$basic_string@DU?$char_traits@D@std@@V?$allocator@D@2@@std@@QEAAAEAV12@QEBD@Z ; std::basic_string<char,std::char_traits<char>,std::allocator<char> >::assign
PUBLIC	?max_size@?$basic_string@DU?$char_traits@D@std@@V?$allocator@D@2@@std@@QEBA_KXZ ; std::basic_string<char,std::char_traits<char>,std::allocator<char> >::max_size
PUBLIC	?_Calculate_growth@?$basic_string@DU?$char_traits@D@std@@V?$allocator@D@2@@std@@QEBA_K_K@Z ; std::basic_string<char,std::char_traits<char>,std::allocator<char> >::_Calculate_growth
PUBLIC	?_Tidy_init@?$basic_string@DU?$char_traits@D@std@@V?$allocator@D@2@@std@@QEAAXXZ ; std::basic_string<char,std::char_traits<char>,std::allocator<char> >::_Tidy_init
PUBLIC	?_Tidy_deallocate@?$basic_string@DU?$char_traits@D@std@@V?$allocator@D@2@@std@@QEAAXXZ ; std::basic_string<char,std::char_traits<char>,std::allocator<char> >::_Tidy_deallocate
PUBLIC	?_Xlen@?$basic_string@DU?$char_traits@D@std@@V?$allocator@D@2@@std@@SAXXZ ; std::basic_string<char,std::char_traits<char>,std::allocator<char> >::_Xlen
PUBLIC	??0?$tmat4x4@M$0A@@glm@@QEAA@AEBM@Z		; glm::tmat4x4<float,0>::tmat4x4<float,0>
PUBLIC	?length@?$tmat4x4@M$0A@@glm@@SAHXZ		; glm::tmat4x4<float,0>::length
PUBLIC	??A?$tmat4x4@M$0A@@glm@@QEAAAEAU?$tvec4@M$0A@@1@H@Z ; glm::tmat4x4<float,0>::operator[]
PUBLIC	??_GShader@graphics@core@@QEAAPEAXI@Z		; core::graphics::Shader::`scalar deleting destructor'
PUBLIC	?__autoclassinit2@Layer2D@core@@QEAAX_K@Z	; core::Layer2D::__autoclassinit2
PUBLIC	??_GLayer2D@core@@QEAAPEAXI@Z			; core::Layer2D::`scalar deleting destructor'
PUBLIC	??0LayerScene@Scene@Application@@QEAA@XZ	; Application::Scene::LayerScene::LayerScene
PUBLIC	??1LayerScene@Scene@Application@@UEAA@XZ	; Application::Scene::LayerScene::~LayerScene
PUBLIC	?OnUpdate@LayerScene@Scene@Application@@UEAAXM@Z ; Application::Scene::LayerScene::OnUpdate
PUBLIC	?OnRender@LayerScene@Scene@Application@@UEAAXXZ	; Application::Scene::LayerScene::OnRender
PUBLIC	?OnImGuiRender@LayerScene@Scene@Application@@UEAAXXZ ; Application::Scene::LayerScene::OnImGuiRender
PUBLIC	??_GLayerScene@Scene@Application@@UEAAPEAXI@Z	; Application::Scene::LayerScene::`scalar deleting destructor'
PUBLIC	??$ortho@M@glm@@YA?AU?$tmat4x4@M$0A@@0@MMMMMM@Z	; glm::ortho<float>
PUBLIC	??$_Unfancy@D@std@@YAPEADPEAD@Z			; std::_Unfancy<char>
PUBLIC	??$?0$$V@?$_Compressed_pair@V?$allocator@D@std@@V?$_String_val@U?$_Simple_types@D@std@@@2@$00@std@@QEAA@U_Zero_then_variadic_args_t@1@@Z ; std::_Compressed_pair<std::allocator<char>,std::_String_val<std::_Simple_types<char> >,1>::_Compressed_pair<std::allocator<char>,std::_String_val<std::_Simple_types<char> >,1><>
PUBLIC	??$addressof@PEAD@std@@YAPEAPEADAEAPEAD@Z	; std::addressof<char *>
PUBLIC	??$destroy@PEAD@?$_Default_allocator_traits@V?$allocator@D@std@@@std@@SAXAEAV?$allocator@D@1@QEAPEAD@Z ; std::_Default_allocator_traits<std::allocator<char> >::destroy<char *>
PUBLIC	??$_Max_value@_K@std@@YAAEB_KAEB_K0@Z		; std::_Max_value<unsigned __int64>
PUBLIC	??$construct@PEADAEBQEAD@?$_Default_allocator_traits@V?$allocator@D@std@@@std@@SAXAEAV?$allocator@D@1@QEAPEADAEBQEAD@Z ; std::_Default_allocator_traits<std::allocator<char> >::construct<char *,char * const &>
PUBLIC	??$addressof@V?$_String_val@U?$_Simple_types@D@std@@@std@@@std@@YAPEAV?$_String_val@U?$_Simple_types@D@std@@@0@AEAV10@@Z ; std::addressof<std::_String_val<std::_Simple_types<char> > >
PUBLIC	??$_Allocate@$0BA@U_Default_allocate_traits@std@@$0A@@std@@YAPEAX_K@Z ; std::_Allocate<16,std::_Default_allocate_traits,0>
PUBLIC	??$_Deallocate@$0BA@$0A@@std@@YAXPEAX_K@Z	; std::_Deallocate<16,0>
PUBLIC	?allocate@?$allocator@U_Container_proxy@std@@@std@@QEAAPEAU_Container_proxy@2@_K@Z ; std::allocator<std::_Container_proxy>::allocate
PUBLIC	?deallocate@?$_Default_allocator_traits@V?$allocator@U_Container_proxy@std@@@std@@@std@@SAXAEAV?$allocator@U_Container_proxy@std@@@2@QEAU_Container_proxy@2@_K@Z ; std::_Default_allocator_traits<std::allocator<std::_Container_proxy> >::deallocate
PUBLIC	??$destroy@U_Container_proxy@std@@@?$_Default_allocator_traits@V?$allocator@U_Container_proxy@std@@@std@@@std@@SAXAEAV?$allocator@U_Container_proxy@std@@@1@QEAU_Container_proxy@1@@Z ; std::_Default_allocator_traits<std::allocator<std::_Container_proxy> >::destroy<std::_Container_proxy>
PUBLIC	??$_Deallocate_plain@V?$allocator@U_Container_proxy@std@@@std@@$0A@@std@@YAXAEAV?$allocator@U_Container_proxy@std@@@0@QEAU_Container_proxy@0@@Z ; std::_Deallocate_plain<std::allocator<std::_Container_proxy>,0>
PUBLIC	??$_Unfancy@U_Container_proxy@std@@@std@@YAPEAU_Container_proxy@0@PEAU10@@Z ; std::_Unfancy<std::_Container_proxy>
PUBLIC	??$construct@U_Container_proxy@std@@U12@@?$_Default_allocator_traits@V?$allocator@U_Container_proxy@std@@@std@@@std@@SAXAEAV?$allocator@U_Container_proxy@std@@@1@QEAU_Container_proxy@1@$$QEAU31@@Z ; std::_Default_allocator_traits<std::allocator<std::_Container_proxy> >::construct<std::_Container_proxy,std::_Container_proxy>
PUBLIC	??$?0D@?$allocator@U_Container_proxy@std@@@std@@QEAA@AEBV?$allocator@D@1@@Z ; std::allocator<std::_Container_proxy>::allocator<std::_Container_proxy><char>
PUBLIC	??$_Get_size_of_n@$0BA@@std@@YA_K_K@Z		; std::_Get_size_of_n<16>
PUBLIC	??$?0MHHH@?$tvec4@M$0A@@glm@@QEAA@MHHH@Z	; glm::tvec4<float,0>::tvec4<float,0><float,int,int,int>
PUBLIC	??$?0HMHH@?$tvec4@M$0A@@glm@@QEAA@HMHH@Z	; glm::tvec4<float,0>::tvec4<float,0><int,float,int,int>
PUBLIC	??$?0HHMH@?$tvec4@M$0A@@glm@@QEAA@HHMH@Z	; glm::tvec4<float,0>::tvec4<float,0><int,int,float,int>
PUBLIC	??$?0HHHM@?$tvec4@M$0A@@glm@@QEAA@HHHM@Z	; glm::tvec4<float,0>::tvec4<float,0><int,int,int,float>
PUBLIC	??$orthoRH@M@glm@@YA?AU?$tmat4x4@M$0A@@0@MMMMMM@Z ; glm::orthoRH<float>
PUBLIC	??$forward@AEBQEAD@std@@YAAEBQEADAEBQEAD@Z	; std::forward<char * const &>
PUBLIC	??$_Allocate_manually_vector_aligned@U_Default_allocate_traits@std@@@std@@YAPEAX_K@Z ; std::_Allocate_manually_vector_aligned<std::_Default_allocate_traits>
PUBLIC	??$forward@U_Container_proxy@std@@@std@@YA$$QEAU_Container_proxy@0@AEAU10@@Z ; std::forward<std::_Container_proxy>
PUBLIC	?__LINE__Var@?0??_Adjust_manually_vector_aligned@std@@YAXAEAPEAXAEA_K@Z@4JA ; `std::_Adjust_manually_vector_aligned'::`1'::__LINE__Var
PUBLIC	??_C@_1NE@FCGGJAHE@?$AAc?$AA?3?$AA?2?$AAp?$AAr?$AAo?$AAg?$AAr?$AAa?$AAm?$AA?5?$AAf?$AAi?$AAl?$AAe?$AAs?$AA?5?$AA?$CI?$AAx?$AA8?$AA6?$AA?$CJ?$AA?2?$AAm?$AAi?$AAc?$AAr?$AAo?$AAs?$AAo?$AAf?$AAt@ ; `string'
PUBLIC	??_C@_1EK@NIFDJFDG@?$AAs?$AAt?$AAd?$AA?3?$AA?3?$AA_?$AAA?$AAd?$AAj?$AAu?$AAs?$AAt?$AA_?$AAm?$AAa?$AAn?$AAu?$AAa?$AAl?$AAl?$AAy?$AA_?$AAv?$AAe?$AAc?$AAt?$AAo?$AAr?$AA_?$AAa?$AAl?$AAi@ ; `string'
PUBLIC	??_C@_1CG@JNLFBNGN@?$AA?$CC?$AAi?$AAn?$AAv?$AAa?$AAl?$AAi?$AAd?$AA?5?$AAa?$AAr?$AAg?$AAu?$AAm?$AAe?$AAn?$AAt?$AA?$CC?$AA?$AA@ ; `string'
PUBLIC	??_7LayerScene@Scene@Application@@6B@		; Application::Scene::LayerScene::`vftable'
PUBLIC	??_C@_0CC@NJGOLNKK@res?1shaders?1LayerSceneTest?4shade@ ; `string'
PUBLIC	??_C@_08IMNAFLGG@prMatrix?$AA@			; `string'
PUBLIC	??_C@_0BC@GAONNNEG@2D?5Layer?5Support?$CB?$AA@	; `string'
PUBLIC	??_C@_1DK@BGNCJAPL@?$AAi?$AA?5?$AA?$DO?$AA?$DN?$AA?5?$AA0?$AA?5?$AA?$CG?$AA?$CG?$AA?5?$AAi?$AA?5?$AA?$DM?$AA?5?$AAt?$AAh?$AAi?$AAs?$AA?9?$AA?$DO?$AAl?$AAe?$AAn?$AAg?$AAt?$AAh?$AA?$CI?$AA?$CJ?$AA?$AA@ ; `string'
PUBLIC	??_C@_1JE@JLGGFMIE@?$AAl?$AA?3?$AA?2?$AAd?$AAe?$AAv?$AA?2?$AAf?$AAe?$AAa?$AAt?$AAh?$AAe?$AAr?$AAf?$AAa?$AAl?$AAl?$AAe?$AAn?$AAg?$AAi?$AAn?$AAe?$AA?2?$AAd?$AAe?$AAp?$AAe?$AAn?$AAd?$AAs@ ; `string'
PUBLIC	??_C@_1JI@BDACPION@?$AAl?$AA?3?$AA?2?$AAd?$AAe?$AAv?$AA?2?$AAf?$AAe?$AAa?$AAt?$AAh?$AAe?$AAr?$AAf?$AAa?$AAl?$AAl?$AAe?$AAn?$AAg?$AAi?$AAn?$AAe?$AA?2?$AAd?$AAe?$AAp?$AAe?$AAn?$AAd?$AAs@ ; `string'
PUBLIC	??_C@_1CG@KOFHLCJL@?$AAi?$AA?5?$AA?$DM?$AA?5?$AAt?$AAh?$AAi?$AAs?$AA?9?$AA?$DO?$AAl?$AAe?$AAn?$AAg?$AAt?$AAh?$AA?$CI?$AA?$CJ?$AA?$AA@ ; `string'
PUBLIC	??_C@_0BA@JFNIOLAK@string?5too?5long?$AA@	; `string'
PUBLIC	??_C@_0BE@LMNLACIC@_Ptr_container?5?$CB?$DN?50?$AA@ ; `string'
PUBLIC	??_C@_1DG@HGDKEBPG@?$AA?$CC?$AA_?$AAP?$AAt?$AAr?$AA_?$AAc?$AAo?$AAn?$AAt?$AAa?$AAi?$AAn?$AAe?$AAr?$AA?5?$AA?$CB?$AA?$DN?$AA?5?$AA0?$AA?$CC?$AA?5?$AA?$CG?$AA?$CG?$AA?5?$AA0?$AA?$AA@ ; `string'
PUBLIC	??_C@_17CNPHIMPH@?$AA?$CF?$AAl?$AAs?$AA?$AA@	; `string'
PUBLIC	??_C@_1EO@GFNCMDLA@?$AAs?$AAt?$AAd?$AA?3?$AA?3?$AA_?$AAA?$AAl?$AAl?$AAo?$AAc?$AAa?$AAt?$AAe?$AA_?$AAm?$AAa?$AAn?$AAu?$AAa?$AAl?$AAl?$AAy?$AA_?$AAv?$AAe?$AAc?$AAt?$AAo?$AAr?$AA_?$AAa@ ; `string'
PUBLIC	??_R4LayerScene@Scene@Application@@6B@		; Application::Scene::LayerScene::`RTTI Complete Object Locator'
PUBLIC	??_R0?AVLayerScene@Scene@Application@@@8	; Application::Scene::LayerScene `RTTI Type Descriptor'
PUBLIC	??_R3LayerScene@Scene@Application@@8		; Application::Scene::LayerScene::`RTTI Class Hierarchy Descriptor'
PUBLIC	??_R2LayerScene@Scene@Application@@8		; Application::Scene::LayerScene::`RTTI Base Class Array'
PUBLIC	??_R1A@?0A@EA@LayerScene@Scene@Application@@8	; Application::Scene::LayerScene::`RTTI Base Class Descriptor at (0,-1,0,64)'
PUBLIC	??_R1A@?0A@EA@Scene@0Application@@8		; Application::Scene::Scene::`RTTI Base Class Descriptor at (0,-1,0,64)'
PUBLIC	??_R0?AVScene@0Application@@@8			; Application::Scene::Scene `RTTI Type Descriptor'
PUBLIC	??_R3Scene@0Application@@8			; Application::Scene::Scene::`RTTI Class Hierarchy Descriptor'
PUBLIC	??_R2Scene@0Application@@8			; Application::Scene::Scene::`RTTI Base Class Array'
PUBLIC	__real@3f666666
PUBLIC	__real@3f800000
PUBLIC	__real@40000000
PUBLIC	__real@41100000
PUBLIC	__real@41800000
PUBLIC	__real@bf800000
PUBLIC	__real@c0000000
PUBLIC	__real@c1100000
PUBLIC	__real@c1800000
PUBLIC	__xmm@80000000800000008000000080000000
EXTRN	??2@YAPEAX_K@Z:PROC				; operator new
EXTRN	??3@YAXPEAX_K@Z:PROC				; operator delete
EXTRN	??0Scene@0Application@@QEAA@XZ:PROC		; Application::Scene::Scene::Scene
EXTRN	??1Scene@0Application@@UEAA@XZ:PROC		; Application::Scene::Scene::~Scene
EXTRN	__imp__invalid_parameter:PROC
EXTRN	__imp_??0_Lockit@std@@QEAA@H@Z:PROC
EXTRN	__imp_??1_Lockit@std@@QEAA@XZ:PROC
EXTRN	__imp__wassert:PROC
EXTRN	__imp_srand:PROC
EXTRN	memcpy:PROC
EXTRN	memmove:PROC
EXTRN	strlen:PROC
EXTRN	__imp__CrtDbgReportW:PROC
EXTRN	?_Xlength_error@std@@YAXPEBD@Z:PROC		; std::_Xlength_error
EXTRN	??0Shader@graphics@core@@QEAA@AEBV?$basic_string@DU?$char_traits@D@std@@V?$allocator@D@2@@std@@@Z:PROC ; core::graphics::Shader::Shader
EXTRN	??1Shader@graphics@core@@QEAA@XZ:PROC		; core::graphics::Shader::~Shader
EXTRN	?bind@Shader@graphics@core@@QEBAXXZ:PROC	; core::graphics::Shader::bind
EXTRN	?setUniformMat4@Shader@graphics@core@@QEAAXPEBDAEBU?$tmat4x4@M$0A@@glm@@@Z:PROC ; core::graphics::Shader::setUniformMat4
EXTRN	??0Sprite@graphics@core@@QEAA@MMMMAEBU?$tvec4@M$0A@@glm@@@Z:PROC ; core::graphics::Sprite::Sprite
EXTRN	?add@Layer@core@@QEAAXPEAVRenderable2D@graphics@2@@Z:PROC ; core::Layer::add
EXTRN	?render@Layer@core@@QEAAXXZ:PROC		; core::Layer::render
EXTRN	??0Layer2D@core@@QEAA@XZ:PROC			; core::Layer2D::Layer2D
EXTRN	??1Layer2D@core@@QEAA@XZ:PROC			; core::Layer2D::~Layer2D
EXTRN	??_ELayerScene@Scene@Application@@UEAAPEAXI@Z:PROC ; Application::Scene::LayerScene::`vector deleting destructor'
EXTRN	?Text@ImGui@@YAXPEBDZZ:PROC			; ImGui::Text
EXTRN	__imp__time64:PROC
EXTRN	_RTC_InitBase:PROC
EXTRN	_RTC_Shutdown:PROC
EXTRN	__CxxFrameHandler3:PROC
EXTRN	__GSHandlerCheck:PROC
EXTRN	__GSHandlerCheck_EH:PROC
EXTRN	__security_check_cookie:PROC
EXTRN	??_7type_info@@6B@:BYTE				; type_info::`vftable'
EXTRN	__security_cookie:QWORD
EXTRN	_fltused:DWORD
;	COMDAT pdata
pdata	SEGMENT
$pdata$??_H@YAXPEAX_K1P6APEAX0@Z@Z DD imagerel $LN7
	DD	imagerel $LN7+111
	DD	imagerel $unwind$??_H@YAXPEAX_K1P6APEAX0@Z@Z
pdata	ENDS
;	COMDAT pdata
pdata	SEGMENT
$pdata$?__empty_global_delete@@YAXPEAX@Z DD imagerel $LN3
	DD	imagerel $LN3+19
	DD	imagerel $unwind$?__empty_global_delete@@YAXPEAX@Z
pdata	ENDS
;	COMDAT pdata
pdata	SEGMENT
$pdata$?__empty_global_delete@@YAXPEAX_K@Z DD imagerel $LN3
	DD	imagerel $LN3+24
	DD	imagerel $unwind$?__empty_global_delete@@YAXPEAX_K@Z
pdata	ENDS
;	COMDAT pdata
pdata	SEGMENT
$pdata$?max@?$numeric_limits@_J@std@@SA_JXZ DD imagerel $LN3
	DD	imagerel $LN3+25
	DD	imagerel $unwind$?max@?$numeric_limits@_J@std@@SA_JXZ
pdata	ENDS
;	COMDAT pdata
pdata	SEGMENT
$pdata$?length@?$tvec4@M$0A@@glm@@SAHXZ DD imagerel $LN3
	DD	imagerel $LN3+20
	DD	imagerel $unwind$?length@?$tvec4@M$0A@@glm@@SAHXZ
pdata	ENDS
;	COMDAT pdata
pdata	SEGMENT
$pdata$??A?$tvec4@M$0A@@glm@@QEAAAEAMH@Z DD imagerel $LN5
	DD	imagerel $LN5+81
	DD	imagerel $unwind$??A?$tvec4@M$0A@@glm@@QEAAAEAMH@Z
pdata	ENDS
;	COMDAT pdata
pdata	SEGMENT
$pdata$??0?$tvec4@M$0A@@glm@@QEAA@XZ DD imagerel $LN3
	DD	imagerel $LN3+70
	DD	imagerel $unwind$??0?$tvec4@M$0A@@glm@@QEAA@XZ
pdata	ENDS
;	COMDAT pdata
pdata	SEGMENT
$pdata$??0?$tvec4@M$0A@@glm@@QEAA@MMMM@Z DD imagerel $LN3
	DD	imagerel $LN3+96
	DD	imagerel $unwind$??0?$tvec4@M$0A@@glm@@QEAA@MMMM@Z
pdata	ENDS
;	COMDAT pdata
pdata	SEGMENT
$pdata$??2@YAPEAX_KPEAX@Z DD imagerel $LN3
	DD	imagerel $LN3+28
	DD	imagerel $unwind$??2@YAPEAX_KPEAX@Z
pdata	ENDS
;	COMDAT pdata
pdata	SEGMENT
$pdata$?length@?$char_traits@D@std@@SA_KQEBD@Z DD imagerel $LN3
	DD	imagerel $LN3+30
	DD	imagerel $unwind$?length@?$char_traits@D@std@@SA_KQEBD@Z
pdata	ENDS
;	COMDAT pdata
pdata	SEGMENT
$pdata$?copy@?$char_traits@D@std@@SAPEADQEADQEBD_K@Z DD imagerel $LN3
	DD	imagerel $LN3+48
	DD	imagerel $unwind$?copy@?$char_traits@D@std@@SAPEADQEADQEBD_K@Z
pdata	ENDS
;	COMDAT pdata
pdata	SEGMENT
$pdata$?move@?$char_traits@D@std@@SAPEADQEADQEBD_K@Z DD imagerel $LN3
	DD	imagerel $LN3+48
	DD	imagerel $unwind$?move@?$char_traits@D@std@@SAPEADQEADQEBD_K@Z
pdata	ENDS
;	COMDAT pdata
pdata	SEGMENT
$pdata$?assign@?$char_traits@D@std@@SAXAEADAEBD@Z DD imagerel $LN3
	DD	imagerel $LN3+37
	DD	imagerel $unwind$?assign@?$char_traits@D@std@@SAXAEADAEBD@Z
pdata	ENDS
;	COMDAT pdata
pdata	SEGMENT
$pdata$??0_Container_proxy@std@@QEAA@XZ DD imagerel $LN3
	DD	imagerel $LN3+46
	DD	imagerel $unwind$??0_Container_proxy@std@@QEAA@XZ
pdata	ENDS
;	COMDAT pdata
pdata	SEGMENT
$pdata$??0_Container_base12@std@@QEAA@XZ DD imagerel $LN3
	DD	imagerel $LN3+34
	DD	imagerel $unwind$??0_Container_base12@std@@QEAA@XZ
pdata	ENDS
;	COMDAT pdata
pdata	SEGMENT
$pdata$?_Orphan_all@_Container_base12@std@@QEAAXXZ DD imagerel $LN7
	DD	imagerel $LN7+172
	DD	imagerel $unwind$?_Orphan_all@_Container_base12@std@@QEAAXXZ
pdata	ENDS
;	COMDAT pdata
pdata	SEGMENT
$pdata$??$_Get_size_of_n@$00@std@@YA_K_K@Z DD imagerel $LN3
	DD	imagerel $LN3+23
	DD	imagerel $unwind$??$_Get_size_of_n@$00@std@@YA_K_K@Z
pdata	ENDS
;	COMDAT pdata
pdata	SEGMENT
$pdata$?_Allocate@_Default_allocate_traits@std@@SAPEAX_K@Z DD imagerel $LN3
	DD	imagerel $LN3+30
	DD	imagerel $unwind$?_Allocate@_Default_allocate_traits@std@@SAPEAX_K@Z
pdata	ENDS
;	COMDAT pdata
pdata	SEGMENT
$pdata$?_Adjust_manually_vector_aligned@std@@YAXAEAPEAXAEA_K@Z DD imagerel $LN6
	DD	imagerel $LN6+255
	DD	imagerel $unwind$?_Adjust_manually_vector_aligned@std@@YAXAEAPEAXAEA_K@Z
pdata	ENDS
;	COMDAT pdata
pdata	SEGMENT
$pdata$??$_Convert_size@_K@std@@YA_K_K@Z DD imagerel $LN3
	DD	imagerel $LN3+23
	DD	imagerel $unwind$??$_Convert_size@_K@std@@YA_K_K@Z
pdata	ENDS
;	COMDAT pdata
pdata	SEGMENT
$pdata$??$_Min_value@_K@std@@YAAEB_KAEB_K0@Z DD imagerel $LN5
	DD	imagerel $LN5+70
	DD	imagerel $unwind$??$_Min_value@_K@std@@YAAEB_KAEB_K0@Z
pdata	ENDS
;	COMDAT pdata
pdata	SEGMENT
$pdata$??0?$allocator@D@std@@QEAA@XZ DD imagerel $LN3
	DD	imagerel $LN3+23
	DD	imagerel $unwind$??0?$allocator@D@std@@QEAA@XZ
pdata	ENDS
;	COMDAT pdata
pdata	SEGMENT
$pdata$?deallocate@?$allocator@D@std@@QEAAXQEAD_K@Z DD imagerel $LN3
	DD	imagerel $LN3+44
	DD	imagerel $unwind$?deallocate@?$allocator@D@std@@QEAAXQEAD_K@Z
pdata	ENDS
;	COMDAT pdata
pdata	SEGMENT
$pdata$?allocate@?$allocator@D@std@@QEAAPEAD_K@Z DD imagerel $LN3
	DD	imagerel $LN3+43
	DD	imagerel $unwind$?allocate@?$allocator@D@std@@QEAAPEAD_K@Z
pdata	ENDS
;	COMDAT pdata
pdata	SEGMENT
$pdata$?max_size@?$_Default_allocator_traits@V?$allocator@D@std@@@std@@SA_KAEBV?$allocator@D@2@@Z DD imagerel $LN3
	DD	imagerel $LN3+26
	DD	imagerel $unwind$?max_size@?$_Default_allocator_traits@V?$allocator@D@std@@@std@@SA_KAEBV?$allocator@D@2@@Z
pdata	ENDS
;	COMDAT pdata
pdata	SEGMENT
$pdata$??0?$_String_val@U?$_Simple_types@D@std@@@std@@QEAA@XZ DD imagerel $LN4
	DD	imagerel $LN4+74
	DD	imagerel $unwind$??0?$_String_val@U?$_Simple_types@D@std@@@std@@QEAA@XZ
pdata	ENDS
;	COMDAT pdata
pdata	SEGMENT
$pdata$?_Myptr@?$_String_val@U?$_Simple_types@D@std@@@std@@QEAAPEADXZ DD imagerel $LN4
	DD	imagerel $LN4+70
	DD	imagerel $unwind$?_Myptr@?$_String_val@U?$_Simple_types@D@std@@@std@@QEAAPEADXZ
pdata	ENDS
;	COMDAT pdata
pdata	SEGMENT
$pdata$?_Large_string_engaged@?$_String_val@U?$_Simple_types@D@std@@@std@@QEBA_NXZ DD imagerel $LN5
	DD	imagerel $LN5+50
	DD	imagerel $unwind$?_Large_string_engaged@?$_String_val@U?$_Simple_types@D@std@@@std@@QEBA_NXZ
pdata	ENDS
;	COMDAT pdata
pdata	SEGMENT
$pdata$??0_Bxty@?$_String_val@U?$_Simple_types@D@std@@@std@@QEAA@XZ DD imagerel $LN3
	DD	imagerel $LN3+23
	DD	imagerel $unwind$??0_Bxty@?$_String_val@U?$_Simple_types@D@std@@@std@@QEAA@XZ
pdata	ENDS
;	COMDAT pdata
pdata	SEGMENT
$pdata$??1_Bxty@?$_String_val@U?$_Simple_types@D@std@@@std@@QEAA@XZ DD imagerel $LN3
	DD	imagerel $LN3+19
	DD	imagerel $unwind$??1_Bxty@?$_String_val@U?$_Simple_types@D@std@@@std@@QEAA@XZ
pdata	ENDS
;	COMDAT pdata
pdata	SEGMENT
$pdata$??1?$_String_val@U?$_Simple_types@D@std@@@std@@QEAA@XZ DD imagerel $LN3
	DD	imagerel $LN3+37
	DD	imagerel $unwind$??1?$_String_val@U?$_Simple_types@D@std@@@std@@QEAA@XZ
pdata	ENDS
;	COMDAT pdata
pdata	SEGMENT
$pdata$??0?$_String_alloc@U?$_String_base_types@DV?$allocator@D@std@@@std@@@std@@QEAA@XZ DD imagerel $LN4
	DD	imagerel $LN4+60
	DD	imagerel $unwind$??0?$_String_alloc@U?$_String_base_types@DV?$allocator@D@std@@@std@@@std@@QEAA@XZ
pdata	ENDS
;	COMDAT pdata
pdata	SEGMENT
$pdata$?dtor$0@?0???0?$_String_alloc@U?$_String_base_types@DV?$allocator@D@std@@@std@@@std@@QEAA@XZ@4HA DD imagerel ?dtor$0@?0???0?$_String_alloc@U?$_String_base_types@DV?$allocator@D@std@@@std@@@std@@QEAA@XZ@4HA
	DD	imagerel ?dtor$0@?0???0?$_String_alloc@U?$_String_base_types@DV?$allocator@D@std@@@std@@@std@@QEAA@XZ@4HA+25
	DD	imagerel $unwind$?dtor$0@?0???0?$_String_alloc@U?$_String_base_types@DV?$allocator@D@std@@@std@@@std@@QEAA@XZ@4HA
pdata	ENDS
;	COMDAT pdata
pdata	SEGMENT
$pdata$??1?$_String_alloc@U?$_String_base_types@DV?$allocator@D@std@@@std@@@std@@QEAA@XZ DD imagerel $LN3
	DD	imagerel $LN3+52
	DD	imagerel $unwind$??1?$_String_alloc@U?$_String_base_types@DV?$allocator@D@std@@@std@@@std@@QEAA@XZ
pdata	ENDS
;	COMDAT pdata
pdata	SEGMENT
$pdata$?_Alloc_proxy@?$_String_alloc@U?$_String_base_types@DV?$allocator@D@std@@@std@@@std@@QEAAXXZ DD imagerel $LN3
	DD	imagerel $LN3+209
	DD	imagerel $unwind$?_Alloc_proxy@?$_String_alloc@U?$_String_base_types@DV?$allocator@D@std@@@std@@@std@@QEAAXXZ
pdata	ENDS
;	COMDAT pdata
pdata	SEGMENT
$pdata$?_Free_proxy@?$_String_alloc@U?$_String_base_types@DV?$allocator@D@std@@@std@@@std@@QEAAXXZ DD imagerel $LN3
	DD	imagerel $LN3+135
	DD	imagerel $unwind$?_Free_proxy@?$_String_alloc@U?$_String_base_types@DV?$allocator@D@std@@@std@@@std@@QEAAXXZ
pdata	ENDS
;	COMDAT pdata
pdata	SEGMENT
$pdata$?_Myproxy@?$_String_alloc@U?$_String_base_types@DV?$allocator@D@std@@@std@@@std@@QEAAAEAPEAU_Container_proxy@2@XZ DD imagerel $LN3
	DD	imagerel $LN3+30
	DD	imagerel $unwind$?_Myproxy@?$_String_alloc@U?$_String_base_types@DV?$allocator@D@std@@@std@@@std@@QEAAAEAPEAU_Container_proxy@2@XZ
pdata	ENDS
;	COMDAT pdata
pdata	SEGMENT
$pdata$?_Orphan_all@?$_String_alloc@U?$_String_base_types@DV?$allocator@D@std@@@std@@@std@@QEAAXXZ DD imagerel $LN3
	DD	imagerel $LN3+38
	DD	imagerel $unwind$?_Orphan_all@?$_String_alloc@U?$_String_base_types@DV?$allocator@D@std@@@std@@@std@@QEAAXXZ
pdata	ENDS
;	COMDAT pdata
pdata	SEGMENT
$pdata$?_Getal@?$_String_alloc@U?$_String_base_types@DV?$allocator@D@std@@@std@@@std@@QEAAAEAV?$allocator@D@2@XZ DD imagerel $LN3
	DD	imagerel $LN3+33
	DD	imagerel $unwind$?_Getal@?$_String_alloc@U?$_String_base_types@DV?$allocator@D@std@@@std@@@std@@QEAAAEAV?$allocator@D@2@XZ
pdata	ENDS
;	COMDAT pdata
pdata	SEGMENT
$pdata$?_Getal@?$_String_alloc@U?$_String_base_types@DV?$allocator@D@std@@@std@@@std@@QEBAAEBV?$allocator@D@2@XZ DD imagerel $LN3
	DD	imagerel $LN3+33
	DD	imagerel $unwind$?_Getal@?$_String_alloc@U?$_String_base_types@DV?$allocator@D@std@@@std@@@std@@QEBAAEBV?$allocator@D@2@XZ
pdata	ENDS
;	COMDAT pdata
pdata	SEGMENT
$pdata$?_Get_data@?$_String_alloc@U?$_String_base_types@DV?$allocator@D@std@@@std@@@std@@QEAAAEAV?$_String_val@U?$_Simple_types@D@std@@@2@XZ DD imagerel $LN3
	DD	imagerel $LN3+33
	DD	imagerel $unwind$?_Get_data@?$_String_alloc@U?$_String_base_types@DV?$allocator@D@std@@@std@@@std@@QEAAAEAV?$_String_val@U?$_Simple_types@D@std@@@2@XZ
pdata	ENDS
;	COMDAT pdata
pdata	SEGMENT
$pdata$?_Get_data@?$_String_alloc@U?$_String_base_types@DV?$allocator@D@std@@@std@@@std@@QEBAAEBV?$_String_val@U?$_Simple_types@D@std@@@2@XZ DD imagerel $LN3
	DD	imagerel $LN3+33
	DD	imagerel $unwind$?_Get_data@?$_String_alloc@U?$_String_base_types@DV?$allocator@D@std@@@std@@@std@@QEBAAEBV?$_String_val@U?$_Simple_types@D@std@@@2@XZ
pdata	ENDS
;	COMDAT pdata
pdata	SEGMENT
$pdata$?_Get_first@?$_Compressed_pair@V?$allocator@D@std@@V?$_String_val@U?$_Simple_types@D@std@@@2@$00@std@@QEAAAEAV?$allocator@D@2@XZ DD imagerel $LN3
	DD	imagerel $LN3+23
	DD	imagerel $unwind$?_Get_first@?$_Compressed_pair@V?$allocator@D@std@@V?$_String_val@U?$_Simple_types@D@std@@@2@$00@std@@QEAAAEAV?$allocator@D@2@XZ
pdata	ENDS
;	COMDAT pdata
pdata	SEGMENT
$pdata$?_Get_first@?$_Compressed_pair@V?$allocator@D@std@@V?$_String_val@U?$_Simple_types@D@std@@@2@$00@std@@QEBAAEBV?$allocator@D@2@XZ DD imagerel $LN3
	DD	imagerel $LN3+23
	DD	imagerel $unwind$?_Get_first@?$_Compressed_pair@V?$allocator@D@std@@V?$_String_val@U?$_Simple_types@D@std@@@2@$00@std@@QEBAAEBV?$allocator@D@2@XZ
pdata	ENDS
;	COMDAT pdata
pdata	SEGMENT
$pdata$?_Get_second@?$_Compressed_pair@V?$allocator@D@std@@V?$_String_val@U?$_Simple_types@D@std@@@2@$00@std@@QEAAAEAV?$_String_val@U?$_Simple_types@D@std@@@2@XZ DD imagerel $LN3
	DD	imagerel $LN3+23
	DD	imagerel $unwind$?_Get_second@?$_Compressed_pair@V?$allocator@D@std@@V?$_String_val@U?$_Simple_types@D@std@@@2@$00@std@@QEAAAEAV?$_String_val@U?$_Simple_types@D@std@@@2@XZ
pdata	ENDS
;	COMDAT pdata
pdata	SEGMENT
$pdata$?_Get_second@?$_Compressed_pair@V?$allocator@D@std@@V?$_String_val@U?$_Simple_types@D@std@@@2@$00@std@@QEBAAEBV?$_String_val@U?$_Simple_types@D@std@@@2@XZ DD imagerel $LN3
	DD	imagerel $LN3+23
	DD	imagerel $unwind$?_Get_second@?$_Compressed_pair@V?$allocator@D@std@@V?$_String_val@U?$_Simple_types@D@std@@@2@$00@std@@QEBAAEBV?$_String_val@U?$_Simple_types@D@std@@@2@XZ
pdata	ENDS
;	COMDAT pdata
pdata	SEGMENT
$pdata$??1?$_Compressed_pair@V?$allocator@D@std@@V?$_String_val@U?$_Simple_types@D@std@@@2@$00@std@@QEAA@XZ DD imagerel $LN3
	DD	imagerel $LN3+33
	DD	imagerel $unwind$??1?$_Compressed_pair@V?$allocator@D@std@@V?$_String_val@U?$_Simple_types@D@std@@@2@$00@std@@QEAA@XZ
pdata	ENDS
;	COMDAT pdata
pdata	SEGMENT
$pdata$??0?$basic_string@DU?$char_traits@D@std@@V?$allocator@D@2@@std@@QEAA@QEBD@Z DD imagerel $LN4
	DD	imagerel $LN4+71
	DD	imagerel $unwind$??0?$basic_string@DU?$char_traits@D@std@@V?$allocator@D@2@@std@@QEAA@QEBD@Z
pdata	ENDS
;	COMDAT pdata
pdata	SEGMENT
$pdata$?dtor$0@?0???0?$basic_string@DU?$char_traits@D@std@@V?$allocator@D@2@@std@@QEAA@QEBD@Z@4HA DD imagerel ?dtor$0@?0???0?$basic_string@DU?$char_traits@D@std@@V?$allocator@D@2@@std@@QEAA@QEBD@Z@4HA
	DD	imagerel ?dtor$0@?0???0?$basic_string@DU?$char_traits@D@std@@V?$allocator@D@2@@std@@QEAA@QEBD@Z@4HA+25
	DD	imagerel $unwind$?dtor$0@?0???0?$basic_string@DU?$char_traits@D@std@@V?$allocator@D@2@@std@@QEAA@QEBD@Z@4HA
pdata	ENDS
;	COMDAT pdata
pdata	SEGMENT
$pdata$??1?$basic_string@DU?$char_traits@D@std@@V?$allocator@D@2@@std@@QEAA@XZ DD imagerel $LN3
	DD	imagerel $LN3+49
	DD	imagerel $unwind$??1?$basic_string@DU?$char_traits@D@std@@V?$allocator@D@2@@std@@QEAA@XZ
pdata	ENDS
;	COMDAT pdata
pdata	SEGMENT
$pdata$?assign@?$basic_string@DU?$char_traits@D@std@@V?$allocator@D@2@@std@@QEAAAEAV12@QEBD_K@Z DD imagerel $LN4
	DD	imagerel $LN4+209
	DD	imagerel $unwind$?assign@?$basic_string@DU?$char_traits@D@std@@V?$allocator@D@2@@std@@QEAAAEAV12@QEBD_K@Z
pdata	ENDS
;	COMDAT pdata
pdata	SEGMENT
$pdata$?assign@?$basic_string@DU?$char_traits@D@std@@V?$allocator@D@2@@std@@QEAAAEAV12@QEBD@Z DD imagerel $LN3
	DD	imagerel $LN3+59
	DD	imagerel $unwind$?assign@?$basic_string@DU?$char_traits@D@std@@V?$allocator@D@2@@std@@QEAAAEAV12@QEBD@Z
pdata	ENDS
;	COMDAT pdata
pdata	SEGMENT
$pdata$?max_size@?$basic_string@DU?$char_traits@D@std@@V?$allocator@D@2@@std@@QEBA_KXZ DD imagerel $LN3
	DD	imagerel $LN3+138
	DD	imagerel $unwind$?max_size@?$basic_string@DU?$char_traits@D@std@@V?$allocator@D@2@@std@@QEBA_KXZ
pdata	ENDS
;	COMDAT pdata
pdata	SEGMENT
$pdata$?_Calculate_growth@?$basic_string@DU?$char_traits@D@std@@V?$allocator@D@2@@std@@QEBA_K_K@Z DD imagerel $LN5
	DD	imagerel $LN5+210
	DD	imagerel $unwind$?_Calculate_growth@?$basic_string@DU?$char_traits@D@std@@V?$allocator@D@2@@std@@QEBA_K_K@Z
pdata	ENDS
;	COMDAT pdata
pdata	SEGMENT
$pdata$?_Tidy_init@?$basic_string@DU?$char_traits@D@std@@V?$allocator@D@2@@std@@QEAAXXZ DD imagerel $LN3
	DD	imagerel $LN3+92
	DD	imagerel $unwind$?_Tidy_init@?$basic_string@DU?$char_traits@D@std@@V?$allocator@D@2@@std@@QEAAXXZ
pdata	ENDS
;	COMDAT pdata
pdata	SEGMENT
$pdata$?_Tidy_deallocate@?$basic_string@DU?$char_traits@D@std@@V?$allocator@D@2@@std@@QEAAXXZ DD imagerel $LN4
	DD	imagerel $LN4+200
	DD	imagerel $unwind$?_Tidy_deallocate@?$basic_string@DU?$char_traits@D@std@@V?$allocator@D@2@@std@@QEAAXXZ
pdata	ENDS
;	COMDAT pdata
pdata	SEGMENT
$pdata$?_Xlen@?$basic_string@DU?$char_traits@D@std@@V?$allocator@D@2@@std@@SAXXZ DD imagerel $LN3
	DD	imagerel $LN3+29
	DD	imagerel $unwind$?_Xlen@?$basic_string@DU?$char_traits@D@std@@V?$allocator@D@2@@std@@SAXXZ
pdata	ENDS
;	COMDAT pdata
pdata	SEGMENT
$pdata$??0?$tmat4x4@M$0A@@glm@@QEAA@AEBM@Z DD imagerel $LN3
	DD	imagerel $LN3+327
	DD	imagerel $unwind$??0?$tmat4x4@M$0A@@glm@@QEAA@AEBM@Z
pdata	ENDS
;	COMDAT pdata
pdata	SEGMENT
$pdata$?length@?$tmat4x4@M$0A@@glm@@SAHXZ DD imagerel $LN3
	DD	imagerel $LN3+20
	DD	imagerel $unwind$?length@?$tmat4x4@M$0A@@glm@@SAHXZ
pdata	ENDS
;	COMDAT pdata
pdata	SEGMENT
$pdata$??A?$tmat4x4@M$0A@@glm@@QEAAAEAU?$tvec4@M$0A@@1@H@Z DD imagerel $LN4
	DD	imagerel $LN4+81
	DD	imagerel $unwind$??A?$tmat4x4@M$0A@@glm@@QEAAAEAU?$tvec4@M$0A@@1@H@Z
pdata	ENDS
;	COMDAT pdata
pdata	SEGMENT
$pdata$??_GShader@graphics@core@@QEAAPEAXI@Z DD imagerel $LN4
	DD	imagerel $LN4+62
	DD	imagerel $unwind$??_GShader@graphics@core@@QEAAPEAXI@Z
pdata	ENDS
;	COMDAT pdata
pdata	SEGMENT
$pdata$?__autoclassinit2@Layer2D@core@@QEAAX_K@Z DD imagerel $LN3
	DD	imagerel $LN3+38
	DD	imagerel $unwind$?__autoclassinit2@Layer2D@core@@QEAAX_K@Z
pdata	ENDS
;	COMDAT pdata
pdata	SEGMENT
$pdata$??_GLayer2D@core@@QEAAPEAXI@Z DD imagerel $LN4
	DD	imagerel $LN4+62
	DD	imagerel $unwind$??_GLayer2D@core@@QEAAPEAXI@Z
pdata	ENDS
;	COMDAT pdata
pdata	SEGMENT
$pdata$??0LayerScene@Scene@Application@@QEAA@XZ DD imagerel $LN25
	DD	imagerel $LN25+809
	DD	imagerel $unwind$??0LayerScene@Scene@Application@@QEAA@XZ
pdata	ENDS
;	COMDAT pdata
pdata	SEGMENT
$pdata$?dtor$0@?0???0LayerScene@Scene@Application@@QEAA@XZ@4HA DD imagerel ?dtor$0@?0???0LayerScene@Scene@Application@@QEAA@XZ@4HA
	DD	imagerel ?dtor$0@?0???0LayerScene@Scene@Application@@QEAA@XZ@4HA+28
	DD	imagerel $unwind$?dtor$0@?0???0LayerScene@Scene@Application@@QEAA@XZ@4HA
pdata	ENDS
;	COMDAT pdata
pdata	SEGMENT
$pdata$?dtor$1@?0???0LayerScene@Scene@Application@@QEAA@XZ@4HA DD imagerel ?dtor$1@?0???0LayerScene@Scene@Application@@QEAA@XZ@4HA
	DD	imagerel ?dtor$1@?0???0LayerScene@Scene@Application@@QEAA@XZ@4HA+30
	DD	imagerel $unwind$?dtor$1@?0???0LayerScene@Scene@Application@@QEAA@XZ@4HA
pdata	ENDS
;	COMDAT pdata
pdata	SEGMENT
$pdata$?dtor$2@?0???0LayerScene@Scene@Application@@QEAA@XZ@4HA DD imagerel ?dtor$2@?0???0LayerScene@Scene@Application@@QEAA@XZ@4HA
	DD	imagerel ?dtor$2@?0???0LayerScene@Scene@Application@@QEAA@XZ@4HA+30
	DD	imagerel $unwind$?dtor$2@?0???0LayerScene@Scene@Application@@QEAA@XZ@4HA
pdata	ENDS
;	COMDAT pdata
pdata	SEGMENT
$pdata$?dtor$3@?0???0LayerScene@Scene@Application@@QEAA@XZ@4HA DD imagerel ?dtor$3@?0???0LayerScene@Scene@Application@@QEAA@XZ@4HA
	DD	imagerel ?dtor$3@?0???0LayerScene@Scene@Application@@QEAA@XZ@4HA+30
	DD	imagerel $unwind$?dtor$3@?0???0LayerScene@Scene@Application@@QEAA@XZ@4HA
pdata	ENDS
;	COMDAT pdata
pdata	SEGMENT
$pdata$?dtor$4@?0???0LayerScene@Scene@Application@@QEAA@XZ@4HA DD imagerel ?dtor$4@?0???0LayerScene@Scene@Application@@QEAA@XZ@4HA
	DD	imagerel ?dtor$4@?0???0LayerScene@Scene@Application@@QEAA@XZ@4HA+45
	DD	imagerel $unwind$?dtor$4@?0???0LayerScene@Scene@Application@@QEAA@XZ@4HA
pdata	ENDS
;	COMDAT pdata
pdata	SEGMENT
$pdata$?dtor$5@?0???0LayerScene@Scene@Application@@QEAA@XZ@4HA DD imagerel ?dtor$5@?0???0LayerScene@Scene@Application@@QEAA@XZ@4HA
	DD	imagerel ?dtor$5@?0???0LayerScene@Scene@Application@@QEAA@XZ@4HA+33
	DD	imagerel $unwind$?dtor$5@?0???0LayerScene@Scene@Application@@QEAA@XZ@4HA
pdata	ENDS
;	COMDAT pdata
pdata	SEGMENT
$pdata$??1LayerScene@Scene@Application@@UEAA@XZ DD imagerel $LN7
	DD	imagerel $LN7+198
	DD	imagerel $unwind$??1LayerScene@Scene@Application@@UEAA@XZ
pdata	ENDS
;	COMDAT pdata
pdata	SEGMENT
$pdata$?OnUpdate@LayerScene@Scene@Application@@UEAAXM@Z DD imagerel $LN3
	DD	imagerel $LN3+25
	DD	imagerel $unwind$?OnUpdate@LayerScene@Scene@Application@@UEAAXM@Z
pdata	ENDS
;	COMDAT pdata
pdata	SEGMENT
$pdata$?OnRender@LayerScene@Scene@Application@@UEAAXXZ DD imagerel $LN3
	DD	imagerel $LN3+34
	DD	imagerel $unwind$?OnRender@LayerScene@Scene@Application@@UEAAXXZ
pdata	ENDS
;	COMDAT pdata
pdata	SEGMENT
$pdata$?OnImGuiRender@LayerScene@Scene@Application@@UEAAXXZ DD imagerel $LN3
	DD	imagerel $LN3+33
	DD	imagerel $unwind$?OnImGuiRender@LayerScene@Scene@Application@@UEAAXXZ
pdata	ENDS
;	COMDAT pdata
pdata	SEGMENT
$pdata$??_GLayerScene@Scene@Application@@UEAAPEAXI@Z DD imagerel $LN4
	DD	imagerel $LN4+62
	DD	imagerel $unwind$??_GLayerScene@Scene@Application@@UEAAPEAXI@Z
pdata	ENDS
;	COMDAT pdata
pdata	SEGMENT
$pdata$time DD	imagerel time
	DD	imagerel time+31
	DD	imagerel $unwind$time
pdata	ENDS
;	COMDAT pdata
pdata	SEGMENT
$pdata$??$ortho@M@glm@@YA?AU?$tmat4x4@M$0A@@0@MMMMMM@Z DD imagerel $LN3
	DD	imagerel $LN3+106
	DD	imagerel $unwind$??$ortho@M@glm@@YA?AU?$tmat4x4@M$0A@@0@MMMMMM@Z
pdata	ENDS
;	COMDAT pdata
pdata	SEGMENT
$pdata$??$_Unfancy@D@std@@YAPEADPEAD@Z DD imagerel $LN3
	DD	imagerel $LN3+23
	DD	imagerel $unwind$??$_Unfancy@D@std@@YAPEADPEAD@Z
pdata	ENDS
;	COMDAT pdata
pdata	SEGMENT
$pdata$??$?0$$V@?$_Compressed_pair@V?$allocator@D@std@@V?$_String_val@U?$_Simple_types@D@std@@@2@$00@std@@QEAA@U_Zero_then_variadic_args_t@1@@Z DD imagerel $LN4
	DD	imagerel $LN4+50
	DD	imagerel $unwind$??$?0$$V@?$_Compressed_pair@V?$allocator@D@std@@V?$_String_val@U?$_Simple_types@D@std@@@2@$00@std@@QEAA@U_Zero_then_variadic_args_t@1@@Z
pdata	ENDS
;	COMDAT pdata
pdata	SEGMENT
$pdata$??$addressof@PEAD@std@@YAPEAPEADAEAPEAD@Z DD imagerel $LN3
	DD	imagerel $LN3+23
	DD	imagerel $unwind$??$addressof@PEAD@std@@YAPEAPEADAEAPEAD@Z
pdata	ENDS
;	COMDAT pdata
pdata	SEGMENT
$pdata$??$destroy@PEAD@?$_Default_allocator_traits@V?$allocator@D@std@@@std@@SAXAEAV?$allocator@D@1@QEAPEAD@Z DD imagerel $LN3
	DD	imagerel $LN3+24
	DD	imagerel $unwind$??$destroy@PEAD@?$_Default_allocator_traits@V?$allocator@D@std@@@std@@SAXAEAV?$allocator@D@1@QEAPEAD@Z
pdata	ENDS
;	COMDAT pdata
pdata	SEGMENT
$pdata$??$_Max_value@_K@std@@YAAEB_KAEB_K0@Z DD imagerel $LN5
	DD	imagerel $LN5+70
	DD	imagerel $unwind$??$_Max_value@_K@std@@YAAEB_KAEB_K0@Z
pdata	ENDS
;	COMDAT pdata
pdata	SEGMENT
$pdata$??R<lambda_66f57f934f28d61049862f64df852ff0>@@QEBAXQEAD_KQEBD@Z DD imagerel ??R<lambda_66f57f934f28d61049862f64df852ff0>@@QEBAXQEAD_KQEBD@Z
	DD	imagerel ??R<lambda_66f57f934f28d61049862f64df852ff0>@@QEBAXQEAD_KQEBD@Z+83
	DD	imagerel $unwind$??R<lambda_66f57f934f28d61049862f64df852ff0>@@QEBAXQEAD_KQEBD@Z
pdata	ENDS
;	COMDAT pdata
pdata	SEGMENT
$pdata$??$_Reallocate_for@V<lambda_66f57f934f28d61049862f64df852ff0>@@PEBD@?$basic_string@DU?$char_traits@D@std@@V?$allocator@D@2@@std@@QEAAAEAV01@_KV<lambda_66f57f934f28d61049862f64df852ff0>@@PEBD@Z DD imagerel ??$_Reallocate_for@V<lambda_66f57f934f28d61049862f64df852ff0>@@PEBD@?$basic_string@DU?$char_traits@D@std@@V?$allocator@D@2@@std@@QEAAAEAV01@_KV<lambda_66f57f934f28d61049862f64df852ff0>@@PEBD@Z
	DD	imagerel ??$_Reallocate_for@V<lambda_66f57f934f28d61049862f64df852ff0>@@PEBD@?$basic_string@DU?$char_traits@D@std@@V?$allocator@D@2@@std@@QEAAAEAV01@_KV<lambda_66f57f934f28d61049862f64df852ff0>@@PEBD@Z+354
	DD	imagerel $unwind$??$_Reallocate_for@V<lambda_66f57f934f28d61049862f64df852ff0>@@PEBD@?$basic_string@DU?$char_traits@D@std@@V?$allocator@D@2@@std@@QEAAAEAV01@_KV<lambda_66f57f934f28d61049862f64df852ff0>@@PEBD@Z
pdata	ENDS
;	COMDAT pdata
pdata	SEGMENT
$pdata$??$construct@PEADAEBQEAD@?$_Default_allocator_traits@V?$allocator@D@std@@@std@@SAXAEAV?$allocator@D@1@QEAPEADAEBQEAD@Z DD imagerel $LN3
	DD	imagerel $LN3+68
	DD	imagerel $unwind$??$construct@PEADAEBQEAD@?$_Default_allocator_traits@V?$allocator@D@std@@@std@@SAXAEAV?$allocator@D@1@QEAPEADAEBQEAD@Z
pdata	ENDS
;	COMDAT pdata
pdata	SEGMENT
$pdata$??$addressof@V?$_String_val@U?$_Simple_types@D@std@@@std@@@std@@YAPEAV?$_String_val@U?$_Simple_types@D@std@@@0@AEAV10@@Z DD imagerel $LN3
	DD	imagerel $LN3+23
	DD	imagerel $unwind$??$addressof@V?$_String_val@U?$_Simple_types@D@std@@@std@@@std@@YAPEAV?$_String_val@U?$_Simple_types@D@std@@@0@AEAV10@@Z
pdata	ENDS
;	COMDAT pdata
pdata	SEGMENT
$pdata$??$_Allocate@$0BA@U_Default_allocate_traits@std@@$0A@@std@@YAPEAX_K@Z DD imagerel $LN5
	DD	imagerel $LN5+62
	DD	imagerel $unwind$??$_Allocate@$0BA@U_Default_allocate_traits@std@@$0A@@std@@YAPEAX_K@Z
pdata	ENDS
;	COMDAT pdata
pdata	SEGMENT
$pdata$??$_Deallocate@$0BA@$0A@@std@@YAXPEAX_K@Z DD imagerel $LN4
	DD	imagerel $LN4+62
	DD	imagerel $unwind$??$_Deallocate@$0BA@$0A@@std@@YAXPEAX_K@Z
pdata	ENDS
;	COMDAT pdata
pdata	SEGMENT
$pdata$?allocate@?$allocator@U_Container_proxy@std@@@std@@QEAAPEAU_Container_proxy@2@_K@Z DD imagerel $LN3
	DD	imagerel $LN3+43
	DD	imagerel $unwind$?allocate@?$allocator@U_Container_proxy@std@@@std@@QEAAPEAU_Container_proxy@2@_K@Z
pdata	ENDS
;	COMDAT pdata
pdata	SEGMENT
$pdata$?deallocate@?$_Default_allocator_traits@V?$allocator@U_Container_proxy@std@@@std@@@std@@SAXAEAV?$allocator@U_Container_proxy@std@@@2@QEAU_Container_proxy@2@_K@Z DD imagerel $LN3
	DD	imagerel $LN3+48
	DD	imagerel $unwind$?deallocate@?$_Default_allocator_traits@V?$allocator@U_Container_proxy@std@@@std@@@std@@SAXAEAV?$allocator@U_Container_proxy@std@@@2@QEAU_Container_proxy@2@_K@Z
pdata	ENDS
;	COMDAT pdata
pdata	SEGMENT
$pdata$??$destroy@U_Container_proxy@std@@@?$_Default_allocator_traits@V?$allocator@U_Container_proxy@std@@@std@@@std@@SAXAEAV?$allocator@U_Container_proxy@std@@@1@QEAU_Container_proxy@1@@Z DD imagerel $LN3
	DD	imagerel $LN3+24
	DD	imagerel $unwind$??$destroy@U_Container_proxy@std@@@?$_Default_allocator_traits@V?$allocator@U_Container_proxy@std@@@std@@@std@@SAXAEAV?$allocator@U_Container_proxy@std@@@1@QEAU_Container_proxy@1@@Z
pdata	ENDS
;	COMDAT pdata
pdata	SEGMENT
$pdata$??$_Deallocate_plain@V?$allocator@U_Container_proxy@std@@@std@@$0A@@std@@YAXAEAV?$allocator@U_Container_proxy@std@@@0@QEAU_Container_proxy@0@@Z DD imagerel $LN3
	DD	imagerel $LN3+45
	DD	imagerel $unwind$??$_Deallocate_plain@V?$allocator@U_Container_proxy@std@@@std@@$0A@@std@@YAXAEAV?$allocator@U_Container_proxy@std@@@0@QEAU_Container_proxy@0@@Z
pdata	ENDS
;	COMDAT pdata
pdata	SEGMENT
$pdata$??$_Unfancy@U_Container_proxy@std@@@std@@YAPEAU_Container_proxy@0@PEAU10@@Z DD imagerel $LN3
	DD	imagerel $LN3+23
	DD	imagerel $unwind$??$_Unfancy@U_Container_proxy@std@@@std@@YAPEAU_Container_proxy@0@PEAU10@@Z
pdata	ENDS
;	COMDAT pdata
pdata	SEGMENT
$pdata$??$construct@U_Container_proxy@std@@U12@@?$_Default_allocator_traits@V?$allocator@U_Container_proxy@std@@@std@@@std@@SAXAEAV?$allocator@U_Container_proxy@std@@@1@QEAU_Container_proxy@1@$$QEAU31@@Z DD imagerel $LN3
	DD	imagerel $LN3+79
	DD	imagerel $unwind$??$construct@U_Container_proxy@std@@U12@@?$_Default_allocator_traits@V?$allocator@U_Container_proxy@std@@@std@@@std@@SAXAEAV?$allocator@U_Container_proxy@std@@@1@QEAU_Container_proxy@1@$$QEAU31@@Z
pdata	ENDS
;	COMDAT pdata
pdata	SEGMENT
$pdata$??$?0D@?$allocator@U_Container_proxy@std@@@std@@QEAA@AEBV?$allocator@D@1@@Z DD imagerel $LN3
	DD	imagerel $LN3+28
	DD	imagerel $unwind$??$?0D@?$allocator@U_Container_proxy@std@@@std@@QEAA@AEBV?$allocator@D@1@@Z
pdata	ENDS
;	COMDAT pdata
pdata	SEGMENT
$pdata$??$_Get_size_of_n@$0BA@@std@@YA_K_K@Z DD imagerel $LN4
	DD	imagerel $LN4+70
	DD	imagerel $unwind$??$_Get_size_of_n@$0BA@@std@@YA_K_K@Z
pdata	ENDS
;	COMDAT pdata
pdata	SEGMENT
$pdata$??$?0MHHH@?$tvec4@M$0A@@glm@@QEAA@MHHH@Z DD imagerel $LN3
	DD	imagerel $LN3+94
	DD	imagerel $unwind$??$?0MHHH@?$tvec4@M$0A@@glm@@QEAA@MHHH@Z
pdata	ENDS
;	COMDAT pdata
pdata	SEGMENT
$pdata$??$?0HMHH@?$tvec4@M$0A@@glm@@QEAA@HMHH@Z DD imagerel $LN3
	DD	imagerel $LN3+93
	DD	imagerel $unwind$??$?0HMHH@?$tvec4@M$0A@@glm@@QEAA@HMHH@Z
pdata	ENDS
;	COMDAT pdata
pdata	SEGMENT
$pdata$??$?0HHMH@?$tvec4@M$0A@@glm@@QEAA@HHMH@Z DD imagerel $LN3
	DD	imagerel $LN3+93
	DD	imagerel $unwind$??$?0HHMH@?$tvec4@M$0A@@glm@@QEAA@HHMH@Z
pdata	ENDS
;	COMDAT pdata
pdata	SEGMENT
$pdata$??$?0HHHM@?$tvec4@M$0A@@glm@@QEAA@HHHM@Z DD imagerel $LN3
	DD	imagerel $LN3+92
	DD	imagerel $unwind$??$?0HHHM@?$tvec4@M$0A@@glm@@QEAA@HHHM@Z
pdata	ENDS
;	COMDAT pdata
pdata	SEGMENT
$pdata$??$orthoRH@M@glm@@YA?AU?$tmat4x4@M$0A@@0@MMMMMM@Z DD imagerel $LN3
	DD	imagerel $LN3+636
	DD	imagerel $unwind$??$orthoRH@M@glm@@YA?AU?$tmat4x4@M$0A@@0@MMMMMM@Z
pdata	ENDS
;	COMDAT pdata
pdata	SEGMENT
$pdata$??$forward@AEBQEAD@std@@YAAEBQEADAEBQEAD@Z DD imagerel $LN3
	DD	imagerel $LN3+23
	DD	imagerel $unwind$??$forward@AEBQEAD@std@@YAAEBQEADAEBQEAD@Z
pdata	ENDS
;	COMDAT pdata
pdata	SEGMENT
$pdata$??$_Allocate_manually_vector_aligned@U_Default_allocate_traits@std@@@std@@YAPEAX_K@Z DD imagerel $LN7
	DD	imagerel $LN7+261
	DD	imagerel $unwind$??$_Allocate_manually_vector_aligned@U_Default_allocate_traits@std@@@std@@YAPEAX_K@Z
pdata	ENDS
;	COMDAT pdata
pdata	SEGMENT
$pdata$??$forward@U_Container_proxy@std@@@std@@YA$$QEAU_Container_proxy@0@AEAU10@@Z DD imagerel $LN3
	DD	imagerel $LN3+23
	DD	imagerel $unwind$??$forward@U_Container_proxy@std@@@std@@YA$$QEAU_Container_proxy@0@AEAU10@@Z
pdata	ENDS
;	COMDAT __xmm@80000000800000008000000080000000
CONST	SEGMENT
__xmm@80000000800000008000000080000000 DB 00H, 00H, 00H, 080H, 00H, 00H, 00H
	DB	080H, 00H, 00H, 00H, 080H, 00H, 00H, 00H, 080H
CONST	ENDS
;	COMDAT __real@c1800000
CONST	SEGMENT
__real@c1800000 DD 0c1800000r			; -16
CONST	ENDS
;	COMDAT __real@c1100000
CONST	SEGMENT
__real@c1100000 DD 0c1100000r			; -9
CONST	ENDS
;	COMDAT __real@c0000000
CONST	SEGMENT
__real@c0000000 DD 0c0000000r			; -2
CONST	ENDS
;	COMDAT __real@bf800000
CONST	SEGMENT
__real@bf800000 DD 0bf800000r			; -1
CONST	ENDS
;	COMDAT __real@41800000
CONST	SEGMENT
__real@41800000 DD 041800000r			; 16
CONST	ENDS
;	COMDAT __real@41100000
CONST	SEGMENT
__real@41100000 DD 041100000r			; 9
CONST	ENDS
;	COMDAT __real@40000000
CONST	SEGMENT
__real@40000000 DD 040000000r			; 2
CONST	ENDS
;	COMDAT __real@3f800000
CONST	SEGMENT
__real@3f800000 DD 03f800000r			; 1
CONST	ENDS
;	COMDAT __real@3f666666
CONST	SEGMENT
__real@3f666666 DD 03f666666r			; 0.9
CONST	ENDS
;	COMDAT rtc$TMZ
rtc$TMZ	SEGMENT
_RTC_Shutdown.rtc$TMZ DQ FLAT:_RTC_Shutdown
rtc$TMZ	ENDS
;	COMDAT rtc$IMZ
rtc$IMZ	SEGMENT
_RTC_InitBase.rtc$IMZ DQ FLAT:_RTC_InitBase
rtc$IMZ	ENDS
;	COMDAT ??_R2Scene@0Application@@8
rdata$r	SEGMENT
??_R2Scene@0Application@@8 DD imagerel ??_R1A@?0A@EA@Scene@0Application@@8 ; Application::Scene::Scene::`RTTI Base Class Array'
	ORG $+3
rdata$r	ENDS
;	COMDAT ??_R3Scene@0Application@@8
rdata$r	SEGMENT
??_R3Scene@0Application@@8 DD 00H			; Application::Scene::Scene::`RTTI Class Hierarchy Descriptor'
	DD	00H
	DD	01H
	DD	imagerel ??_R2Scene@0Application@@8
rdata$r	ENDS
;	COMDAT ??_R0?AVScene@0Application@@@8
data$r	SEGMENT
??_R0?AVScene@0Application@@@8 DQ FLAT:??_7type_info@@6B@ ; Application::Scene::Scene `RTTI Type Descriptor'
	DQ	0000000000000000H
	DB	'.?AVScene@0Application@@', 00H
data$r	ENDS
;	COMDAT ??_R1A@?0A@EA@Scene@0Application@@8
rdata$r	SEGMENT
??_R1A@?0A@EA@Scene@0Application@@8 DD imagerel ??_R0?AVScene@0Application@@@8 ; Application::Scene::Scene::`RTTI Base Class Descriptor at (0,-1,0,64)'
	DD	00H
	DD	00H
	DD	0ffffffffH
	DD	00H
	DD	040H
	DD	imagerel ??_R3Scene@0Application@@8
rdata$r	ENDS
;	COMDAT ??_R1A@?0A@EA@LayerScene@Scene@Application@@8
rdata$r	SEGMENT
??_R1A@?0A@EA@LayerScene@Scene@Application@@8 DD imagerel ??_R0?AVLayerScene@Scene@Application@@@8 ; Application::Scene::LayerScene::`RTTI Base Class Descriptor at (0,-1,0,64)'
	DD	01H
	DD	00H
	DD	0ffffffffH
	DD	00H
	DD	040H
	DD	imagerel ??_R3LayerScene@Scene@Application@@8
rdata$r	ENDS
;	COMDAT ??_R2LayerScene@Scene@Application@@8
rdata$r	SEGMENT
??_R2LayerScene@Scene@Application@@8 DD imagerel ??_R1A@?0A@EA@LayerScene@Scene@Application@@8 ; Application::Scene::LayerScene::`RTTI Base Class Array'
	DD	imagerel ??_R1A@?0A@EA@Scene@0Application@@8
	ORG $+3
rdata$r	ENDS
;	COMDAT ??_R3LayerScene@Scene@Application@@8
rdata$r	SEGMENT
??_R3LayerScene@Scene@Application@@8 DD 00H		; Application::Scene::LayerScene::`RTTI Class Hierarchy Descriptor'
	DD	00H
	DD	02H
	DD	imagerel ??_R2LayerScene@Scene@Application@@8
rdata$r	ENDS
;	COMDAT ??_R0?AVLayerScene@Scene@Application@@@8
data$r	SEGMENT
??_R0?AVLayerScene@Scene@Application@@@8 DQ FLAT:??_7type_info@@6B@ ; Application::Scene::LayerScene `RTTI Type Descriptor'
	DQ	0000000000000000H
	DB	'.?AVLayerScene@Scene@Application@@', 00H
data$r	ENDS
;	COMDAT ??_R4LayerScene@Scene@Application@@6B@
rdata$r	SEGMENT
??_R4LayerScene@Scene@Application@@6B@ DD 01H		; Application::Scene::LayerScene::`RTTI Complete Object Locator'
	DD	00H
	DD	00H
	DD	imagerel ??_R0?AVLayerScene@Scene@Application@@@8
	DD	imagerel ??_R3LayerScene@Scene@Application@@8
	DD	imagerel ??_R4LayerScene@Scene@Application@@6B@
rdata$r	ENDS
;	COMDAT ??_C@_1EO@GFNCMDLA@?$AAs?$AAt?$AAd?$AA?3?$AA?3?$AA_?$AAA?$AAl?$AAl?$AAo?$AAc?$AAa?$AAt?$AAe?$AA_?$AAm?$AAa?$AAn?$AAu?$AAa?$AAl?$AAl?$AAy?$AA_?$AAv?$AAe?$AAc?$AAt?$AAo?$AAr?$AA_?$AAa@
CONST	SEGMENT
??_C@_1EO@GFNCMDLA@?$AAs?$AAt?$AAd?$AA?3?$AA?3?$AA_?$AAA?$AAl?$AAl?$AAo?$AAc?$AAa?$AAt?$AAe?$AA_?$AAm?$AAa?$AAn?$AAu?$AAa?$AAl?$AAl?$AAy?$AA_?$AAv?$AAe?$AAc?$AAt?$AAo?$AAr?$AA_?$AAa@ DB 's'
	DB	00H, 't', 00H, 'd', 00H, ':', 00H, ':', 00H, '_', 00H, 'A', 00H
	DB	'l', 00H, 'l', 00H, 'o', 00H, 'c', 00H, 'a', 00H, 't', 00H, 'e'
	DB	00H, '_', 00H, 'm', 00H, 'a', 00H, 'n', 00H, 'u', 00H, 'a', 00H
	DB	'l', 00H, 'l', 00H, 'y', 00H, '_', 00H, 'v', 00H, 'e', 00H, 'c'
	DB	00H, 't', 00H, 'o', 00H, 'r', 00H, '_', 00H, 'a', 00H, 'l', 00H
	DB	'i', 00H, 'g', 00H, 'n', 00H, 'e', 00H, 'd', 00H, 00H, 00H ; `string'
CONST	ENDS
;	COMDAT ??_C@_17CNPHIMPH@?$AA?$CF?$AAl?$AAs?$AA?$AA@
CONST	SEGMENT
??_C@_17CNPHIMPH@?$AA?$CF?$AAl?$AAs?$AA?$AA@ DB '%', 00H, 'l', 00H, 's', 00H
	DB	00H, 00H					; `string'
CONST	ENDS
;	COMDAT ??_C@_1DG@HGDKEBPG@?$AA?$CC?$AA_?$AAP?$AAt?$AAr?$AA_?$AAc?$AAo?$AAn?$AAt?$AAa?$AAi?$AAn?$AAe?$AAr?$AA?5?$AA?$CB?$AA?$DN?$AA?5?$AA0?$AA?$CC?$AA?5?$AA?$CG?$AA?$CG?$AA?5?$AA0?$AA?$AA@
CONST	SEGMENT
??_C@_1DG@HGDKEBPG@?$AA?$CC?$AA_?$AAP?$AAt?$AAr?$AA_?$AAc?$AAo?$AAn?$AAt?$AAa?$AAi?$AAn?$AAe?$AAr?$AA?5?$AA?$CB?$AA?$DN?$AA?5?$AA0?$AA?$CC?$AA?5?$AA?$CG?$AA?$CG?$AA?5?$AA0?$AA?$AA@ DB '"'
	DB	00H, '_', 00H, 'P', 00H, 't', 00H, 'r', 00H, '_', 00H, 'c', 00H
	DB	'o', 00H, 'n', 00H, 't', 00H, 'a', 00H, 'i', 00H, 'n', 00H, 'e'
	DB	00H, 'r', 00H, ' ', 00H, '!', 00H, '=', 00H, ' ', 00H, '0', 00H
	DB	'"', 00H, ' ', 00H, '&', 00H, '&', 00H, ' ', 00H, '0', 00H, 00H
	DB	00H						; `string'
CONST	ENDS
;	COMDAT ??_C@_0BE@LMNLACIC@_Ptr_container?5?$CB?$DN?50?$AA@
CONST	SEGMENT
??_C@_0BE@LMNLACIC@_Ptr_container?5?$CB?$DN?50?$AA@ DB '_Ptr_container !='
	DB	' 0', 00H					; `string'
CONST	ENDS
;	COMDAT ??_C@_0BA@JFNIOLAK@string?5too?5long?$AA@
CONST	SEGMENT
??_C@_0BA@JFNIOLAK@string?5too?5long?$AA@ DB 'string too long', 00H ; `string'
CONST	ENDS
;	COMDAT ??_C@_1CG@KOFHLCJL@?$AAi?$AA?5?$AA?$DM?$AA?5?$AAt?$AAh?$AAi?$AAs?$AA?9?$AA?$DO?$AAl?$AAe?$AAn?$AAg?$AAt?$AAh?$AA?$CI?$AA?$CJ?$AA?$AA@
CONST	SEGMENT
??_C@_1CG@KOFHLCJL@?$AAi?$AA?5?$AA?$DM?$AA?5?$AAt?$AAh?$AAi?$AAs?$AA?9?$AA?$DO?$AAl?$AAe?$AAn?$AAg?$AAt?$AAh?$AA?$CI?$AA?$CJ?$AA?$AA@ DB 'i'
	DB	00H, ' ', 00H, '<', 00H, ' ', 00H, 't', 00H, 'h', 00H, 'i', 00H
	DB	's', 00H, '-', 00H, '>', 00H, 'l', 00H, 'e', 00H, 'n', 00H, 'g'
	DB	00H, 't', 00H, 'h', 00H, '(', 00H, ')', 00H, 00H, 00H ; `string'
CONST	ENDS
;	COMDAT ??_C@_1JI@BDACPION@?$AAl?$AA?3?$AA?2?$AAd?$AAe?$AAv?$AA?2?$AAf?$AAe?$AAa?$AAt?$AAh?$AAe?$AAr?$AAf?$AAa?$AAl?$AAl?$AAe?$AAn?$AAg?$AAi?$AAn?$AAe?$AA?2?$AAd?$AAe?$AAp?$AAe?$AAn?$AAd?$AAs@
CONST	SEGMENT
??_C@_1JI@BDACPION@?$AAl?$AA?3?$AA?2?$AAd?$AAe?$AAv?$AA?2?$AAf?$AAe?$AAa?$AAt?$AAh?$AAe?$AAr?$AAf?$AAa?$AAl?$AAl?$AAe?$AAn?$AAg?$AAi?$AAn?$AAe?$AA?2?$AAd?$AAe?$AAp?$AAe?$AAn?$AAd?$AAs@ DB 'l'
	DB	00H, ':', 00H, '\', 00H, 'd', 00H, 'e', 00H, 'v', 00H, '\', 00H
	DB	'f', 00H, 'e', 00H, 'a', 00H, 't', 00H, 'h', 00H, 'e', 00H, 'r'
	DB	00H, 'f', 00H, 'a', 00H, 'l', 00H, 'l', 00H, 'e', 00H, 'n', 00H
	DB	'g', 00H, 'i', 00H, 'n', 00H, 'e', 00H, '\', 00H, 'd', 00H, 'e'
	DB	00H, 'p', 00H, 'e', 00H, 'n', 00H, 'd', 00H, 's', 00H, '\', 00H
	DB	'i', 00H, 'n', 00H, 's', 00H, 't', 00H, 'a', 00H, 'l', 00H, 'l'
	DB	00H, '\', 00H, 'i', 00H, 'n', 00H, 'c', 00H, 'l', 00H, 'u', 00H
	DB	'd', 00H, 'e', 00H, '\', 00H, 'g', 00H, 'l', 00H, 'm', 00H, '\'
	DB	00H, 'd', 00H, 'e', 00H, 't', 00H, 'a', 00H, 'i', 00H, 'l', 00H
	DB	'\', 00H, 't', 00H, 'y', 00H, 'p', 00H, 'e', 00H, '_', 00H, 'm'
	DB	00H, 'a', 00H, 't', 00H, '4', 00H, 'x', 00H, '4', 00H, '.', 00H
	DB	'i', 00H, 'n', 00H, 'l', 00H, 00H, 00H	; `string'
CONST	ENDS
;	COMDAT ??_C@_1JE@JLGGFMIE@?$AAl?$AA?3?$AA?2?$AAd?$AAe?$AAv?$AA?2?$AAf?$AAe?$AAa?$AAt?$AAh?$AAe?$AAr?$AAf?$AAa?$AAl?$AAl?$AAe?$AAn?$AAg?$AAi?$AAn?$AAe?$AA?2?$AAd?$AAe?$AAp?$AAe?$AAn?$AAd?$AAs@
CONST	SEGMENT
??_C@_1JE@JLGGFMIE@?$AAl?$AA?3?$AA?2?$AAd?$AAe?$AAv?$AA?2?$AAf?$AAe?$AAa?$AAt?$AAh?$AAe?$AAr?$AAf?$AAa?$AAl?$AAl?$AAe?$AAn?$AAg?$AAi?$AAn?$AAe?$AA?2?$AAd?$AAe?$AAp?$AAe?$AAn?$AAd?$AAs@ DB 'l'
	DB	00H, ':', 00H, '\', 00H, 'd', 00H, 'e', 00H, 'v', 00H, '\', 00H
	DB	'f', 00H, 'e', 00H, 'a', 00H, 't', 00H, 'h', 00H, 'e', 00H, 'r'
	DB	00H, 'f', 00H, 'a', 00H, 'l', 00H, 'l', 00H, 'e', 00H, 'n', 00H
	DB	'g', 00H, 'i', 00H, 'n', 00H, 'e', 00H, '\', 00H, 'd', 00H, 'e'
	DB	00H, 'p', 00H, 'e', 00H, 'n', 00H, 'd', 00H, 's', 00H, '\', 00H
	DB	'i', 00H, 'n', 00H, 's', 00H, 't', 00H, 'a', 00H, 'l', 00H, 'l'
	DB	00H, '\', 00H, 'i', 00H, 'n', 00H, 'c', 00H, 'l', 00H, 'u', 00H
	DB	'd', 00H, 'e', 00H, '\', 00H, 'g', 00H, 'l', 00H, 'm', 00H, '\'
	DB	00H, 'd', 00H, 'e', 00H, 't', 00H, 'a', 00H, 'i', 00H, 'l', 00H
	DB	'\', 00H, 't', 00H, 'y', 00H, 'p', 00H, 'e', 00H, '_', 00H, 'v'
	DB	00H, 'e', 00H, 'c', 00H, '4', 00H, '.', 00H, 'i', 00H, 'n', 00H
	DB	'l', 00H, 00H, 00H				; `string'
CONST	ENDS
;	COMDAT ??_C@_1DK@BGNCJAPL@?$AAi?$AA?5?$AA?$DO?$AA?$DN?$AA?5?$AA0?$AA?5?$AA?$CG?$AA?$CG?$AA?5?$AAi?$AA?5?$AA?$DM?$AA?5?$AAt?$AAh?$AAi?$AAs?$AA?9?$AA?$DO?$AAl?$AAe?$AAn?$AAg?$AAt?$AAh?$AA?$CI?$AA?$CJ?$AA?$AA@
CONST	SEGMENT
??_C@_1DK@BGNCJAPL@?$AAi?$AA?5?$AA?$DO?$AA?$DN?$AA?5?$AA0?$AA?5?$AA?$CG?$AA?$CG?$AA?5?$AAi?$AA?5?$AA?$DM?$AA?5?$AAt?$AAh?$AAi?$AAs?$AA?9?$AA?$DO?$AAl?$AAe?$AAn?$AAg?$AAt?$AAh?$AA?$CI?$AA?$CJ?$AA?$AA@ DB 'i'
	DB	00H, ' ', 00H, '>', 00H, '=', 00H, ' ', 00H, '0', 00H, ' ', 00H
	DB	'&', 00H, '&', 00H, ' ', 00H, 'i', 00H, ' ', 00H, '<', 00H, ' '
	DB	00H, 't', 00H, 'h', 00H, 'i', 00H, 's', 00H, '-', 00H, '>', 00H
	DB	'l', 00H, 'e', 00H, 'n', 00H, 'g', 00H, 't', 00H, 'h', 00H, '('
	DB	00H, ')', 00H, 00H, 00H			; `string'
CONST	ENDS
;	COMDAT ??_C@_0BC@GAONNNEG@2D?5Layer?5Support?$CB?$AA@
CONST	SEGMENT
??_C@_0BC@GAONNNEG@2D?5Layer?5Support?$CB?$AA@ DB '2D Layer Support!', 00H ; `string'
CONST	ENDS
;	COMDAT ??_C@_08IMNAFLGG@prMatrix?$AA@
CONST	SEGMENT
??_C@_08IMNAFLGG@prMatrix?$AA@ DB 'prMatrix', 00H	; `string'
CONST	ENDS
;	COMDAT ??_C@_0CC@NJGOLNKK@res?1shaders?1LayerSceneTest?4shade@
CONST	SEGMENT
??_C@_0CC@NJGOLNKK@res?1shaders?1LayerSceneTest?4shade@ DB 'res/shaders/L'
	DB	'ayerSceneTest.shader', 00H			; `string'
CONST	ENDS
;	COMDAT ??_7LayerScene@Scene@Application@@6B@
CONST	SEGMENT
??_7LayerScene@Scene@Application@@6B@ DQ FLAT:??_R4LayerScene@Scene@Application@@6B@ ; Application::Scene::LayerScene::`vftable'
	DQ	FLAT:??_ELayerScene@Scene@Application@@UEAAPEAXI@Z
	DQ	FLAT:?OnUpdate@LayerScene@Scene@Application@@UEAAXM@Z
	DQ	FLAT:?OnRender@LayerScene@Scene@Application@@UEAAXXZ
	DQ	FLAT:?OnImGuiRender@LayerScene@Scene@Application@@UEAAXXZ
CONST	ENDS
;	COMDAT ??_C@_1CG@JNLFBNGN@?$AA?$CC?$AAi?$AAn?$AAv?$AAa?$AAl?$AAi?$AAd?$AA?5?$AAa?$AAr?$AAg?$AAu?$AAm?$AAe?$AAn?$AAt?$AA?$CC?$AA?$AA@
CONST	SEGMENT
??_C@_1CG@JNLFBNGN@?$AA?$CC?$AAi?$AAn?$AAv?$AAa?$AAl?$AAi?$AAd?$AA?5?$AAa?$AAr?$AAg?$AAu?$AAm?$AAe?$AAn?$AAt?$AA?$CC?$AA?$AA@ DB '"'
	DB	00H, 'i', 00H, 'n', 00H, 'v', 00H, 'a', 00H, 'l', 00H, 'i', 00H
	DB	'd', 00H, ' ', 00H, 'a', 00H, 'r', 00H, 'g', 00H, 'u', 00H, 'm'
	DB	00H, 'e', 00H, 'n', 00H, 't', 00H, '"', 00H, 00H, 00H ; `string'
CONST	ENDS
;	COMDAT ??_C@_1EK@NIFDJFDG@?$AAs?$AAt?$AAd?$AA?3?$AA?3?$AA_?$AAA?$AAd?$AAj?$AAu?$AAs?$AAt?$AA_?$AAm?$AAa?$AAn?$AAu?$AAa?$AAl?$AAl?$AAy?$AA_?$AAv?$AAe?$AAc?$AAt?$AAo?$AAr?$AA_?$AAa?$AAl?$AAi@
CONST	SEGMENT
??_C@_1EK@NIFDJFDG@?$AAs?$AAt?$AAd?$AA?3?$AA?3?$AA_?$AAA?$AAd?$AAj?$AAu?$AAs?$AAt?$AA_?$AAm?$AAa?$AAn?$AAu?$AAa?$AAl?$AAl?$AAy?$AA_?$AAv?$AAe?$AAc?$AAt?$AAo?$AAr?$AA_?$AAa?$AAl?$AAi@ DB 's'
	DB	00H, 't', 00H, 'd', 00H, ':', 00H, ':', 00H, '_', 00H, 'A', 00H
	DB	'd', 00H, 'j', 00H, 'u', 00H, 's', 00H, 't', 00H, '_', 00H, 'm'
	DB	00H, 'a', 00H, 'n', 00H, 'u', 00H, 'a', 00H, 'l', 00H, 'l', 00H
	DB	'y', 00H, '_', 00H, 'v', 00H, 'e', 00H, 'c', 00H, 't', 00H, 'o'
	DB	00H, 'r', 00H, '_', 00H, 'a', 00H, 'l', 00H, 'i', 00H, 'g', 00H
	DB	'n', 00H, 'e', 00H, 'd', 00H, 00H, 00H	; `string'
CONST	ENDS
;	COMDAT ??_C@_1NE@FCGGJAHE@?$AAc?$AA?3?$AA?2?$AAp?$AAr?$AAo?$AAg?$AAr?$AAa?$AAm?$AA?5?$AAf?$AAi?$AAl?$AAe?$AAs?$AA?5?$AA?$CI?$AAx?$AA8?$AA6?$AA?$CJ?$AA?2?$AAm?$AAi?$AAc?$AAr?$AAo?$AAs?$AAo?$AAf?$AAt@
CONST	SEGMENT
??_C@_1NE@FCGGJAHE@?$AAc?$AA?3?$AA?2?$AAp?$AAr?$AAo?$AAg?$AAr?$AAa?$AAm?$AA?5?$AAf?$AAi?$AAl?$AAe?$AAs?$AA?5?$AA?$CI?$AAx?$AA8?$AA6?$AA?$CJ?$AA?2?$AAm?$AAi?$AAc?$AAr?$AAo?$AAs?$AAo?$AAf?$AAt@ DB 'c'
	DB	00H, ':', 00H, '\', 00H, 'p', 00H, 'r', 00H, 'o', 00H, 'g', 00H
	DB	'r', 00H, 'a', 00H, 'm', 00H, ' ', 00H, 'f', 00H, 'i', 00H, 'l'
	DB	00H, 'e', 00H, 's', 00H, ' ', 00H, '(', 00H, 'x', 00H, '8', 00H
	DB	'6', 00H, ')', 00H, '\', 00H, 'm', 00H, 'i', 00H, 'c', 00H, 'r'
	DB	00H, 'o', 00H, 's', 00H, 'o', 00H, 'f', 00H, 't', 00H, ' ', 00H
	DB	'v', 00H, 'i', 00H, 's', 00H, 'u', 00H, 'a', 00H, 'l', 00H, ' '
	DB	00H, 's', 00H, 't', 00H, 'u', 00H, 'd', 00H, 'i', 00H, 'o', 00H
	DB	'\', 00H, '2', 00H, '0', 00H, '1', 00H, '7', 00H, '\', 00H, 'e'
	DB	00H, 'n', 00H, 't', 00H, 'e', 00H, 'r', 00H, 'p', 00H, 'r', 00H
	DB	'i', 00H, 's', 00H, 'e', 00H, '\', 00H, 'v', 00H, 'c', 00H, '\'
	DB	00H, 't', 00H, 'o', 00H, 'o', 00H, 'l', 00H, 's', 00H, '\', 00H
	DB	'm', 00H, 's', 00H, 'v', 00H, 'c', 00H, '\', 00H, '1', 00H, '4'
	DB	00H, '.', 00H, '1', 00H, '4', 00H, '.', 00H, '2', 00H, '6', 00H
	DB	'4', 00H, '2', 00H, '8', 00H, '\', 00H, 'i', 00H, 'n', 00H, 'c'
	DB	00H, 'l', 00H, 'u', 00H, 'd', 00H, 'e', 00H, '\', 00H, 'x', 00H
	DB	'm', 00H, 'e', 00H, 'm', 00H, 'o', 00H, 'r', 00H, 'y', 00H, '0'
	DB	00H, 00H, 00H				; `string'
CONST	ENDS
;	COMDAT ?__LINE__Var@?0??_Adjust_manually_vector_aligned@std@@YAXAEAPEAXAEA_K@Z@4JA
_DATA	SEGMENT
?__LINE__Var@?0??_Adjust_manually_vector_aligned@std@@YAXAEAPEAXAEA_K@Z@4JA DD 074H ; `std::_Adjust_manually_vector_aligned'::`1'::__LINE__Var
_DATA	ENDS
;	COMDAT xdata
xdata	SEGMENT
$unwind$??$forward@U_Container_proxy@std@@@std@@YA$$QEAU_Container_proxy@0@AEAU10@@Z DD 05030d01H
	DD	0720a030dH
	DD	05006H
xdata	ENDS
;	COMDAT xdata
xdata	SEGMENT
$unwind$??$_Allocate_manually_vector_aligned@U_Default_allocate_traits@std@@@std@@YAPEAX_K@Z DD 035041201H
	DD	010d3312H
	DD	050060012H
xdata	ENDS
;	COMDAT xdata
xdata	SEGMENT
$unwind$??$forward@AEBQEAD@std@@YAAEBQEADAEBQEAD@Z DD 05030d01H
	DD	0720a030dH
	DD	05006H
xdata	ENDS
;	COMDAT xdata
xdata	SEGMENT
$unwind$??$orthoRH@M@glm@@YA?AU?$tmat4x4@M$0A@@0@MMMMMM@Z DD 025063719H
	DD	01212326H
	DD	0701a0016H
	DD	050186019H
	DD	imagerel __GSHandlerCheck
	DD	0a8H
xdata	ENDS
;	COMDAT xdata
xdata	SEGMENT
$unwind$??$?0HHHM@?$tvec4@M$0A@@glm@@QEAA@HHHM@Z DD 05031b01H
	DD	07218031bH
	DD	05014H
xdata	ENDS
;	COMDAT xdata
xdata	SEGMENT
$unwind$??$?0HHMH@?$tvec4@M$0A@@glm@@QEAA@HHMH@Z DD 05031c01H
	DD	07219031cH
	DD	05015H
xdata	ENDS
;	COMDAT xdata
xdata	SEGMENT
$unwind$??$?0HMHH@?$tvec4@M$0A@@glm@@QEAA@HMHH@Z DD 05031c01H
	DD	07219031cH
	DD	05015H
xdata	ENDS
;	COMDAT xdata
xdata	SEGMENT
$unwind$??$?0MHHH@?$tvec4@M$0A@@glm@@QEAA@MHHH@Z DD 05031d01H
	DD	0721a031dH
	DD	05016H
xdata	ENDS
;	COMDAT xdata
xdata	SEGMENT
$unwind$??$_Get_size_of_n@$0BA@@std@@YA_K_K@Z DD 05030d01H
	DD	0920a030dH
	DD	05006H
xdata	ENDS
;	COMDAT xdata
xdata	SEGMENT
$unwind$??$?0D@?$allocator@U_Container_proxy@std@@@std@@QEAA@AEBV?$allocator@D@1@@Z DD 05031201H
	DD	0720f0312H
	DD	0500bH
xdata	ENDS
;	COMDAT xdata
xdata	SEGMENT
$unwind$??$construct@U_Container_proxy@std@@U12@@?$_Default_allocator_traits@V?$allocator@U_Container_proxy@std@@@std@@@std@@SAXAEAV?$allocator@U_Container_proxy@std@@@1@QEAU_Container_proxy@1@$$QEAU31@@Z DD 025051b01H
	DD	0d216231bH
	DD	060117012H
	DD	05010H
xdata	ENDS
;	COMDAT xdata
xdata	SEGMENT
$unwind$??$_Unfancy@U_Container_proxy@std@@@std@@YAPEAU_Container_proxy@0@PEAU10@@Z DD 05030d01H
	DD	0720a030dH
	DD	05006H
xdata	ENDS
;	COMDAT xdata
xdata	SEGMENT
$unwind$??$_Deallocate_plain@V?$allocator@U_Container_proxy@std@@@std@@$0A@@std@@YAXAEAV?$allocator@U_Container_proxy@std@@@0@QEAU_Container_proxy@0@@Z DD 025031401H
	DD	0b20f2314H
	DD	0500bH
xdata	ENDS
;	COMDAT xdata
xdata	SEGMENT
$unwind$??$destroy@U_Container_proxy@std@@@?$_Default_allocator_traits@V?$allocator@U_Container_proxy@std@@@std@@@std@@SAXAEAV?$allocator@U_Container_proxy@std@@@1@QEAU_Container_proxy@1@@Z DD 05031201H
	DD	0720f0312H
	DD	0500bH
xdata	ENDS
;	COMDAT xdata
xdata	SEGMENT
$unwind$?deallocate@?$_Default_allocator_traits@V?$allocator@U_Container_proxy@std@@@std@@@std@@SAXAEAV?$allocator@U_Container_proxy@std@@@2@QEAU_Container_proxy@2@_K@Z DD 025031901H
	DD	0b2142319H
	DD	05010H
xdata	ENDS
;	COMDAT xdata
xdata	SEGMENT
$unwind$?allocate@?$allocator@U_Container_proxy@std@@@std@@QEAAPEAU_Container_proxy@2@_K@Z DD 025031401H
	DD	0b20f2314H
	DD	0500bH
xdata	ENDS
;	COMDAT xdata
xdata	SEGMENT
$unwind$??$_Deallocate@$0BA@$0A@@std@@YAXPEAX_K@Z DD 025031401H
	DD	0b20f2314H
	DD	0500bH
xdata	ENDS
;	COMDAT xdata
xdata	SEGMENT
$unwind$??$_Allocate@$0BA@U_Default_allocate_traits@std@@$0A@@std@@YAPEAX_K@Z DD 025030f01H
	DD	0b20a230fH
	DD	05006H
xdata	ENDS
;	COMDAT xdata
xdata	SEGMENT
$unwind$??$addressof@V?$_String_val@U?$_Simple_types@D@std@@@std@@@std@@YAPEAV?$_String_val@U?$_Simple_types@D@std@@@0@AEAV10@@Z DD 05030d01H
	DD	0720a030dH
	DD	05006H
xdata	ENDS
;	COMDAT xdata
xdata	SEGMENT
$unwind$??$construct@PEADAEBQEAD@?$_Default_allocator_traits@V?$allocator@D@std@@@std@@SAXAEAV?$allocator@D@1@QEAPEADAEBQEAD@Z DD 025031901H
	DD	0d2142319H
	DD	05010H
xdata	ENDS
;	COMDAT xdata
xdata	SEGMENT
$unwind$??$_Reallocate_for@V<lambda_66f57f934f28d61049862f64df852ff0>@@PEBD@?$basic_string@DU?$char_traits@D@std@@V?$allocator@D@2@@std@@QEAAAEAV01@_KV<lambda_66f57f934f28d61049862f64df852ff0>@@PEBD@Z DD 025042f19H
	DD	011c2321H
	DD	050150012H
	DD	imagerel __GSHandlerCheck
	DD	088H
xdata	ENDS
;	COMDAT xdata
xdata	SEGMENT
$unwind$??R<lambda_66f57f934f28d61049862f64df852ff0>@@QEBAXQEAD_KQEBD@Z DD 025031e01H
	DD	0d219231eH
	DD	05015H
xdata	ENDS
;	COMDAT xdata
xdata	SEGMENT
$unwind$??$_Max_value@_K@std@@YAAEB_KAEB_K0@Z DD 05031201H
	DD	0920f0312H
	DD	0500bH
xdata	ENDS
;	COMDAT xdata
xdata	SEGMENT
$unwind$??$destroy@PEAD@?$_Default_allocator_traits@V?$allocator@D@std@@@std@@SAXAEAV?$allocator@D@1@QEAPEAD@Z DD 05031201H
	DD	0720f0312H
	DD	0500bH
xdata	ENDS
;	COMDAT xdata
xdata	SEGMENT
$unwind$??$addressof@PEAD@std@@YAPEAPEADAEAPEAD@Z DD 05030d01H
	DD	0720a030dH
	DD	05006H
xdata	ENDS
;	COMDAT xdata
xdata	SEGMENT
$unwind$??$?0$$V@?$_Compressed_pair@V?$allocator@D@std@@V?$_String_val@U?$_Simple_types@D@std@@@2@$00@std@@QEAA@U_Zero_then_variadic_args_t@1@@Z DD 025031301H
	DD	0b20e2313H
	DD	0500aH
xdata	ENDS
;	COMDAT xdata
xdata	SEGMENT
$unwind$??$_Unfancy@D@std@@YAPEADPEAD@Z DD 05030d01H
	DD	0720a030dH
	DD	05006H
xdata	ENDS
;	COMDAT xdata
xdata	SEGMENT
$unwind$??$ortho@M@glm@@YA?AU?$tmat4x4@M$0A@@0@MMMMMM@Z DD 045032401H
	DD	0f21f4324H
	DD	05018H
xdata	ENDS
;	COMDAT xdata
xdata	SEGMENT
$unwind$time DD	025030f01H
	DD	0b20a230fH
	DD	05006H
xdata	ENDS
;	COMDAT xdata
xdata	SEGMENT
$unwind$??_GLayerScene@Scene@Application@@UEAAPEAXI@Z DD 025031301H
	DD	0b20e2313H
	DD	0500aH
xdata	ENDS
;	COMDAT xdata
xdata	SEGMENT
$unwind$?OnImGuiRender@LayerScene@Scene@Application@@UEAAXXZ DD 025030f01H
	DD	0b20a230fH
	DD	05006H
xdata	ENDS
;	COMDAT xdata
xdata	SEGMENT
$unwind$?OnRender@LayerScene@Scene@Application@@UEAAXXZ DD 025030f01H
	DD	0b20a230fH
	DD	05006H
xdata	ENDS
;	COMDAT xdata
xdata	SEGMENT
$unwind$?OnUpdate@LayerScene@Scene@Application@@UEAAXM@Z DD 05031301H
	DD	072100313H
	DD	0500cH
xdata	ENDS
;	COMDAT xdata
xdata	SEGMENT
$unwind$??1LayerScene@Scene@Application@@UEAA@XZ DD 025041201H
	DD	010d2312H
	DD	050060012H
xdata	ENDS
;	COMDAT xdata
xdata	SEGMENT
$unwind$?dtor$5@?0???0LayerScene@Scene@Application@@QEAA@XZ@4HA DD 020601H
	DD	050023206H
xdata	ENDS
;	COMDAT xdata
xdata	SEGMENT
$unwind$?dtor$4@?0???0LayerScene@Scene@Application@@QEAA@XZ@4HA DD 020601H
	DD	050023206H
xdata	ENDS
;	COMDAT xdata
xdata	SEGMENT
$unwind$?dtor$3@?0???0LayerScene@Scene@Application@@QEAA@XZ@4HA DD 020601H
	DD	050023206H
xdata	ENDS
;	COMDAT xdata
xdata	SEGMENT
$unwind$?dtor$2@?0???0LayerScene@Scene@Application@@QEAA@XZ@4HA DD 020601H
	DD	050023206H
xdata	ENDS
;	COMDAT xdata
xdata	SEGMENT
$unwind$?dtor$1@?0???0LayerScene@Scene@Application@@QEAA@XZ@4HA DD 020601H
	DD	050023206H
xdata	ENDS
;	COMDAT xdata
xdata	SEGMENT
$unwind$?dtor$0@?0???0LayerScene@Scene@Application@@QEAA@XZ@4HA DD 020601H
	DD	050023206H
xdata	ENDS
;	COMDAT xdata
xdata	SEGMENT
$ip2state$??0LayerScene@Scene@Application@@QEAA@XZ DD imagerel ??0LayerScene@Scene@Application@@QEAA@XZ
	DD	0ffffffffH
	DD	imagerel ??0LayerScene@Scene@Application@@QEAA@XZ+52
	DD	00H
	DD	imagerel ??0LayerScene@Scene@Application@@QEAA@XZ+83
	DD	01H
	DD	imagerel ??0LayerScene@Scene@Application@@QEAA@XZ+144
	DD	00H
	DD	imagerel ??0LayerScene@Scene@Application@@QEAA@XZ+173
	DD	02H
	DD	imagerel ??0LayerScene@Scene@Application@@QEAA@XZ+286
	DD	00H
	DD	imagerel ??0LayerScene@Scene@Application@@QEAA@XZ+315
	DD	03H
	DD	imagerel ??0LayerScene@Scene@Application@@QEAA@XZ+339
	DD	04H
	DD	imagerel ??0LayerScene@Scene@Application@@QEAA@XZ+376
	DD	03H
	DD	imagerel ??0LayerScene@Scene@Application@@QEAA@XZ+387
	DD	04H
	DD	imagerel ??0LayerScene@Scene@Application@@QEAA@XZ+398
	DD	05H
	DD	imagerel ??0LayerScene@Scene@Application@@QEAA@XZ+413
	DD	00H
	DD	imagerel ??0LayerScene@Scene@Application@@QEAA@XZ+576
	DD	06H
	DD	imagerel ??0LayerScene@Scene@Application@@QEAA@XZ+709
	DD	00H
	DD	imagerel ??0LayerScene@Scene@Application@@QEAA@XZ+793
	DD	0ffffffffH
xdata	ENDS
;	COMDAT xdata
xdata	SEGMENT
$stateUnwindMap$??0LayerScene@Scene@Application@@QEAA@XZ DD 0ffffffffH
	DD	imagerel ?dtor$0@?0???0LayerScene@Scene@Application@@QEAA@XZ@4HA
	DD	00H
	DD	imagerel ?dtor$1@?0???0LayerScene@Scene@Application@@QEAA@XZ@4HA
	DD	00H
	DD	imagerel ?dtor$2@?0???0LayerScene@Scene@Application@@QEAA@XZ@4HA
	DD	00H
	DD	imagerel ?dtor$3@?0???0LayerScene@Scene@Application@@QEAA@XZ@4HA
	DD	03H
	DD	imagerel ?dtor$4@?0???0LayerScene@Scene@Application@@QEAA@XZ@4HA
	DD	00H
	DD	imagerel ?dtor$4@?0???0LayerScene@Scene@Application@@QEAA@XZ@4HA
	DD	00H
	DD	imagerel ?dtor$5@?0???0LayerScene@Scene@Application@@QEAA@XZ@4HA
xdata	ENDS
;	COMDAT CONST
CONST	SEGMENT
$cppxdata$??0LayerScene@Scene@Application@@QEAA@XZ DD 019930522H
	DD	07H
	DD	imagerel $stateUnwindMap$??0LayerScene@Scene@Application@@QEAA@XZ
	DD	00H
	DD	00H
	DD	0fH
	DD	imagerel $ip2state$??0LayerScene@Scene@Application@@QEAA@XZ
	DD	0108H
	DD	00H
	DD	01H
CONST	ENDS
;	COMDAT xdata
xdata	SEGMENT
$unwind$??0LayerScene@Scene@Application@@QEAA@XZ DD 045041d11H
	DD	010d4312H
	DD	050060024H
	DD	imagerel __CxxFrameHandler3
	DD	imagerel $cppxdata$??0LayerScene@Scene@Application@@QEAA@XZ
xdata	ENDS
;	COMDAT xdata
xdata	SEGMENT
$unwind$??_GLayer2D@core@@QEAAPEAXI@Z DD 025031301H
	DD	0b20e2313H
	DD	0500aH
xdata	ENDS
;	COMDAT xdata
xdata	SEGMENT
$unwind$?__autoclassinit2@Layer2D@core@@QEAAX_K@Z DD 05041301H
	DD	082100313H
	DD	0500b700cH
xdata	ENDS
;	COMDAT xdata
xdata	SEGMENT
$unwind$??_GShader@graphics@core@@QEAAPEAXI@Z DD 025031301H
	DD	0b20e2313H
	DD	0500aH
xdata	ENDS
;	COMDAT xdata
xdata	SEGMENT
$unwind$??A?$tmat4x4@M$0A@@glm@@QEAAAEAU?$tvec4@M$0A@@1@H@Z DD 025031301H
	DD	0b20e2313H
	DD	0500aH
xdata	ENDS
;	COMDAT xdata
xdata	SEGMENT
$unwind$?length@?$tmat4x4@M$0A@@glm@@SAHXZ DD 05030901H
	DD	072060309H
	DD	05002H
xdata	ENDS
;	COMDAT xdata
xdata	SEGMENT
$unwind$??0?$tmat4x4@M$0A@@glm@@QEAA@AEBM@Z DD 035061901H
	DD	01143319H
	DD	0700d0016H
	DD	0500b600cH
xdata	ENDS
;	COMDAT xdata
xdata	SEGMENT
$unwind$?_Xlen@?$basic_string@DU?$char_traits@D@std@@V?$allocator@D@2@@std@@SAXXZ DD 025030b01H
	DD	0b206230bH
	DD	05002H
xdata	ENDS
;	COMDAT xdata
xdata	SEGMENT
$unwind$?_Tidy_deallocate@?$basic_string@DU?$char_traits@D@std@@V?$allocator@D@2@@std@@QEAAXXZ DD 025031201H
	DD	0f20d2312H
	DD	05006H
xdata	ENDS
;	COMDAT xdata
xdata	SEGMENT
$unwind$?_Tidy_init@?$basic_string@DU?$char_traits@D@std@@V?$allocator@D@2@@std@@QEAAXXZ DD 025030f01H
	DD	0d20a230fH
	DD	05006H
xdata	ENDS
;	COMDAT xdata
xdata	SEGMENT
$unwind$?_Calculate_growth@?$basic_string@DU?$char_traits@D@std@@V?$allocator@D@2@@std@@QEBA_K_K@Z DD 025042519H
	DD	01122317H
	DD	0500b0012H
	DD	imagerel __GSHandlerCheck
	DD	088H
xdata	ENDS
;	COMDAT xdata
xdata	SEGMENT
$unwind$?max_size@?$basic_string@DU?$char_traits@D@std@@V?$allocator@D@2@@std@@QEBA_KXZ DD 025042019H
	DD	010d2312H
	DD	050060012H
	DD	imagerel __GSHandlerCheck
	DD	088H
xdata	ENDS
;	COMDAT xdata
xdata	SEGMENT
$unwind$?assign@?$basic_string@DU?$char_traits@D@std@@V?$allocator@D@2@@std@@QEAAAEAV12@QEBD@Z DD 025031401H
	DD	0b20f2314H
	DD	0500bH
xdata	ENDS
;	COMDAT xdata
xdata	SEGMENT
$unwind$?assign@?$basic_string@DU?$char_traits@D@std@@V?$allocator@D@2@@std@@QEAAAEAV12@QEBD_K@Z DD 025051d01H
	DD	0118231dH
	DD	070110011H
	DD	05010H
xdata	ENDS
;	COMDAT xdata
xdata	SEGMENT
$ip2state$??1?$basic_string@DU?$char_traits@D@std@@V?$allocator@D@2@@std@@QEAA@XZ DD imagerel ??1?$basic_string@DU?$char_traits@D@std@@V?$allocator@D@2@@std@@QEAA@XZ
	DD	0ffffffffH
xdata	ENDS
;	COMDAT CONST
CONST	SEGMENT
$cppxdata$??1?$basic_string@DU?$char_traits@D@std@@V?$allocator@D@2@@std@@QEAA@XZ DD 019930522H
	DD	00H
	DD	00H
	DD	00H
	DD	00H
	DD	01H
	DD	imagerel $ip2state$??1?$basic_string@DU?$char_traits@D@std@@V?$allocator@D@2@@std@@QEAA@XZ
	DD	060H
	DD	00H
	DD	05H
CONST	ENDS
;	COMDAT xdata
xdata	SEGMENT
$unwind$??1?$basic_string@DU?$char_traits@D@std@@V?$allocator@D@2@@std@@QEAA@XZ DD 025031719H
	DD	0d20a230fH
	DD	05006H
	DD	imagerel __CxxFrameHandler3
	DD	imagerel $cppxdata$??1?$basic_string@DU?$char_traits@D@std@@V?$allocator@D@2@@std@@QEAA@XZ
xdata	ENDS
;	COMDAT xdata
xdata	SEGMENT
$unwind$?dtor$0@?0???0?$basic_string@DU?$char_traits@D@std@@V?$allocator@D@2@@std@@QEAA@QEBD@Z@4HA DD 020601H
	DD	050023206H
xdata	ENDS
;	COMDAT xdata
xdata	SEGMENT
$ip2state$??0?$basic_string@DU?$char_traits@D@std@@V?$allocator@D@2@@std@@QEAA@QEBD@Z DD imagerel ??0?$basic_string@DU?$char_traits@D@std@@V?$allocator@D@2@@std@@QEAA@QEBD@Z
	DD	0ffffffffH
	DD	imagerel ??0?$basic_string@DU?$char_traits@D@std@@V?$allocator@D@2@@std@@QEAA@QEBD@Z+38
	DD	00H
	DD	imagerel ??0?$basic_string@DU?$char_traits@D@std@@V?$allocator@D@2@@std@@QEAA@QEBD@Z+61
	DD	0ffffffffH
xdata	ENDS
;	COMDAT xdata
xdata	SEGMENT
$stateUnwindMap$??0?$basic_string@DU?$char_traits@D@std@@V?$allocator@D@2@@std@@QEAA@QEBD@Z DD 0ffffffffH
	DD	imagerel ?dtor$0@?0???0?$basic_string@DU?$char_traits@D@std@@V?$allocator@D@2@@std@@QEAA@QEBD@Z@4HA
xdata	ENDS
;	COMDAT CONST
CONST	SEGMENT
$cppxdata$??0?$basic_string@DU?$char_traits@D@std@@V?$allocator@D@2@@std@@QEAA@QEBD@Z DD 019930522H
	DD	01H
	DD	imagerel $stateUnwindMap$??0?$basic_string@DU?$char_traits@D@std@@V?$allocator@D@2@@std@@QEAA@QEBD@Z
	DD	00H
	DD	00H
	DD	03H
	DD	imagerel $ip2state$??0?$basic_string@DU?$char_traits@D@std@@V?$allocator@D@2@@std@@QEAA@QEBD@Z
	DD	060H
	DD	00H
	DD	01H
CONST	ENDS
;	COMDAT xdata
xdata	SEGMENT
$unwind$??0?$basic_string@DU?$char_traits@D@std@@V?$allocator@D@2@@std@@QEAA@QEBD@Z DD 025031c11H
	DD	0d20f2314H
	DD	0500bH
	DD	imagerel __CxxFrameHandler3
	DD	imagerel $cppxdata$??0?$basic_string@DU?$char_traits@D@std@@V?$allocator@D@2@@std@@QEAA@QEBD@Z
xdata	ENDS
;	COMDAT xdata
xdata	SEGMENT
$unwind$??1?$_Compressed_pair@V?$allocator@D@std@@V?$_String_val@U?$_Simple_types@D@std@@@2@$00@std@@QEAA@XZ DD 025030f01H
	DD	0b20a230fH
	DD	05006H
xdata	ENDS
;	COMDAT xdata
xdata	SEGMENT
$unwind$?_Get_second@?$_Compressed_pair@V?$allocator@D@std@@V?$_String_val@U?$_Simple_types@D@std@@@2@$00@std@@QEBAAEBV?$_String_val@U?$_Simple_types@D@std@@@2@XZ DD 05030d01H
	DD	0720a030dH
	DD	05006H
xdata	ENDS
;	COMDAT xdata
xdata	SEGMENT
$unwind$?_Get_second@?$_Compressed_pair@V?$allocator@D@std@@V?$_String_val@U?$_Simple_types@D@std@@@2@$00@std@@QEAAAEAV?$_String_val@U?$_Simple_types@D@std@@@2@XZ DD 05030d01H
	DD	0720a030dH
	DD	05006H
xdata	ENDS
;	COMDAT xdata
xdata	SEGMENT
$unwind$?_Get_first@?$_Compressed_pair@V?$allocator@D@std@@V?$_String_val@U?$_Simple_types@D@std@@@2@$00@std@@QEBAAEBV?$allocator@D@2@XZ DD 05030d01H
	DD	0720a030dH
	DD	05006H
xdata	ENDS
;	COMDAT xdata
xdata	SEGMENT
$unwind$?_Get_first@?$_Compressed_pair@V?$allocator@D@std@@V?$_String_val@U?$_Simple_types@D@std@@@2@$00@std@@QEAAAEAV?$allocator@D@2@XZ DD 05030d01H
	DD	0720a030dH
	DD	05006H
xdata	ENDS
;	COMDAT xdata
xdata	SEGMENT
$unwind$?_Get_data@?$_String_alloc@U?$_String_base_types@DV?$allocator@D@std@@@std@@@std@@QEBAAEBV?$_String_val@U?$_Simple_types@D@std@@@2@XZ DD 025030f01H
	DD	0b20a230fH
	DD	05006H
xdata	ENDS
;	COMDAT xdata
xdata	SEGMENT
$unwind$?_Get_data@?$_String_alloc@U?$_String_base_types@DV?$allocator@D@std@@@std@@@std@@QEAAAEAV?$_String_val@U?$_Simple_types@D@std@@@2@XZ DD 025030f01H
	DD	0b20a230fH
	DD	05006H
xdata	ENDS
;	COMDAT xdata
xdata	SEGMENT
$unwind$?_Getal@?$_String_alloc@U?$_String_base_types@DV?$allocator@D@std@@@std@@@std@@QEBAAEBV?$allocator@D@2@XZ DD 025030f01H
	DD	0b20a230fH
	DD	05006H
xdata	ENDS
;	COMDAT xdata
xdata	SEGMENT
$unwind$?_Getal@?$_String_alloc@U?$_String_base_types@DV?$allocator@D@std@@@std@@@std@@QEAAAEAV?$allocator@D@2@XZ DD 025030f01H
	DD	0b20a230fH
	DD	05006H
xdata	ENDS
;	COMDAT xdata
xdata	SEGMENT
$unwind$?_Orphan_all@?$_String_alloc@U?$_String_base_types@DV?$allocator@D@std@@@std@@@std@@QEAAXXZ DD 025030f01H
	DD	0b20a230fH
	DD	05006H
xdata	ENDS
;	COMDAT xdata
xdata	SEGMENT
$unwind$?_Myproxy@?$_String_alloc@U?$_String_base_types@DV?$allocator@D@std@@@std@@@std@@QEAAAEAPEAU_Container_proxy@2@XZ DD 025030f01H
	DD	0b20a230fH
	DD	05006H
xdata	ENDS
;	COMDAT xdata
xdata	SEGMENT
$unwind$?_Free_proxy@?$_String_alloc@U?$_String_base_types@DV?$allocator@D@std@@@std@@@std@@QEAAXXZ DD 025031d19H
	DD	0d20a230fH
	DD	05006H
	DD	imagerel __GSHandlerCheck
	DD	068H
xdata	ENDS
;	COMDAT xdata
xdata	SEGMENT
$unwind$?_Alloc_proxy@?$_String_alloc@U?$_String_base_types@DV?$allocator@D@std@@@std@@@std@@QEAAXXZ DD 025042019H
	DD	010d2312H
	DD	050060012H
	DD	imagerel __GSHandlerCheck
	DD	080H
xdata	ENDS
;	COMDAT xdata
xdata	SEGMENT
$ip2state$??1?$_String_alloc@U?$_String_base_types@DV?$allocator@D@std@@@std@@@std@@QEAA@XZ DD imagerel ??1?$_String_alloc@U?$_String_base_types@DV?$allocator@D@std@@@std@@@std@@QEAA@XZ
	DD	0ffffffffH
xdata	ENDS
;	COMDAT CONST
CONST	SEGMENT
$cppxdata$??1?$_String_alloc@U?$_String_base_types@DV?$allocator@D@std@@@std@@@std@@QEAA@XZ DD 019930522H
	DD	00H
	DD	00H
	DD	00H
	DD	00H
	DD	01H
	DD	imagerel $ip2state$??1?$_String_alloc@U?$_String_base_types@DV?$allocator@D@std@@@std@@@std@@QEAA@XZ
	DD	060H
	DD	00H
	DD	05H
CONST	ENDS
;	COMDAT xdata
xdata	SEGMENT
$unwind$??1?$_String_alloc@U?$_String_base_types@DV?$allocator@D@std@@@std@@@std@@QEAA@XZ DD 025031719H
	DD	0d20a230fH
	DD	05006H
	DD	imagerel __CxxFrameHandler3
	DD	imagerel $cppxdata$??1?$_String_alloc@U?$_String_base_types@DV?$allocator@D@std@@@std@@@std@@QEAA@XZ
xdata	ENDS
;	COMDAT xdata
xdata	SEGMENT
$unwind$?dtor$0@?0???0?$_String_alloc@U?$_String_base_types@DV?$allocator@D@std@@@std@@@std@@QEAA@XZ@4HA DD 020601H
	DD	050023206H
xdata	ENDS
;	COMDAT xdata
xdata	SEGMENT
$ip2state$??0?$_String_alloc@U?$_String_base_types@DV?$allocator@D@std@@@std@@@std@@QEAA@XZ DD imagerel ??0?$_String_alloc@U?$_String_base_types@DV?$allocator@D@std@@@std@@@std@@QEAA@XZ
	DD	0ffffffffH
	DD	imagerel ??0?$_String_alloc@U?$_String_base_types@DV?$allocator@D@std@@@std@@@std@@QEAA@XZ+40
	DD	00H
	DD	imagerel ??0?$_String_alloc@U?$_String_base_types@DV?$allocator@D@std@@@std@@@std@@QEAA@XZ+50
	DD	0ffffffffH
xdata	ENDS
;	COMDAT xdata
xdata	SEGMENT
$stateUnwindMap$??0?$_String_alloc@U?$_String_base_types@DV?$allocator@D@std@@@std@@@std@@QEAA@XZ DD 0ffffffffH
	DD	imagerel ?dtor$0@?0???0?$_String_alloc@U?$_String_base_types@DV?$allocator@D@std@@@std@@@std@@QEAA@XZ@4HA
xdata	ENDS
;	COMDAT CONST
CONST	SEGMENT
$cppxdata$??0?$_String_alloc@U?$_String_base_types@DV?$allocator@D@std@@@std@@@std@@QEAA@XZ DD 019930522H
	DD	01H
	DD	imagerel $stateUnwindMap$??0?$_String_alloc@U?$_String_base_types@DV?$allocator@D@std@@@std@@@std@@QEAA@XZ
	DD	00H
	DD	00H
	DD	03H
	DD	imagerel $ip2state$??0?$_String_alloc@U?$_String_base_types@DV?$allocator@D@std@@@std@@@std@@QEAA@XZ
	DD	068H
	DD	00H
	DD	01H
CONST	ENDS
;	COMDAT xdata
xdata	SEGMENT
$unwind$??0?$_String_alloc@U?$_String_base_types@DV?$allocator@D@std@@@std@@@std@@QEAA@XZ DD 025031711H
	DD	0d20a230fH
	DD	05006H
	DD	imagerel __CxxFrameHandler3
	DD	imagerel $cppxdata$??0?$_String_alloc@U?$_String_base_types@DV?$allocator@D@std@@@std@@@std@@QEAA@XZ
xdata	ENDS
;	COMDAT xdata
xdata	SEGMENT
$unwind$??1?$_String_val@U?$_Simple_types@D@std@@@std@@QEAA@XZ DD 025030f01H
	DD	0b20a230fH
	DD	05006H
xdata	ENDS
;	COMDAT xdata
xdata	SEGMENT
$unwind$??1_Bxty@?$_String_val@U?$_Simple_types@D@std@@@std@@QEAA@XZ DD 05030d01H
	DD	0720a030dH
	DD	05006H
xdata	ENDS
;	COMDAT xdata
xdata	SEGMENT
$unwind$??0_Bxty@?$_String_val@U?$_Simple_types@D@std@@@std@@QEAA@XZ DD 05030d01H
	DD	0720a030dH
	DD	05006H
xdata	ENDS
;	COMDAT xdata
xdata	SEGMENT
$unwind$?_Large_string_engaged@?$_String_val@U?$_Simple_types@D@std@@@std@@QEBA_NXZ DD 05030d01H
	DD	0920a030dH
	DD	05006H
xdata	ENDS
;	COMDAT xdata
xdata	SEGMENT
$unwind$?_Myptr@?$_String_val@U?$_Simple_types@D@std@@@std@@QEAAPEADXZ DD 025030f01H
	DD	0d20a230fH
	DD	05006H
xdata	ENDS
;	COMDAT xdata
xdata	SEGMENT
$unwind$??0?$_String_val@U?$_Simple_types@D@std@@@std@@QEAA@XZ DD 025030f01H
	DD	0b20a230fH
	DD	05006H
xdata	ENDS
;	COMDAT xdata
xdata	SEGMENT
$unwind$?max_size@?$_Default_allocator_traits@V?$allocator@D@std@@@std@@SA_KAEBV?$allocator@D@2@@Z DD 05030d01H
	DD	0720a030dH
	DD	05006H
xdata	ENDS
;	COMDAT xdata
xdata	SEGMENT
$unwind$?allocate@?$allocator@D@std@@QEAAPEAD_K@Z DD 025031401H
	DD	0b20f2314H
	DD	0500bH
xdata	ENDS
;	COMDAT xdata
xdata	SEGMENT
$unwind$?deallocate@?$allocator@D@std@@QEAAXQEAD_K@Z DD 025031901H
	DD	0b2142319H
	DD	05010H
xdata	ENDS
;	COMDAT xdata
xdata	SEGMENT
$unwind$??0?$allocator@D@std@@QEAA@XZ DD 05030d01H
	DD	0720a030dH
	DD	05006H
xdata	ENDS
;	COMDAT xdata
xdata	SEGMENT
$unwind$??$_Min_value@_K@std@@YAAEB_KAEB_K0@Z DD 05031201H
	DD	0920f0312H
	DD	0500bH
xdata	ENDS
;	COMDAT xdata
xdata	SEGMENT
$unwind$??$_Convert_size@_K@std@@YA_K_K@Z DD 05030d01H
	DD	0720a030dH
	DD	05006H
xdata	ENDS
;	COMDAT xdata
xdata	SEGMENT
$unwind$?_Adjust_manually_vector_aligned@std@@YAXAEAPEAXAEA_K@Z DD 035041701H
	DD	01123317H
	DD	0500b0012H
xdata	ENDS
;	COMDAT xdata
xdata	SEGMENT
$unwind$?_Allocate@_Default_allocate_traits@std@@SAPEAX_K@Z DD 025030f01H
	DD	0b20a230fH
	DD	05006H
xdata	ENDS
;	COMDAT xdata
xdata	SEGMENT
$unwind$??$_Get_size_of_n@$00@std@@YA_K_K@Z DD 05030d01H
	DD	0720a030dH
	DD	05006H
xdata	ENDS
;	COMDAT xdata
xdata	SEGMENT
$ip2state$?_Orphan_all@_Container_base12@std@@QEAAXXZ DD imagerel ?_Orphan_all@_Container_base12@std@@QEAAXXZ
	DD	0ffffffffH
xdata	ENDS
;	COMDAT CONST
CONST	SEGMENT
$cppxdata$?_Orphan_all@_Container_base12@std@@QEAAXXZ DD 019930522H
	DD	00H
	DD	00H
	DD	00H
	DD	00H
	DD	01H
	DD	imagerel $ip2state$?_Orphan_all@_Container_base12@std@@QEAAXXZ
	DD	070H
	DD	00H
	DD	05H
CONST	ENDS
;	COMDAT xdata
xdata	SEGMENT
$unwind$?_Orphan_all@_Container_base12@std@@QEAAXXZ DD 025032819H
	DD	0f20d2312H
	DD	05006H
	DD	imagerel __GSHandlerCheck_EH
	DD	imagerel $cppxdata$?_Orphan_all@_Container_base12@std@@QEAAXXZ
	DD	07bH
xdata	ENDS
;	COMDAT xdata
xdata	SEGMENT
$unwind$??0_Container_base12@std@@QEAA@XZ DD 05030d01H
	DD	0720a030dH
	DD	05006H
xdata	ENDS
;	COMDAT xdata
xdata	SEGMENT
$unwind$??0_Container_proxy@std@@QEAA@XZ DD 05030d01H
	DD	0720a030dH
	DD	05006H
xdata	ENDS
;	COMDAT xdata
xdata	SEGMENT
$unwind$?assign@?$char_traits@D@std@@SAXAEADAEBD@Z DD 05031201H
	DD	0720f0312H
	DD	0500bH
xdata	ENDS
;	COMDAT xdata
xdata	SEGMENT
$unwind$?move@?$char_traits@D@std@@SAPEADQEADQEBD_K@Z DD 025031901H
	DD	0b2142319H
	DD	05010H
xdata	ENDS
;	COMDAT xdata
xdata	SEGMENT
$unwind$?copy@?$char_traits@D@std@@SAPEADQEADQEBD_K@Z DD 025031901H
	DD	0b2142319H
	DD	05010H
xdata	ENDS
;	COMDAT xdata
xdata	SEGMENT
$unwind$?length@?$char_traits@D@std@@SA_KQEBD@Z DD 025030f01H
	DD	0b20a230fH
	DD	05006H
xdata	ENDS
;	COMDAT xdata
xdata	SEGMENT
$unwind$??2@YAPEAX_KPEAX@Z DD 05031201H
	DD	0720f0312H
	DD	0500bH
xdata	ENDS
;	COMDAT xdata
xdata	SEGMENT
$unwind$??0?$tvec4@M$0A@@glm@@QEAA@MMMM@Z DD 05031f01H
	DD	0721c031fH
	DD	05018H
xdata	ENDS
;	COMDAT xdata
xdata	SEGMENT
$unwind$??0?$tvec4@M$0A@@glm@@QEAA@XZ DD 05030d01H
	DD	0720a030dH
	DD	05006H
xdata	ENDS
;	COMDAT xdata
xdata	SEGMENT
$unwind$??A?$tvec4@M$0A@@glm@@QEAAAEAMH@Z DD 025031301H
	DD	0b20e2313H
	DD	0500aH
xdata	ENDS
;	COMDAT xdata
xdata	SEGMENT
$unwind$?length@?$tvec4@M$0A@@glm@@SAHXZ DD 05030901H
	DD	072060309H
	DD	05002H
xdata	ENDS
;	COMDAT xdata
xdata	SEGMENT
$unwind$?max@?$numeric_limits@_J@std@@SA_JXZ DD 05030901H
	DD	072060309H
	DD	05002H
xdata	ENDS
;	COMDAT xdata
xdata	SEGMENT
$unwind$?__empty_global_delete@@YAXPEAX_K@Z DD 05031201H
	DD	0720f0312H
	DD	0500bH
xdata	ENDS
;	COMDAT xdata
xdata	SEGMENT
$unwind$?__empty_global_delete@@YAXPEAX@Z DD 05030d01H
	DD	0720a030dH
	DD	05006H
xdata	ENDS
;	COMDAT xdata
xdata	SEGMENT
$unwind$??_H@YAXPEAX_K1P6APEAX0@Z@Z DD 025031e01H
	DD	0d219231eH
	DD	05015H
xdata	ENDS
; Function compile flags: /Odtp /RTCu /ZI
; File c:\program files (x86)\microsoft visual studio\2017\enterprise\vc\tools\msvc\14.14.26428\include\type_traits
;	COMDAT ??$forward@U_Container_proxy@std@@@std@@YA$$QEAU_Container_proxy@0@AEAU10@@Z
_TEXT	SEGMENT
_Arg$ = 80
??$forward@U_Container_proxy@std@@@std@@YA$$QEAU_Container_proxy@0@AEAU10@@Z PROC ; std::forward<std::_Container_proxy>, COMDAT

; 1540 : 	{	// forward an lvalue as either an lvalue or an rvalue

$LN3:
	mov	QWORD PTR [rsp+8], rcx
	push	rbp
	sub	rsp, 64					; 00000040H
	mov	rbp, rsp

; 1541 : 	return (static_cast<_Ty&&>(_Arg));

	mov	rax, QWORD PTR _Arg$[rbp]

; 1542 : 	}

	lea	rsp, QWORD PTR [rbp+64]
	pop	rbp
	ret	0
??$forward@U_Container_proxy@std@@@std@@YA$$QEAU_Container_proxy@0@AEAU10@@Z ENDP ; std::forward<std::_Container_proxy>
_TEXT	ENDS
; Function compile flags: /Odtp /RTCu /ZI
; File c:\program files (x86)\microsoft visual studio\2017\enterprise\vc\tools\msvc\14.14.26428\include\xmemory0
;	COMDAT ??$_Allocate_manually_vector_aligned@U_Default_allocate_traits@std@@@std@@YAPEAX_K@Z
_TEXT	SEGMENT
_Block_size$ = 0
_Ptr_container$ = 8
_Ptr$ = 16
_Bytes$ = 112
??$_Allocate_manually_vector_aligned@U_Default_allocate_traits@std@@@std@@YAPEAX_K@Z PROC ; std::_Allocate_manually_vector_aligned<std::_Default_allocate_traits>, COMDAT

; 94   : 	{	// allocate _Bytes manually aligned to at least _Big_allocation_alignment

$LN7:
	mov	QWORD PTR [rsp+8], rcx
	push	rbp
	sub	rsp, 144				; 00000090H
	lea	rbp, QWORD PTR [rsp+48]

; 95   : 	size_t _Block_size = _Non_user_size + _Bytes;

	mov	rax, QWORD PTR _Bytes$[rbp]
	add	rax, 47					; 0000002fH
	mov	QWORD PTR _Block_size$[rbp], rax

; 96   : 	if (_Block_size <= _Bytes)

	mov	rax, QWORD PTR _Bytes$[rbp]
	cmp	QWORD PTR _Block_size$[rbp], rax
	ja	SHORT $LN2@Allocate_m

; 97   : 		{	// add overflow, try allocating all of memory and assume the
; 98   : 			// allocation function will throw bad_alloc
; 99   : 		_Block_size = static_cast<size_t>(-1);

	mov	QWORD PTR _Block_size$[rbp], -1
$LN2@Allocate_m:

; 100  : 		}
; 101  : 
; 102  : 	const uintptr_t _Ptr_container = reinterpret_cast<uintptr_t>(_Traits::_Allocate(_Block_size));

	mov	rcx, QWORD PTR _Block_size$[rbp]
	call	?_Allocate@_Default_allocate_traits@std@@SAPEAX_K@Z ; std::_Default_allocate_traits::_Allocate
	mov	QWORD PTR _Ptr_container$[rbp], rax

; 103  : 	_SCL_SECURE_ALWAYS_VALIDATE(_Ptr_container != 0);	// validate even in release since we're doing p[-1]

	cmp	QWORD PTR _Ptr_container$[rbp], 0
	jne	SHORT $LN3@Allocate_m
	lea	rax, OFFSET FLAT:??_C@_0BE@LMNLACIC@_Ptr_container?5?$CB?$DN?50?$AA@
	test	rax, rax
	je	SHORT $LN5@Allocate_m
	xor	eax, eax
	test	eax, eax
	jne	SHORT $LN6@Allocate_m
$LN5@Allocate_m:
	lea	rax, OFFSET FLAT:??_C@_1DG@HGDKEBPG@?$AA?$CC?$AA_?$AAP?$AAt?$AAr?$AA_?$AAc?$AAo?$AAn?$AAt?$AAa?$AAi?$AAn?$AAe?$AAr?$AA?5?$AA?$CB?$AA?$DN?$AA?5?$AA0?$AA?$CC?$AA?5?$AA?$CG?$AA?$CG?$AA?5?$AA0?$AA?$AA@
	mov	QWORD PTR [rsp+40], rax
	lea	rax, OFFSET FLAT:??_C@_17CNPHIMPH@?$AA?$CF?$AAl?$AAs?$AA?$AA@
	mov	QWORD PTR [rsp+32], rax
	xor	r9d, r9d
	mov	r8d, 103				; 00000067H
	lea	rdx, OFFSET FLAT:??_C@_1NE@FCGGJAHE@?$AAc?$AA?3?$AA?2?$AAp?$AAr?$AAo?$AAg?$AAr?$AAa?$AAm?$AA?5?$AAf?$AAi?$AAl?$AAe?$AAs?$AA?5?$AA?$CI?$AAx?$AA8?$AA6?$AA?$CJ?$AA?2?$AAm?$AAi?$AAc?$AAr?$AAo?$AAs?$AAo?$AAf?$AAt@
	mov	ecx, 2
	call	QWORD PTR __imp__CrtDbgReportW
	cmp	eax, 1
	jne	SHORT $LN6@Allocate_m
	int	3
	xor	eax, eax
$LN6@Allocate_m:
	mov	QWORD PTR [rsp+32], 0
	mov	r9d, 103				; 00000067H
	lea	r8, OFFSET FLAT:??_C@_1NE@FCGGJAHE@?$AAc?$AA?3?$AA?2?$AAp?$AAr?$AAo?$AAg?$AAr?$AAa?$AAm?$AA?5?$AAf?$AAi?$AAl?$AAe?$AAs?$AA?5?$AA?$CI?$AAx?$AA8?$AA6?$AA?$CJ?$AA?2?$AAm?$AAi?$AAc?$AAr?$AAo?$AAs?$AAo?$AAf?$AAt@
	lea	rdx, OFFSET FLAT:??_C@_1EO@GFNCMDLA@?$AAs?$AAt?$AAd?$AA?3?$AA?3?$AA_?$AAA?$AAl?$AAl?$AAo?$AAc?$AAa?$AAt?$AAe?$AA_?$AAm?$AAa?$AAn?$AAu?$AAa?$AAl?$AAl?$AAy?$AA_?$AAv?$AAe?$AAc?$AAt?$AAo?$AAr?$AA_?$AAa@
	lea	rcx, OFFSET FLAT:??_C@_1CG@JNLFBNGN@?$AA?$CC?$AAi?$AAn?$AAv?$AAa?$AAl?$AAi?$AAd?$AA?5?$AAa?$AAr?$AAg?$AAu?$AAm?$AAe?$AAn?$AAt?$AA?$CC?$AA?$AA@
	call	QWORD PTR __imp__invalid_parameter
$LN3@Allocate_m:

; 104  : 	void * const _Ptr = reinterpret_cast<void *>((_Ptr_container + _Non_user_size)
; 105  : 		& ~(_Big_allocation_alignment - 1));

	mov	rax, QWORD PTR _Ptr_container$[rbp]
	add	rax, 47					; 0000002fH
	and	rax, -32				; ffffffffffffffe0H
	mov	QWORD PTR _Ptr$[rbp], rax

; 106  : 	static_cast<uintptr_t *>(_Ptr)[-1] = _Ptr_container;

	mov	eax, 8
	imul	rax, rax, -1
	mov	rcx, QWORD PTR _Ptr$[rbp]
	mov	rdx, QWORD PTR _Ptr_container$[rbp]
	mov	QWORD PTR [rcx+rax], rdx

; 107  : 
; 108  :   #ifdef _DEBUG
; 109  : 	static_cast<uintptr_t *>(_Ptr)[-2] = _Big_allocation_sentinel;

	mov	eax, 8
	imul	rax, rax, -2
	mov	rcx, QWORD PTR _Ptr$[rbp]
	mov	rdx, -361700864190383366		; fafafafafafafafaH
	mov	QWORD PTR [rcx+rax], rdx

; 110  :   #endif /* _DEBUG */
; 111  : 	return (_Ptr);

	mov	rax, QWORD PTR _Ptr$[rbp]

; 112  : 	}

	lea	rsp, QWORD PTR [rbp+96]
	pop	rbp
	ret	0
??$_Allocate_manually_vector_aligned@U_Default_allocate_traits@std@@@std@@YAPEAX_K@Z ENDP ; std::_Allocate_manually_vector_aligned<std::_Default_allocate_traits>
_TEXT	ENDS
; Function compile flags: /Odtp /RTCu /ZI
; File c:\program files (x86)\microsoft visual studio\2017\enterprise\vc\tools\msvc\14.14.26428\include\type_traits
;	COMDAT ??$forward@AEBQEAD@std@@YAAEBQEADAEBQEAD@Z
_TEXT	SEGMENT
_Arg$ = 80
??$forward@AEBQEAD@std@@YAAEBQEADAEBQEAD@Z PROC		; std::forward<char * const &>, COMDAT

; 1540 : 	{	// forward an lvalue as either an lvalue or an rvalue

$LN3:
	mov	QWORD PTR [rsp+8], rcx
	push	rbp
	sub	rsp, 64					; 00000040H
	mov	rbp, rsp

; 1541 : 	return (static_cast<_Ty&&>(_Arg));

	mov	rax, QWORD PTR _Arg$[rbp]

; 1542 : 	}

	lea	rsp, QWORD PTR [rbp+64]
	pop	rbp
	ret	0
??$forward@AEBQEAD@std@@YAAEBQEADAEBQEAD@Z ENDP		; std::forward<char * const &>
_TEXT	ENDS
; Function compile flags: /Odtp /RTCu /ZI
; File l:\dev\featherfallengine\depends\install\include\glm\gtc\matrix_transform.inl
;	COMDAT ??$orthoRH@M@glm@@YA?AU?$tmat4x4@M$0A@@0@MMMMMM@Z
_TEXT	SEGMENT
Result$ = 0
$T1 = 128
tv154 = 132
tv143 = 132
tv135 = 132
tv92 = 132
tv81 = 132
tv73 = 132
__$ArrayPad$ = 136
__$ReturnUdt$ = 176
left$ = 184
right$ = 192
bottom$ = 200
top$ = 208
zNear$ = 216
zFar$ = 224
??$orthoRH@M@glm@@YA?AU?$tmat4x4@M$0A@@0@MMMMMM@Z PROC	; glm::orthoRH<float>, COMDAT

; 146  : 	{

$LN3:
	movss	DWORD PTR [rsp+32], xmm3
	movss	DWORD PTR [rsp+24], xmm2
	movss	DWORD PTR [rsp+16], xmm1
	mov	QWORD PTR [rsp+8], rcx
	push	rbp
	push	rsi
	push	rdi
	sub	rsp, 176				; 000000b0H
	lea	rbp, QWORD PTR [rsp+32]
	mov	rax, QWORD PTR __security_cookie
	xor	rax, rbp
	mov	QWORD PTR __$ArrayPad$[rbp], rax

; 147  : 		tmat4x4<T, defaultp> Result(1);

	movss	xmm0, DWORD PTR __real@3f800000
	movss	DWORD PTR $T1[rbp], xmm0
	lea	rdx, QWORD PTR $T1[rbp]
	lea	rcx, QWORD PTR Result$[rbp]
	call	??0?$tmat4x4@M$0A@@glm@@QEAA@AEBM@Z	; glm::tmat4x4<float,0>::tmat4x4<float,0>

; 148  : 		Result[0][0] = static_cast<T>(2) / (right - left);

	movss	xmm0, DWORD PTR right$[rbp]
	subss	xmm0, DWORD PTR left$[rbp]
	movss	xmm1, DWORD PTR __real@40000000
	divss	xmm1, xmm0
	movaps	xmm0, xmm1
	movss	DWORD PTR tv73[rbp], xmm0
	xor	edx, edx
	lea	rcx, QWORD PTR Result$[rbp]
	call	??A?$tmat4x4@M$0A@@glm@@QEAAAEAU?$tvec4@M$0A@@1@H@Z ; glm::tmat4x4<float,0>::operator[]
	xor	edx, edx
	mov	rcx, rax
	call	??A?$tvec4@M$0A@@glm@@QEAAAEAMH@Z	; glm::tvec4<float,0>::operator[]
	movss	xmm0, DWORD PTR tv73[rbp]
	movss	DWORD PTR [rax], xmm0

; 149  : 		Result[1][1] = static_cast<T>(2) / (top - bottom);

	movss	xmm0, DWORD PTR top$[rbp]
	subss	xmm0, DWORD PTR bottom$[rbp]
	movss	xmm1, DWORD PTR __real@40000000
	divss	xmm1, xmm0
	movaps	xmm0, xmm1
	movss	DWORD PTR tv81[rbp], xmm0
	mov	edx, 1
	lea	rcx, QWORD PTR Result$[rbp]
	call	??A?$tmat4x4@M$0A@@glm@@QEAAAEAU?$tvec4@M$0A@@1@H@Z ; glm::tmat4x4<float,0>::operator[]
	mov	edx, 1
	mov	rcx, rax
	call	??A?$tvec4@M$0A@@glm@@QEAAAEAMH@Z	; glm::tvec4<float,0>::operator[]
	movss	xmm0, DWORD PTR tv81[rbp]
	movss	DWORD PTR [rax], xmm0

; 150  : 		Result[3][0] = - (right + left) / (right - left);

	movss	xmm0, DWORD PTR right$[rbp]
	addss	xmm0, DWORD PTR left$[rbp]
	xorps	xmm0, DWORD PTR __xmm@80000000800000008000000080000000
	movss	xmm1, DWORD PTR right$[rbp]
	subss	xmm1, DWORD PTR left$[rbp]
	divss	xmm0, xmm1
	movss	DWORD PTR tv92[rbp], xmm0
	mov	edx, 3
	lea	rcx, QWORD PTR Result$[rbp]
	call	??A?$tmat4x4@M$0A@@glm@@QEAAAEAU?$tvec4@M$0A@@1@H@Z ; glm::tmat4x4<float,0>::operator[]
	xor	edx, edx
	mov	rcx, rax
	call	??A?$tvec4@M$0A@@glm@@QEAAAEAMH@Z	; glm::tvec4<float,0>::operator[]
	movss	xmm0, DWORD PTR tv92[rbp]
	movss	DWORD PTR [rax], xmm0

; 151  : 		Result[3][1] = - (top + bottom) / (top - bottom);

	movss	xmm0, DWORD PTR top$[rbp]
	addss	xmm0, DWORD PTR bottom$[rbp]
	xorps	xmm0, DWORD PTR __xmm@80000000800000008000000080000000
	movss	xmm1, DWORD PTR top$[rbp]
	subss	xmm1, DWORD PTR bottom$[rbp]
	divss	xmm0, xmm1
	movss	DWORD PTR tv135[rbp], xmm0
	mov	edx, 3
	lea	rcx, QWORD PTR Result$[rbp]
	call	??A?$tmat4x4@M$0A@@glm@@QEAAAEAU?$tvec4@M$0A@@1@H@Z ; glm::tmat4x4<float,0>::operator[]
	mov	edx, 1
	mov	rcx, rax
	call	??A?$tvec4@M$0A@@glm@@QEAAAEAMH@Z	; glm::tvec4<float,0>::operator[]
	movss	xmm0, DWORD PTR tv135[rbp]
	movss	DWORD PTR [rax], xmm0

; 152  : 
; 153  : #		if GLM_DEPTH_CLIP_SPACE == GLM_DEPTH_ZERO_TO_ONE
; 154  : 			Result[2][2] = - static_cast<T>(1) / (zFar - zNear);
; 155  : 			Result[3][2] = - zNear / (zFar - zNear);
; 156  : #		else
; 157  : 			Result[2][2] = - static_cast<T>(2) / (zFar - zNear);

	movss	xmm0, DWORD PTR zFar$[rbp]
	subss	xmm0, DWORD PTR zNear$[rbp]
	movss	xmm1, DWORD PTR __real@c0000000
	divss	xmm1, xmm0
	movaps	xmm0, xmm1
	movss	DWORD PTR tv143[rbp], xmm0
	mov	edx, 2
	lea	rcx, QWORD PTR Result$[rbp]
	call	??A?$tmat4x4@M$0A@@glm@@QEAAAEAU?$tvec4@M$0A@@1@H@Z ; glm::tmat4x4<float,0>::operator[]
	mov	edx, 2
	mov	rcx, rax
	call	??A?$tvec4@M$0A@@glm@@QEAAAEAMH@Z	; glm::tvec4<float,0>::operator[]
	movss	xmm0, DWORD PTR tv143[rbp]
	movss	DWORD PTR [rax], xmm0

; 158  : 			Result[3][2] = - (zFar + zNear) / (zFar - zNear);

	movss	xmm0, DWORD PTR zFar$[rbp]
	addss	xmm0, DWORD PTR zNear$[rbp]
	xorps	xmm0, DWORD PTR __xmm@80000000800000008000000080000000
	movss	xmm1, DWORD PTR zFar$[rbp]
	subss	xmm1, DWORD PTR zNear$[rbp]
	divss	xmm0, xmm1
	movss	DWORD PTR tv154[rbp], xmm0
	mov	edx, 3
	lea	rcx, QWORD PTR Result$[rbp]
	call	??A?$tmat4x4@M$0A@@glm@@QEAAAEAU?$tvec4@M$0A@@1@H@Z ; glm::tmat4x4<float,0>::operator[]
	mov	edx, 2
	mov	rcx, rax
	call	??A?$tvec4@M$0A@@glm@@QEAAAEAMH@Z	; glm::tvec4<float,0>::operator[]
	movss	xmm0, DWORD PTR tv154[rbp]
	movss	DWORD PTR [rax], xmm0

; 159  : #		endif
; 160  : 
; 161  : 		return Result;

	lea	rax, QWORD PTR Result$[rbp]
	mov	rdi, QWORD PTR __$ReturnUdt$[rbp]
	mov	rsi, rax
	mov	ecx, 64					; 00000040H
	rep movsb
	mov	rax, QWORD PTR __$ReturnUdt$[rbp]

; 162  : 	}

	mov	rcx, QWORD PTR __$ArrayPad$[rbp]
	xor	rcx, rbp
	call	__security_check_cookie
	lea	rsp, QWORD PTR [rbp+144]
	pop	rdi
	pop	rsi
	pop	rbp
	ret	0
??$orthoRH@M@glm@@YA?AU?$tmat4x4@M$0A@@0@MMMMMM@Z ENDP	; glm::orthoRH<float>
_TEXT	ENDS
; Function compile flags: /Odtp /RTCu /ZI
; File l:\dev\featherfallengine\depends\install\include\glm\detail\type_vec4.inl
;	COMDAT ??$?0HHHM@?$tvec4@M$0A@@glm@@QEAA@HHHM@Z
_TEXT	SEGMENT
this$ = 80
a$ = 88
b$ = 96
c$ = 104
d$ = 112
??$?0HHHM@?$tvec4@M$0A@@glm@@QEAA@HHHM@Z PROC		; glm::tvec4<float,0>::tvec4<float,0><int,int,int,float>, COMDAT

; 204  : 	{}

$LN3:
	mov	DWORD PTR [rsp+32], r9d
	mov	DWORD PTR [rsp+24], r8d
	mov	DWORD PTR [rsp+16], edx
	mov	QWORD PTR [rsp+8], rcx
	push	rbp
	sub	rsp, 64					; 00000040H
	mov	rbp, rsp

; 200  : 		x(static_cast<T>(a)),

	cvtsi2ss xmm0, DWORD PTR a$[rbp]
	mov	rax, QWORD PTR this$[rbp]
	movss	DWORD PTR [rax], xmm0

; 201  : 		y(static_cast<T>(b)),

	cvtsi2ss xmm0, DWORD PTR b$[rbp]
	mov	rax, QWORD PTR this$[rbp]
	movss	DWORD PTR [rax+4], xmm0

; 202  : 		z(static_cast<T>(c)),

	cvtsi2ss xmm0, DWORD PTR c$[rbp]
	mov	rax, QWORD PTR this$[rbp]
	movss	DWORD PTR [rax+8], xmm0

; 203  : 		w(static_cast<T>(d))

	mov	rax, QWORD PTR this$[rbp]
	movss	xmm0, DWORD PTR d$[rbp]
	movss	DWORD PTR [rax+12], xmm0

; 204  : 	{}

	mov	rax, QWORD PTR this$[rbp]
	lea	rsp, QWORD PTR [rbp+64]
	pop	rbp
	ret	0
??$?0HHHM@?$tvec4@M$0A@@glm@@QEAA@HHHM@Z ENDP		; glm::tvec4<float,0>::tvec4<float,0><int,int,int,float>
_TEXT	ENDS
; Function compile flags: /Odtp /RTCu /ZI
; File l:\dev\featherfallengine\depends\install\include\glm\detail\type_vec4.inl
;	COMDAT ??$?0HHMH@?$tvec4@M$0A@@glm@@QEAA@HHMH@Z
_TEXT	SEGMENT
this$ = 80
a$ = 88
b$ = 96
c$ = 104
d$ = 112
??$?0HHMH@?$tvec4@M$0A@@glm@@QEAA@HHMH@Z PROC		; glm::tvec4<float,0>::tvec4<float,0><int,int,float,int>, COMDAT

; 204  : 	{}

$LN3:
	movss	DWORD PTR [rsp+32], xmm3
	mov	DWORD PTR [rsp+24], r8d
	mov	DWORD PTR [rsp+16], edx
	mov	QWORD PTR [rsp+8], rcx
	push	rbp
	sub	rsp, 64					; 00000040H
	mov	rbp, rsp

; 200  : 		x(static_cast<T>(a)),

	cvtsi2ss xmm0, DWORD PTR a$[rbp]
	mov	rax, QWORD PTR this$[rbp]
	movss	DWORD PTR [rax], xmm0

; 201  : 		y(static_cast<T>(b)),

	cvtsi2ss xmm0, DWORD PTR b$[rbp]
	mov	rax, QWORD PTR this$[rbp]
	movss	DWORD PTR [rax+4], xmm0

; 202  : 		z(static_cast<T>(c)),

	mov	rax, QWORD PTR this$[rbp]
	movss	xmm0, DWORD PTR c$[rbp]
	movss	DWORD PTR [rax+8], xmm0

; 203  : 		w(static_cast<T>(d))

	cvtsi2ss xmm0, DWORD PTR d$[rbp]
	mov	rax, QWORD PTR this$[rbp]
	movss	DWORD PTR [rax+12], xmm0

; 204  : 	{}

	mov	rax, QWORD PTR this$[rbp]
	lea	rsp, QWORD PTR [rbp+64]
	pop	rbp
	ret	0
??$?0HHMH@?$tvec4@M$0A@@glm@@QEAA@HHMH@Z ENDP		; glm::tvec4<float,0>::tvec4<float,0><int,int,float,int>
_TEXT	ENDS
; Function compile flags: /Odtp /RTCu /ZI
; File l:\dev\featherfallengine\depends\install\include\glm\detail\type_vec4.inl
;	COMDAT ??$?0HMHH@?$tvec4@M$0A@@glm@@QEAA@HMHH@Z
_TEXT	SEGMENT
this$ = 80
a$ = 88
b$ = 96
c$ = 104
d$ = 112
??$?0HMHH@?$tvec4@M$0A@@glm@@QEAA@HMHH@Z PROC		; glm::tvec4<float,0>::tvec4<float,0><int,float,int,int>, COMDAT

; 204  : 	{}

$LN3:
	mov	DWORD PTR [rsp+32], r9d
	movss	DWORD PTR [rsp+24], xmm2
	mov	DWORD PTR [rsp+16], edx
	mov	QWORD PTR [rsp+8], rcx
	push	rbp
	sub	rsp, 64					; 00000040H
	mov	rbp, rsp

; 200  : 		x(static_cast<T>(a)),

	cvtsi2ss xmm0, DWORD PTR a$[rbp]
	mov	rax, QWORD PTR this$[rbp]
	movss	DWORD PTR [rax], xmm0

; 201  : 		y(static_cast<T>(b)),

	mov	rax, QWORD PTR this$[rbp]
	movss	xmm0, DWORD PTR b$[rbp]
	movss	DWORD PTR [rax+4], xmm0

; 202  : 		z(static_cast<T>(c)),

	cvtsi2ss xmm0, DWORD PTR c$[rbp]
	mov	rax, QWORD PTR this$[rbp]
	movss	DWORD PTR [rax+8], xmm0

; 203  : 		w(static_cast<T>(d))

	cvtsi2ss xmm0, DWORD PTR d$[rbp]
	mov	rax, QWORD PTR this$[rbp]
	movss	DWORD PTR [rax+12], xmm0

; 204  : 	{}

	mov	rax, QWORD PTR this$[rbp]
	lea	rsp, QWORD PTR [rbp+64]
	pop	rbp
	ret	0
??$?0HMHH@?$tvec4@M$0A@@glm@@QEAA@HMHH@Z ENDP		; glm::tvec4<float,0>::tvec4<float,0><int,float,int,int>
_TEXT	ENDS
; Function compile flags: /Odtp /RTCu /ZI
; File l:\dev\featherfallengine\depends\install\include\glm\detail\type_vec4.inl
;	COMDAT ??$?0MHHH@?$tvec4@M$0A@@glm@@QEAA@MHHH@Z
_TEXT	SEGMENT
this$ = 80
a$ = 88
b$ = 96
c$ = 104
d$ = 112
??$?0MHHH@?$tvec4@M$0A@@glm@@QEAA@MHHH@Z PROC		; glm::tvec4<float,0>::tvec4<float,0><float,int,int,int>, COMDAT

; 204  : 	{}

$LN3:
	mov	DWORD PTR [rsp+32], r9d
	mov	DWORD PTR [rsp+24], r8d
	movss	DWORD PTR [rsp+16], xmm1
	mov	QWORD PTR [rsp+8], rcx
	push	rbp
	sub	rsp, 64					; 00000040H
	mov	rbp, rsp

; 200  : 		x(static_cast<T>(a)),

	mov	rax, QWORD PTR this$[rbp]
	movss	xmm0, DWORD PTR a$[rbp]
	movss	DWORD PTR [rax], xmm0

; 201  : 		y(static_cast<T>(b)),

	cvtsi2ss xmm0, DWORD PTR b$[rbp]
	mov	rax, QWORD PTR this$[rbp]
	movss	DWORD PTR [rax+4], xmm0

; 202  : 		z(static_cast<T>(c)),

	cvtsi2ss xmm0, DWORD PTR c$[rbp]
	mov	rax, QWORD PTR this$[rbp]
	movss	DWORD PTR [rax+8], xmm0

; 203  : 		w(static_cast<T>(d))

	cvtsi2ss xmm0, DWORD PTR d$[rbp]
	mov	rax, QWORD PTR this$[rbp]
	movss	DWORD PTR [rax+12], xmm0

; 204  : 	{}

	mov	rax, QWORD PTR this$[rbp]
	lea	rsp, QWORD PTR [rbp+64]
	pop	rbp
	ret	0
??$?0MHHH@?$tvec4@M$0A@@glm@@QEAA@MHHH@Z ENDP		; glm::tvec4<float,0>::tvec4<float,0><float,int,int,int>
_TEXT	ENDS
; Function compile flags: /Odtp /RTCu /ZI
; File c:\program files (x86)\microsoft visual studio\2017\enterprise\vc\tools\msvc\14.14.26428\include\xmemory0
;	COMDAT ??$_Get_size_of_n@$0BA@@std@@YA_K_K@Z
_TEXT	SEGMENT
_Max_possible$ = 0
_Result$ = 8
_Count$ = 96
??$_Get_size_of_n@$0BA@@std@@YA_K_K@Z PROC		; std::_Get_size_of_n<16>, COMDAT

; 23   : 	{	// gets the size of _Count copies of a type sized _Ty_size

$LN4:
	mov	QWORD PTR [rsp+8], rcx
	push	rbp
	sub	rsp, 80					; 00000050H
	mov	rbp, rsp

; 24   : 	constexpr size_t _Max_possible = static_cast<size_t>(-1) / _Ty_size;

	mov	rax, 1152921504606846975		; 0fffffffffffffffH
	mov	QWORD PTR _Max_possible$[rbp], rax

; 25   : 	size_t _Result = _Count * _Ty_size;

	imul	rax, QWORD PTR _Count$[rbp], 16
	mov	QWORD PTR _Result$[rbp], rax

; 26   : 	if (_Max_possible < _Count)

	mov	rax, 1152921504606846975		; 0fffffffffffffffH
	cmp	QWORD PTR _Count$[rbp], rax
	jbe	SHORT $LN2@Get_size_o

; 27   : 		{	// multiply overflow, try allocating all of memory and assume the
; 28   : 			// allocation function will throw bad_alloc
; 29   : 		_Result = static_cast<size_t>(-1);

	mov	QWORD PTR _Result$[rbp], -1
$LN2@Get_size_o:

; 30   : 		}
; 31   : 
; 32   : 	return (_Result);

	mov	rax, QWORD PTR _Result$[rbp]

; 33   : 	}

	lea	rsp, QWORD PTR [rbp+80]
	pop	rbp
	ret	0
??$_Get_size_of_n@$0BA@@std@@YA_K_K@Z ENDP		; std::_Get_size_of_n<16>
_TEXT	ENDS
; Function compile flags: /Odtp /RTCu /ZI
; File c:\program files (x86)\microsoft visual studio\2017\enterprise\vc\tools\msvc\14.14.26428\include\xmemory0
;	COMDAT ??$?0D@?$allocator@U_Container_proxy@std@@@std@@QEAA@AEBV?$allocator@D@1@@Z
_TEXT	SEGMENT
this$ = 80
__formal$ = 88
??$?0D@?$allocator@U_Container_proxy@std@@@std@@QEAA@AEBV?$allocator@D@1@@Z PROC ; std::allocator<std::_Container_proxy>::allocator<std::_Container_proxy><char>, COMDAT

; 1025 : 		{	// construct from a related allocator (do nothing)

$LN3:
	mov	QWORD PTR [rsp+16], rdx
	mov	QWORD PTR [rsp+8], rcx
	push	rbp
	sub	rsp, 64					; 00000040H
	mov	rbp, rsp

; 1026 : 		}

	mov	rax, QWORD PTR this$[rbp]
	lea	rsp, QWORD PTR [rbp+64]
	pop	rbp
	ret	0
??$?0D@?$allocator@U_Container_proxy@std@@@std@@QEAA@AEBV?$allocator@D@1@@Z ENDP ; std::allocator<std::_Container_proxy>::allocator<std::_Container_proxy><char>
_TEXT	ENDS
; Function compile flags: /Odtp /RTCu /ZI
; File c:\program files (x86)\microsoft visual studio\2017\enterprise\vc\tools\msvc\14.14.26428\include\xmemory0
;	COMDAT ??$construct@U_Container_proxy@std@@U12@@?$_Default_allocator_traits@V?$allocator@U_Container_proxy@std@@@std@@@std@@SAXAEAV?$allocator@U_Container_proxy@std@@@1@QEAU_Container_proxy@1@$$QEAU31@@Z
_TEXT	SEGMENT
$T1 = 64
__formal$ = 112
_Ptr$ = 120
<_Args_0>$ = 128
??$construct@U_Container_proxy@std@@U12@@?$_Default_allocator_traits@V?$allocator@U_Container_proxy@std@@@std@@@std@@SAXAEAV?$allocator@U_Container_proxy@std@@@1@QEAU_Container_proxy@1@$$QEAU31@@Z PROC ; std::_Default_allocator_traits<std::allocator<std::_Container_proxy> >::construct<std::_Container_proxy,std::_Container_proxy>, COMDAT

; 918  : 		{	// construct _Objty(_Types...) at _Ptr

$LN3:
	mov	QWORD PTR [rsp+24], r8
	mov	QWORD PTR [rsp+16], rdx
	mov	QWORD PTR [rsp+8], rcx
	push	rbp
	push	rsi
	push	rdi
	sub	rsp, 112				; 00000070H
	lea	rbp, QWORD PTR [rsp+32]
	mov	rdx, QWORD PTR _Ptr$[rbp]
	mov	ecx, 16
	call	??2@YAPEAX_KPEAX@Z			; operator new
	mov	QWORD PTR $T1[rbp], rax
	mov	rcx, QWORD PTR <_Args_0>$[rbp]
	call	??$forward@U_Container_proxy@std@@@std@@YA$$QEAU_Container_proxy@0@AEAU10@@Z ; std::forward<std::_Container_proxy>
	mov	rdi, QWORD PTR $T1[rbp]
	mov	rsi, rax
	mov	ecx, 16
	rep movsb

; 919  : 		::new (const_cast<void *>(static_cast<const volatile void *>(_Ptr)))
; 920  : 			_Objty(_STD forward<_Types>(_Args)...);
; 921  : 		}

	lea	rsp, QWORD PTR [rbp+80]
	pop	rdi
	pop	rsi
	pop	rbp
	ret	0
??$construct@U_Container_proxy@std@@U12@@?$_Default_allocator_traits@V?$allocator@U_Container_proxy@std@@@std@@@std@@SAXAEAV?$allocator@U_Container_proxy@std@@@1@QEAU_Container_proxy@1@$$QEAU31@@Z ENDP ; std::_Default_allocator_traits<std::allocator<std::_Container_proxy> >::construct<std::_Container_proxy,std::_Container_proxy>
_TEXT	ENDS
; Function compile flags: /Odtp /RTCu /ZI
; File c:\program files (x86)\microsoft visual studio\2017\enterprise\vc\tools\msvc\14.14.26428\include\xstddef
;	COMDAT ??$_Unfancy@U_Container_proxy@std@@@std@@YAPEAU_Container_proxy@0@PEAU10@@Z
_TEXT	SEGMENT
_Ptr$ = 80
??$_Unfancy@U_Container_proxy@std@@@std@@YAPEAU_Container_proxy@0@PEAU10@@Z PROC ; std::_Unfancy<std::_Container_proxy>, COMDAT

; 388  : 	{	// do nothing for plain pointers

$LN3:
	mov	QWORD PTR [rsp+8], rcx
	push	rbp
	sub	rsp, 64					; 00000040H
	mov	rbp, rsp

; 389  : 	return (_Ptr);

	mov	rax, QWORD PTR _Ptr$[rbp]

; 390  : 	}

	lea	rsp, QWORD PTR [rbp+64]
	pop	rbp
	ret	0
??$_Unfancy@U_Container_proxy@std@@@std@@YAPEAU_Container_proxy@0@PEAU10@@Z ENDP ; std::_Unfancy<std::_Container_proxy>
_TEXT	ENDS
; Function compile flags: /Odtp /RTCu /ZI
; File c:\program files (x86)\microsoft visual studio\2017\enterprise\vc\tools\msvc\14.14.26428\include\xmemory0
;	COMDAT ??$_Deallocate_plain@V?$allocator@U_Container_proxy@std@@@std@@$0A@@std@@YAXAEAV?$allocator@U_Container_proxy@std@@@0@QEAU_Container_proxy@0@@Z
_TEXT	SEGMENT
_Al$ = 80
_Ptr$ = 88
??$_Deallocate_plain@V?$allocator@U_Container_proxy@std@@@std@@$0A@@std@@YAXAEAV?$allocator@U_Container_proxy@std@@@0@QEAU_Container_proxy@0@@Z PROC ; std::_Deallocate_plain<std::allocator<std::_Container_proxy>,0>, COMDAT

; 1306 : 	{	// deallocate a plain pointer using an allocator, non-fancy pointers special case

$LN3:
	mov	QWORD PTR [rsp+16], rdx
	mov	QWORD PTR [rsp+8], rcx
	push	rbp
	sub	rsp, 96					; 00000060H
	lea	rbp, QWORD PTR [rsp+32]

; 1307 : 	allocator_traits<_Alloc>::deallocate(_Al, _Ptr, 1);

	mov	r8d, 1
	mov	rdx, QWORD PTR _Ptr$[rbp]
	mov	rcx, QWORD PTR _Al$[rbp]
	call	?deallocate@?$_Default_allocator_traits@V?$allocator@U_Container_proxy@std@@@std@@@std@@SAXAEAV?$allocator@U_Container_proxy@std@@@2@QEAU_Container_proxy@2@_K@Z ; std::_Default_allocator_traits<std::allocator<std::_Container_proxy> >::deallocate

; 1308 : 	}

	lea	rsp, QWORD PTR [rbp+64]
	pop	rbp
	ret	0
??$_Deallocate_plain@V?$allocator@U_Container_proxy@std@@@std@@$0A@@std@@YAXAEAV?$allocator@U_Container_proxy@std@@@0@QEAU_Container_proxy@0@@Z ENDP ; std::_Deallocate_plain<std::allocator<std::_Container_proxy>,0>
_TEXT	ENDS
; Function compile flags: /Odtp /RTCu /ZI
; File c:\program files (x86)\microsoft visual studio\2017\enterprise\vc\tools\msvc\14.14.26428\include\xmemory0
;	COMDAT ??$destroy@U_Container_proxy@std@@@?$_Default_allocator_traits@V?$allocator@U_Container_proxy@std@@@std@@@std@@SAXAEAV?$allocator@U_Container_proxy@std@@@1@QEAU_Container_proxy@1@@Z
_TEXT	SEGMENT
__formal$ = 80
_Ptr$ = 88
??$destroy@U_Container_proxy@std@@@?$_Default_allocator_traits@V?$allocator@U_Container_proxy@std@@@std@@@std@@SAXAEAV?$allocator@U_Container_proxy@std@@@1@QEAU_Container_proxy@1@@Z PROC ; std::_Default_allocator_traits<std::allocator<std::_Container_proxy> >::destroy<std::_Container_proxy>, COMDAT

; 925  : 		{	// destroy object at _Ptr

$LN3:
	mov	QWORD PTR [rsp+16], rdx
	mov	QWORD PTR [rsp+8], rcx
	push	rbp
	sub	rsp, 64					; 00000040H
	mov	rbp, rsp

; 926  : 		_Ptr->~_Uty();
; 927  : 		}

	lea	rsp, QWORD PTR [rbp+64]
	pop	rbp
	ret	0
??$destroy@U_Container_proxy@std@@@?$_Default_allocator_traits@V?$allocator@U_Container_proxy@std@@@std@@@std@@SAXAEAV?$allocator@U_Container_proxy@std@@@1@QEAU_Container_proxy@1@@Z ENDP ; std::_Default_allocator_traits<std::allocator<std::_Container_proxy> >::destroy<std::_Container_proxy>
_TEXT	ENDS
; Function compile flags: /Odtp /RTCu /ZI
; File c:\program files (x86)\microsoft visual studio\2017\enterprise\vc\tools\msvc\14.14.26428\include\xmemory0
;	COMDAT ?deallocate@?$_Default_allocator_traits@V?$allocator@U_Container_proxy@std@@@std@@@std@@SAXAEAV?$allocator@U_Container_proxy@std@@@2@QEAU_Container_proxy@2@_K@Z
_TEXT	SEGMENT
__formal$ = 80
_Ptr$ = 88
_Count$ = 96
?deallocate@?$_Default_allocator_traits@V?$allocator@U_Container_proxy@std@@@std@@@std@@SAXAEAV?$allocator@U_Container_proxy@std@@@2@QEAU_Container_proxy@2@_K@Z PROC ; std::_Default_allocator_traits<std::allocator<std::_Container_proxy> >::deallocate, COMDAT

; 910  : 		{	// deallocate _Count elements at _Ptr

$LN3:
	mov	QWORD PTR [rsp+24], r8
	mov	QWORD PTR [rsp+16], rdx
	mov	QWORD PTR [rsp+8], rcx
	push	rbp
	sub	rsp, 96					; 00000060H
	lea	rbp, QWORD PTR [rsp+32]

; 911  : 		// no overflow check on the following multiply; we assume _Allocate did that check
; 912  : 		_Deallocate<_New_alignof<value_type>>(_Ptr, sizeof(value_type) * _Count);

	imul	rax, QWORD PTR _Count$[rbp], 16
	mov	rdx, rax
	mov	rcx, QWORD PTR _Ptr$[rbp]
	call	??$_Deallocate@$0BA@$0A@@std@@YAXPEAX_K@Z ; std::_Deallocate<16,0>

; 913  : 		}

	lea	rsp, QWORD PTR [rbp+64]
	pop	rbp
	ret	0
?deallocate@?$_Default_allocator_traits@V?$allocator@U_Container_proxy@std@@@std@@@std@@SAXAEAV?$allocator@U_Container_proxy@std@@@2@QEAU_Container_proxy@2@_K@Z ENDP ; std::_Default_allocator_traits<std::allocator<std::_Container_proxy> >::deallocate
_TEXT	ENDS
; Function compile flags: /Odtp /RTCu /ZI
; File c:\program files (x86)\microsoft visual studio\2017\enterprise\vc\tools\msvc\14.14.26428\include\xmemory0
;	COMDAT ?allocate@?$allocator@U_Container_proxy@std@@@std@@QEAAPEAU_Container_proxy@2@_K@Z
_TEXT	SEGMENT
this$ = 80
_Count$ = 88
?allocate@?$allocator@U_Container_proxy@std@@@std@@QEAAPEAU_Container_proxy@2@_K@Z PROC ; std::allocator<std::_Container_proxy>::allocate, COMDAT

; 1035 : 		{	// allocate array of _Count elements

$LN3:
	mov	QWORD PTR [rsp+16], rdx
	mov	QWORD PTR [rsp+8], rcx
	push	rbp
	sub	rsp, 96					; 00000060H
	lea	rbp, QWORD PTR [rsp+32]

; 1036 : 		return (static_cast<_Ty *>(_Allocate<_New_alignof<_Ty>>(_Get_size_of_n<sizeof(_Ty)>(_Count))));

	mov	rcx, QWORD PTR _Count$[rbp]
	call	??$_Get_size_of_n@$0BA@@std@@YA_K_K@Z	; std::_Get_size_of_n<16>
	mov	rcx, rax
	call	??$_Allocate@$0BA@U_Default_allocate_traits@std@@$0A@@std@@YAPEAX_K@Z ; std::_Allocate<16,std::_Default_allocate_traits,0>

; 1037 : 		}

	lea	rsp, QWORD PTR [rbp+64]
	pop	rbp
	ret	0
?allocate@?$allocator@U_Container_proxy@std@@@std@@QEAAPEAU_Container_proxy@2@_K@Z ENDP ; std::allocator<std::_Container_proxy>::allocate
_TEXT	ENDS
; Function compile flags: /Odtp /RTCu /ZI
; File c:\program files (x86)\microsoft visual studio\2017\enterprise\vc\tools\msvc\14.14.26428\include\xmemory0
;	COMDAT ??$_Deallocate@$0BA@$0A@@std@@YAXPEAX_K@Z
_TEXT	SEGMENT
_Ptr$ = 80
_Bytes$ = 88
??$_Deallocate@$0BA@$0A@@std@@YAXPEAX_K@Z PROC		; std::_Deallocate<16,0>, COMDAT

; 210  : 	{	// deallocate storage allocated by _Allocate when !_HAS_ALIGNED_NEW || _Align <= __STDCPP_DEFAULT_NEW_ALIGNMENT__

$LN4:
	mov	QWORD PTR [rsp+16], rdx
	mov	QWORD PTR [rsp+8], rcx
	push	rbp
	sub	rsp, 96					; 00000060H
	lea	rbp, QWORD PTR [rsp+32]

; 211  :  #if defined(_M_IX86) || defined(_M_X64)
; 212  : 	if (_Bytes >= _Big_allocation_threshold)

	cmp	QWORD PTR _Bytes$[rbp], 4096		; 00001000H
	jb	SHORT $LN2@Deallocate

; 213  : 		{	// boost the alignment of big allocations to help autovectorization
; 214  : 		_Adjust_manually_vector_aligned(_Ptr, _Bytes);

	lea	rdx, QWORD PTR _Bytes$[rbp]
	lea	rcx, QWORD PTR _Ptr$[rbp]
	call	?_Adjust_manually_vector_aligned@std@@YAXAEAPEAXAEA_K@Z ; std::_Adjust_manually_vector_aligned
$LN2@Deallocate:

; 215  : 		}
; 216  :  #endif /* defined(_M_IX86) || defined(_M_X64) */
; 217  : 
; 218  : 	::operator delete(_Ptr, _Bytes);

	mov	rdx, QWORD PTR _Bytes$[rbp]
	mov	rcx, QWORD PTR _Ptr$[rbp]
	call	??3@YAXPEAX_K@Z				; operator delete

; 219  : 	}

	lea	rsp, QWORD PTR [rbp+64]
	pop	rbp
	ret	0
??$_Deallocate@$0BA@$0A@@std@@YAXPEAX_K@Z ENDP		; std::_Deallocate<16,0>
_TEXT	ENDS
; Function compile flags: /Odtp /RTCu /ZI
; File c:\program files (x86)\microsoft visual studio\2017\enterprise\vc\tools\msvc\14.14.26428\include\xmemory0
;	COMDAT ??$_Allocate@$0BA@U_Default_allocate_traits@std@@$0A@@std@@YAPEAX_K@Z
_TEXT	SEGMENT
_Bytes$ = 80
??$_Allocate@$0BA@U_Default_allocate_traits@std@@$0A@@std@@YAPEAX_K@Z PROC ; std::_Allocate<16,std::_Default_allocate_traits,0>, COMDAT

; 191  : 	{	// allocate _Bytes when !_HAS_ALIGNED_NEW || _Align <= __STDCPP_DEFAULT_NEW_ALIGNMENT__

$LN5:
	mov	QWORD PTR [rsp+8], rcx
	push	rbp
	sub	rsp, 96					; 00000060H
	lea	rbp, QWORD PTR [rsp+32]

; 192  :  #if defined(_M_IX86) || defined(_M_X64)
; 193  : 	if (_Bytes >= _Big_allocation_threshold)

	cmp	QWORD PTR _Bytes$[rbp], 4096		; 00001000H
	jb	SHORT $LN2@Allocate

; 194  : 		{	// boost the alignment of big allocations to help autovectorization
; 195  : 		return (_Allocate_manually_vector_aligned<_Traits>(_Bytes));

	mov	rcx, QWORD PTR _Bytes$[rbp]
	call	??$_Allocate_manually_vector_aligned@U_Default_allocate_traits@std@@@std@@YAPEAX_K@Z ; std::_Allocate_manually_vector_aligned<std::_Default_allocate_traits>
	jmp	SHORT $LN1@Allocate
$LN2@Allocate:

; 196  : 		}
; 197  :  #endif /* defined(_M_IX86) || defined(_M_X64) */
; 198  : 
; 199  : 	if (_Bytes != 0)

	cmp	QWORD PTR _Bytes$[rbp], 0
	je	SHORT $LN3@Allocate

; 200  : 		{
; 201  : 		return (_Traits::_Allocate(_Bytes));

	mov	rcx, QWORD PTR _Bytes$[rbp]
	call	?_Allocate@_Default_allocate_traits@std@@SAPEAX_K@Z ; std::_Default_allocate_traits::_Allocate
	jmp	SHORT $LN1@Allocate
$LN3@Allocate:

; 202  : 		}
; 203  : 
; 204  : 	return (nullptr);

	xor	eax, eax
$LN1@Allocate:

; 205  : 	}

	lea	rsp, QWORD PTR [rbp+64]
	pop	rbp
	ret	0
??$_Allocate@$0BA@U_Default_allocate_traits@std@@$0A@@std@@YAPEAX_K@Z ENDP ; std::_Allocate<16,std::_Default_allocate_traits,0>
_TEXT	ENDS
; Function compile flags: /Odtp /RTCu /ZI
; File c:\program files (x86)\microsoft visual studio\2017\enterprise\vc\tools\msvc\14.14.26428\include\xstddef
;	COMDAT ??$addressof@V?$_String_val@U?$_Simple_types@D@std@@@std@@@std@@YAPEAV?$_String_val@U?$_Simple_types@D@std@@@0@AEAV10@@Z
_TEXT	SEGMENT
_Val$ = 80
??$addressof@V?$_String_val@U?$_Simple_types@D@std@@@std@@@std@@YAPEAV?$_String_val@U?$_Simple_types@D@std@@@0@AEAV10@@Z PROC ; std::addressof<std::_String_val<std::_Simple_types<char> > >, COMDAT

; 372  : 	{	// return address of _Val

$LN3:
	mov	QWORD PTR [rsp+8], rcx
	push	rbp
	sub	rsp, 64					; 00000040H
	mov	rbp, rsp

; 373  : 	return (__builtin_addressof(_Val));

	mov	rax, QWORD PTR _Val$[rbp]

; 374  : 	}

	lea	rsp, QWORD PTR [rbp+64]
	pop	rbp
	ret	0
??$addressof@V?$_String_val@U?$_Simple_types@D@std@@@std@@@std@@YAPEAV?$_String_val@U?$_Simple_types@D@std@@@0@AEAV10@@Z ENDP ; std::addressof<std::_String_val<std::_Simple_types<char> > >
_TEXT	ENDS
; Function compile flags: /Odtp /RTCu /ZI
; File c:\program files (x86)\microsoft visual studio\2017\enterprise\vc\tools\msvc\14.14.26428\include\xmemory0
;	COMDAT ??$construct@PEADAEBQEAD@?$_Default_allocator_traits@V?$allocator@D@std@@@std@@SAXAEAV?$allocator@D@1@QEAPEADAEBQEAD@Z
_TEXT	SEGMENT
$T1 = 64
__formal$ = 96
_Ptr$ = 104
<_Args_0>$ = 112
??$construct@PEADAEBQEAD@?$_Default_allocator_traits@V?$allocator@D@std@@@std@@SAXAEAV?$allocator@D@1@QEAPEADAEBQEAD@Z PROC ; std::_Default_allocator_traits<std::allocator<char> >::construct<char *,char * const &>, COMDAT

; 918  : 		{	// construct _Objty(_Types...) at _Ptr

$LN3:
	mov	QWORD PTR [rsp+24], r8
	mov	QWORD PTR [rsp+16], rdx
	mov	QWORD PTR [rsp+8], rcx
	push	rbp
	sub	rsp, 112				; 00000070H
	lea	rbp, QWORD PTR [rsp+32]
	mov	rdx, QWORD PTR _Ptr$[rbp]
	mov	ecx, 8
	call	??2@YAPEAX_KPEAX@Z			; operator new
	mov	QWORD PTR $T1[rbp], rax
	mov	rcx, QWORD PTR <_Args_0>$[rbp]
	call	??$forward@AEBQEAD@std@@YAAEBQEADAEBQEAD@Z ; std::forward<char * const &>
	mov	rcx, QWORD PTR $T1[rbp]
	mov	rax, QWORD PTR [rax]
	mov	QWORD PTR [rcx], rax

; 919  : 		::new (const_cast<void *>(static_cast<const volatile void *>(_Ptr)))
; 920  : 			_Objty(_STD forward<_Types>(_Args)...);
; 921  : 		}

	lea	rsp, QWORD PTR [rbp+80]
	pop	rbp
	ret	0
??$construct@PEADAEBQEAD@?$_Default_allocator_traits@V?$allocator@D@std@@@std@@SAXAEAV?$allocator@D@1@QEAPEADAEBQEAD@Z ENDP ; std::_Default_allocator_traits<std::allocator<char> >::construct<char *,char * const &>
_TEXT	ENDS
; Function compile flags: /Odtp /RTCu /ZI
; File c:\program files (x86)\microsoft visual studio\2017\enterprise\vc\tools\msvc\14.14.26428\include\xstring
;	COMDAT ??$_Reallocate_for@V<lambda_66f57f934f28d61049862f64df852ff0>@@PEBD@?$basic_string@DU?$char_traits@D@std@@V?$allocator@D@2@@std@@QEAAAEAV01@_KV<lambda_66f57f934f28d61049862f64df852ff0>@@PEBD@Z
_TEXT	SEGMENT
_My_data$ = 0
_Old_capacity$ = 8
_New_capacity$ = 16
_Al$ = 24
_New_ptr$ = 32
__$ArrayPad$ = 104
this$ = 128
_New_size$ = 136
_Fn$ = 144
<_Args_0>$ = 152
??$_Reallocate_for@V<lambda_66f57f934f28d61049862f64df852ff0>@@PEBD@?$basic_string@DU?$char_traits@D@std@@V?$allocator@D@2@@std@@QEAAAEAV01@_KV<lambda_66f57f934f28d61049862f64df852ff0>@@PEBD@Z PROC ; std::basic_string<char,std::char_traits<char>,std::allocator<char> >::_Reallocate_for<<lambda_66f57f934f28d61049862f64df852ff0>,char const *>, COMDAT

; 3861 : 		{	// reallocate to store exactly _New_size elements, new buffer prepared by

	mov	QWORD PTR [rsp+32], r9
	mov	BYTE PTR [rsp+24], r8b
	mov	QWORD PTR [rsp+16], rdx
	mov	QWORD PTR [rsp+8], rcx
	push	rbp
	sub	rsp, 144				; 00000090H
	lea	rbp, QWORD PTR [rsp+32]
	mov	rax, QWORD PTR __security_cookie
	xor	rax, rbp
	mov	QWORD PTR __$ArrayPad$[rbp], rax

; 3862 : 			// _Fn(_New_ptr, _New_size, _Args...)
; 3863 : 		if (_New_size > max_size())

	mov	rcx, QWORD PTR this$[rbp]
	call	?max_size@?$basic_string@DU?$char_traits@D@std@@V?$allocator@D@2@@std@@QEBA_KXZ ; std::basic_string<char,std::char_traits<char>,std::allocator<char> >::max_size
	cmp	QWORD PTR _New_size$[rbp], rax
	jbe	SHORT $LN2@Reallocate

; 3864 : 			{
; 3865 : 			_Xlen();	// result too long

	call	?_Xlen@?$basic_string@DU?$char_traits@D@std@@V?$allocator@D@2@@std@@SAXXZ ; std::basic_string<char,std::char_traits<char>,std::allocator<char> >::_Xlen
$LN2@Reallocate:

; 3866 : 			}
; 3867 : 
; 3868 : 		auto& _My_data = this->_Get_data();

	mov	rcx, QWORD PTR this$[rbp]
	call	?_Get_data@?$_String_alloc@U?$_String_base_types@DV?$allocator@D@std@@@std@@@std@@QEAAAEAV?$_String_val@U?$_Simple_types@D@std@@@2@XZ ; std::_String_alloc<std::_String_base_types<char,std::allocator<char> > >::_Get_data
	mov	QWORD PTR _My_data$[rbp], rax

; 3869 : 		const size_type _Old_capacity = _My_data._Myres;

	mov	rax, QWORD PTR _My_data$[rbp]
	mov	rax, QWORD PTR [rax+32]
	mov	QWORD PTR _Old_capacity$[rbp], rax

; 3870 : 		const size_type _New_capacity = _Calculate_growth(_New_size);

	mov	rdx, QWORD PTR _New_size$[rbp]
	mov	rcx, QWORD PTR this$[rbp]
	call	?_Calculate_growth@?$basic_string@DU?$char_traits@D@std@@V?$allocator@D@2@@std@@QEBA_K_K@Z ; std::basic_string<char,std::char_traits<char>,std::allocator<char> >::_Calculate_growth
	mov	QWORD PTR _New_capacity$[rbp], rax

; 3871 : 		auto& _Al = this->_Getal();

	mov	rcx, QWORD PTR this$[rbp]
	call	?_Getal@?$_String_alloc@U?$_String_base_types@DV?$allocator@D@std@@@std@@@std@@QEAAAEAV?$allocator@D@2@XZ ; std::_String_alloc<std::_String_base_types<char,std::allocator<char> > >::_Getal
	mov	QWORD PTR _Al$[rbp], rax

; 3872 : 		const pointer _New_ptr = _Al.allocate(_New_capacity + 1); // throws

	mov	rax, QWORD PTR _New_capacity$[rbp]
	add	rax, 1
	mov	rcx, -1
	cmovb	rax, rcx
	mov	rdx, rax
	mov	rcx, QWORD PTR _Al$[rbp]
	call	?allocate@?$allocator@D@std@@QEAAPEAD_K@Z ; std::allocator<char>::allocate
	mov	QWORD PTR _New_ptr$[rbp], rax

; 3873 : 		_My_data._Orphan_all();

	mov	rcx, QWORD PTR _My_data$[rbp]
	call	?_Orphan_all@_Container_base12@std@@QEAAXXZ ; std::_Container_base12::_Orphan_all

; 3874 : 		_My_data._Mysize = _New_size;

	mov	rax, QWORD PTR _My_data$[rbp]
	mov	rcx, QWORD PTR _New_size$[rbp]
	mov	QWORD PTR [rax+24], rcx

; 3875 : 		_My_data._Myres = _New_capacity;

	mov	rax, QWORD PTR _My_data$[rbp]
	mov	rcx, QWORD PTR _New_capacity$[rbp]
	mov	QWORD PTR [rax+32], rcx

; 3876 : 		_Fn(_Unfancy(_New_ptr), _New_size, _Args...);

	mov	rcx, QWORD PTR _New_ptr$[rbp]
	call	??$_Unfancy@D@std@@YAPEADPEAD@Z		; std::_Unfancy<char>
	mov	r9, QWORD PTR <_Args_0>$[rbp]
	mov	r8, QWORD PTR _New_size$[rbp]
	mov	rdx, rax
	lea	rcx, QWORD PTR _Fn$[rbp]
	call	??R<lambda_66f57f934f28d61049862f64df852ff0>@@QEBAXQEAD_KQEBD@Z ; <lambda_66f57f934f28d61049862f64df852ff0>::operator()

; 3877 : 		if (this->_BUF_SIZE <= _Old_capacity)

	cmp	QWORD PTR _Old_capacity$[rbp], 16
	jb	SHORT $LN3@Reallocate

; 3878 : 			{
; 3879 : 			_Al.deallocate(_My_data._Bx._Ptr, _Old_capacity + 1);

	mov	rax, QWORD PTR _Old_capacity$[rbp]
	inc	rax
	mov	r8, rax
	mov	rax, QWORD PTR _My_data$[rbp]
	mov	rdx, QWORD PTR [rax+8]
	mov	rcx, QWORD PTR _Al$[rbp]
	call	?deallocate@?$allocator@D@std@@QEAAXQEAD_K@Z ; std::allocator<char>::deallocate

; 3880 : 			_My_data._Bx._Ptr = _New_ptr;

	mov	rax, QWORD PTR _My_data$[rbp]
	mov	rcx, QWORD PTR _New_ptr$[rbp]
	mov	QWORD PTR [rax+8], rcx

; 3881 : 			}
; 3882 : 		else

	jmp	SHORT $LN4@Reallocate
$LN3@Reallocate:

; 3883 : 			{
; 3884 : 			_Alty_traits::construct(_Al, _STD addressof(_My_data._Bx._Ptr), _New_ptr);

	mov	rax, QWORD PTR _My_data$[rbp]
	add	rax, 8
	mov	rcx, rax
	call	??$addressof@PEAD@std@@YAPEAPEADAEAPEAD@Z ; std::addressof<char *>
	lea	r8, QWORD PTR _New_ptr$[rbp]
	mov	rdx, rax
	mov	rcx, QWORD PTR _Al$[rbp]
	call	??$construct@PEADAEBQEAD@?$_Default_allocator_traits@V?$allocator@D@std@@@std@@SAXAEAV?$allocator@D@1@QEAPEADAEBQEAD@Z ; std::_Default_allocator_traits<std::allocator<char> >::construct<char *,char * const &>
$LN4@Reallocate:

; 3885 : 			}
; 3886 : 
; 3887 : 		return (*this);

	mov	rax, QWORD PTR this$[rbp]
$LN5@Reallocate:

; 3888 : 		}

	mov	rcx, QWORD PTR __$ArrayPad$[rbp]
	xor	rcx, rbp
	call	__security_check_cookie
	lea	rsp, QWORD PTR [rbp+112]
	pop	rbp
	ret	0
??$_Reallocate_for@V<lambda_66f57f934f28d61049862f64df852ff0>@@PEBD@?$basic_string@DU?$char_traits@D@std@@V?$allocator@D@2@@std@@QEAAAEAV01@_KV<lambda_66f57f934f28d61049862f64df852ff0>@@PEBD@Z ENDP ; std::basic_string<char,std::char_traits<char>,std::allocator<char> >::_Reallocate_for<<lambda_66f57f934f28d61049862f64df852ff0>,char const *>
_TEXT	ENDS
; Function compile flags: /Odtp /RTCu /ZI
; File c:\program files (x86)\microsoft visual studio\2017\enterprise\vc\tools\msvc\14.14.26428\include\xstring
;	COMDAT ??R<lambda_66f57f934f28d61049862f64df852ff0>@@QEBAXQEAD_KQEBD@Z
_TEXT	SEGMENT
$T1 = 64
this$ = 96
_New_ptr$ = 104
_Count$ = 112
_Ptr$ = 120
??R<lambda_66f57f934f28d61049862f64df852ff0>@@QEBAXQEAD_KQEBD@Z PROC ; <lambda_66f57f934f28d61049862f64df852ff0>::operator(), COMDAT

; 2650 : 		return (_Reallocate_for(_Count, [](_Elem * const _New_ptr, const size_type _Count, const _Elem * const _Ptr) {

	mov	QWORD PTR [rsp+32], r9
	mov	QWORD PTR [rsp+24], r8
	mov	QWORD PTR [rsp+16], rdx
	mov	QWORD PTR [rsp+8], rcx
	push	rbp
	sub	rsp, 112				; 00000070H
	lea	rbp, QWORD PTR [rsp+32]

; 2651 : 			_Traits::copy(_New_ptr, _Ptr, _Count);

	mov	r8, QWORD PTR _Count$[rbp]
	mov	rdx, QWORD PTR _Ptr$[rbp]
	mov	rcx, QWORD PTR _New_ptr$[rbp]
	call	?copy@?$char_traits@D@std@@SAPEADQEADQEBD_K@Z ; std::char_traits<char>::copy

; 2652 : 			_Traits::assign(_New_ptr[_Count], _Elem());

	mov	BYTE PTR $T1[rbp], 0
	mov	rax, QWORD PTR _Count$[rbp]
	mov	rcx, QWORD PTR _New_ptr$[rbp]
	add	rcx, rax
	mov	rax, rcx
	lea	rdx, QWORD PTR $T1[rbp]
	mov	rcx, rax
	call	?assign@?$char_traits@D@std@@SAXAEADAEBD@Z ; std::char_traits<char>::assign

; 2653 : 			}, _Ptr));

	lea	rsp, QWORD PTR [rbp+80]
	pop	rbp
	ret	0
??R<lambda_66f57f934f28d61049862f64df852ff0>@@QEBAXQEAD_KQEBD@Z ENDP ; <lambda_66f57f934f28d61049862f64df852ff0>::operator()
_TEXT	ENDS
; Function compile flags: /Odtp /RTCu /ZI
; File c:\program files (x86)\microsoft visual studio\2017\enterprise\vc\tools\msvc\14.14.26428\include\utility
;	COMDAT ??$_Max_value@_K@std@@YAAEB_KAEB_K0@Z
_TEXT	SEGMENT
$T1 = 64
tv65 = 72
_Left$ = 96
_Right$ = 104
??$_Max_value@_K@std@@YAAEB_KAEB_K0@Z PROC		; std::_Max_value<unsigned __int64>, COMDAT

; 32   : 	{	// return larger of _Left and _Right

$LN5:
	mov	QWORD PTR [rsp+16], rdx
	mov	QWORD PTR [rsp+8], rcx
	push	rbp
	sub	rsp, 80					; 00000050H
	mov	rbp, rsp

; 33   : 	return (_Left < _Right ? _Right : _Left);

	mov	rax, QWORD PTR _Left$[rbp]
	mov	rcx, QWORD PTR _Right$[rbp]
	mov	rcx, QWORD PTR [rcx]
	cmp	QWORD PTR [rax], rcx
	jae	SHORT $LN3@Max_value
	mov	rax, QWORD PTR _Right$[rbp]
	mov	QWORD PTR tv65[rbp], rax
	jmp	SHORT $LN4@Max_value
$LN3@Max_value:
	mov	rax, QWORD PTR _Left$[rbp]
	mov	QWORD PTR tv65[rbp], rax
$LN4@Max_value:
	mov	rax, QWORD PTR tv65[rbp]
	mov	QWORD PTR $T1[rbp], rax
	mov	rax, QWORD PTR $T1[rbp]

; 34   : 	}

	lea	rsp, QWORD PTR [rbp+80]
	pop	rbp
	ret	0
??$_Max_value@_K@std@@YAAEB_KAEB_K0@Z ENDP		; std::_Max_value<unsigned __int64>
_TEXT	ENDS
; Function compile flags: /Odtp /RTCu /ZI
; File c:\program files (x86)\microsoft visual studio\2017\enterprise\vc\tools\msvc\14.14.26428\include\xmemory0
;	COMDAT ??$destroy@PEAD@?$_Default_allocator_traits@V?$allocator@D@std@@@std@@SAXAEAV?$allocator@D@1@QEAPEAD@Z
_TEXT	SEGMENT
__formal$ = 80
_Ptr$ = 88
??$destroy@PEAD@?$_Default_allocator_traits@V?$allocator@D@std@@@std@@SAXAEAV?$allocator@D@1@QEAPEAD@Z PROC ; std::_Default_allocator_traits<std::allocator<char> >::destroy<char *>, COMDAT

; 925  : 		{	// destroy object at _Ptr

$LN3:
	mov	QWORD PTR [rsp+16], rdx
	mov	QWORD PTR [rsp+8], rcx
	push	rbp
	sub	rsp, 64					; 00000040H
	mov	rbp, rsp

; 926  : 		_Ptr->~_Uty();
; 927  : 		}

	lea	rsp, QWORD PTR [rbp+64]
	pop	rbp
	ret	0
??$destroy@PEAD@?$_Default_allocator_traits@V?$allocator@D@std@@@std@@SAXAEAV?$allocator@D@1@QEAPEAD@Z ENDP ; std::_Default_allocator_traits<std::allocator<char> >::destroy<char *>
_TEXT	ENDS
; Function compile flags: /Odtp /RTCu /ZI
; File c:\program files (x86)\microsoft visual studio\2017\enterprise\vc\tools\msvc\14.14.26428\include\xstddef
;	COMDAT ??$addressof@PEAD@std@@YAPEAPEADAEAPEAD@Z
_TEXT	SEGMENT
_Val$ = 80
??$addressof@PEAD@std@@YAPEAPEADAEAPEAD@Z PROC		; std::addressof<char *>, COMDAT

; 372  : 	{	// return address of _Val

$LN3:
	mov	QWORD PTR [rsp+8], rcx
	push	rbp
	sub	rsp, 64					; 00000040H
	mov	rbp, rsp

; 373  : 	return (__builtin_addressof(_Val));

	mov	rax, QWORD PTR _Val$[rbp]

; 374  : 	}

	lea	rsp, QWORD PTR [rbp+64]
	pop	rbp
	ret	0
??$addressof@PEAD@std@@YAPEAPEADAEAPEAD@Z ENDP		; std::addressof<char *>
_TEXT	ENDS
; Function compile flags: /Odtp /RTCu /ZI
; File c:\program files (x86)\microsoft visual studio\2017\enterprise\vc\tools\msvc\14.14.26428\include\xutility
;	COMDAT ??$?0$$V@?$_Compressed_pair@V?$allocator@D@std@@V?$_String_val@U?$_Simple_types@D@std@@@2@$00@std@@QEAA@U_Zero_then_variadic_args_t@1@@Z
_TEXT	SEGMENT
this$ = 80
__formal$ = 88
??$?0$$V@?$_Compressed_pair@V?$allocator@D@std@@V?$_String_val@U?$_Simple_types@D@std@@@2@$00@std@@QEAA@U_Zero_then_variadic_args_t@1@@Z PROC ; std::_Compressed_pair<std::allocator<char>,std::_String_val<std::_Simple_types<char> >,1>::_Compressed_pair<std::allocator<char>,std::_String_val<std::_Simple_types<char> >,1><>, COMDAT

; 314  : 		: _Ty1(), _Myval2(_STD forward<_Other2>(_Val2)...)

$LN4:
	mov	BYTE PTR [rsp+16], dl
	mov	QWORD PTR [rsp+8], rcx
	push	rbp
	sub	rsp, 96					; 00000060H
	lea	rbp, QWORD PTR [rsp+32]
	mov	rcx, QWORD PTR this$[rbp]
	call	??0?$allocator@D@std@@QEAA@XZ		; std::allocator<char>::allocator<char>
	mov	rax, QWORD PTR this$[rbp]
	mov	rcx, rax
	call	??0?$_String_val@U?$_Simple_types@D@std@@@std@@QEAA@XZ ; std::_String_val<std::_Simple_types<char> >::_String_val<std::_Simple_types<char> >

; 315  : 		{	// construct from forwarded values
; 316  : 		}

	mov	rax, QWORD PTR this$[rbp]
	lea	rsp, QWORD PTR [rbp+64]
	pop	rbp
	ret	0
??$?0$$V@?$_Compressed_pair@V?$allocator@D@std@@V?$_String_val@U?$_Simple_types@D@std@@@2@$00@std@@QEAA@U_Zero_then_variadic_args_t@1@@Z ENDP ; std::_Compressed_pair<std::allocator<char>,std::_String_val<std::_Simple_types<char> >,1>::_Compressed_pair<std::allocator<char>,std::_String_val<std::_Simple_types<char> >,1><>
_TEXT	ENDS
; Function compile flags: /Odtp /RTCu /ZI
; File c:\program files (x86)\microsoft visual studio\2017\enterprise\vc\tools\msvc\14.14.26428\include\xstddef
;	COMDAT ??$_Unfancy@D@std@@YAPEADPEAD@Z
_TEXT	SEGMENT
_Ptr$ = 80
??$_Unfancy@D@std@@YAPEADPEAD@Z PROC			; std::_Unfancy<char>, COMDAT

; 388  : 	{	// do nothing for plain pointers

$LN3:
	mov	QWORD PTR [rsp+8], rcx
	push	rbp
	sub	rsp, 64					; 00000040H
	mov	rbp, rsp

; 389  : 	return (_Ptr);

	mov	rax, QWORD PTR _Ptr$[rbp]

; 390  : 	}

	lea	rsp, QWORD PTR [rbp+64]
	pop	rbp
	ret	0
??$_Unfancy@D@std@@YAPEADPEAD@Z ENDP			; std::_Unfancy<char>
_TEXT	ENDS
; Function compile flags: /Odtp /RTCu /ZI
; File l:\dev\featherfallengine\depends\install\include\glm\gtc\matrix_transform.inl
;	COMDAT ??$ortho@M@glm@@YA?AU?$tmat4x4@M$0A@@0@MMMMMM@Z
_TEXT	SEGMENT
__$ReturnUdt$ = 80
left$ = 88
right$ = 96
bottom$ = 104
top$ = 112
zNear$ = 120
zFar$ = 128
??$ortho@M@glm@@YA?AU?$tmat4x4@M$0A@@0@MMMMMM@Z PROC	; glm::ortho<float>, COMDAT

; 106  : 	{

$LN3:
	movss	DWORD PTR [rsp+32], xmm3
	movss	DWORD PTR [rsp+24], xmm2
	movss	DWORD PTR [rsp+16], xmm1
	mov	QWORD PTR [rsp+8], rcx
	push	rbp
	sub	rsp, 128				; 00000080H
	lea	rbp, QWORD PTR [rsp+64]

; 107  : #		if GLM_COORDINATE_SYSTEM == GLM_LEFT_HANDED
; 108  : 			return orthoLH(left, right, bottom, top, zNear, zFar);
; 109  : #		else
; 110  : 			return orthoRH(left, right, bottom, top, zNear, zFar);

	movss	xmm0, DWORD PTR zFar$[rbp]
	movss	DWORD PTR [rsp+48], xmm0
	movss	xmm0, DWORD PTR zNear$[rbp]
	movss	DWORD PTR [rsp+40], xmm0
	movss	xmm0, DWORD PTR top$[rbp]
	movss	DWORD PTR [rsp+32], xmm0
	movss	xmm3, DWORD PTR bottom$[rbp]
	movss	xmm2, DWORD PTR right$[rbp]
	movss	xmm1, DWORD PTR left$[rbp]
	mov	rcx, QWORD PTR __$ReturnUdt$[rbp]
	call	??$orthoRH@M@glm@@YA?AU?$tmat4x4@M$0A@@0@MMMMMM@Z ; glm::orthoRH<float>
	mov	rax, QWORD PTR __$ReturnUdt$[rbp]

; 111  : #		endif
; 112  : 	}

	lea	rsp, QWORD PTR [rbp+64]
	pop	rbp
	ret	0
??$ortho@M@glm@@YA?AU?$tmat4x4@M$0A@@0@MMMMMM@Z ENDP	; glm::ortho<float>
_TEXT	ENDS
; Function compile flags: /Odtp /RTCu /ZI
; File c:\program files (x86)\windows kits\10\include\10.0.16299.0\ucrt\time.h
;	COMDAT time
_TEXT	SEGMENT
_Time$ = 80
time	PROC						; COMDAT

; 534  :         {

	mov	QWORD PTR [rsp+8], rcx
	push	rbp
	sub	rsp, 96					; 00000060H
	lea	rbp, QWORD PTR [rsp+32]

; 535  :             return _time64(_Time);

	mov	rcx, QWORD PTR _Time$[rbp]
	call	QWORD PTR __imp__time64

; 536  :         }

	lea	rsp, QWORD PTR [rbp+64]
	pop	rbp
	ret	0
time	ENDP
_TEXT	ENDS
; Function compile flags: /Odtp /RTCu /ZI
;	COMDAT ??_GLayerScene@Scene@Application@@UEAAPEAXI@Z
_TEXT	SEGMENT
this$ = 80
__flags$ = 88
??_GLayerScene@Scene@Application@@UEAAPEAXI@Z PROC	; Application::Scene::LayerScene::`scalar deleting destructor', COMDAT
$LN4:
	mov	DWORD PTR [rsp+16], edx
	mov	QWORD PTR [rsp+8], rcx
	push	rbp
	sub	rsp, 96					; 00000060H
	lea	rbp, QWORD PTR [rsp+32]
	mov	rcx, QWORD PTR this$[rbp]
	call	??1LayerScene@Scene@Application@@UEAA@XZ ; Application::Scene::LayerScene::~LayerScene
	mov	eax, DWORD PTR __flags$[rbp]
	and	eax, 1
	test	eax, eax
	je	SHORT $LN2@scalar
	mov	edx, 32					; 00000020H
	mov	rcx, QWORD PTR this$[rbp]
	call	??3@YAXPEAX_K@Z				; operator delete
$LN2@scalar:
	mov	rax, QWORD PTR this$[rbp]
	lea	rsp, QWORD PTR [rbp+64]
	pop	rbp
	ret	0
??_GLayerScene@Scene@Application@@UEAAPEAXI@Z ENDP	; Application::Scene::LayerScene::`scalar deleting destructor'
_TEXT	ENDS
; Function compile flags: /Odtp /RTCu /ZI
; File l:\dev\featherfallengine\featherfall-examples\src\scene\layerscene.cpp
;	COMDAT ?OnImGuiRender@LayerScene@Scene@Application@@UEAAXXZ
_TEXT	SEGMENT
this$ = 80
?OnImGuiRender@LayerScene@Scene@Application@@UEAAXXZ PROC ; Application::Scene::LayerScene::OnImGuiRender, COMDAT

; 46   : 	{

$LN3:
	mov	QWORD PTR [rsp+8], rcx
	push	rbp
	sub	rsp, 96					; 00000060H
	lea	rbp, QWORD PTR [rsp+32]

; 47   : 		ImGui::Text("2D Layer Support!");

	lea	rcx, OFFSET FLAT:??_C@_0BC@GAONNNEG@2D?5Layer?5Support?$CB?$AA@
	call	?Text@ImGui@@YAXPEBDZZ			; ImGui::Text

; 48   : 	}

	lea	rsp, QWORD PTR [rbp+64]
	pop	rbp
	ret	0
?OnImGuiRender@LayerScene@Scene@Application@@UEAAXXZ ENDP ; Application::Scene::LayerScene::OnImGuiRender
_TEXT	ENDS
; Function compile flags: /Odtp /RTCu /ZI
; File l:\dev\featherfallengine\featherfall-examples\src\scene\layerscene.cpp
;	COMDAT ?OnRender@LayerScene@Scene@Application@@UEAAXXZ
_TEXT	SEGMENT
this$ = 80
?OnRender@LayerScene@Scene@Application@@UEAAXXZ PROC	; Application::Scene::LayerScene::OnRender, COMDAT

; 41   : 	{

$LN3:
	mov	QWORD PTR [rsp+8], rcx
	push	rbp
	sub	rsp, 96					; 00000060H
	lea	rbp, QWORD PTR [rsp+32]

; 42   : 		tileLayer->render();

	mov	rax, QWORD PTR this$[rbp]
	mov	rcx, QWORD PTR [rax+8]
	call	?render@Layer@core@@QEAAXXZ		; core::Layer::render

; 43   : 	}

	lea	rsp, QWORD PTR [rbp+64]
	pop	rbp
	ret	0
?OnRender@LayerScene@Scene@Application@@UEAAXXZ ENDP	; Application::Scene::LayerScene::OnRender
_TEXT	ENDS
; Function compile flags: /Odtp /RTCu /ZI
; File l:\dev\featherfallengine\featherfall-examples\src\scene\layerscene.cpp
;	COMDAT ?OnUpdate@LayerScene@Scene@Application@@UEAAXM@Z
_TEXT	SEGMENT
this$ = 80
deltaTime$ = 88
?OnUpdate@LayerScene@Scene@Application@@UEAAXM@Z PROC	; Application::Scene::LayerScene::OnUpdate, COMDAT

; 36   : 	{

$LN3:
	movss	DWORD PTR [rsp+16], xmm1
	mov	QWORD PTR [rsp+8], rcx
	push	rbp
	sub	rsp, 64					; 00000040H
	mov	rbp, rsp

; 37   : 
; 38   : 	}

	lea	rsp, QWORD PTR [rbp+64]
	pop	rbp
	ret	0
?OnUpdate@LayerScene@Scene@Application@@UEAAXM@Z ENDP	; Application::Scene::LayerScene::OnUpdate
_TEXT	ENDS
; Function compile flags: /Odtp /RTCu /ZI
; File l:\dev\featherfallengine\featherfall-examples\src\scene\layerscene.cpp
;	COMDAT ??1LayerScene@Scene@Application@@UEAA@XZ
_TEXT	SEGMENT
$T1 = 64
$T2 = 72
$T3 = 80
$T4 = 88
$T5 = 96
tv88 = 104
tv79 = 104
this$ = 128
??1LayerScene@Scene@Application@@UEAA@XZ PROC		; Application::Scene::LayerScene::~LayerScene, COMDAT

; 29   : 	{

$LN7:
	mov	QWORD PTR [rsp+8], rcx
	push	rbp
	sub	rsp, 144				; 00000090H
	lea	rbp, QWORD PTR [rsp+32]
	mov	rax, QWORD PTR this$[rbp]
	lea	rcx, OFFSET FLAT:??_7LayerScene@Scene@Application@@6B@
	mov	QWORD PTR [rax], rcx

; 30   : 		delete tileLayer;

	mov	rax, QWORD PTR this$[rbp]
	mov	rax, QWORD PTR [rax+8]
	mov	QWORD PTR $T2[rbp], rax
	mov	rax, QWORD PTR $T2[rbp]
	mov	QWORD PTR $T1[rbp], rax
	cmp	QWORD PTR $T1[rbp], 0
	je	SHORT $LN3@LayerScene
	mov	edx, 1
	mov	rcx, QWORD PTR $T1[rbp]
	call	??_GLayer2D@core@@QEAAPEAXI@Z
	mov	QWORD PTR tv79[rbp], rax
	jmp	SHORT $LN4@LayerScene
$LN3@LayerScene:
	mov	QWORD PTR tv79[rbp], 0
$LN4@LayerScene:

; 31   : 		delete ortho;

	mov	rax, QWORD PTR this$[rbp]
	mov	rax, QWORD PTR [rax+16]
	mov	QWORD PTR $T3[rbp], rax
	mov	edx, 64					; 00000040H
	mov	rcx, QWORD PTR $T3[rbp]
	call	??3@YAXPEAX_K@Z				; operator delete

; 32   : 		delete shader;

	mov	rax, QWORD PTR this$[rbp]
	mov	rax, QWORD PTR [rax+24]
	mov	QWORD PTR $T5[rbp], rax
	mov	rax, QWORD PTR $T5[rbp]
	mov	QWORD PTR $T4[rbp], rax
	cmp	QWORD PTR $T4[rbp], 0
	je	SHORT $LN5@LayerScene
	mov	edx, 1
	mov	rcx, QWORD PTR $T4[rbp]
	call	??_GShader@graphics@core@@QEAAPEAXI@Z
	mov	QWORD PTR tv88[rbp], rax
	jmp	SHORT $LN6@LayerScene
$LN5@LayerScene:
	mov	QWORD PTR tv88[rbp], 0
$LN6@LayerScene:

; 33   : 	}

	mov	rcx, QWORD PTR this$[rbp]
	call	??1Scene@0Application@@UEAA@XZ		; Application::Scene::Scene::~Scene
	lea	rsp, QWORD PTR [rbp+112]
	pop	rbp
	ret	0
??1LayerScene@Scene@Application@@UEAA@XZ ENDP		; Application::Scene::LayerScene::~LayerScene
_TEXT	ENDS
; Function compile flags: /Odtp /RTCu /ZI
; File l:\dev\featherfallengine\featherfall-examples\src\scene\layerscene.cpp
;	COMDAT ??0LayerScene@Scene@Application@@QEAA@XZ
_TEXT	SEGMENT
y$1 = 0
x$2 = 4
$T3 = 72
$T4 = 80
$T5 = 88
$T6 = 96
$T7 = 104
$T8 = 112
$T9 = 120
$T10 = 160
$T11 = 168
$T12 = 176
$T13 = 192
$T14 = 200
tv200 = 208
tv161 = 208
tv144 = 208
tv94 = 208
this$ = 240
??0LayerScene@Scene@Application@@QEAA@XZ PROC		; Application::Scene::LayerScene::LayerScene, COMDAT

; 12   : 	{

$LN25:
	mov	QWORD PTR [rsp+8], rcx
	push	rbp
	sub	rsp, 288				; 00000120H
	lea	rbp, QWORD PTR [rsp+64]
	mov	QWORD PTR $T14[rbp], -2
	mov	DWORD PTR $T13[rbp], 0
	mov	rcx, QWORD PTR this$[rbp]
	call	??0Scene@0Application@@QEAA@XZ		; Application::Scene::Scene::Scene
	npad	1
	mov	rax, QWORD PTR this$[rbp]
	lea	rcx, OFFSET FLAT:??_7LayerScene@Scene@Application@@6B@
	mov	QWORD PTR [rax], rcx

; 9    : 		: tileLayer(new core::Layer2D()),

	mov	ecx, 40					; 00000028H
	call	??2@YAPEAX_K@Z				; operator new
	mov	QWORD PTR $T4[rbp], rax
	cmp	QWORD PTR $T4[rbp], 0
	je	SHORT $LN9@LayerScene
	mov	edx, 40					; 00000028H
	mov	rcx, QWORD PTR $T4[rbp]
	call	?__autoclassinit2@Layer2D@core@@QEAAX_K@Z
	mov	rcx, QWORD PTR $T4[rbp]
	call	??0Layer2D@core@@QEAA@XZ		; core::Layer2D::Layer2D
	mov	QWORD PTR tv94[rbp], rax
	jmp	SHORT $LN10@LayerScene
$LN9@LayerScene:
	mov	QWORD PTR tv94[rbp], 0
$LN10@LayerScene:
	mov	rax, QWORD PTR tv94[rbp]
	mov	QWORD PTR $T3[rbp], rax
	mov	rax, QWORD PTR this$[rbp]
	mov	rcx, QWORD PTR $T3[rbp]
	mov	QWORD PTR [rax+8], rcx

; 10   : 		ortho(new glm::mat4(glm::ortho(-16.0f, 16.0f, -9.0f, 9.0f, -1.0f, 1.0f))),

	mov	ecx, 64					; 00000040H
	call	??2@YAPEAX_K@Z				; operator new
	mov	QWORD PTR $T6[rbp], rax
	cmp	QWORD PTR $T6[rbp], 0
	je	SHORT $LN11@LayerScene
	movss	xmm0, DWORD PTR __real@3f800000
	movss	DWORD PTR [rsp+48], xmm0
	movss	xmm0, DWORD PTR __real@bf800000
	movss	DWORD PTR [rsp+40], xmm0
	movss	xmm0, DWORD PTR __real@41100000
	movss	DWORD PTR [rsp+32], xmm0
	movss	xmm3, DWORD PTR __real@c1100000
	movss	xmm2, DWORD PTR __real@41800000
	movss	xmm1, DWORD PTR __real@c1800000
	mov	rcx, QWORD PTR $T6[rbp]
	call	??$ortho@M@glm@@YA?AU?$tmat4x4@M$0A@@0@MMMMMM@Z ; glm::ortho<float>
	mov	QWORD PTR tv144[rbp], rax
	jmp	SHORT $LN12@LayerScene
$LN11@LayerScene:
	mov	QWORD PTR tv144[rbp], 0
$LN12@LayerScene:
	mov	rax, QWORD PTR tv144[rbp]
	mov	QWORD PTR $T5[rbp], rax
	mov	rax, QWORD PTR this$[rbp]
	mov	rcx, QWORD PTR $T5[rbp]
	mov	QWORD PTR [rax+16], rcx

; 11   : 		shader(new core::graphics::Shader("res/shaders/LayerSceneTest.shader"))

	mov	ecx, 4
	call	??2@YAPEAX_K@Z				; operator new
	mov	QWORD PTR $T8[rbp], rax
	cmp	QWORD PTR $T8[rbp], 0
	je	SHORT $LN13@LayerScene
	lea	rdx, OFFSET FLAT:??_C@_0CC@NJGOLNKK@res?1shaders?1LayerSceneTest?4shade@
	lea	rcx, QWORD PTR $T9[rbp]
	call	??0?$basic_string@DU?$char_traits@D@std@@V?$allocator@D@2@@std@@QEAA@QEBD@Z ; std::basic_string<char,std::char_traits<char>,std::allocator<char> >::basic_string<char,std::char_traits<char>,std::allocator<char> >
	npad	1
	mov	eax, DWORD PTR $T13[rbp]
	or	eax, 1
	mov	DWORD PTR $T13[rbp], eax
	lea	rdx, QWORD PTR $T9[rbp]
	mov	rcx, QWORD PTR $T8[rbp]
	call	??0Shader@graphics@core@@QEAA@AEBV?$basic_string@DU?$char_traits@D@std@@V?$allocator@D@2@@std@@@Z ; core::graphics::Shader::Shader
	mov	QWORD PTR tv161[rbp], rax
	jmp	SHORT $LN14@LayerScene
$LN13@LayerScene:
	mov	QWORD PTR tv161[rbp], 0
$LN14@LayerScene:
	mov	rax, QWORD PTR tv161[rbp]
	mov	QWORD PTR $T7[rbp], rax
	mov	rax, QWORD PTR this$[rbp]
	mov	rcx, QWORD PTR $T7[rbp]
	mov	QWORD PTR [rax+24], rcx
	mov	eax, DWORD PTR $T13[rbp]
	and	eax, 1
	test	eax, eax
	je	SHORT $LN23@LayerScene
	and	DWORD PTR $T13[rbp], -2
	lea	rcx, QWORD PTR $T9[rbp]
	call	??1?$basic_string@DU?$char_traits@D@std@@V?$allocator@D@2@@std@@QEAA@XZ ; std::basic_string<char,std::char_traits<char>,std::allocator<char> >::~basic_string<char,std::char_traits<char>,std::allocator<char> >
$LN23@LayerScene:

; 13   : 		srand((unsigned int)time(NULL));

	xor	ecx, ecx
	call	time
	mov	ecx, eax
	call	QWORD PTR __imp_srand

; 14   : 
; 15   : 		for (float y = -9.0f; y < 9.0f; y += 1.0f) {

	movss	xmm0, DWORD PTR __real@c1100000
	movss	DWORD PTR y$1[rbp], xmm0
	jmp	SHORT $LN4@LayerScene
$LN2@LayerScene:
	movss	xmm0, DWORD PTR y$1[rbp]
	addss	xmm0, DWORD PTR __real@3f800000
	movss	DWORD PTR y$1[rbp], xmm0
$LN4@LayerScene:
	movss	xmm0, DWORD PTR __real@41100000
	comiss	xmm0, DWORD PTR y$1[rbp]
	jbe	$LN3@LayerScene

; 16   : 			for (float x = -16.0; x < 16.0f; x += 1.0f) {

	movss	xmm0, DWORD PTR __real@c1800000
	movss	DWORD PTR x$2[rbp], xmm0
	jmp	SHORT $LN7@LayerScene
$LN5@LayerScene:
	movss	xmm0, DWORD PTR x$2[rbp]
	addss	xmm0, DWORD PTR __real@3f800000
	movss	DWORD PTR x$2[rbp], xmm0
$LN7@LayerScene:
	movss	xmm0, DWORD PTR __real@41800000
	comiss	xmm0, DWORD PTR x$2[rbp]
	jbe	$LN6@LayerScene

; 17   : 				tileLayer->add(new core::graphics::Sprite(

	mov	ecx, 48					; 00000030H
	call	??2@YAPEAX_K@Z				; operator new
	mov	QWORD PTR $T11[rbp], rax
	cmp	QWORD PTR $T11[rbp], 0
	je	SHORT $LN15@LayerScene
	movss	xmm0, DWORD PTR __real@3f800000
	movss	DWORD PTR [rsp+32], xmm0
	xorps	xmm3, xmm3
	xorps	xmm2, xmm2
	movss	xmm1, DWORD PTR __real@3f800000
	lea	rcx, QWORD PTR $T12[rbp]
	call	??0?$tvec4@M$0A@@glm@@QEAA@MMMM@Z	; glm::tvec4<float,0>::tvec4<float,0>
	mov	QWORD PTR [rsp+40], rax
	movss	xmm0, DWORD PTR __real@3f666666
	movss	DWORD PTR [rsp+32], xmm0
	movss	xmm3, DWORD PTR __real@3f666666
	movss	xmm2, DWORD PTR y$1[rbp]
	movss	xmm1, DWORD PTR x$2[rbp]
	mov	rcx, QWORD PTR $T11[rbp]
	call	??0Sprite@graphics@core@@QEAA@MMMMAEBU?$tvec4@M$0A@@glm@@@Z ; core::graphics::Sprite::Sprite
	mov	QWORD PTR tv200[rbp], rax
	jmp	SHORT $LN16@LayerScene
$LN15@LayerScene:
	mov	QWORD PTR tv200[rbp], 0
$LN16@LayerScene:
	mov	rax, QWORD PTR tv200[rbp]
	mov	QWORD PTR $T10[rbp], rax
	mov	rdx, QWORD PTR $T10[rbp]
	mov	rax, QWORD PTR this$[rbp]
	mov	rcx, QWORD PTR [rax+8]
	call	?add@Layer@core@@QEAAXPEAVRenderable2D@graphics@2@@Z ; core::Layer::add

; 18   : 					x, y, 0.9f, 0.9f,
; 19   : 					glm::vec4(1.0f, 0.0f, 0.0f, 1.0f)
; 20   : 				));
; 21   : 			}

	jmp	$LN5@LayerScene
$LN6@LayerScene:

; 22   : 		}

	jmp	$LN2@LayerScene
$LN3@LayerScene:

; 23   : 
; 24   : 		shader->bind();

	mov	rax, QWORD PTR this$[rbp]
	mov	rcx, QWORD PTR [rax+24]
	call	?bind@Shader@graphics@core@@QEBAXXZ	; core::graphics::Shader::bind

; 25   : 		shader->setUniformMat4("prMatrix", *ortho);

	mov	rax, QWORD PTR this$[rbp]
	mov	r8, QWORD PTR [rax+16]
	lea	rdx, OFFSET FLAT:??_C@_08IMNAFLGG@prMatrix?$AA@
	mov	rax, QWORD PTR this$[rbp]
	mov	rcx, QWORD PTR [rax+24]
	call	?setUniformMat4@Shader@graphics@core@@QEAAXPEBDAEBU?$tmat4x4@M$0A@@glm@@@Z ; core::graphics::Shader::setUniformMat4
	npad	1

; 26   : 	}

	mov	rax, QWORD PTR this$[rbp]
	lea	rsp, QWORD PTR [rbp+224]
	pop	rbp
	ret	0
??0LayerScene@Scene@Application@@QEAA@XZ ENDP		; Application::Scene::LayerScene::LayerScene
_TEXT	ENDS
;	COMDAT text$x
text$x	SEGMENT
y$1 = 0
x$2 = 4
$T3 = 72
$T4 = 80
$T5 = 88
$T6 = 96
$T7 = 104
$T8 = 112
$T9 = 120
$T10 = 160
$T11 = 168
$T12 = 176
$T13 = 192
$T14 = 200
tv200 = 208
tv161 = 208
tv144 = 208
tv94 = 208
this$ = 240
?dtor$0@?0???0LayerScene@Scene@Application@@QEAA@XZ@4HA PROC ; `Application::Scene::LayerScene::LayerScene'::`1'::dtor$0
	push	rbp
	sub	rsp, 32					; 00000020H
	lea	rbp, QWORD PTR [rdx+64]
	mov	rcx, QWORD PTR this$[rbp]
	call	??1Scene@0Application@@UEAA@XZ		; Application::Scene::Scene::~Scene
	add	rsp, 32					; 00000020H
	pop	rbp
	ret	0
?dtor$0@?0???0LayerScene@Scene@Application@@QEAA@XZ@4HA ENDP ; `Application::Scene::LayerScene::LayerScene'::`1'::dtor$0
text$x	ENDS
;	COMDAT text$x
text$x	SEGMENT
y$1 = 0
x$2 = 4
$T3 = 72
$T4 = 80
$T5 = 88
$T6 = 96
$T7 = 104
$T8 = 112
$T9 = 120
$T10 = 160
$T11 = 168
$T12 = 176
$T13 = 192
$T14 = 200
tv200 = 208
tv161 = 208
tv144 = 208
tv94 = 208
this$ = 240
?dtor$1@?0???0LayerScene@Scene@Application@@QEAA@XZ@4HA PROC ; `Application::Scene::LayerScene::LayerScene'::`1'::dtor$1
	push	rbp
	sub	rsp, 32					; 00000020H
	lea	rbp, QWORD PTR [rdx+64]
	mov	edx, 40					; 00000028H
	mov	rcx, QWORD PTR $T4[rbp]
	call	??3@YAXPEAX_K@Z				; operator delete
	add	rsp, 32					; 00000020H
	pop	rbp
	ret	0
?dtor$1@?0???0LayerScene@Scene@Application@@QEAA@XZ@4HA ENDP ; `Application::Scene::LayerScene::LayerScene'::`1'::dtor$1
text$x	ENDS
;	COMDAT text$x
text$x	SEGMENT
y$1 = 0
x$2 = 4
$T3 = 72
$T4 = 80
$T5 = 88
$T6 = 96
$T7 = 104
$T8 = 112
$T9 = 120
$T10 = 160
$T11 = 168
$T12 = 176
$T13 = 192
$T14 = 200
tv200 = 208
tv161 = 208
tv144 = 208
tv94 = 208
this$ = 240
?dtor$2@?0???0LayerScene@Scene@Application@@QEAA@XZ@4HA PROC ; `Application::Scene::LayerScene::LayerScene'::`1'::dtor$2
	push	rbp
	sub	rsp, 32					; 00000020H
	lea	rbp, QWORD PTR [rdx+64]
	mov	edx, 64					; 00000040H
	mov	rcx, QWORD PTR $T6[rbp]
	call	??3@YAXPEAX_K@Z				; operator delete
	add	rsp, 32					; 00000020H
	pop	rbp
	ret	0
?dtor$2@?0???0LayerScene@Scene@Application@@QEAA@XZ@4HA ENDP ; `Application::Scene::LayerScene::LayerScene'::`1'::dtor$2
text$x	ENDS
;	COMDAT text$x
text$x	SEGMENT
y$1 = 0
x$2 = 4
$T3 = 72
$T4 = 80
$T5 = 88
$T6 = 96
$T7 = 104
$T8 = 112
$T9 = 120
$T10 = 160
$T11 = 168
$T12 = 176
$T13 = 192
$T14 = 200
tv200 = 208
tv161 = 208
tv144 = 208
tv94 = 208
this$ = 240
?dtor$3@?0???0LayerScene@Scene@Application@@QEAA@XZ@4HA PROC ; `Application::Scene::LayerScene::LayerScene'::`1'::dtor$3
	push	rbp
	sub	rsp, 32					; 00000020H
	lea	rbp, QWORD PTR [rdx+64]
	mov	edx, 4
	mov	rcx, QWORD PTR $T8[rbp]
	call	??3@YAXPEAX_K@Z				; operator delete
	add	rsp, 32					; 00000020H
	pop	rbp
	ret	0
?dtor$3@?0???0LayerScene@Scene@Application@@QEAA@XZ@4HA ENDP ; `Application::Scene::LayerScene::LayerScene'::`1'::dtor$3
text$x	ENDS
;	COMDAT text$x
text$x	SEGMENT
y$1 = 0
x$2 = 4
$T3 = 72
$T4 = 80
$T5 = 88
$T6 = 96
$T7 = 104
$T8 = 112
$T9 = 120
$T10 = 160
$T11 = 168
$T12 = 176
$T13 = 192
$T14 = 200
tv200 = 208
tv161 = 208
tv144 = 208
tv94 = 208
this$ = 240
?dtor$4@?0???0LayerScene@Scene@Application@@QEAA@XZ@4HA PROC ; `Application::Scene::LayerScene::LayerScene'::`1'::dtor$4
	push	rbp
	sub	rsp, 32					; 00000020H
	lea	rbp, QWORD PTR [rdx+64]
	mov	eax, DWORD PTR $T13[rbp]
	and	eax, 1
	test	eax, eax
	je	SHORT $LN22@dtor$4
	and	DWORD PTR $T13[rbp], -2
	lea	rcx, QWORD PTR $T9[rbp]
	call	??1?$basic_string@DU?$char_traits@D@std@@V?$allocator@D@2@@std@@QEAA@XZ ; std::basic_string<char,std::char_traits<char>,std::allocator<char> >::~basic_string<char,std::char_traits<char>,std::allocator<char> >
$LN22@dtor$4:
	add	rsp, 32					; 00000020H
	pop	rbp
	ret	0
?dtor$4@?0???0LayerScene@Scene@Application@@QEAA@XZ@4HA ENDP ; `Application::Scene::LayerScene::LayerScene'::`1'::dtor$4
text$x	ENDS
;	COMDAT text$x
text$x	SEGMENT
y$1 = 0
x$2 = 4
$T3 = 72
$T4 = 80
$T5 = 88
$T6 = 96
$T7 = 104
$T8 = 112
$T9 = 120
$T10 = 160
$T11 = 168
$T12 = 176
$T13 = 192
$T14 = 200
tv200 = 208
tv161 = 208
tv144 = 208
tv94 = 208
this$ = 240
?dtor$5@?0???0LayerScene@Scene@Application@@QEAA@XZ@4HA PROC ; `Application::Scene::LayerScene::LayerScene'::`1'::dtor$5
	push	rbp
	sub	rsp, 32					; 00000020H
	lea	rbp, QWORD PTR [rdx+64]
	mov	edx, 48					; 00000030H
	mov	rcx, QWORD PTR $T11[rbp]
	call	??3@YAXPEAX_K@Z				; operator delete
	add	rsp, 32					; 00000020H
	pop	rbp
	ret	0
?dtor$5@?0???0LayerScene@Scene@Application@@QEAA@XZ@4HA ENDP ; `Application::Scene::LayerScene::LayerScene'::`1'::dtor$5
text$x	ENDS
; Function compile flags: /Odtp /RTCu /ZI
;	COMDAT text$x
text$x	SEGMENT
y$1 = 0
x$2 = 4
$T3 = 72
$T4 = 80
$T5 = 88
$T6 = 96
$T7 = 104
$T8 = 112
$T9 = 120
$T10 = 160
$T11 = 168
$T12 = 176
$T13 = 192
$T14 = 200
tv200 = 208
tv161 = 208
tv144 = 208
tv94 = 208
this$ = 240
?dtor$0@?0???0LayerScene@Scene@Application@@QEAA@XZ@4HA PROC ; `Application::Scene::LayerScene::LayerScene'::`1'::dtor$0
	push	rbp
	sub	rsp, 32					; 00000020H
	lea	rbp, QWORD PTR [rdx+64]
	mov	rcx, QWORD PTR this$[rbp]
	call	??1Scene@0Application@@UEAA@XZ		; Application::Scene::Scene::~Scene
	add	rsp, 32					; 00000020H
	pop	rbp
	ret	0
?dtor$0@?0???0LayerScene@Scene@Application@@QEAA@XZ@4HA ENDP ; `Application::Scene::LayerScene::LayerScene'::`1'::dtor$0
text$x	ENDS
; Function compile flags: /Odtp /RTCu /ZI
;	COMDAT text$x
text$x	SEGMENT
y$1 = 0
x$2 = 4
$T3 = 72
$T4 = 80
$T5 = 88
$T6 = 96
$T7 = 104
$T8 = 112
$T9 = 120
$T10 = 160
$T11 = 168
$T12 = 176
$T13 = 192
$T14 = 200
tv200 = 208
tv161 = 208
tv144 = 208
tv94 = 208
this$ = 240
?dtor$1@?0???0LayerScene@Scene@Application@@QEAA@XZ@4HA PROC ; `Application::Scene::LayerScene::LayerScene'::`1'::dtor$1
	push	rbp
	sub	rsp, 32					; 00000020H
	lea	rbp, QWORD PTR [rdx+64]
	mov	edx, 40					; 00000028H
	mov	rcx, QWORD PTR $T4[rbp]
	call	??3@YAXPEAX_K@Z				; operator delete
	add	rsp, 32					; 00000020H
	pop	rbp
	ret	0
?dtor$1@?0???0LayerScene@Scene@Application@@QEAA@XZ@4HA ENDP ; `Application::Scene::LayerScene::LayerScene'::`1'::dtor$1
text$x	ENDS
; Function compile flags: /Odtp /RTCu /ZI
;	COMDAT text$x
text$x	SEGMENT
y$1 = 0
x$2 = 4
$T3 = 72
$T4 = 80
$T5 = 88
$T6 = 96
$T7 = 104
$T8 = 112
$T9 = 120
$T10 = 160
$T11 = 168
$T12 = 176
$T13 = 192
$T14 = 200
tv200 = 208
tv161 = 208
tv144 = 208
tv94 = 208
this$ = 240
?dtor$2@?0???0LayerScene@Scene@Application@@QEAA@XZ@4HA PROC ; `Application::Scene::LayerScene::LayerScene'::`1'::dtor$2
	push	rbp
	sub	rsp, 32					; 00000020H
	lea	rbp, QWORD PTR [rdx+64]
	mov	edx, 64					; 00000040H
	mov	rcx, QWORD PTR $T6[rbp]
	call	??3@YAXPEAX_K@Z				; operator delete
	add	rsp, 32					; 00000020H
	pop	rbp
	ret	0
?dtor$2@?0???0LayerScene@Scene@Application@@QEAA@XZ@4HA ENDP ; `Application::Scene::LayerScene::LayerScene'::`1'::dtor$2
text$x	ENDS
; Function compile flags: /Odtp /RTCu /ZI
;	COMDAT text$x
text$x	SEGMENT
y$1 = 0
x$2 = 4
$T3 = 72
$T4 = 80
$T5 = 88
$T6 = 96
$T7 = 104
$T8 = 112
$T9 = 120
$T10 = 160
$T11 = 168
$T12 = 176
$T13 = 192
$T14 = 200
tv200 = 208
tv161 = 208
tv144 = 208
tv94 = 208
this$ = 240
?dtor$3@?0???0LayerScene@Scene@Application@@QEAA@XZ@4HA PROC ; `Application::Scene::LayerScene::LayerScene'::`1'::dtor$3
	push	rbp
	sub	rsp, 32					; 00000020H
	lea	rbp, QWORD PTR [rdx+64]
	mov	edx, 4
	mov	rcx, QWORD PTR $T8[rbp]
	call	??3@YAXPEAX_K@Z				; operator delete
	add	rsp, 32					; 00000020H
	pop	rbp
	ret	0
?dtor$3@?0???0LayerScene@Scene@Application@@QEAA@XZ@4HA ENDP ; `Application::Scene::LayerScene::LayerScene'::`1'::dtor$3
text$x	ENDS
; Function compile flags: /Odtp /RTCu /ZI
;	COMDAT text$x
text$x	SEGMENT
y$1 = 0
x$2 = 4
$T3 = 72
$T4 = 80
$T5 = 88
$T6 = 96
$T7 = 104
$T8 = 112
$T9 = 120
$T10 = 160
$T11 = 168
$T12 = 176
$T13 = 192
$T14 = 200
tv200 = 208
tv161 = 208
tv144 = 208
tv94 = 208
this$ = 240
?dtor$4@?0???0LayerScene@Scene@Application@@QEAA@XZ@4HA PROC ; `Application::Scene::LayerScene::LayerScene'::`1'::dtor$4
	push	rbp
	sub	rsp, 32					; 00000020H
	lea	rbp, QWORD PTR [rdx+64]
	mov	eax, DWORD PTR $T13[rbp]
	and	eax, 1
	test	eax, eax
	je	SHORT $LN22@dtor$4
	and	DWORD PTR $T13[rbp], -2
	lea	rcx, QWORD PTR $T9[rbp]
	call	??1?$basic_string@DU?$char_traits@D@std@@V?$allocator@D@2@@std@@QEAA@XZ ; std::basic_string<char,std::char_traits<char>,std::allocator<char> >::~basic_string<char,std::char_traits<char>,std::allocator<char> >
$LN22@dtor$4:
	add	rsp, 32					; 00000020H
	pop	rbp
	ret	0
?dtor$4@?0???0LayerScene@Scene@Application@@QEAA@XZ@4HA ENDP ; `Application::Scene::LayerScene::LayerScene'::`1'::dtor$4
text$x	ENDS
; Function compile flags: /Odtp /RTCu /ZI
;	COMDAT text$x
text$x	SEGMENT
y$1 = 0
x$2 = 4
$T3 = 72
$T4 = 80
$T5 = 88
$T6 = 96
$T7 = 104
$T8 = 112
$T9 = 120
$T10 = 160
$T11 = 168
$T12 = 176
$T13 = 192
$T14 = 200
tv200 = 208
tv161 = 208
tv144 = 208
tv94 = 208
this$ = 240
?dtor$5@?0???0LayerScene@Scene@Application@@QEAA@XZ@4HA PROC ; `Application::Scene::LayerScene::LayerScene'::`1'::dtor$5
	push	rbp
	sub	rsp, 32					; 00000020H
	lea	rbp, QWORD PTR [rdx+64]
	mov	edx, 48					; 00000030H
	mov	rcx, QWORD PTR $T11[rbp]
	call	??3@YAXPEAX_K@Z				; operator delete
	add	rsp, 32					; 00000020H
	pop	rbp
	ret	0
?dtor$5@?0???0LayerScene@Scene@Application@@QEAA@XZ@4HA ENDP ; `Application::Scene::LayerScene::LayerScene'::`1'::dtor$5
text$x	ENDS
; Function compile flags: /Odtp /RTCu /ZI
;	COMDAT ??_GLayer2D@core@@QEAAPEAXI@Z
_TEXT	SEGMENT
this$ = 80
__flags$ = 88
??_GLayer2D@core@@QEAAPEAXI@Z PROC			; core::Layer2D::`scalar deleting destructor', COMDAT
$LN4:
	mov	DWORD PTR [rsp+16], edx
	mov	QWORD PTR [rsp+8], rcx
	push	rbp
	sub	rsp, 96					; 00000060H
	lea	rbp, QWORD PTR [rsp+32]
	mov	rcx, QWORD PTR this$[rbp]
	call	??1Layer2D@core@@QEAA@XZ		; core::Layer2D::~Layer2D
	mov	eax, DWORD PTR __flags$[rbp]
	and	eax, 1
	test	eax, eax
	je	SHORT $LN2@scalar
	mov	edx, 40					; 00000028H
	mov	rcx, QWORD PTR this$[rbp]
	call	??3@YAXPEAX_K@Z				; operator delete
$LN2@scalar:
	mov	rax, QWORD PTR this$[rbp]
	lea	rsp, QWORD PTR [rbp+64]
	pop	rbp
	ret	0
??_GLayer2D@core@@QEAAPEAXI@Z ENDP			; core::Layer2D::`scalar deleting destructor'
_TEXT	ENDS
; Function compile flags: /Odtp /RTCu /ZI
;	COMDAT ?__autoclassinit2@Layer2D@core@@QEAAX_K@Z
_TEXT	SEGMENT
this$ = 96
classSize$ = 104
?__autoclassinit2@Layer2D@core@@QEAAX_K@Z PROC		; core::Layer2D::__autoclassinit2, COMDAT
$LN3:
	mov	QWORD PTR [rsp+16], rdx
	mov	QWORD PTR [rsp+8], rcx
	push	rbp
	push	rdi
	sub	rsp, 72					; 00000048H
	mov	rbp, rsp
	mov	rdi, QWORD PTR this$[rbp]
	xor	eax, eax
	mov	rcx, QWORD PTR classSize$[rbp]
	rep stosb
	lea	rsp, QWORD PTR [rbp+72]
	pop	rdi
	pop	rbp
	ret	0
?__autoclassinit2@Layer2D@core@@QEAAX_K@Z ENDP		; core::Layer2D::__autoclassinit2
_TEXT	ENDS
; Function compile flags: /Odtp /RTCu /ZI
;	COMDAT ??_GShader@graphics@core@@QEAAPEAXI@Z
_TEXT	SEGMENT
this$ = 80
__flags$ = 88
??_GShader@graphics@core@@QEAAPEAXI@Z PROC		; core::graphics::Shader::`scalar deleting destructor', COMDAT
$LN4:
	mov	DWORD PTR [rsp+16], edx
	mov	QWORD PTR [rsp+8], rcx
	push	rbp
	sub	rsp, 96					; 00000060H
	lea	rbp, QWORD PTR [rsp+32]
	mov	rcx, QWORD PTR this$[rbp]
	call	??1Shader@graphics@core@@QEAA@XZ	; core::graphics::Shader::~Shader
	mov	eax, DWORD PTR __flags$[rbp]
	and	eax, 1
	test	eax, eax
	je	SHORT $LN2@scalar
	mov	edx, 4
	mov	rcx, QWORD PTR this$[rbp]
	call	??3@YAXPEAX_K@Z				; operator delete
$LN2@scalar:
	mov	rax, QWORD PTR this$[rbp]
	lea	rsp, QWORD PTR [rbp+64]
	pop	rbp
	ret	0
??_GShader@graphics@core@@QEAAPEAXI@Z ENDP		; core::graphics::Shader::`scalar deleting destructor'
_TEXT	ENDS
; Function compile flags: /Odtp /RTCu /ZI
; File l:\dev\featherfallengine\depends\install\include\glm\detail\type_mat4x4.inl
;	COMDAT ??A?$tmat4x4@M$0A@@glm@@QEAAAEAU?$tvec4@M$0A@@1@H@Z
_TEXT	SEGMENT
this$ = 80
i$ = 88
??A?$tmat4x4@M$0A@@glm@@QEAAAEAU?$tvec4@M$0A@@1@H@Z PROC ; glm::tmat4x4<float,0>::operator[], COMDAT

; 241  : 	{

$LN4:
	mov	DWORD PTR [rsp+16], edx
	mov	QWORD PTR [rsp+8], rcx
	push	rbp
	sub	rsp, 96					; 00000060H
	lea	rbp, QWORD PTR [rsp+32]

; 242  : 		assert(i < this->length());

	call	?length@?$tmat4x4@M$0A@@glm@@SAHXZ	; glm::tmat4x4<float,0>::length
	cmp	DWORD PTR i$[rbp], eax
	jl	SHORT $LN3@operator
	mov	r8d, 242				; 000000f2H
	lea	rdx, OFFSET FLAT:??_C@_1JI@BDACPION@?$AAl?$AA?3?$AA?2?$AAd?$AAe?$AAv?$AA?2?$AAf?$AAe?$AAa?$AAt?$AAh?$AAe?$AAr?$AAf?$AAa?$AAl?$AAl?$AAe?$AAn?$AAg?$AAi?$AAn?$AAe?$AA?2?$AAd?$AAe?$AAp?$AAe?$AAn?$AAd?$AAs@
	lea	rcx, OFFSET FLAT:??_C@_1CG@KOFHLCJL@?$AAi?$AA?5?$AA?$DM?$AA?5?$AAt?$AAh?$AAi?$AAs?$AA?9?$AA?$DO?$AAl?$AAe?$AAn?$AAg?$AAt?$AAh?$AA?$CI?$AA?$CJ?$AA?$AA@
	call	QWORD PTR __imp__wassert
	xor	eax, eax
$LN3@operator:

; 243  : 		return this->value[i];

	movsxd	rax, DWORD PTR i$[rbp]
	imul	rax, rax, 16
	mov	rcx, QWORD PTR this$[rbp]
	add	rcx, rax
	mov	rax, rcx

; 244  : 	}

	lea	rsp, QWORD PTR [rbp+64]
	pop	rbp
	ret	0
??A?$tmat4x4@M$0A@@glm@@QEAAAEAU?$tvec4@M$0A@@1@H@Z ENDP ; glm::tmat4x4<float,0>::operator[]
_TEXT	ENDS
; Function compile flags: /Odtp /RTCu /ZI
; File l:\dev\featherfallengine\depends\install\include\glm\detail\type_mat4x4.hpp
;	COMDAT ?length@?$tmat4x4@M$0A@@glm@@SAHXZ
_TEXT	SEGMENT
?length@?$tmat4x4@M$0A@@glm@@SAHXZ PROC			; glm::tmat4x4<float,0>::length, COMDAT

; 84   : 		GLM_FUNC_DECL static length_type length(){return 4;}

$LN3:
	push	rbp
	sub	rsp, 64					; 00000040H
	mov	rbp, rsp
	mov	eax, 4
	lea	rsp, QWORD PTR [rbp+64]
	pop	rbp
	ret	0
?length@?$tmat4x4@M$0A@@glm@@SAHXZ ENDP			; glm::tmat4x4<float,0>::length
_TEXT	ENDS
; Function compile flags: /Odtp /RTCu /ZI
; File l:\dev\featherfallengine\depends\install\include\glm\detail\type_mat4x4.inl
;	COMDAT ??0?$tmat4x4@M$0A@@glm@@QEAA@AEBM@Z
_TEXT	SEGMENT
$T1 = 64
$T2 = 80
$T3 = 96
$T4 = 112
this$ = 160
s$ = 168
??0?$tmat4x4@M$0A@@glm@@QEAA@AEBM@Z PROC		; glm::tmat4x4<float,0>::tmat4x4<float,0>, COMDAT

; 50   : 	{

$LN3:
	mov	QWORD PTR [rsp+16], rdx
	mov	QWORD PTR [rsp+8], rcx
	push	rbp
	push	rsi
	push	rdi
	sub	rsp, 176				; 000000b0H
	lea	rbp, QWORD PTR [rsp+48]
	lea	r9, OFFSET FLAT:??0?$tvec4@M$0A@@glm@@QEAA@XZ ; glm::tvec4<float,0>::tvec4<float,0>
	mov	r8d, 4
	mov	edx, 16
	mov	rcx, QWORD PTR this$[rbp]
	call	??_H@YAXPEAX_K1P6APEAX0@Z@Z

; 51   : 		this->value[0] = col_type(s, 0, 0, 0);

	mov	DWORD PTR [rsp+32], 0
	xor	r9d, r9d
	xor	r8d, r8d
	mov	rax, QWORD PTR s$[rbp]
	movss	xmm1, DWORD PTR [rax]
	lea	rcx, QWORD PTR $T1[rbp]
	call	??$?0MHHH@?$tvec4@M$0A@@glm@@QEAA@MHHH@Z ; glm::tvec4<float,0>::tvec4<float,0><float,int,int,int>
	mov	ecx, 16
	imul	rcx, rcx, 0
	mov	rdx, QWORD PTR this$[rbp]
	lea	rdi, QWORD PTR [rdx+rcx]
	mov	rsi, rax
	mov	ecx, 16
	rep movsb

; 52   : 		this->value[1] = col_type(0, s, 0, 0);

	mov	DWORD PTR [rsp+32], 0
	xor	r9d, r9d
	mov	rax, QWORD PTR s$[rbp]
	movss	xmm2, DWORD PTR [rax]
	xor	edx, edx
	lea	rcx, QWORD PTR $T2[rbp]
	call	??$?0HMHH@?$tvec4@M$0A@@glm@@QEAA@HMHH@Z ; glm::tvec4<float,0>::tvec4<float,0><int,float,int,int>
	mov	ecx, 16
	imul	rcx, rcx, 1
	mov	rdx, QWORD PTR this$[rbp]
	lea	rdi, QWORD PTR [rdx+rcx]
	mov	rsi, rax
	mov	ecx, 16
	rep movsb

; 53   : 		this->value[2] = col_type(0, 0, s, 0);

	mov	DWORD PTR [rsp+32], 0
	mov	rax, QWORD PTR s$[rbp]
	movss	xmm3, DWORD PTR [rax]
	xor	r8d, r8d
	xor	edx, edx
	lea	rcx, QWORD PTR $T3[rbp]
	call	??$?0HHMH@?$tvec4@M$0A@@glm@@QEAA@HHMH@Z ; glm::tvec4<float,0>::tvec4<float,0><int,int,float,int>
	mov	ecx, 16
	imul	rcx, rcx, 2
	mov	rdx, QWORD PTR this$[rbp]
	lea	rdi, QWORD PTR [rdx+rcx]
	mov	rsi, rax
	mov	ecx, 16
	rep movsb

; 54   : 		this->value[3] = col_type(0, 0, 0, s);

	mov	rax, QWORD PTR s$[rbp]
	movss	xmm0, DWORD PTR [rax]
	movss	DWORD PTR [rsp+32], xmm0
	xor	r9d, r9d
	xor	r8d, r8d
	xor	edx, edx
	lea	rcx, QWORD PTR $T4[rbp]
	call	??$?0HHHM@?$tvec4@M$0A@@glm@@QEAA@HHHM@Z ; glm::tvec4<float,0>::tvec4<float,0><int,int,int,float>
	mov	ecx, 16
	imul	rcx, rcx, 3
	mov	rdx, QWORD PTR this$[rbp]
	lea	rdi, QWORD PTR [rdx+rcx]
	mov	rsi, rax
	mov	ecx, 16
	rep movsb

; 55   : 	}

	mov	rax, QWORD PTR this$[rbp]
	lea	rsp, QWORD PTR [rbp+128]
	pop	rdi
	pop	rsi
	pop	rbp
	ret	0
??0?$tmat4x4@M$0A@@glm@@QEAA@AEBM@Z ENDP		; glm::tmat4x4<float,0>::tmat4x4<float,0>
_TEXT	ENDS
; Function compile flags: /Odtp /RTCu /ZI
; File c:\program files (x86)\microsoft visual studio\2017\enterprise\vc\tools\msvc\14.14.26428\include\xstring
;	COMDAT ?_Xlen@?$basic_string@DU?$char_traits@D@std@@V?$allocator@D@2@@std@@SAXXZ
_TEXT	SEGMENT
?_Xlen@?$basic_string@DU?$char_traits@D@std@@V?$allocator@D@2@@std@@SAXXZ PROC ; std::basic_string<char,std::char_traits<char>,std::allocator<char> >::_Xlen, COMDAT

; 3977 : 		{	// report a length_error

$LN3:
	push	rbp
	sub	rsp, 96					; 00000060H
	lea	rbp, QWORD PTR [rsp+32]

; 3978 : 		_Xlength_error("string too long");

	lea	rcx, OFFSET FLAT:??_C@_0BA@JFNIOLAK@string?5too?5long?$AA@
	call	?_Xlength_error@std@@YAXPEBD@Z		; std::_Xlength_error
$LN2@Xlen:

; 3979 : 		}

	lea	rsp, QWORD PTR [rbp+64]
	pop	rbp
	ret	0
?_Xlen@?$basic_string@DU?$char_traits@D@std@@V?$allocator@D@2@@std@@SAXXZ ENDP ; std::basic_string<char,std::char_traits<char>,std::allocator<char> >::_Xlen
_TEXT	ENDS
; Function compile flags: /Odtp /RTCu /ZI
; File c:\program files (x86)\microsoft visual studio\2017\enterprise\vc\tools\msvc\14.14.26428\include\xstring
;	COMDAT ?_Tidy_deallocate@?$basic_string@DU?$char_traits@D@std@@V?$allocator@D@2@@std@@QEAAXXZ
_TEXT	SEGMENT
_My_data$ = 0
_Ptr$1 = 8
_Al$2 = 16
$T3 = 88
this$ = 112
?_Tidy_deallocate@?$basic_string@DU?$char_traits@D@std@@V?$allocator@D@2@@std@@QEAAXXZ PROC ; std::basic_string<char,std::char_traits<char>,std::allocator<char> >::_Tidy_deallocate, COMDAT

; 3958 : 		{	// initialize buffer, deallocating any storage

$LN4:
	mov	QWORD PTR [rsp+8], rcx
	push	rbp
	sub	rsp, 128				; 00000080H
	lea	rbp, QWORD PTR [rsp+32]

; 3959 : 		this->_Orphan_all();

	mov	rcx, QWORD PTR this$[rbp]
	call	?_Orphan_all@?$_String_alloc@U?$_String_base_types@DV?$allocator@D@std@@@std@@@std@@QEAAXXZ ; std::_String_alloc<std::_String_base_types<char,std::allocator<char> > >::_Orphan_all

; 3960 : 		auto& _My_data = this->_Get_data();

	mov	rcx, QWORD PTR this$[rbp]
	call	?_Get_data@?$_String_alloc@U?$_String_base_types@DV?$allocator@D@std@@@std@@@std@@QEAAAEAV?$_String_val@U?$_Simple_types@D@std@@@2@XZ ; std::_String_alloc<std::_String_base_types<char,std::allocator<char> > >::_Get_data
	mov	QWORD PTR _My_data$[rbp], rax

; 3961 : 		if (_My_data._Large_string_engaged())

	mov	rcx, QWORD PTR _My_data$[rbp]
	call	?_Large_string_engaged@?$_String_val@U?$_Simple_types@D@std@@@std@@QEBA_NXZ ; std::_String_val<std::_Simple_types<char> >::_Large_string_engaged
	movzx	eax, al
	test	eax, eax
	je	SHORT $LN2@Tidy_deall

; 3962 : 			{
; 3963 : 			const pointer _Ptr = _My_data._Bx._Ptr;

	mov	rax, QWORD PTR _My_data$[rbp]
	mov	rax, QWORD PTR [rax+8]
	mov	QWORD PTR _Ptr$1[rbp], rax

; 3964 : 			auto& _Al = this->_Getal();

	mov	rcx, QWORD PTR this$[rbp]
	call	?_Getal@?$_String_alloc@U?$_String_base_types@DV?$allocator@D@std@@@std@@@std@@QEAAAEAV?$allocator@D@2@XZ ; std::_String_alloc<std::_String_base_types<char,std::allocator<char> > >::_Getal
	mov	QWORD PTR _Al$2[rbp], rax

; 3965 : 			_Alty_traits::destroy(_Al, _STD addressof(_My_data._Bx._Ptr));

	mov	rax, QWORD PTR _My_data$[rbp]
	add	rax, 8
	mov	rcx, rax
	call	??$addressof@PEAD@std@@YAPEAPEADAEAPEAD@Z ; std::addressof<char *>
	mov	rdx, rax
	mov	rcx, QWORD PTR _Al$2[rbp]
	call	??$destroy@PEAD@?$_Default_allocator_traits@V?$allocator@D@std@@@std@@SAXAEAV?$allocator@D@1@QEAPEAD@Z ; std::_Default_allocator_traits<std::allocator<char> >::destroy<char *>

; 3966 : 			_Al.deallocate(_Ptr, _My_data._Myres + 1);

	mov	rax, QWORD PTR _My_data$[rbp]
	mov	rax, QWORD PTR [rax+32]
	inc	rax
	mov	r8, rax
	mov	rdx, QWORD PTR _Ptr$1[rbp]
	mov	rcx, QWORD PTR _Al$2[rbp]
	call	?deallocate@?$allocator@D@std@@QEAAXQEAD_K@Z ; std::allocator<char>::deallocate
$LN2@Tidy_deall:

; 3967 : 			}
; 3968 : 
; 3969 : 		_My_data._Mysize = 0;

	mov	rax, QWORD PTR _My_data$[rbp]
	mov	QWORD PTR [rax+24], 0

; 3970 : 		_My_data._Myres = this->_BUF_SIZE - 1;

	mov	rax, QWORD PTR _My_data$[rbp]
	mov	QWORD PTR [rax+32], 15

; 3971 : 		// the _Traits::assign is last so the codegen doesn't think the char
; 3972 : 		// write can alias this
; 3973 : 		_Traits::assign(_My_data._Bx._Buf[0], _Elem());

	mov	BYTE PTR $T3[rbp], 0
	mov	eax, 1
	imul	rax, rax, 0
	mov	rcx, QWORD PTR _My_data$[rbp]
	lea	rax, QWORD PTR [rcx+rax+8]
	lea	rdx, QWORD PTR $T3[rbp]
	mov	rcx, rax
	call	?assign@?$char_traits@D@std@@SAXAEADAEBD@Z ; std::char_traits<char>::assign

; 3974 : 		}

	lea	rsp, QWORD PTR [rbp+96]
	pop	rbp
	ret	0
?_Tidy_deallocate@?$basic_string@DU?$char_traits@D@std@@V?$allocator@D@2@@std@@QEAAXXZ ENDP ; std::basic_string<char,std::char_traits<char>,std::allocator<char> >::_Tidy_deallocate
_TEXT	ENDS
; Function compile flags: /Odtp /RTCu /ZI
; File c:\program files (x86)\microsoft visual studio\2017\enterprise\vc\tools\msvc\14.14.26428\include\xstring
;	COMDAT ?_Tidy_init@?$basic_string@DU?$char_traits@D@std@@V?$allocator@D@2@@std@@QEAAXXZ
_TEXT	SEGMENT
_My_data$ = 0
$T1 = 72
this$ = 96
?_Tidy_init@?$basic_string@DU?$char_traits@D@std@@V?$allocator@D@2@@std@@QEAAXXZ PROC ; std::basic_string<char,std::char_traits<char>,std::allocator<char> >::_Tidy_init, COMDAT

; 3948 : 		{	// initialize basic_string data members

$LN3:
	mov	QWORD PTR [rsp+8], rcx
	push	rbp
	sub	rsp, 112				; 00000070H
	lea	rbp, QWORD PTR [rsp+32]

; 3949 : 		auto& _My_data = this->_Get_data();

	mov	rcx, QWORD PTR this$[rbp]
	call	?_Get_data@?$_String_alloc@U?$_String_base_types@DV?$allocator@D@std@@@std@@@std@@QEAAAEAV?$_String_val@U?$_Simple_types@D@std@@@2@XZ ; std::_String_alloc<std::_String_base_types<char,std::allocator<char> > >::_Get_data
	mov	QWORD PTR _My_data$[rbp], rax

; 3950 : 		_My_data._Mysize = 0;

	mov	rax, QWORD PTR _My_data$[rbp]
	mov	QWORD PTR [rax+24], 0

; 3951 : 		_My_data._Myres = this->_BUF_SIZE - 1;

	mov	rax, QWORD PTR _My_data$[rbp]
	mov	QWORD PTR [rax+32], 15

; 3952 : 		// the _Traits::assign is last so the codegen doesn't think the char
; 3953 : 		// write can alias this
; 3954 : 		_Traits::assign(_My_data._Bx._Buf[0], _Elem());

	mov	BYTE PTR $T1[rbp], 0
	mov	eax, 1
	imul	rax, rax, 0
	mov	rcx, QWORD PTR _My_data$[rbp]
	lea	rax, QWORD PTR [rcx+rax+8]
	lea	rdx, QWORD PTR $T1[rbp]
	mov	rcx, rax
	call	?assign@?$char_traits@D@std@@SAXAEADAEBD@Z ; std::char_traits<char>::assign

; 3955 : 		}

	lea	rsp, QWORD PTR [rbp+80]
	pop	rbp
	ret	0
?_Tidy_init@?$basic_string@DU?$char_traits@D@std@@V?$allocator@D@2@@std@@QEAAXXZ ENDP ; std::basic_string<char,std::char_traits<char>,std::allocator<char> >::_Tidy_init
_TEXT	ENDS
; Function compile flags: /Odtp /RTCu /ZI
; File c:\program files (x86)\microsoft visual studio\2017\enterprise\vc\tools\msvc\14.14.26428\include\xstring
;	COMDAT ?_Calculate_growth@?$basic_string@DU?$char_traits@D@std@@V?$allocator@D@2@@std@@QEBA_K_K@Z
_TEXT	SEGMENT
_Max$ = 0
_My_data$ = 8
_Masked$ = 16
_Old$ = 24
$T1 = 96
__$ArrayPad$ = 104
this$ = 128
_Requested$ = 136
?_Calculate_growth@?$basic_string@DU?$char_traits@D@std@@V?$allocator@D@2@@std@@QEBA_K_K@Z PROC ; std::basic_string<char,std::char_traits<char>,std::allocator<char> >::_Calculate_growth, COMDAT

; 3840 : 		{	// determines the next array size to allocate

$LN5:
	mov	QWORD PTR [rsp+16], rdx
	mov	QWORD PTR [rsp+8], rcx
	push	rbp
	sub	rsp, 144				; 00000090H
	lea	rbp, QWORD PTR [rsp+32]
	mov	rax, QWORD PTR __security_cookie
	xor	rax, rbp
	mov	QWORD PTR __$ArrayPad$[rbp], rax

; 3841 : 		const size_type _Max = max_size();

	mov	rcx, QWORD PTR this$[rbp]
	call	?max_size@?$basic_string@DU?$char_traits@D@std@@V?$allocator@D@2@@std@@QEBA_KXZ ; std::basic_string<char,std::char_traits<char>,std::allocator<char> >::max_size
	mov	QWORD PTR _Max$[rbp], rax

; 3842 : 		auto& _My_data = this->_Get_data();

	mov	rcx, QWORD PTR this$[rbp]
	call	?_Get_data@?$_String_alloc@U?$_String_base_types@DV?$allocator@D@std@@@std@@@std@@QEBAAEBV?$_String_val@U?$_Simple_types@D@std@@@2@XZ ; std::_String_alloc<std::_String_base_types<char,std::allocator<char> > >::_Get_data
	mov	QWORD PTR _My_data$[rbp], rax

; 3843 : 		const size_type _Masked = _Requested | this->_ALLOC_MASK;

	mov	rax, QWORD PTR _Requested$[rbp]
	or	rax, 15
	mov	QWORD PTR _Masked$[rbp], rax

; 3844 : 		if (_Masked > _Max)

	mov	rax, QWORD PTR _Max$[rbp]
	cmp	QWORD PTR _Masked$[rbp], rax
	jbe	SHORT $LN2@Calculate_

; 3845 : 			{	// the mask overflows, settle for max_size()
; 3846 : 			return (_Max);

	mov	rax, QWORD PTR _Max$[rbp]
	jmp	SHORT $LN1@Calculate_
$LN2@Calculate_:

; 3847 : 			}
; 3848 : 
; 3849 : 		const size_type _Old = _My_data._Myres;

	mov	rax, QWORD PTR _My_data$[rbp]
	mov	rax, QWORD PTR [rax+32]
	mov	QWORD PTR _Old$[rbp], rax

; 3850 : 		if (_Old > _Max - _Old / 2)

	xor	edx, edx
	mov	rax, QWORD PTR _Old$[rbp]
	mov	ecx, 2
	div	rcx
	mov	rcx, QWORD PTR _Max$[rbp]
	sub	rcx, rax
	mov	rax, rcx
	cmp	QWORD PTR _Old$[rbp], rax
	jbe	SHORT $LN3@Calculate_

; 3851 : 			{	// similarly, geometric overflows
; 3852 : 			return (_Max);

	mov	rax, QWORD PTR _Max$[rbp]
	jmp	SHORT $LN1@Calculate_
$LN3@Calculate_:

; 3853 : 			}
; 3854 : 
; 3855 : 		return (_Max_value(_Masked, _Old + _Old / 2));

	xor	edx, edx
	mov	rax, QWORD PTR _Old$[rbp]
	mov	ecx, 2
	div	rcx
	mov	rcx, QWORD PTR _Old$[rbp]
	add	rcx, rax
	mov	rax, rcx
	mov	QWORD PTR $T1[rbp], rax
	lea	rdx, QWORD PTR $T1[rbp]
	lea	rcx, QWORD PTR _Masked$[rbp]
	call	??$_Max_value@_K@std@@YAAEB_KAEB_K0@Z	; std::_Max_value<unsigned __int64>
	mov	rax, QWORD PTR [rax]
$LN1@Calculate_:

; 3856 : 		}

	mov	rcx, QWORD PTR __$ArrayPad$[rbp]
	xor	rcx, rbp
	call	__security_check_cookie
	lea	rsp, QWORD PTR [rbp+112]
	pop	rbp
	ret	0
?_Calculate_growth@?$basic_string@DU?$char_traits@D@std@@V?$allocator@D@2@@std@@QEBA_K_K@Z ENDP ; std::basic_string<char,std::char_traits<char>,std::allocator<char> >::_Calculate_growth
_TEXT	ENDS
; Function compile flags: /Odtp /RTCu /ZI
; File c:\program files (x86)\microsoft visual studio\2017\enterprise\vc\tools\msvc\14.14.26428\include\xstring
;	COMDAT ?max_size@?$basic_string@DU?$char_traits@D@std@@V?$allocator@D@2@@std@@QEBA_KXZ
_TEXT	SEGMENT
_Alloc_max$ = 0
_Storage_max$ = 8
$T1 = 80
$T2 = 88
$T3 = 96
__$ArrayPad$ = 104
this$ = 128
?max_size@?$basic_string@DU?$char_traits@D@std@@V?$allocator@D@2@@std@@QEBA_KXZ PROC ; std::basic_string<char,std::char_traits<char>,std::allocator<char> >::max_size, COMDAT

; 3279 : 		{	// return maximum possible length of sequence

$LN3:
	mov	QWORD PTR [rsp+8], rcx
	push	rbp
	sub	rsp, 144				; 00000090H
	lea	rbp, QWORD PTR [rsp+32]
	mov	rax, QWORD PTR __security_cookie
	xor	rax, rbp
	mov	QWORD PTR __$ArrayPad$[rbp], rax

; 3280 : 		const size_type _Alloc_max = _Alty_traits::max_size(this->_Getal());

	mov	rcx, QWORD PTR this$[rbp]
	call	?_Getal@?$_String_alloc@U?$_String_base_types@DV?$allocator@D@std@@@std@@@std@@QEBAAEBV?$allocator@D@2@XZ ; std::_String_alloc<std::_String_base_types<char,std::allocator<char> > >::_Getal
	mov	rcx, rax
	call	?max_size@?$_Default_allocator_traits@V?$allocator@D@std@@@std@@SA_KAEBV?$allocator@D@2@@Z ; std::_Default_allocator_traits<std::allocator<char> >::max_size
	mov	QWORD PTR _Alloc_max$[rbp], rax

; 3281 : 		const size_type _Storage_max = // can always store small string
; 3282 : 			_Max_value(_Alloc_max, static_cast<size_type>(this->_BUF_SIZE));

	mov	QWORD PTR $T1[rbp], 16
	lea	rdx, QWORD PTR $T1[rbp]
	lea	rcx, QWORD PTR _Alloc_max$[rbp]
	call	??$_Max_value@_K@std@@YAAEB_KAEB_K0@Z	; std::_Max_value<unsigned __int64>
	mov	rax, QWORD PTR [rax]
	mov	QWORD PTR _Storage_max$[rbp], rax

; 3283 : 		return (_Min_value(

	mov	rax, QWORD PTR _Storage_max$[rbp]
	dec	rax
	mov	QWORD PTR $T2[rbp], rax
	call	?max@?$numeric_limits@_J@std@@SA_JXZ	; std::numeric_limits<__int64>::max
	mov	QWORD PTR $T3[rbp], rax
	lea	rdx, QWORD PTR $T2[rbp]
	lea	rcx, QWORD PTR $T3[rbp]
	call	??$_Min_value@_K@std@@YAAEB_KAEB_K0@Z	; std::_Min_value<unsigned __int64>
	mov	rax, QWORD PTR [rax]

; 3284 : 			static_cast<size_type>((numeric_limits<difference_type>::max)()),
; 3285 : 			_Storage_max - 1 // -1 is for null terminator and/or npos
; 3286 : 			));
; 3287 : 
; 3288 : 		}

	mov	rcx, QWORD PTR __$ArrayPad$[rbp]
	xor	rcx, rbp
	call	__security_check_cookie
	lea	rsp, QWORD PTR [rbp+112]
	pop	rbp
	ret	0
?max_size@?$basic_string@DU?$char_traits@D@std@@V?$allocator@D@2@@std@@QEBA_KXZ ENDP ; std::basic_string<char,std::char_traits<char>,std::allocator<char> >::max_size
_TEXT	ENDS
; Function compile flags: /Odtp /RTCu /ZI
; File c:\program files (x86)\microsoft visual studio\2017\enterprise\vc\tools\msvc\14.14.26428\include\xstring
;	COMDAT ?assign@?$basic_string@DU?$char_traits@D@std@@V?$allocator@D@2@@std@@QEAAAEAV12@QEBD@Z
_TEXT	SEGMENT
this$ = 80
_Ptr$ = 88
?assign@?$basic_string@DU?$char_traits@D@std@@V?$allocator@D@2@@std@@QEAAAEAV12@QEBD@Z PROC ; std::basic_string<char,std::char_traits<char>,std::allocator<char> >::assign, COMDAT

; 2657 : 		{	// assign [_Ptr, <null>)

$LN3:
	mov	QWORD PTR [rsp+16], rdx
	mov	QWORD PTR [rsp+8], rcx
	push	rbp
	sub	rsp, 96					; 00000060H
	lea	rbp, QWORD PTR [rsp+32]

; 2658 : 		return (assign(_Ptr, _Convert_size<size_type>(_Traits::length(_Ptr))));

	mov	rcx, QWORD PTR _Ptr$[rbp]
	call	?length@?$char_traits@D@std@@SA_KQEBD@Z	; std::char_traits<char>::length
	mov	rcx, rax
	call	??$_Convert_size@_K@std@@YA_K_K@Z	; std::_Convert_size<unsigned __int64>
	mov	r8, rax
	mov	rdx, QWORD PTR _Ptr$[rbp]
	mov	rcx, QWORD PTR this$[rbp]
	call	?assign@?$basic_string@DU?$char_traits@D@std@@V?$allocator@D@2@@std@@QEAAAEAV12@QEBD_K@Z ; std::basic_string<char,std::char_traits<char>,std::allocator<char> >::assign

; 2659 : 		}

	lea	rsp, QWORD PTR [rbp+64]
	pop	rbp
	ret	0
?assign@?$basic_string@DU?$char_traits@D@std@@V?$allocator@D@2@@std@@QEAAAEAV12@QEBD@Z ENDP ; std::basic_string<char,std::char_traits<char>,std::allocator<char> >::assign
_TEXT	ENDS
; Function compile flags: /Odtp /RTCu /ZI
; File c:\program files (x86)\microsoft visual studio\2017\enterprise\vc\tools\msvc\14.14.26428\include\xstring
;	COMDAT ?assign@?$basic_string@DU?$char_traits@D@std@@V?$allocator@D@2@@std@@QEAAAEAV12@QEBD_K@Z
_TEXT	SEGMENT
_My_data$ = 0
_Old_ptr$1 = 8
$T2 = 80
$T3 = 81
this$ = 128
_Ptr$ = 136
_Count$ = 144
?assign@?$basic_string@DU?$char_traits@D@std@@V?$allocator@D@2@@std@@QEAAAEAV12@QEBD_K@Z PROC ; std::basic_string<char,std::char_traits<char>,std::allocator<char> >::assign, COMDAT

; 2639 : 		{	// assign [_Ptr, _Ptr + _Count)

$LN4:
	mov	QWORD PTR [rsp+24], r8
	mov	QWORD PTR [rsp+16], rdx
	mov	QWORD PTR [rsp+8], rcx
	push	rbp
	push	rdi
	sub	rsp, 136				; 00000088H
	lea	rbp, QWORD PTR [rsp+32]

; 2640 : 		auto& _My_data = this->_Get_data();

	mov	rcx, QWORD PTR this$[rbp]
	call	?_Get_data@?$_String_alloc@U?$_String_base_types@DV?$allocator@D@std@@@std@@@std@@QEAAAEAV?$_String_val@U?$_Simple_types@D@std@@@2@XZ ; std::_String_alloc<std::_String_base_types<char,std::allocator<char> > >::_Get_data
	mov	QWORD PTR _My_data$[rbp], rax

; 2641 : 		if (_Count <= _My_data._Myres)

	mov	rax, QWORD PTR _My_data$[rbp]
	mov	rax, QWORD PTR [rax+32]
	cmp	QWORD PTR _Count$[rbp], rax
	ja	SHORT $LN2@assign

; 2642 : 			{
; 2643 : 			_Elem * const _Old_ptr = _My_data._Myptr();

	mov	rcx, QWORD PTR _My_data$[rbp]
	call	?_Myptr@?$_String_val@U?$_Simple_types@D@std@@@std@@QEAAPEADXZ ; std::_String_val<std::_Simple_types<char> >::_Myptr
	mov	QWORD PTR _Old_ptr$1[rbp], rax

; 2644 : 			_My_data._Mysize = _Count;

	mov	rax, QWORD PTR _My_data$[rbp]
	mov	rcx, QWORD PTR _Count$[rbp]
	mov	QWORD PTR [rax+24], rcx

; 2645 : 			_Traits::move(_Old_ptr, _Ptr, _Count);

	mov	r8, QWORD PTR _Count$[rbp]
	mov	rdx, QWORD PTR _Ptr$[rbp]
	mov	rcx, QWORD PTR _Old_ptr$1[rbp]
	call	?move@?$char_traits@D@std@@SAPEADQEADQEBD_K@Z ; std::char_traits<char>::move

; 2646 : 			_Traits::assign(_Old_ptr[_Count], _Elem());

	mov	BYTE PTR $T2[rbp], 0
	mov	rax, QWORD PTR _Count$[rbp]
	mov	rcx, QWORD PTR _Old_ptr$1[rbp]
	add	rcx, rax
	mov	rax, rcx
	lea	rdx, QWORD PTR $T2[rbp]
	mov	rcx, rax
	call	?assign@?$char_traits@D@std@@SAXAEADAEBD@Z ; std::char_traits<char>::assign

; 2647 : 			return (*this);

	mov	rax, QWORD PTR this$[rbp]
	jmp	SHORT $LN1@assign
$LN2@assign:

; 2648 : 			}
; 2649 : 
; 2650 : 		return (_Reallocate_for(_Count, [](_Elem * const _New_ptr, const size_type _Count, const _Elem * const _Ptr) {

	lea	rax, QWORD PTR $T3[rbp]
	mov	rdi, rax
	xor	eax, eax
	mov	ecx, 1
	rep stosb
	mov	r9, QWORD PTR _Ptr$[rbp]
	movzx	r8d, BYTE PTR $T3[rbp]
	mov	rdx, QWORD PTR _Count$[rbp]
	mov	rcx, QWORD PTR this$[rbp]
	call	??$_Reallocate_for@V<lambda_66f57f934f28d61049862f64df852ff0>@@PEBD@?$basic_string@DU?$char_traits@D@std@@V?$allocator@D@2@@std@@QEAAAEAV01@_KV<lambda_66f57f934f28d61049862f64df852ff0>@@PEBD@Z ; std::basic_string<char,std::char_traits<char>,std::allocator<char> >::_Reallocate_for<<lambda_66f57f934f28d61049862f64df852ff0>,char const *>
$LN1@assign:

; 2651 : 			_Traits::copy(_New_ptr, _Ptr, _Count);
; 2652 : 			_Traits::assign(_New_ptr[_Count], _Elem());
; 2653 : 			}, _Ptr));
; 2654 : 		}

	lea	rsp, QWORD PTR [rbp+104]
	pop	rdi
	pop	rbp
	ret	0
?assign@?$basic_string@DU?$char_traits@D@std@@V?$allocator@D@2@@std@@QEAAAEAV12@QEBD_K@Z ENDP ; std::basic_string<char,std::char_traits<char>,std::allocator<char> >::assign
_TEXT	ENDS
; Function compile flags: /Odtp /RTCu /ZI
; File c:\program files (x86)\microsoft visual studio\2017\enterprise\vc\tools\msvc\14.14.26428\include\xstring
;	COMDAT ??1?$basic_string@DU?$char_traits@D@std@@V?$allocator@D@2@@std@@QEAA@XZ
_TEXT	SEGMENT
$T1 = 64
this$ = 96
??1?$basic_string@DU?$char_traits@D@std@@V?$allocator@D@2@@std@@QEAA@XZ PROC ; std::basic_string<char,std::char_traits<char>,std::allocator<char> >::~basic_string<char,std::char_traits<char>,std::allocator<char> >, COMDAT

; 2441 : 		{	// destroy the string

$LN3:
	mov	QWORD PTR [rsp+8], rcx
	push	rbp
	sub	rsp, 112				; 00000070H
	lea	rbp, QWORD PTR [rsp+32]
	mov	QWORD PTR $T1[rbp], -2

; 2442 : 		_Tidy_deallocate();

	mov	rcx, QWORD PTR this$[rbp]
	call	?_Tidy_deallocate@?$basic_string@DU?$char_traits@D@std@@V?$allocator@D@2@@std@@QEAAXXZ ; std::basic_string<char,std::char_traits<char>,std::allocator<char> >::_Tidy_deallocate
	npad	1

; 2443 : 		}

	mov	rcx, QWORD PTR this$[rbp]
	call	??1?$_String_alloc@U?$_String_base_types@DV?$allocator@D@std@@@std@@@std@@QEAA@XZ ; std::_String_alloc<std::_String_base_types<char,std::allocator<char> > >::~_String_alloc<std::_String_base_types<char,std::allocator<char> > >
	npad	1
	lea	rsp, QWORD PTR [rbp+80]
	pop	rbp
	ret	0
??1?$basic_string@DU?$char_traits@D@std@@V?$allocator@D@2@@std@@QEAA@XZ ENDP ; std::basic_string<char,std::char_traits<char>,std::allocator<char> >::~basic_string<char,std::char_traits<char>,std::allocator<char> >
_TEXT	ENDS
; Function compile flags: /Odtp /RTCu /ZI
; File c:\program files (x86)\microsoft visual studio\2017\enterprise\vc\tools\msvc\14.14.26428\include\xstring
;	COMDAT ??0?$basic_string@DU?$char_traits@D@std@@V?$allocator@D@2@@std@@QEAA@QEBD@Z
_TEXT	SEGMENT
$T1 = 64
this$ = 96
_Ptr$ = 104
??0?$basic_string@DU?$char_traits@D@std@@V?$allocator@D@2@@std@@QEAA@QEBD@Z PROC ; std::basic_string<char,std::char_traits<char>,std::allocator<char> >::basic_string<char,std::char_traits<char>,std::allocator<char> >, COMDAT

; 2166 : 		{	// construct from [_Ptr, <null>)

$LN4:
	mov	QWORD PTR [rsp+16], rdx
	mov	QWORD PTR [rsp+8], rcx
	push	rbp
	sub	rsp, 112				; 00000070H
	lea	rbp, QWORD PTR [rsp+32]
	mov	QWORD PTR $T1[rbp], -2

; 2165 : 		: _Mybase()

	mov	rcx, QWORD PTR this$[rbp]
	call	??0?$_String_alloc@U?$_String_base_types@DV?$allocator@D@std@@@std@@@std@@QEAA@XZ ; std::_String_alloc<std::_String_base_types<char,std::allocator<char> > >::_String_alloc<std::_String_base_types<char,std::allocator<char> > >
	npad	1

; 2167 : 		_Tidy_init();

	mov	rcx, QWORD PTR this$[rbp]
	call	?_Tidy_init@?$basic_string@DU?$char_traits@D@std@@V?$allocator@D@2@@std@@QEAAXXZ ; std::basic_string<char,std::char_traits<char>,std::allocator<char> >::_Tidy_init

; 2168 : 		assign(_Ptr);

	mov	rdx, QWORD PTR _Ptr$[rbp]
	mov	rcx, QWORD PTR this$[rbp]
	call	?assign@?$basic_string@DU?$char_traits@D@std@@V?$allocator@D@2@@std@@QEAAAEAV12@QEBD@Z ; std::basic_string<char,std::char_traits<char>,std::allocator<char> >::assign
	npad	1

; 2169 : 		}

	mov	rax, QWORD PTR this$[rbp]
	lea	rsp, QWORD PTR [rbp+80]
	pop	rbp
	ret	0
??0?$basic_string@DU?$char_traits@D@std@@V?$allocator@D@2@@std@@QEAA@QEBD@Z ENDP ; std::basic_string<char,std::char_traits<char>,std::allocator<char> >::basic_string<char,std::char_traits<char>,std::allocator<char> >
_TEXT	ENDS
;	COMDAT text$x
text$x	SEGMENT
$T1 = 64
this$ = 96
_Ptr$ = 104
?dtor$0@?0???0?$basic_string@DU?$char_traits@D@std@@V?$allocator@D@2@@std@@QEAA@QEBD@Z@4HA PROC ; `std::basic_string<char,std::char_traits<char>,std::allocator<char> >::basic_string<char,std::char_traits<char>,std::allocator<char> >'::`1'::dtor$0
	push	rbp
	sub	rsp, 32					; 00000020H
	lea	rbp, QWORD PTR [rdx+32]
	mov	rcx, QWORD PTR this$[rbp]
	call	??1?$_String_alloc@U?$_String_base_types@DV?$allocator@D@std@@@std@@@std@@QEAA@XZ ; std::_String_alloc<std::_String_base_types<char,std::allocator<char> > >::~_String_alloc<std::_String_base_types<char,std::allocator<char> > >
	add	rsp, 32					; 00000020H
	pop	rbp
	ret	0
?dtor$0@?0???0?$basic_string@DU?$char_traits@D@std@@V?$allocator@D@2@@std@@QEAA@QEBD@Z@4HA ENDP ; `std::basic_string<char,std::char_traits<char>,std::allocator<char> >::basic_string<char,std::char_traits<char>,std::allocator<char> >'::`1'::dtor$0
text$x	ENDS
; Function compile flags: /Odtp /RTCu /ZI
;	COMDAT text$x
text$x	SEGMENT
$T1 = 64
this$ = 96
_Ptr$ = 104
?dtor$0@?0???0?$basic_string@DU?$char_traits@D@std@@V?$allocator@D@2@@std@@QEAA@QEBD@Z@4HA PROC ; `std::basic_string<char,std::char_traits<char>,std::allocator<char> >::basic_string<char,std::char_traits<char>,std::allocator<char> >'::`1'::dtor$0
	push	rbp
	sub	rsp, 32					; 00000020H
	lea	rbp, QWORD PTR [rdx+32]
	mov	rcx, QWORD PTR this$[rbp]
	call	??1?$_String_alloc@U?$_String_base_types@DV?$allocator@D@std@@@std@@@std@@QEAA@XZ ; std::_String_alloc<std::_String_base_types<char,std::allocator<char> > >::~_String_alloc<std::_String_base_types<char,std::allocator<char> > >
	add	rsp, 32					; 00000020H
	pop	rbp
	ret	0
?dtor$0@?0???0?$basic_string@DU?$char_traits@D@std@@V?$allocator@D@2@@std@@QEAA@QEBD@Z@4HA ENDP ; `std::basic_string<char,std::char_traits<char>,std::allocator<char> >::basic_string<char,std::char_traits<char>,std::allocator<char> >'::`1'::dtor$0
text$x	ENDS
; Function compile flags: /Odtp /RTCu /ZI
;	COMDAT ??1?$_Compressed_pair@V?$allocator@D@std@@V?$_String_val@U?$_Simple_types@D@std@@@2@$00@std@@QEAA@XZ
_TEXT	SEGMENT
this$ = 80
??1?$_Compressed_pair@V?$allocator@D@std@@V?$_String_val@U?$_Simple_types@D@std@@@2@$00@std@@QEAA@XZ PROC ; std::_Compressed_pair<std::allocator<char>,std::_String_val<std::_Simple_types<char> >,1>::~_Compressed_pair<std::allocator<char>,std::_String_val<std::_Simple_types<char> >,1>, COMDAT
$LN3:
	mov	QWORD PTR [rsp+8], rcx
	push	rbp
	sub	rsp, 96					; 00000060H
	lea	rbp, QWORD PTR [rsp+32]
	mov	rax, QWORD PTR this$[rbp]
	mov	rcx, rax
	call	??1?$_String_val@U?$_Simple_types@D@std@@@std@@QEAA@XZ
	lea	rsp, QWORD PTR [rbp+64]
	pop	rbp
	ret	0
??1?$_Compressed_pair@V?$allocator@D@std@@V?$_String_val@U?$_Simple_types@D@std@@@2@$00@std@@QEAA@XZ ENDP ; std::_Compressed_pair<std::allocator<char>,std::_String_val<std::_Simple_types<char> >,1>::~_Compressed_pair<std::allocator<char>,std::_String_val<std::_Simple_types<char> >,1>
_TEXT	ENDS
; Function compile flags: /Odtp /RTCu /ZI
; File c:\program files (x86)\microsoft visual studio\2017\enterprise\vc\tools\msvc\14.14.26428\include\xutility
;	COMDAT ?_Get_second@?$_Compressed_pair@V?$allocator@D@std@@V?$_String_val@U?$_Simple_types@D@std@@@2@$00@std@@QEBAAEBV?$_String_val@U?$_Simple_types@D@std@@@2@XZ
_TEXT	SEGMENT
this$ = 80
?_Get_second@?$_Compressed_pair@V?$allocator@D@std@@V?$_String_val@U?$_Simple_types@D@std@@@2@$00@std@@QEBAAEBV?$_String_val@U?$_Simple_types@D@std@@@2@XZ PROC ; std::_Compressed_pair<std::allocator<char>,std::_String_val<std::_Simple_types<char> >,1>::_Get_second, COMDAT

; 354  : 		{	// return const reference to second

$LN3:
	mov	QWORD PTR [rsp+8], rcx
	push	rbp
	sub	rsp, 64					; 00000040H
	mov	rbp, rsp

; 355  : 		return (_Myval2);

	mov	rax, QWORD PTR this$[rbp]

; 356  : 		}

	lea	rsp, QWORD PTR [rbp+64]
	pop	rbp
	ret	0
?_Get_second@?$_Compressed_pair@V?$allocator@D@std@@V?$_String_val@U?$_Simple_types@D@std@@@2@$00@std@@QEBAAEBV?$_String_val@U?$_Simple_types@D@std@@@2@XZ ENDP ; std::_Compressed_pair<std::allocator<char>,std::_String_val<std::_Simple_types<char> >,1>::_Get_second
_TEXT	ENDS
; Function compile flags: /Odtp /RTCu /ZI
; File c:\program files (x86)\microsoft visual studio\2017\enterprise\vc\tools\msvc\14.14.26428\include\xutility
;	COMDAT ?_Get_second@?$_Compressed_pair@V?$allocator@D@std@@V?$_String_val@U?$_Simple_types@D@std@@@2@$00@std@@QEAAAEAV?$_String_val@U?$_Simple_types@D@std@@@2@XZ
_TEXT	SEGMENT
this$ = 80
?_Get_second@?$_Compressed_pair@V?$allocator@D@std@@V?$_String_val@U?$_Simple_types@D@std@@@2@$00@std@@QEAAAEAV?$_String_val@U?$_Simple_types@D@std@@@2@XZ PROC ; std::_Compressed_pair<std::allocator<char>,std::_String_val<std::_Simple_types<char> >,1>::_Get_second, COMDAT

; 349  : 		{	// return reference to second

$LN3:
	mov	QWORD PTR [rsp+8], rcx
	push	rbp
	sub	rsp, 64					; 00000040H
	mov	rbp, rsp

; 350  : 		return (_Myval2);

	mov	rax, QWORD PTR this$[rbp]

; 351  : 		}

	lea	rsp, QWORD PTR [rbp+64]
	pop	rbp
	ret	0
?_Get_second@?$_Compressed_pair@V?$allocator@D@std@@V?$_String_val@U?$_Simple_types@D@std@@@2@$00@std@@QEAAAEAV?$_String_val@U?$_Simple_types@D@std@@@2@XZ ENDP ; std::_Compressed_pair<std::allocator<char>,std::_String_val<std::_Simple_types<char> >,1>::_Get_second
_TEXT	ENDS
; Function compile flags: /Odtp /RTCu /ZI
; File c:\program files (x86)\microsoft visual studio\2017\enterprise\vc\tools\msvc\14.14.26428\include\xutility
;	COMDAT ?_Get_first@?$_Compressed_pair@V?$allocator@D@std@@V?$_String_val@U?$_Simple_types@D@std@@@2@$00@std@@QEBAAEBV?$allocator@D@2@XZ
_TEXT	SEGMENT
this$ = 80
?_Get_first@?$_Compressed_pair@V?$allocator@D@std@@V?$_String_val@U?$_Simple_types@D@std@@@2@$00@std@@QEBAAEBV?$allocator@D@2@XZ PROC ; std::_Compressed_pair<std::allocator<char>,std::_String_val<std::_Simple_types<char> >,1>::_Get_first, COMDAT

; 334  : 		{	// return const reference to first

$LN3:
	mov	QWORD PTR [rsp+8], rcx
	push	rbp
	sub	rsp, 64					; 00000040H
	mov	rbp, rsp

; 335  : 		return (*this);

	mov	rax, QWORD PTR this$[rbp]

; 336  : 		}

	lea	rsp, QWORD PTR [rbp+64]
	pop	rbp
	ret	0
?_Get_first@?$_Compressed_pair@V?$allocator@D@std@@V?$_String_val@U?$_Simple_types@D@std@@@2@$00@std@@QEBAAEBV?$allocator@D@2@XZ ENDP ; std::_Compressed_pair<std::allocator<char>,std::_String_val<std::_Simple_types<char> >,1>::_Get_first
_TEXT	ENDS
; Function compile flags: /Odtp /RTCu /ZI
; File c:\program files (x86)\microsoft visual studio\2017\enterprise\vc\tools\msvc\14.14.26428\include\xutility
;	COMDAT ?_Get_first@?$_Compressed_pair@V?$allocator@D@std@@V?$_String_val@U?$_Simple_types@D@std@@@2@$00@std@@QEAAAEAV?$allocator@D@2@XZ
_TEXT	SEGMENT
this$ = 80
?_Get_first@?$_Compressed_pair@V?$allocator@D@std@@V?$_String_val@U?$_Simple_types@D@std@@@2@$00@std@@QEAAAEAV?$allocator@D@2@XZ PROC ; std::_Compressed_pair<std::allocator<char>,std::_String_val<std::_Simple_types<char> >,1>::_Get_first, COMDAT

; 329  : 		{	// return reference to first

$LN3:
	mov	QWORD PTR [rsp+8], rcx
	push	rbp
	sub	rsp, 64					; 00000040H
	mov	rbp, rsp

; 330  : 		return (*this);

	mov	rax, QWORD PTR this$[rbp]

; 331  : 		}

	lea	rsp, QWORD PTR [rbp+64]
	pop	rbp
	ret	0
?_Get_first@?$_Compressed_pair@V?$allocator@D@std@@V?$_String_val@U?$_Simple_types@D@std@@@2@$00@std@@QEAAAEAV?$allocator@D@2@XZ ENDP ; std::_Compressed_pair<std::allocator<char>,std::_String_val<std::_Simple_types<char> >,1>::_Get_first
_TEXT	ENDS
; Function compile flags: /Odtp /RTCu /ZI
; File c:\program files (x86)\microsoft visual studio\2017\enterprise\vc\tools\msvc\14.14.26428\include\xstring
;	COMDAT ?_Get_data@?$_String_alloc@U?$_String_base_types@DV?$allocator@D@std@@@std@@@std@@QEBAAEBV?$_String_val@U?$_Simple_types@D@std@@@2@XZ
_TEXT	SEGMENT
this$ = 80
?_Get_data@?$_String_alloc@U?$_String_base_types@DV?$allocator@D@std@@@std@@@std@@QEBAAEBV?$_String_val@U?$_Simple_types@D@std@@@2@XZ PROC ; std::_String_alloc<std::_String_base_types<char,std::allocator<char> > >::_Get_data, COMDAT

; 2030 : 		{	// return const reference to _String_val

$LN3:
	mov	QWORD PTR [rsp+8], rcx
	push	rbp
	sub	rsp, 96					; 00000060H
	lea	rbp, QWORD PTR [rsp+32]

; 2031 : 		return (_Mypair._Get_second());

	mov	rax, QWORD PTR this$[rbp]
	mov	rcx, rax
	call	?_Get_second@?$_Compressed_pair@V?$allocator@D@std@@V?$_String_val@U?$_Simple_types@D@std@@@2@$00@std@@QEBAAEBV?$_String_val@U?$_Simple_types@D@std@@@2@XZ ; std::_Compressed_pair<std::allocator<char>,std::_String_val<std::_Simple_types<char> >,1>::_Get_second

; 2032 : 		}

	lea	rsp, QWORD PTR [rbp+64]
	pop	rbp
	ret	0
?_Get_data@?$_String_alloc@U?$_String_base_types@DV?$allocator@D@std@@@std@@@std@@QEBAAEBV?$_String_val@U?$_Simple_types@D@std@@@2@XZ ENDP ; std::_String_alloc<std::_String_base_types<char,std::allocator<char> > >::_Get_data
_TEXT	ENDS
; Function compile flags: /Odtp /RTCu /ZI
; File c:\program files (x86)\microsoft visual studio\2017\enterprise\vc\tools\msvc\14.14.26428\include\xstring
;	COMDAT ?_Get_data@?$_String_alloc@U?$_String_base_types@DV?$allocator@D@std@@@std@@@std@@QEAAAEAV?$_String_val@U?$_Simple_types@D@std@@@2@XZ
_TEXT	SEGMENT
this$ = 80
?_Get_data@?$_String_alloc@U?$_String_base_types@DV?$allocator@D@std@@@std@@@std@@QEAAAEAV?$_String_val@U?$_Simple_types@D@std@@@2@XZ PROC ; std::_String_alloc<std::_String_base_types<char,std::allocator<char> > >::_Get_data, COMDAT

; 2025 : 		{	// return reference to _String_val

$LN3:
	mov	QWORD PTR [rsp+8], rcx
	push	rbp
	sub	rsp, 96					; 00000060H
	lea	rbp, QWORD PTR [rsp+32]

; 2026 : 		return (_Mypair._Get_second());

	mov	rax, QWORD PTR this$[rbp]
	mov	rcx, rax
	call	?_Get_second@?$_Compressed_pair@V?$allocator@D@std@@V?$_String_val@U?$_Simple_types@D@std@@@2@$00@std@@QEAAAEAV?$_String_val@U?$_Simple_types@D@std@@@2@XZ ; std::_Compressed_pair<std::allocator<char>,std::_String_val<std::_Simple_types<char> >,1>::_Get_second

; 2027 : 		}

	lea	rsp, QWORD PTR [rbp+64]
	pop	rbp
	ret	0
?_Get_data@?$_String_alloc@U?$_String_base_types@DV?$allocator@D@std@@@std@@@std@@QEAAAEAV?$_String_val@U?$_Simple_types@D@std@@@2@XZ ENDP ; std::_String_alloc<std::_String_base_types<char,std::allocator<char> > >::_Get_data
_TEXT	ENDS
; Function compile flags: /Odtp /RTCu /ZI
; File c:\program files (x86)\microsoft visual studio\2017\enterprise\vc\tools\msvc\14.14.26428\include\xstring
;	COMDAT ?_Getal@?$_String_alloc@U?$_String_base_types@DV?$allocator@D@std@@@std@@@std@@QEBAAEBV?$allocator@D@2@XZ
_TEXT	SEGMENT
this$ = 80
?_Getal@?$_String_alloc@U?$_String_base_types@DV?$allocator@D@std@@@std@@@std@@QEBAAEBV?$allocator@D@2@XZ PROC ; std::_String_alloc<std::_String_base_types<char,std::allocator<char> > >::_Getal, COMDAT

; 2020 : 		{	// return const reference to allocator

$LN3:
	mov	QWORD PTR [rsp+8], rcx
	push	rbp
	sub	rsp, 96					; 00000060H
	lea	rbp, QWORD PTR [rsp+32]

; 2021 : 		return (_Mypair._Get_first());

	mov	rax, QWORD PTR this$[rbp]
	mov	rcx, rax
	call	?_Get_first@?$_Compressed_pair@V?$allocator@D@std@@V?$_String_val@U?$_Simple_types@D@std@@@2@$00@std@@QEBAAEBV?$allocator@D@2@XZ ; std::_Compressed_pair<std::allocator<char>,std::_String_val<std::_Simple_types<char> >,1>::_Get_first

; 2022 : 		}

	lea	rsp, QWORD PTR [rbp+64]
	pop	rbp
	ret	0
?_Getal@?$_String_alloc@U?$_String_base_types@DV?$allocator@D@std@@@std@@@std@@QEBAAEBV?$allocator@D@2@XZ ENDP ; std::_String_alloc<std::_String_base_types<char,std::allocator<char> > >::_Getal
_TEXT	ENDS
; Function compile flags: /Odtp /RTCu /ZI
; File c:\program files (x86)\microsoft visual studio\2017\enterprise\vc\tools\msvc\14.14.26428\include\xstring
;	COMDAT ?_Getal@?$_String_alloc@U?$_String_base_types@DV?$allocator@D@std@@@std@@@std@@QEAAAEAV?$allocator@D@2@XZ
_TEXT	SEGMENT
this$ = 80
?_Getal@?$_String_alloc@U?$_String_base_types@DV?$allocator@D@std@@@std@@@std@@QEAAAEAV?$allocator@D@2@XZ PROC ; std::_String_alloc<std::_String_base_types<char,std::allocator<char> > >::_Getal, COMDAT

; 2015 : 		{	// return reference to allocator

$LN3:
	mov	QWORD PTR [rsp+8], rcx
	push	rbp
	sub	rsp, 96					; 00000060H
	lea	rbp, QWORD PTR [rsp+32]

; 2016 : 		return (_Mypair._Get_first());

	mov	rax, QWORD PTR this$[rbp]
	mov	rcx, rax
	call	?_Get_first@?$_Compressed_pair@V?$allocator@D@std@@V?$_String_val@U?$_Simple_types@D@std@@@2@$00@std@@QEAAAEAV?$allocator@D@2@XZ ; std::_Compressed_pair<std::allocator<char>,std::_String_val<std::_Simple_types<char> >,1>::_Get_first

; 2017 : 		}

	lea	rsp, QWORD PTR [rbp+64]
	pop	rbp
	ret	0
?_Getal@?$_String_alloc@U?$_String_base_types@DV?$allocator@D@std@@@std@@@std@@QEAAAEAV?$allocator@D@2@XZ ENDP ; std::_String_alloc<std::_String_base_types<char,std::allocator<char> > >::_Getal
_TEXT	ENDS
; Function compile flags: /Odtp /RTCu /ZI
; File c:\program files (x86)\microsoft visual studio\2017\enterprise\vc\tools\msvc\14.14.26428\include\xstring
;	COMDAT ?_Orphan_all@?$_String_alloc@U?$_String_base_types@DV?$allocator@D@std@@@std@@@std@@QEAAXXZ
_TEXT	SEGMENT
this$ = 80
?_Orphan_all@?$_String_alloc@U?$_String_base_types@DV?$allocator@D@std@@@std@@@std@@QEAAXXZ PROC ; std::_String_alloc<std::_String_base_types<char,std::allocator<char> > >::_Orphan_all, COMDAT

; 2005 : 		{	// orphan all iterators

$LN3:
	mov	QWORD PTR [rsp+8], rcx
	push	rbp
	sub	rsp, 96					; 00000060H
	lea	rbp, QWORD PTR [rsp+32]

; 2006 : 		_Get_data()._Orphan_all();

	mov	rcx, QWORD PTR this$[rbp]
	call	?_Get_data@?$_String_alloc@U?$_String_base_types@DV?$allocator@D@std@@@std@@@std@@QEAAAEAV?$_String_val@U?$_Simple_types@D@std@@@2@XZ ; std::_String_alloc<std::_String_base_types<char,std::allocator<char> > >::_Get_data
	mov	rcx, rax
	call	?_Orphan_all@_Container_base12@std@@QEAAXXZ ; std::_Container_base12::_Orphan_all

; 2007 : 		}

	lea	rsp, QWORD PTR [rbp+64]
	pop	rbp
	ret	0
?_Orphan_all@?$_String_alloc@U?$_String_base_types@DV?$allocator@D@std@@@std@@@std@@QEAAXXZ ENDP ; std::_String_alloc<std::_String_base_types<char,std::allocator<char> > >::_Orphan_all
_TEXT	ENDS
; Function compile flags: /Odtp /RTCu /ZI
; File c:\program files (x86)\microsoft visual studio\2017\enterprise\vc\tools\msvc\14.14.26428\include\xstring
;	COMDAT ?_Myproxy@?$_String_alloc@U?$_String_base_types@DV?$allocator@D@std@@@std@@@std@@QEAAAEAPEAU_Container_proxy@2@XZ
_TEXT	SEGMENT
this$ = 80
?_Myproxy@?$_String_alloc@U?$_String_base_types@DV?$allocator@D@std@@@std@@@std@@QEAAAEAPEAU_Container_proxy@2@XZ PROC ; std::_String_alloc<std::_String_base_types<char,std::allocator<char> > >::_Myproxy, COMDAT

; 1994 : 		{	// return reference to _Myproxy

$LN3:
	mov	QWORD PTR [rsp+8], rcx
	push	rbp
	sub	rsp, 96					; 00000060H
	lea	rbp, QWORD PTR [rsp+32]

; 1995 : 		return (_Get_data()._Myproxy);

	mov	rcx, QWORD PTR this$[rbp]
	call	?_Get_data@?$_String_alloc@U?$_String_base_types@DV?$allocator@D@std@@@std@@@std@@QEAAAEAV?$_String_val@U?$_Simple_types@D@std@@@2@XZ ; std::_String_alloc<std::_String_base_types<char,std::allocator<char> > >::_Get_data

; 1996 : 		}

	lea	rsp, QWORD PTR [rbp+64]
	pop	rbp
	ret	0
?_Myproxy@?$_String_alloc@U?$_String_base_types@DV?$allocator@D@std@@@std@@@std@@QEAAAEAPEAU_Container_proxy@2@XZ ENDP ; std::_String_alloc<std::_String_base_types<char,std::allocator<char> > >::_Myproxy
_TEXT	ENDS
; Function compile flags: /Odtp /RTCu /ZI
; File c:\program files (x86)\microsoft visual studio\2017\enterprise\vc\tools\msvc\14.14.26428\include\xstring
;	COMDAT ?_Free_proxy@?$_String_alloc@U?$_String_base_types@DV?$allocator@D@std@@@std@@@std@@QEAAXXZ
_TEXT	SEGMENT
_Proxy_allocator$ = 0
__$ArrayPad$ = 72
this$ = 96
?_Free_proxy@?$_String_alloc@U?$_String_base_types@DV?$allocator@D@std@@@std@@@std@@QEAAXXZ PROC ; std::_String_alloc<std::_String_base_types<char,std::allocator<char> > >::_Free_proxy, COMDAT

; 1980 : 		{	// destroy proxy

$LN3:
	mov	QWORD PTR [rsp+8], rcx
	push	rbp
	sub	rsp, 112				; 00000070H
	lea	rbp, QWORD PTR [rsp+32]
	mov	rax, QWORD PTR __security_cookie
	xor	rax, rbp
	mov	QWORD PTR __$ArrayPad$[rbp], rax

; 1981 : 		_Alproxy _Proxy_allocator(_Getal());

	mov	rcx, QWORD PTR this$[rbp]
	call	?_Getal@?$_String_alloc@U?$_String_base_types@DV?$allocator@D@std@@@std@@@std@@QEAAAEAV?$allocator@D@2@XZ ; std::_String_alloc<std::_String_base_types<char,std::allocator<char> > >::_Getal
	mov	rdx, rax
	lea	rcx, QWORD PTR _Proxy_allocator$[rbp]
	call	??$?0D@?$allocator@U_Container_proxy@std@@@std@@QEAA@AEBV?$allocator@D@1@@Z ; std::allocator<std::_Container_proxy>::allocator<std::_Container_proxy><char>

; 1982 : 		_Orphan_all();

	mov	rcx, QWORD PTR this$[rbp]
	call	?_Orphan_all@?$_String_alloc@U?$_String_base_types@DV?$allocator@D@std@@@std@@@std@@QEAAXXZ ; std::_String_alloc<std::_String_base_types<char,std::allocator<char> > >::_Orphan_all

; 1983 : 		_Alproxy_traits::destroy(_Proxy_allocator, _Myproxy());

	mov	rcx, QWORD PTR this$[rbp]
	call	?_Myproxy@?$_String_alloc@U?$_String_base_types@DV?$allocator@D@std@@@std@@@std@@QEAAAEAPEAU_Container_proxy@2@XZ ; std::_String_alloc<std::_String_base_types<char,std::allocator<char> > >::_Myproxy
	mov	rdx, QWORD PTR [rax]
	lea	rcx, QWORD PTR _Proxy_allocator$[rbp]
	call	??$destroy@U_Container_proxy@std@@@?$_Default_allocator_traits@V?$allocator@U_Container_proxy@std@@@std@@@std@@SAXAEAV?$allocator@U_Container_proxy@std@@@1@QEAU_Container_proxy@1@@Z ; std::_Default_allocator_traits<std::allocator<std::_Container_proxy> >::destroy<std::_Container_proxy>

; 1984 : 		_Deallocate_plain(_Proxy_allocator, _Myproxy());

	mov	rcx, QWORD PTR this$[rbp]
	call	?_Myproxy@?$_String_alloc@U?$_String_base_types@DV?$allocator@D@std@@@std@@@std@@QEAAAEAPEAU_Container_proxy@2@XZ ; std::_String_alloc<std::_String_base_types<char,std::allocator<char> > >::_Myproxy
	mov	rdx, QWORD PTR [rax]
	lea	rcx, QWORD PTR _Proxy_allocator$[rbp]
	call	??$_Deallocate_plain@V?$allocator@U_Container_proxy@std@@@std@@$0A@@std@@YAXAEAV?$allocator@U_Container_proxy@std@@@0@QEAU_Container_proxy@0@@Z ; std::_Deallocate_plain<std::allocator<std::_Container_proxy>,0>

; 1985 : 		_Myproxy() = 0;

	mov	rcx, QWORD PTR this$[rbp]
	call	?_Myproxy@?$_String_alloc@U?$_String_base_types@DV?$allocator@D@std@@@std@@@std@@QEAAAEAPEAU_Container_proxy@2@XZ ; std::_String_alloc<std::_String_base_types<char,std::allocator<char> > >::_Myproxy
	mov	QWORD PTR [rax], 0

; 1986 : 		}

	mov	rcx, QWORD PTR __$ArrayPad$[rbp]
	xor	rcx, rbp
	call	__security_check_cookie
	lea	rsp, QWORD PTR [rbp+80]
	pop	rbp
	ret	0
?_Free_proxy@?$_String_alloc@U?$_String_base_types@DV?$allocator@D@std@@@std@@@std@@QEAAXXZ ENDP ; std::_String_alloc<std::_String_base_types<char,std::allocator<char> > >::_Free_proxy
_TEXT	ENDS
; Function compile flags: /Odtp /RTCu /ZI
; File c:\program files (x86)\microsoft visual studio\2017\enterprise\vc\tools\msvc\14.14.26428\include\xstring
;	COMDAT ?_Alloc_proxy@?$_String_alloc@U?$_String_base_types@DV?$allocator@D@std@@@std@@@std@@QEAAXXZ
_TEXT	SEGMENT
_Proxy_allocator$ = 0
$T1 = 72
tv91 = 88
tv79 = 88
tv70 = 88
__$ArrayPad$ = 96
this$ = 128
?_Alloc_proxy@?$_String_alloc@U?$_String_base_types@DV?$allocator@D@std@@@std@@@std@@QEAAXXZ PROC ; std::_String_alloc<std::_String_base_types<char,std::allocator<char> > >::_Alloc_proxy, COMDAT

; 1972 : 		{	// construct proxy

$LN3:
	mov	QWORD PTR [rsp+8], rcx
	push	rbp
	sub	rsp, 144				; 00000090H
	lea	rbp, QWORD PTR [rsp+32]
	mov	rax, QWORD PTR __security_cookie
	xor	rax, rbp
	mov	QWORD PTR __$ArrayPad$[rbp], rax

; 1973 : 		_Alproxy _Proxy_allocator(_Getal());

	mov	rcx, QWORD PTR this$[rbp]
	call	?_Getal@?$_String_alloc@U?$_String_base_types@DV?$allocator@D@std@@@std@@@std@@QEAAAEAV?$allocator@D@2@XZ ; std::_String_alloc<std::_String_base_types<char,std::allocator<char> > >::_Getal
	mov	rdx, rax
	lea	rcx, QWORD PTR _Proxy_allocator$[rbp]
	call	??$?0D@?$allocator@U_Container_proxy@std@@@std@@QEAA@AEBV?$allocator@D@1@@Z ; std::allocator<std::_Container_proxy>::allocator<std::_Container_proxy><char>

; 1974 : 		_Myproxy() = _Unfancy(_Proxy_allocator.allocate(1));

	mov	edx, 1
	lea	rcx, QWORD PTR _Proxy_allocator$[rbp]
	call	?allocate@?$allocator@U_Container_proxy@std@@@std@@QEAAPEAU_Container_proxy@2@_K@Z ; std::allocator<std::_Container_proxy>::allocate
	mov	rcx, rax
	call	??$_Unfancy@U_Container_proxy@std@@@std@@YAPEAU_Container_proxy@0@PEAU10@@Z ; std::_Unfancy<std::_Container_proxy>
	mov	QWORD PTR tv70[rbp], rax
	mov	rcx, QWORD PTR this$[rbp]
	call	?_Myproxy@?$_String_alloc@U?$_String_base_types@DV?$allocator@D@std@@@std@@@std@@QEAAAEAPEAU_Container_proxy@2@XZ ; std::_String_alloc<std::_String_base_types<char,std::allocator<char> > >::_Myproxy
	mov	rcx, QWORD PTR tv70[rbp]
	mov	QWORD PTR [rax], rcx

; 1975 : 		_Alproxy_traits::construct(_Proxy_allocator, _Myproxy(), _Container_proxy());

	lea	rcx, QWORD PTR $T1[rbp]
	call	??0_Container_proxy@std@@QEAA@XZ	; std::_Container_proxy::_Container_proxy
	mov	QWORD PTR tv79[rbp], rax
	mov	rcx, QWORD PTR this$[rbp]
	call	?_Myproxy@?$_String_alloc@U?$_String_base_types@DV?$allocator@D@std@@@std@@@std@@QEAAAEAPEAU_Container_proxy@2@XZ ; std::_String_alloc<std::_String_base_types<char,std::allocator<char> > >::_Myproxy
	mov	rcx, QWORD PTR tv79[rbp]
	mov	r8, rcx
	mov	rdx, QWORD PTR [rax]
	lea	rcx, QWORD PTR _Proxy_allocator$[rbp]
	call	??$construct@U_Container_proxy@std@@U12@@?$_Default_allocator_traits@V?$allocator@U_Container_proxy@std@@@std@@@std@@SAXAEAV?$allocator@U_Container_proxy@std@@@1@QEAU_Container_proxy@1@$$QEAU31@@Z ; std::_Default_allocator_traits<std::allocator<std::_Container_proxy> >::construct<std::_Container_proxy,std::_Container_proxy>

; 1976 : 		_Myproxy()->_Mycont = _STD addressof(_Get_data());

	mov	rcx, QWORD PTR this$[rbp]
	call	?_Get_data@?$_String_alloc@U?$_String_base_types@DV?$allocator@D@std@@@std@@@std@@QEAAAEAV?$_String_val@U?$_Simple_types@D@std@@@2@XZ ; std::_String_alloc<std::_String_base_types<char,std::allocator<char> > >::_Get_data
	mov	rcx, rax
	call	??$addressof@V?$_String_val@U?$_Simple_types@D@std@@@std@@@std@@YAPEAV?$_String_val@U?$_Simple_types@D@std@@@0@AEAV10@@Z ; std::addressof<std::_String_val<std::_Simple_types<char> > >
	mov	QWORD PTR tv91[rbp], rax
	mov	rcx, QWORD PTR this$[rbp]
	call	?_Myproxy@?$_String_alloc@U?$_String_base_types@DV?$allocator@D@std@@@std@@@std@@QEAAAEAPEAU_Container_proxy@2@XZ ; std::_String_alloc<std::_String_base_types<char,std::allocator<char> > >::_Myproxy
	mov	rax, QWORD PTR [rax]
	mov	rcx, QWORD PTR tv91[rbp]
	mov	QWORD PTR [rax], rcx

; 1977 : 		}

	mov	rcx, QWORD PTR __$ArrayPad$[rbp]
	xor	rcx, rbp
	call	__security_check_cookie
	lea	rsp, QWORD PTR [rbp+112]
	pop	rbp
	ret	0
?_Alloc_proxy@?$_String_alloc@U?$_String_base_types@DV?$allocator@D@std@@@std@@@std@@QEAAXXZ ENDP ; std::_String_alloc<std::_String_base_types<char,std::allocator<char> > >::_Alloc_proxy
_TEXT	ENDS
; Function compile flags: /Odtp /RTCu /ZI
; File c:\program files (x86)\microsoft visual studio\2017\enterprise\vc\tools\msvc\14.14.26428\include\xstring
;	COMDAT ??1?$_String_alloc@U?$_String_base_types@DV?$allocator@D@std@@@std@@@std@@QEAA@XZ
_TEXT	SEGMENT
$T1 = 64
this$ = 96
??1?$_String_alloc@U?$_String_base_types@DV?$allocator@D@std@@@std@@@std@@QEAA@XZ PROC ; std::_String_alloc<std::_String_base_types<char,std::allocator<char> > >::~_String_alloc<std::_String_base_types<char,std::allocator<char> > >, COMDAT

; 1931 : 		{	// destroy the object

$LN3:
	mov	QWORD PTR [rsp+8], rcx
	push	rbp
	sub	rsp, 112				; 00000070H
	lea	rbp, QWORD PTR [rsp+32]
	mov	QWORD PTR $T1[rbp], -2

; 1932 : 		_Free_proxy();

	mov	rcx, QWORD PTR this$[rbp]
	call	?_Free_proxy@?$_String_alloc@U?$_String_base_types@DV?$allocator@D@std@@@std@@@std@@QEAAXXZ ; std::_String_alloc<std::_String_base_types<char,std::allocator<char> > >::_Free_proxy
	npad	1

; 1933 : 		}

	mov	rax, QWORD PTR this$[rbp]
	mov	rcx, rax
	call	??1?$_Compressed_pair@V?$allocator@D@std@@V?$_String_val@U?$_Simple_types@D@std@@@2@$00@std@@QEAA@XZ
	npad	1
	lea	rsp, QWORD PTR [rbp+80]
	pop	rbp
	ret	0
??1?$_String_alloc@U?$_String_base_types@DV?$allocator@D@std@@@std@@@std@@QEAA@XZ ENDP ; std::_String_alloc<std::_String_base_types<char,std::allocator<char> > >::~_String_alloc<std::_String_base_types<char,std::allocator<char> > >
_TEXT	ENDS
; Function compile flags: /Odtp /RTCu /ZI
; File c:\program files (x86)\microsoft visual studio\2017\enterprise\vc\tools\msvc\14.14.26428\include\xstring
;	COMDAT ??0?$_String_alloc@U?$_String_base_types@DV?$allocator@D@std@@@std@@@std@@QEAA@XZ
_TEXT	SEGMENT
$T1 = 64
$T2 = 72
this$ = 96
??0?$_String_alloc@U?$_String_base_types@DV?$allocator@D@std@@@std@@@std@@QEAA@XZ PROC ; std::_String_alloc<std::_String_base_types<char,std::allocator<char> > >::_String_alloc<std::_String_base_types<char,std::allocator<char> > >, COMDAT

; 1917 : 		{	// default construct allocator

$LN4:
	mov	QWORD PTR [rsp+8], rcx
	push	rbp
	sub	rsp, 112				; 00000070H
	lea	rbp, QWORD PTR [rsp+32]
	mov	QWORD PTR $T2[rbp], -2

; 1916 : 		: _Mypair(_Zero_then_variadic_args_t())

	mov	rax, QWORD PTR this$[rbp]
	movzx	edx, BYTE PTR $T1[rbp]
	mov	rcx, rax
	call	??$?0$$V@?$_Compressed_pair@V?$allocator@D@std@@V?$_String_val@U?$_Simple_types@D@std@@@2@$00@std@@QEAA@U_Zero_then_variadic_args_t@1@@Z ; std::_Compressed_pair<std::allocator<char>,std::_String_val<std::_Simple_types<char> >,1>::_Compressed_pair<std::allocator<char>,std::_String_val<std::_Simple_types<char> >,1><>
	npad	1

; 1918 : 		_Alloc_proxy();

	mov	rcx, QWORD PTR this$[rbp]
	call	?_Alloc_proxy@?$_String_alloc@U?$_String_base_types@DV?$allocator@D@std@@@std@@@std@@QEAAXXZ ; std::_String_alloc<std::_String_base_types<char,std::allocator<char> > >::_Alloc_proxy
	npad	1

; 1919 : 		}

	mov	rax, QWORD PTR this$[rbp]
	lea	rsp, QWORD PTR [rbp+80]
	pop	rbp
	ret	0
??0?$_String_alloc@U?$_String_base_types@DV?$allocator@D@std@@@std@@@std@@QEAA@XZ ENDP ; std::_String_alloc<std::_String_base_types<char,std::allocator<char> > >::_String_alloc<std::_String_base_types<char,std::allocator<char> > >
_TEXT	ENDS
;	COMDAT text$x
text$x	SEGMENT
$T1 = 64
$T2 = 72
this$ = 96
?dtor$0@?0???0?$_String_alloc@U?$_String_base_types@DV?$allocator@D@std@@@std@@@std@@QEAA@XZ@4HA PROC ; `std::_String_alloc<std::_String_base_types<char,std::allocator<char> > >::_String_alloc<std::_String_base_types<char,std::allocator<char> > >'::`1'::dtor$0
	push	rbp
	sub	rsp, 32					; 00000020H
	lea	rbp, QWORD PTR [rdx+32]
	mov	rcx, QWORD PTR this$[rbp]
	call	??1?$_Compressed_pair@V?$allocator@D@std@@V?$_String_val@U?$_Simple_types@D@std@@@2@$00@std@@QEAA@XZ
	add	rsp, 32					; 00000020H
	pop	rbp
	ret	0
?dtor$0@?0???0?$_String_alloc@U?$_String_base_types@DV?$allocator@D@std@@@std@@@std@@QEAA@XZ@4HA ENDP ; `std::_String_alloc<std::_String_base_types<char,std::allocator<char> > >::_String_alloc<std::_String_base_types<char,std::allocator<char> > >'::`1'::dtor$0
text$x	ENDS
; Function compile flags: /Odtp /RTCu /ZI
;	COMDAT text$x
text$x	SEGMENT
$T1 = 64
$T2 = 72
this$ = 96
?dtor$0@?0???0?$_String_alloc@U?$_String_base_types@DV?$allocator@D@std@@@std@@@std@@QEAA@XZ@4HA PROC ; `std::_String_alloc<std::_String_base_types<char,std::allocator<char> > >::_String_alloc<std::_String_base_types<char,std::allocator<char> > >'::`1'::dtor$0
	push	rbp
	sub	rsp, 32					; 00000020H
	lea	rbp, QWORD PTR [rdx+32]
	mov	rcx, QWORD PTR this$[rbp]
	call	??1?$_Compressed_pair@V?$allocator@D@std@@V?$_String_val@U?$_Simple_types@D@std@@@2@$00@std@@QEAA@XZ
	add	rsp, 32					; 00000020H
	pop	rbp
	ret	0
?dtor$0@?0???0?$_String_alloc@U?$_String_base_types@DV?$allocator@D@std@@@std@@@std@@QEAA@XZ@4HA ENDP ; `std::_String_alloc<std::_String_base_types<char,std::allocator<char> > >::_String_alloc<std::_String_base_types<char,std::allocator<char> > >'::`1'::dtor$0
text$x	ENDS
; Function compile flags: /Odtp /RTCu /ZI
;	COMDAT ??1?$_String_val@U?$_Simple_types@D@std@@@std@@QEAA@XZ
_TEXT	SEGMENT
this$ = 80
??1?$_String_val@U?$_Simple_types@D@std@@@std@@QEAA@XZ PROC ; std::_String_val<std::_Simple_types<char> >::~_String_val<std::_Simple_types<char> >, COMDAT
$LN3:
	mov	QWORD PTR [rsp+8], rcx
	push	rbp
	sub	rsp, 96					; 00000060H
	lea	rbp, QWORD PTR [rsp+32]
	mov	rax, QWORD PTR this$[rbp]
	add	rax, 8
	mov	rcx, rax
	call	??1_Bxty@?$_String_val@U?$_Simple_types@D@std@@@std@@QEAA@XZ ; std::_String_val<std::_Simple_types<char> >::_Bxty::~_Bxty
	lea	rsp, QWORD PTR [rbp+64]
	pop	rbp
	ret	0
??1?$_String_val@U?$_Simple_types@D@std@@@std@@QEAA@XZ ENDP ; std::_String_val<std::_Simple_types<char> >::~_String_val<std::_Simple_types<char> >
_TEXT	ENDS
; Function compile flags: /Odtp /RTCu /ZI
; File c:\program files (x86)\microsoft visual studio\2017\enterprise\vc\tools\msvc\14.14.26428\include\xstring
;	COMDAT ??1_Bxty@?$_String_val@U?$_Simple_types@D@std@@@std@@QEAA@XZ
_TEXT	SEGMENT
this$ = 80
??1_Bxty@?$_String_val@U?$_Simple_types@D@std@@@std@@QEAA@XZ PROC ; std::_String_val<std::_Simple_types<char> >::_Bxty::~_Bxty, COMDAT

; 1844 : 			{	// user-provided, for fancy pointers

$LN3:
	mov	QWORD PTR [rsp+8], rcx
	push	rbp
	sub	rsp, 64					; 00000040H
	mov	rbp, rsp

; 1845 : 			}

	lea	rsp, QWORD PTR [rbp+64]
	pop	rbp
	ret	0
??1_Bxty@?$_String_val@U?$_Simple_types@D@std@@@std@@QEAA@XZ ENDP ; std::_String_val<std::_Simple_types<char> >::_Bxty::~_Bxty
_TEXT	ENDS
; Function compile flags: /Odtp /RTCu /ZI
; File c:\program files (x86)\microsoft visual studio\2017\enterprise\vc\tools\msvc\14.14.26428\include\xstring
;	COMDAT ??0_Bxty@?$_String_val@U?$_Simple_types@D@std@@@std@@QEAA@XZ
_TEXT	SEGMENT
this$ = 80
??0_Bxty@?$_String_val@U?$_Simple_types@D@std@@@std@@QEAA@XZ PROC ; std::_String_val<std::_Simple_types<char> >::_Bxty::_Bxty, COMDAT

; 1839 : 		_Bxty()

$LN3:
	mov	QWORD PTR [rsp+8], rcx
	push	rbp
	sub	rsp, 64					; 00000040H
	mov	rbp, rsp

; 1840 : 			{	// user-provided, for fancy pointers
; 1841 : 			}

	mov	rax, QWORD PTR this$[rbp]
	lea	rsp, QWORD PTR [rbp+64]
	pop	rbp
	ret	0
??0_Bxty@?$_String_val@U?$_Simple_types@D@std@@@std@@QEAA@XZ ENDP ; std::_String_val<std::_Simple_types<char> >::_Bxty::_Bxty
_TEXT	ENDS
; Function compile flags: /Odtp /RTCu /ZI
; File c:\program files (x86)\microsoft visual studio\2017\enterprise\vc\tools\msvc\14.14.26428\include\xstring
;	COMDAT ?_Large_string_engaged@?$_String_val@U?$_Simple_types@D@std@@@std@@QEBA_NXZ
_TEXT	SEGMENT
tv66 = 64
this$ = 96
?_Large_string_engaged@?$_String_val@U?$_Simple_types@D@std@@@std@@QEBA_NXZ PROC ; std::_String_val<std::_Simple_types<char> >::_Large_string_engaged, COMDAT

; 1807 : 		{	// returns whether the large string mode (allocated memory) is engaged

$LN5:
	mov	QWORD PTR [rsp+8], rcx
	push	rbp
	sub	rsp, 80					; 00000050H
	mov	rbp, rsp

; 1808 : 		return (_BUF_SIZE <= _Myres);

	mov	rax, QWORD PTR this$[rbp]
	cmp	QWORD PTR [rax+32], 16
	jb	SHORT $LN3@Large_stri
	mov	DWORD PTR tv66[rbp], 1
	jmp	SHORT $LN4@Large_stri
$LN3@Large_stri:
	mov	DWORD PTR tv66[rbp], 0
$LN4@Large_stri:
	movzx	eax, BYTE PTR tv66[rbp]

; 1809 : 		}

	lea	rsp, QWORD PTR [rbp+80]
	pop	rbp
	ret	0
?_Large_string_engaged@?$_String_val@U?$_Simple_types@D@std@@@std@@QEBA_NXZ ENDP ; std::_String_val<std::_Simple_types<char> >::_Large_string_engaged
_TEXT	ENDS
; Function compile flags: /Odtp /RTCu /ZI
; File c:\program files (x86)\microsoft visual studio\2017\enterprise\vc\tools\msvc\14.14.26428\include\xstring
;	COMDAT ?_Myptr@?$_String_val@U?$_Simple_types@D@std@@@std@@QEAAPEADXZ
_TEXT	SEGMENT
_Result$ = 0
this$ = 96
?_Myptr@?$_String_val@U?$_Simple_types@D@std@@@std@@QEAAPEADXZ PROC ; std::_String_val<std::_Simple_types<char> >::_Myptr, COMDAT

; 1785 : 		{	// determine current pointer to buffer for mutable string

$LN4:
	mov	QWORD PTR [rsp+8], rcx
	push	rbp
	sub	rsp, 112				; 00000070H
	lea	rbp, QWORD PTR [rsp+32]

; 1786 : 		value_type * _Result = _Bx._Buf;

	mov	rax, QWORD PTR this$[rbp]
	add	rax, 8
	mov	QWORD PTR _Result$[rbp], rax

; 1787 : 		if (_Large_string_engaged())

	mov	rcx, QWORD PTR this$[rbp]
	call	?_Large_string_engaged@?$_String_val@U?$_Simple_types@D@std@@@std@@QEBA_NXZ ; std::_String_val<std::_Simple_types<char> >::_Large_string_engaged
	movzx	eax, al
	test	eax, eax
	je	SHORT $LN2@Myptr

; 1788 : 			{
; 1789 : 			_Result = _Unfancy(_Bx._Ptr);

	mov	rax, QWORD PTR this$[rbp]
	mov	rcx, QWORD PTR [rax+8]
	call	??$_Unfancy@D@std@@YAPEADPEAD@Z		; std::_Unfancy<char>
	mov	QWORD PTR _Result$[rbp], rax
$LN2@Myptr:

; 1790 : 			}
; 1791 : 
; 1792 : 		return (_Result);

	mov	rax, QWORD PTR _Result$[rbp]

; 1793 : 		}

	lea	rsp, QWORD PTR [rbp+80]
	pop	rbp
	ret	0
?_Myptr@?$_String_val@U?$_Simple_types@D@std@@@std@@QEAAPEADXZ ENDP ; std::_String_val<std::_Simple_types<char> >::_Myptr
_TEXT	ENDS
; Function compile flags: /Odtp /RTCu /ZI
; File c:\program files (x86)\microsoft visual studio\2017\enterprise\vc\tools\msvc\14.14.26428\include\xstring
;	COMDAT ??0?$_String_val@U?$_Simple_types@D@std@@@std@@QEAA@XZ
_TEXT	SEGMENT
this$ = 80
??0?$_String_val@U?$_Simple_types@D@std@@@std@@QEAA@XZ PROC ; std::_String_val<std::_Simple_types<char> >::_String_val<std::_Simple_types<char> >, COMDAT

; 1769 : 		{	// initialize values

$LN4:
	mov	QWORD PTR [rsp+8], rcx
	push	rbp
	sub	rsp, 96					; 00000060H
	lea	rbp, QWORD PTR [rsp+32]
	mov	rcx, QWORD PTR this$[rbp]
	call	??0_Container_base12@std@@QEAA@XZ	; std::_Container_base12::_Container_base12

; 1766 : 		: _Bx(),

	mov	rax, QWORD PTR this$[rbp]
	add	rax, 8
	mov	rcx, rax
	call	??0_Bxty@?$_String_val@U?$_Simple_types@D@std@@@std@@QEAA@XZ ; std::_String_val<std::_Simple_types<char> >::_Bxty::_Bxty

; 1767 : 		_Mysize(0),

	mov	rax, QWORD PTR this$[rbp]
	mov	QWORD PTR [rax+24], 0

; 1768 : 		_Myres(0)

	mov	rax, QWORD PTR this$[rbp]
	mov	QWORD PTR [rax+32], 0

; 1770 : 		}

	mov	rax, QWORD PTR this$[rbp]
	lea	rsp, QWORD PTR [rbp+64]
	pop	rbp
	ret	0
??0?$_String_val@U?$_Simple_types@D@std@@@std@@QEAA@XZ ENDP ; std::_String_val<std::_Simple_types<char> >::_String_val<std::_Simple_types<char> >
_TEXT	ENDS
; Function compile flags: /Odtp /RTCu /ZI
; File c:\program files (x86)\microsoft visual studio\2017\enterprise\vc\tools\msvc\14.14.26428\include\xmemory0
;	COMDAT ?max_size@?$_Default_allocator_traits@V?$allocator@D@std@@@std@@SA_KAEBV?$allocator@D@2@@Z
_TEXT	SEGMENT
__formal$ = 80
?max_size@?$_Default_allocator_traits@V?$allocator@D@std@@@std@@SA_KAEBV?$allocator@D@2@@Z PROC ; std::_Default_allocator_traits<std::allocator<char> >::max_size, COMDAT

; 930  : 		{	// get maximum size

$LN3:
	mov	QWORD PTR [rsp+8], rcx
	push	rbp
	sub	rsp, 64					; 00000040H
	mov	rbp, rsp

; 931  : 		return (static_cast<size_t>(-1) / sizeof(value_type));

	mov	rax, -1

; 932  : 		}

	lea	rsp, QWORD PTR [rbp+64]
	pop	rbp
	ret	0
?max_size@?$_Default_allocator_traits@V?$allocator@D@std@@@std@@SA_KAEBV?$allocator@D@2@@Z ENDP ; std::_Default_allocator_traits<std::allocator<char> >::max_size
_TEXT	ENDS
; Function compile flags: /Odtp /RTCu /ZI
; File c:\program files (x86)\microsoft visual studio\2017\enterprise\vc\tools\msvc\14.14.26428\include\xmemory0
;	COMDAT ?allocate@?$allocator@D@std@@QEAAPEAD_K@Z
_TEXT	SEGMENT
this$ = 80
_Count$ = 88
?allocate@?$allocator@D@std@@QEAAPEAD_K@Z PROC		; std::allocator<char>::allocate, COMDAT

; 1035 : 		{	// allocate array of _Count elements

$LN3:
	mov	QWORD PTR [rsp+16], rdx
	mov	QWORD PTR [rsp+8], rcx
	push	rbp
	sub	rsp, 96					; 00000060H
	lea	rbp, QWORD PTR [rsp+32]

; 1036 : 		return (static_cast<_Ty *>(_Allocate<_New_alignof<_Ty>>(_Get_size_of_n<sizeof(_Ty)>(_Count))));

	mov	rcx, QWORD PTR _Count$[rbp]
	call	??$_Get_size_of_n@$00@std@@YA_K_K@Z	; std::_Get_size_of_n<1>
	mov	rcx, rax
	call	??$_Allocate@$0BA@U_Default_allocate_traits@std@@$0A@@std@@YAPEAX_K@Z ; std::_Allocate<16,std::_Default_allocate_traits,0>

; 1037 : 		}

	lea	rsp, QWORD PTR [rbp+64]
	pop	rbp
	ret	0
?allocate@?$allocator@D@std@@QEAAPEAD_K@Z ENDP		; std::allocator<char>::allocate
_TEXT	ENDS
; Function compile flags: /Odtp /RTCu /ZI
; File c:\program files (x86)\microsoft visual studio\2017\enterprise\vc\tools\msvc\14.14.26428\include\xmemory0
;	COMDAT ?deallocate@?$allocator@D@std@@QEAAXQEAD_K@Z
_TEXT	SEGMENT
this$ = 80
_Ptr$ = 88
_Count$ = 96
?deallocate@?$allocator@D@std@@QEAAXQEAD_K@Z PROC	; std::allocator<char>::deallocate, COMDAT

; 1029 : 		{	// deallocate object at _Ptr

$LN3:
	mov	QWORD PTR [rsp+24], r8
	mov	QWORD PTR [rsp+16], rdx
	mov	QWORD PTR [rsp+8], rcx
	push	rbp
	sub	rsp, 96					; 00000060H
	lea	rbp, QWORD PTR [rsp+32]

; 1030 : 		// no overflow check on the following multiply; we assume _Allocate did that check
; 1031 : 		_Deallocate<_New_alignof<_Ty>>(_Ptr, sizeof(_Ty) * _Count);

	mov	rdx, QWORD PTR _Count$[rbp]
	mov	rcx, QWORD PTR _Ptr$[rbp]
	call	??$_Deallocate@$0BA@$0A@@std@@YAXPEAX_K@Z ; std::_Deallocate<16,0>

; 1032 : 		}

	lea	rsp, QWORD PTR [rbp+64]
	pop	rbp
	ret	0
?deallocate@?$allocator@D@std@@QEAAXQEAD_K@Z ENDP	; std::allocator<char>::deallocate
_TEXT	ENDS
; Function compile flags: /Odtp /RTCu /ZI
; File c:\program files (x86)\microsoft visual studio\2017\enterprise\vc\tools\msvc\14.14.26428\include\xmemory0
;	COMDAT ??0?$allocator@D@std@@QEAA@XZ
_TEXT	SEGMENT
this$ = 80
??0?$allocator@D@std@@QEAA@XZ PROC			; std::allocator<char>::allocator<char>, COMDAT

; 1018 : 	allocator() _NOEXCEPT

$LN3:
	mov	QWORD PTR [rsp+8], rcx
	push	rbp
	sub	rsp, 64					; 00000040H
	mov	rbp, rsp

; 1019 : 		{	// construct default allocator (do nothing)
; 1020 : 		}

	mov	rax, QWORD PTR this$[rbp]
	lea	rsp, QWORD PTR [rbp+64]
	pop	rbp
	ret	0
??0?$allocator@D@std@@QEAA@XZ ENDP			; std::allocator<char>::allocator<char>
_TEXT	ENDS
; Function compile flags: /Odtp /RTCu /ZI
; File c:\program files (x86)\microsoft visual studio\2017\enterprise\vc\tools\msvc\14.14.26428\include\utility
;	COMDAT ??$_Min_value@_K@std@@YAAEB_KAEB_K0@Z
_TEXT	SEGMENT
$T1 = 64
tv65 = 72
_Left$ = 96
_Right$ = 104
??$_Min_value@_K@std@@YAAEB_KAEB_K0@Z PROC		; std::_Min_value<unsigned __int64>, COMDAT

; 23   : 	{	// return smaller of _Left and _Right

$LN5:
	mov	QWORD PTR [rsp+16], rdx
	mov	QWORD PTR [rsp+8], rcx
	push	rbp
	sub	rsp, 80					; 00000050H
	mov	rbp, rsp

; 24   : 	return (_Right < _Left ? _Right : _Left);

	mov	rax, QWORD PTR _Right$[rbp]
	mov	rcx, QWORD PTR _Left$[rbp]
	mov	rcx, QWORD PTR [rcx]
	cmp	QWORD PTR [rax], rcx
	jae	SHORT $LN3@Min_value
	mov	rax, QWORD PTR _Right$[rbp]
	mov	QWORD PTR tv65[rbp], rax
	jmp	SHORT $LN4@Min_value
$LN3@Min_value:
	mov	rax, QWORD PTR _Left$[rbp]
	mov	QWORD PTR tv65[rbp], rax
$LN4@Min_value:
	mov	rax, QWORD PTR tv65[rbp]
	mov	QWORD PTR $T1[rbp], rax
	mov	rax, QWORD PTR $T1[rbp]

; 25   : 	}

	lea	rsp, QWORD PTR [rbp+80]
	pop	rbp
	ret	0
??$_Min_value@_K@std@@YAAEB_KAEB_K0@Z ENDP		; std::_Min_value<unsigned __int64>
_TEXT	ENDS
; Function compile flags: /Odtp /RTCu /ZI
; File c:\program files (x86)\microsoft visual studio\2017\enterprise\vc\tools\msvc\14.14.26428\include\xmemory0
;	COMDAT ??$_Convert_size@_K@std@@YA_K_K@Z
_TEXT	SEGMENT
_Len$ = 80
??$_Convert_size@_K@std@@YA_K_K@Z PROC			; std::_Convert_size<unsigned __int64>, COMDAT

; 1247 : 	{	// convert size_t to size_t, unchanged

$LN3:
	mov	QWORD PTR [rsp+8], rcx
	push	rbp
	sub	rsp, 64					; 00000040H
	mov	rbp, rsp

; 1248 : 	return (_Len);

	mov	rax, QWORD PTR _Len$[rbp]

; 1249 : 	}

	lea	rsp, QWORD PTR [rbp+64]
	pop	rbp
	ret	0
??$_Convert_size@_K@std@@YA_K_K@Z ENDP			; std::_Convert_size<unsigned __int64>
_TEXT	ENDS
; Function compile flags: /Odtp /RTCu /ZI
; File c:\program files (x86)\microsoft visual studio\2017\enterprise\vc\tools\msvc\14.14.26428\include\xmemory0
;	COMDAT ?_Adjust_manually_vector_aligned@std@@YAXAEAPEAXAEA_K@Z
_TEXT	SEGMENT
_Ptr_user$ = 0
_Ptr_container$ = 8
_Min_back_shift$ = 16
_Back_shift$ = 24
_Ptr$ = 112
_Bytes$ = 120
?_Adjust_manually_vector_aligned@std@@YAXAEAPEAXAEA_K@Z PROC ; std::_Adjust_manually_vector_aligned, COMDAT

; 116  : 	{	// adjust parameters from _Allocate_manually_vector_aligned to pass to operator delete

$LN6:
	mov	QWORD PTR [rsp+16], rdx
	mov	QWORD PTR [rsp+8], rcx
	push	rbp
	sub	rsp, 144				; 00000090H
	lea	rbp, QWORD PTR [rsp+48]

; 117  : 	_Bytes += _Non_user_size;

	mov	rax, QWORD PTR _Bytes$[rbp]
	mov	rax, QWORD PTR [rax]
	add	rax, 47					; 0000002fH
	mov	rcx, QWORD PTR _Bytes$[rbp]
	mov	QWORD PTR [rcx], rax

; 118  : 
; 119  : 	const uintptr_t * const _Ptr_user = reinterpret_cast<uintptr_t *>(_Ptr);

	mov	rax, QWORD PTR _Ptr$[rbp]
	mov	rax, QWORD PTR [rax]
	mov	QWORD PTR _Ptr_user$[rbp], rax

; 120  : 	const uintptr_t _Ptr_container = _Ptr_user[-1];

	mov	eax, 8
	imul	rax, rax, -1
	mov	rcx, QWORD PTR _Ptr_user$[rbp]
	mov	rax, QWORD PTR [rcx+rax]
	mov	QWORD PTR _Ptr_container$[rbp], rax

; 121  : 
; 122  :   #ifdef _DEBUG
; 123  : 	// If the following asserts, it likely means that we are performing
; 124  : 	// an aligned delete on memory coming from an unaligned allocation.
; 125  : 	if (_Ptr_user[-2] != _Big_allocation_sentinel)

	mov	eax, 8
	imul	rax, rax, -2
	mov	rcx, QWORD PTR _Ptr_user$[rbp]
	mov	rdx, -361700864190383366		; fafafafafafafafaH
	cmp	QWORD PTR [rcx+rax], rdx
	je	SHORT $LN2@Adjust_man

; 126  : 		{
; 127  : 		_SCL_SECURE_INVALID_ARGUMENT_NO_ASSERT;

	mov	eax, DWORD PTR ?__LINE__Var@?0??_Adjust_manually_vector_aligned@std@@YAXAEAPEAXAEA_K@Z@4JA
	add	eax, 11
	mov	QWORD PTR [rsp+32], 0
	mov	r9d, eax
	lea	r8, OFFSET FLAT:??_C@_1NE@FCGGJAHE@?$AAc?$AA?3?$AA?2?$AAp?$AAr?$AAo?$AAg?$AAr?$AAa?$AAm?$AA?5?$AAf?$AAi?$AAl?$AAe?$AAs?$AA?5?$AA?$CI?$AAx?$AA8?$AA6?$AA?$CJ?$AA?2?$AAm?$AAi?$AAc?$AAr?$AAo?$AAs?$AAo?$AAf?$AAt@
	lea	rdx, OFFSET FLAT:??_C@_1EK@NIFDJFDG@?$AAs?$AAt?$AAd?$AA?3?$AA?3?$AA_?$AAA?$AAd?$AAj?$AAu?$AAs?$AAt?$AA_?$AAm?$AAa?$AAn?$AAu?$AAa?$AAl?$AAl?$AAy?$AA_?$AAv?$AAe?$AAc?$AAt?$AAo?$AAr?$AA_?$AAa?$AAl?$AAi@
	lea	rcx, OFFSET FLAT:??_C@_1CG@JNLFBNGN@?$AA?$CC?$AAi?$AAn?$AAv?$AAa?$AAl?$AAi?$AAd?$AA?5?$AAa?$AAr?$AAg?$AAu?$AAm?$AAe?$AAn?$AAt?$AA?$CC?$AA?$AA@
	call	QWORD PTR __imp__invalid_parameter
$LN2@Adjust_man:

; 128  : 		}
; 129  :   #endif /* _DEBUG */
; 130  : 
; 131  : 	// Extra paranoia on aligned allocation/deallocation; ensure _Ptr_container is
; 132  : 	// in range [_Min_back_shift, _Non_user_size]
; 133  :   #ifdef _DEBUG
; 134  : 	constexpr uintptr_t _Min_back_shift = 2 * sizeof(void *);

	mov	QWORD PTR _Min_back_shift$[rbp], 16

; 135  :   #else /* ^^^ _DEBUG ^^^ // vvv !_DEBUG vvv */
; 136  : 	constexpr uintptr_t _Min_back_shift = sizeof(void *);
; 137  :   #endif /* _DEBUG */
; 138  : 	const uintptr_t _Back_shift = reinterpret_cast<uintptr_t>(_Ptr) - _Ptr_container;

	mov	rax, QWORD PTR _Ptr$[rbp]
	mov	rcx, QWORD PTR _Ptr_container$[rbp]
	mov	rax, QWORD PTR [rax]
	sub	rax, rcx
	mov	QWORD PTR _Back_shift$[rbp], rax

; 139  : 	if (_Back_shift < _Min_back_shift || _Back_shift > _Non_user_size)

	cmp	QWORD PTR _Back_shift$[rbp], 16
	jb	SHORT $LN4@Adjust_man
	cmp	QWORD PTR _Back_shift$[rbp], 47		; 0000002fH
	jbe	SHORT $LN3@Adjust_man
$LN4@Adjust_man:

; 140  : 		{
; 141  : 		_SCL_SECURE_INVALID_ARGUMENT_NO_ASSERT;

	mov	eax, DWORD PTR ?__LINE__Var@?0??_Adjust_manually_vector_aligned@std@@YAXAEAPEAXAEA_K@Z@4JA
	add	eax, 25
	mov	QWORD PTR [rsp+32], 0
	mov	r9d, eax
	lea	r8, OFFSET FLAT:??_C@_1NE@FCGGJAHE@?$AAc?$AA?3?$AA?2?$AAp?$AAr?$AAo?$AAg?$AAr?$AAa?$AAm?$AA?5?$AAf?$AAi?$AAl?$AAe?$AAs?$AA?5?$AA?$CI?$AAx?$AA8?$AA6?$AA?$CJ?$AA?2?$AAm?$AAi?$AAc?$AAr?$AAo?$AAs?$AAo?$AAf?$AAt@
	lea	rdx, OFFSET FLAT:??_C@_1EK@NIFDJFDG@?$AAs?$AAt?$AAd?$AA?3?$AA?3?$AA_?$AAA?$AAd?$AAj?$AAu?$AAs?$AAt?$AA_?$AAm?$AAa?$AAn?$AAu?$AAa?$AAl?$AAl?$AAy?$AA_?$AAv?$AAe?$AAc?$AAt?$AAo?$AAr?$AA_?$AAa?$AAl?$AAi@
	lea	rcx, OFFSET FLAT:??_C@_1CG@JNLFBNGN@?$AA?$CC?$AAi?$AAn?$AAv?$AAa?$AAl?$AAi?$AAd?$AA?5?$AAa?$AAr?$AAg?$AAu?$AAm?$AAe?$AAn?$AAt?$AA?$CC?$AA?$AA@
	call	QWORD PTR __imp__invalid_parameter
$LN3@Adjust_man:

; 142  : 		}
; 143  : 
; 144  : 	_Ptr = reinterpret_cast<void *>(_Ptr_container);

	mov	rax, QWORD PTR _Ptr$[rbp]
	mov	rcx, QWORD PTR _Ptr_container$[rbp]
	mov	QWORD PTR [rax], rcx

; 145  : 	}

	lea	rsp, QWORD PTR [rbp+96]
	pop	rbp
	ret	0
?_Adjust_manually_vector_aligned@std@@YAXAEAPEAXAEA_K@Z ENDP ; std::_Adjust_manually_vector_aligned
_TEXT	ENDS
; Function compile flags: /Odtp /RTCu /ZI
; File c:\program files (x86)\microsoft visual studio\2017\enterprise\vc\tools\msvc\14.14.26428\include\xmemory0
;	COMDAT ?_Allocate@_Default_allocate_traits@std@@SAPEAX_K@Z
_TEXT	SEGMENT
_Bytes$ = 80
?_Allocate@_Default_allocate_traits@std@@SAPEAX_K@Z PROC ; std::_Default_allocate_traits::_Allocate, COMDAT

; 51   : 		{

$LN3:
	mov	QWORD PTR [rsp+8], rcx
	push	rbp
	sub	rsp, 96					; 00000060H
	lea	rbp, QWORD PTR [rsp+32]

; 52   : 		return (::operator new(_Bytes));

	mov	rcx, QWORD PTR _Bytes$[rbp]
	call	??2@YAPEAX_K@Z				; operator new

; 53   : 		}

	lea	rsp, QWORD PTR [rbp+64]
	pop	rbp
	ret	0
?_Allocate@_Default_allocate_traits@std@@SAPEAX_K@Z ENDP ; std::_Default_allocate_traits::_Allocate
_TEXT	ENDS
; Function compile flags: /Odtp /RTCu /ZI
; File c:\program files (x86)\microsoft visual studio\2017\enterprise\vc\tools\msvc\14.14.26428\include\xmemory0
;	COMDAT ??$_Get_size_of_n@$00@std@@YA_K_K@Z
_TEXT	SEGMENT
_Count$ = 80
??$_Get_size_of_n@$00@std@@YA_K_K@Z PROC		; std::_Get_size_of_n<1>, COMDAT

; 37   : 	{	// gets the size of _Count copies of a type with size 1

$LN3:
	mov	QWORD PTR [rsp+8], rcx
	push	rbp
	sub	rsp, 64					; 00000040H
	mov	rbp, rsp

; 38   : 	return (_Count);

	mov	rax, QWORD PTR _Count$[rbp]

; 39   : 	}

	lea	rsp, QWORD PTR [rbp+64]
	pop	rbp
	ret	0
??$_Get_size_of_n@$00@std@@YA_K_K@Z ENDP		; std::_Get_size_of_n<1>
_TEXT	ENDS
; Function compile flags: /Odtp /RTCu /ZI
; File c:\program files (x86)\microsoft visual studio\2017\enterprise\vc\tools\msvc\14.14.26428\include\xutility
;	COMDAT ?_Orphan_all@_Container_base12@std@@QEAAXXZ
_TEXT	SEGMENT
_Lock$1 = 0
_Pnext$2 = 8
$T3 = 80
__$ArrayPad$ = 88
this$ = 112
?_Orphan_all@_Container_base12@std@@QEAAXXZ PROC	; std::_Container_base12::_Orphan_all, COMDAT

; 251  : 	{	// orphan all iterators

$LN7:
	mov	QWORD PTR [rsp+8], rcx
	push	rbp
	sub	rsp, 128				; 00000080H
	lea	rbp, QWORD PTR [rsp+32]
	mov	QWORD PTR $T3[rbp], -2
	mov	rax, QWORD PTR __security_cookie
	xor	rax, rbp
	mov	QWORD PTR __$ArrayPad$[rbp], rax

; 252  :  #if _ITERATOR_DEBUG_LEVEL == 2
; 253  : 	if (_Myproxy != 0)

	mov	rax, QWORD PTR this$[rbp]
	cmp	QWORD PTR [rax], 0
	je	SHORT $LN5@Orphan_all

; 254  : 		{	// proxy allocated, drain it
; 255  : 		_Lockit _Lock(_LOCK_DEBUG);

	mov	edx, 3
	lea	rcx, QWORD PTR _Lock$1[rbp]
	call	QWORD PTR __imp_??0_Lockit@std@@QEAA@H@Z
	npad	1

; 256  : 
; 257  : 		for (_Iterator_base12 **_Pnext = &_Myproxy->_Myfirstiter;

	mov	rax, QWORD PTR this$[rbp]
	mov	rax, QWORD PTR [rax]
	add	rax, 8
	mov	QWORD PTR _Pnext$2[rbp], rax
	jmp	SHORT $LN4@Orphan_all
$LN2@Orphan_all:

; 258  : 			*_Pnext != 0; *_Pnext = (*_Pnext)->_Mynextiter)

	mov	rax, QWORD PTR _Pnext$2[rbp]
	mov	rax, QWORD PTR [rax]
	mov	rcx, QWORD PTR _Pnext$2[rbp]
	mov	rax, QWORD PTR [rax+8]
	mov	QWORD PTR [rcx], rax
$LN4@Orphan_all:
	mov	rax, QWORD PTR _Pnext$2[rbp]
	cmp	QWORD PTR [rax], 0
	je	SHORT $LN3@Orphan_all

; 259  : 			(*_Pnext)->_Myproxy = 0;

	mov	rax, QWORD PTR _Pnext$2[rbp]
	mov	rax, QWORD PTR [rax]
	mov	QWORD PTR [rax], 0
	jmp	SHORT $LN2@Orphan_all
$LN3@Orphan_all:

; 260  : 		_Myproxy->_Myfirstiter = 0;

	mov	rax, QWORD PTR this$[rbp]
	mov	rax, QWORD PTR [rax]
	mov	QWORD PTR [rax+8], 0

; 261  : 		}

	lea	rcx, QWORD PTR _Lock$1[rbp]
	call	QWORD PTR __imp_??1_Lockit@std@@QEAA@XZ
	npad	1
$LN5@Orphan_all:

; 262  :  #endif /* _ITERATOR_DEBUG_LEVEL == 2 */
; 263  : 	}

	mov	rcx, QWORD PTR __$ArrayPad$[rbp]
	xor	rcx, rbp
	call	__security_check_cookie
	npad	1
	lea	rsp, QWORD PTR [rbp+96]
	pop	rbp
	ret	0
?_Orphan_all@_Container_base12@std@@QEAAXXZ ENDP	; std::_Container_base12::_Orphan_all
_TEXT	ENDS
; Function compile flags: /Odtp /RTCu /ZI
; File c:\program files (x86)\microsoft visual studio\2017\enterprise\vc\tools\msvc\14.14.26428\include\xutility
;	COMDAT ??0_Container_base12@std@@QEAA@XZ
_TEXT	SEGMENT
this$ = 80
??0_Container_base12@std@@QEAA@XZ PROC			; std::_Container_base12::_Container_base12, COMDAT

; 118  : 		{	// construct childless container

$LN3:
	mov	QWORD PTR [rsp+8], rcx
	push	rbp
	sub	rsp, 64					; 00000040H
	mov	rbp, rsp

; 117  : 		: _Myproxy(0)

	mov	rax, QWORD PTR this$[rbp]
	mov	QWORD PTR [rax], 0

; 119  : 		}

	mov	rax, QWORD PTR this$[rbp]
	lea	rsp, QWORD PTR [rbp+64]
	pop	rbp
	ret	0
??0_Container_base12@std@@QEAA@XZ ENDP			; std::_Container_base12::_Container_base12
_TEXT	ENDS
; Function compile flags: /Odtp /RTCu /ZI
; File c:\program files (x86)\microsoft visual studio\2017\enterprise\vc\tools\msvc\14.14.26428\include\xutility
;	COMDAT ??0_Container_proxy@std@@QEAA@XZ
_TEXT	SEGMENT
this$ = 80
??0_Container_proxy@std@@QEAA@XZ PROC			; std::_Container_proxy::_Container_proxy, COMDAT

; 106  : 		{	// construct from pointers

$LN3:
	mov	QWORD PTR [rsp+8], rcx
	push	rbp
	sub	rsp, 64					; 00000040H
	mov	rbp, rsp

; 105  : 		: _Mycont(0), _Myfirstiter(0)

	mov	rax, QWORD PTR this$[rbp]
	mov	QWORD PTR [rax], 0
	mov	rax, QWORD PTR this$[rbp]
	mov	QWORD PTR [rax+8], 0

; 107  : 		}

	mov	rax, QWORD PTR this$[rbp]
	lea	rsp, QWORD PTR [rbp+64]
	pop	rbp
	ret	0
??0_Container_proxy@std@@QEAA@XZ ENDP			; std::_Container_proxy::_Container_proxy
_TEXT	ENDS
; Function compile flags: /Odtp /RTCu /ZI
; File c:\program files (x86)\microsoft visual studio\2017\enterprise\vc\tools\msvc\14.14.26428\include\iosfwd
;	COMDAT ?assign@?$char_traits@D@std@@SAXAEADAEBD@Z
_TEXT	SEGMENT
_Left$ = 80
_Right$ = 88
?assign@?$char_traits@D@std@@SAXAEADAEBD@Z PROC		; std::char_traits<char>::assign, COMDAT

; 488  : 		{	// assign an element

$LN3:
	mov	QWORD PTR [rsp+16], rdx
	mov	QWORD PTR [rsp+8], rcx
	push	rbp
	sub	rsp, 64					; 00000040H
	mov	rbp, rsp

; 489  : 		_Left = _Right;

	mov	rax, QWORD PTR _Left$[rbp]
	mov	rcx, QWORD PTR _Right$[rbp]
	movzx	ecx, BYTE PTR [rcx]
	mov	BYTE PTR [rax], cl

; 490  : 		}

	lea	rsp, QWORD PTR [rbp+64]
	pop	rbp
	ret	0
?assign@?$char_traits@D@std@@SAXAEADAEBD@Z ENDP		; std::char_traits<char>::assign
_TEXT	ENDS
; Function compile flags: /Odtp /RTCu /ZI
; File c:\program files (x86)\microsoft visual studio\2017\enterprise\vc\tools\msvc\14.14.26428\include\iosfwd
;	COMDAT ?move@?$char_traits@D@std@@SAPEADQEADQEBD_K@Z
_TEXT	SEGMENT
_First1$ = 80
_First2$ = 88
_Count$ = 96
?move@?$char_traits@D@std@@SAPEADQEADQEBD_K@Z PROC	; std::char_traits<char>::move, COMDAT

; 477  : 		{	// copy [_First2, _First2 + _Count) to [_First1, ...)

$LN3:
	mov	QWORD PTR [rsp+24], r8
	mov	QWORD PTR [rsp+16], rdx
	mov	QWORD PTR [rsp+8], rcx
	push	rbp
	sub	rsp, 96					; 00000060H
	lea	rbp, QWORD PTR [rsp+32]

; 478  : 		return (static_cast<char *>(_CSTD memmove(_First1, _First2, _Count)));

	mov	r8, QWORD PTR _Count$[rbp]
	mov	rdx, QWORD PTR _First2$[rbp]
	mov	rcx, QWORD PTR _First1$[rbp]
	call	memmove

; 479  : 		}

	lea	rsp, QWORD PTR [rbp+64]
	pop	rbp
	ret	0
?move@?$char_traits@D@std@@SAPEADQEADQEBD_K@Z ENDP	; std::char_traits<char>::move
_TEXT	ENDS
; Function compile flags: /Odtp /RTCu /ZI
; File c:\program files (x86)\microsoft visual studio\2017\enterprise\vc\tools\msvc\14.14.26428\include\iosfwd
;	COMDAT ?copy@?$char_traits@D@std@@SAPEADQEADQEBD_K@Z
_TEXT	SEGMENT
_First1$ = 80
_First2$ = 88
_Count$ = 96
?copy@?$char_traits@D@std@@SAPEADQEADQEBD_K@Z PROC	; std::char_traits<char>::copy, COMDAT

; 453  : 		{	// copy [_First2, _First2 + _Count) to [_First1, ...)

$LN3:
	mov	QWORD PTR [rsp+24], r8
	mov	QWORD PTR [rsp+16], rdx
	mov	QWORD PTR [rsp+8], rcx
	push	rbp
	sub	rsp, 96					; 00000060H
	lea	rbp, QWORD PTR [rsp+32]

; 454  : 		return (static_cast<char *>(_CSTD memcpy(_First1, _First2, _Count)));

	mov	r8, QWORD PTR _Count$[rbp]
	mov	rdx, QWORD PTR _First2$[rbp]
	mov	rcx, QWORD PTR _First1$[rbp]
	call	memcpy

; 455  : 		}

	lea	rsp, QWORD PTR [rbp+64]
	pop	rbp
	ret	0
?copy@?$char_traits@D@std@@SAPEADQEADQEBD_K@Z ENDP	; std::char_traits<char>::copy
_TEXT	ENDS
; Function compile flags: /Odtp /RTCu /ZI
; File c:\program files (x86)\microsoft visual studio\2017\enterprise\vc\tools\msvc\14.14.26428\include\iosfwd
;	COMDAT ?length@?$char_traits@D@std@@SA_KQEBD@Z
_TEXT	SEGMENT
_First$ = 80
?length@?$char_traits@D@std@@SA_KQEBD@Z PROC		; std::char_traits<char>::length, COMDAT

; 443  : 		{	// find length of null-terminated string

$LN3:
	mov	QWORD PTR [rsp+8], rcx
	push	rbp
	sub	rsp, 96					; 00000060H
	lea	rbp, QWORD PTR [rsp+32]

; 444  : #if _HAS_CONSTEXPR_CHAR_TRAITS
; 445  : 		return (__builtin_strlen(_First));
; 446  : #else /* _HAS_CONSTEXPR_CHAR_TRAITS */
; 447  : 		return (_CSTD strlen(_First));

	mov	rcx, QWORD PTR _First$[rbp]
	call	strlen

; 448  : #endif /* _HAS_CONSTEXPR_CHAR_TRAITS */
; 449  : 		}

	lea	rsp, QWORD PTR [rbp+64]
	pop	rbp
	ret	0
?length@?$char_traits@D@std@@SA_KQEBD@Z ENDP		; std::char_traits<char>::length
_TEXT	ENDS
; Function compile flags: /Odtp /RTCu /ZI
; File c:\program files (x86)\microsoft visual studio\2017\enterprise\vc\tools\msvc\14.14.26428\include\vcruntime_new.h
;	COMDAT ??2@YAPEAX_KPEAX@Z
_TEXT	SEGMENT
_Size$ = 80
_Where$ = 88
??2@YAPEAX_KPEAX@Z PROC					; operator new, COMDAT

; 180  :     {

$LN3:
	mov	QWORD PTR [rsp+16], rdx
	mov	QWORD PTR [rsp+8], rcx
	push	rbp
	sub	rsp, 64					; 00000040H
	mov	rbp, rsp

; 181  :         (void)_Size;
; 182  :         return _Where;

	mov	rax, QWORD PTR _Where$[rbp]

; 183  :     }

	lea	rsp, QWORD PTR [rbp+64]
	pop	rbp
	ret	0
??2@YAPEAX_KPEAX@Z ENDP					; operator new
_TEXT	ENDS
; Function compile flags: /Odtp /RTCu /ZI
; File l:\dev\featherfallengine\depends\install\include\glm\detail\type_vec4.inl
;	COMDAT ??0?$tvec4@M$0A@@glm@@QEAA@MMMM@Z
_TEXT	SEGMENT
this$ = 80
a$ = 88
b$ = 96
c$ = 104
d$ = 112
??0?$tvec4@M$0A@@glm@@QEAA@MMMM@Z PROC			; glm::tvec4<float,0>::tvec4<float,0>, COMDAT

; 193  : 	{}

$LN3:
	movss	DWORD PTR [rsp+32], xmm3
	movss	DWORD PTR [rsp+24], xmm2
	movss	DWORD PTR [rsp+16], xmm1
	mov	QWORD PTR [rsp+8], rcx
	push	rbp
	sub	rsp, 64					; 00000040H
	mov	rbp, rsp

; 192  : 		: x(a), y(b), z(c), w(d)

	mov	rax, QWORD PTR this$[rbp]
	movss	xmm0, DWORD PTR a$[rbp]
	movss	DWORD PTR [rax], xmm0
	mov	rax, QWORD PTR this$[rbp]
	movss	xmm0, DWORD PTR b$[rbp]
	movss	DWORD PTR [rax+4], xmm0
	mov	rax, QWORD PTR this$[rbp]
	movss	xmm0, DWORD PTR c$[rbp]
	movss	DWORD PTR [rax+8], xmm0
	mov	rax, QWORD PTR this$[rbp]
	movss	xmm0, DWORD PTR d$[rbp]
	movss	DWORD PTR [rax+12], xmm0

; 193  : 	{}

	mov	rax, QWORD PTR this$[rbp]
	lea	rsp, QWORD PTR [rbp+64]
	pop	rbp
	ret	0
??0?$tvec4@M$0A@@glm@@QEAA@MMMM@Z ENDP			; glm::tvec4<float,0>::tvec4<float,0>
_TEXT	ENDS
; Function compile flags: /Odtp /RTCu /ZI
; File l:\dev\featherfallengine\depends\install\include\glm\detail\type_vec4.inl
;	COMDAT ??0?$tvec4@M$0A@@glm@@QEAA@XZ
_TEXT	SEGMENT
this$ = 80
??0?$tvec4@M$0A@@glm@@QEAA@XZ PROC			; glm::tvec4<float,0>::tvec4<float,0>, COMDAT

; 163  : 		{}

$LN3:
	mov	QWORD PTR [rsp+8], rcx
	push	rbp
	sub	rsp, 64					; 00000040H
	mov	rbp, rsp

; 161  : 				: x(0), y(0), z(0), w(0)

	mov	rax, QWORD PTR this$[rbp]
	xorps	xmm0, xmm0
	movss	DWORD PTR [rax], xmm0
	mov	rax, QWORD PTR this$[rbp]
	xorps	xmm0, xmm0
	movss	DWORD PTR [rax+4], xmm0
	mov	rax, QWORD PTR this$[rbp]
	xorps	xmm0, xmm0
	movss	DWORD PTR [rax+8], xmm0
	mov	rax, QWORD PTR this$[rbp]
	xorps	xmm0, xmm0
	movss	DWORD PTR [rax+12], xmm0

; 163  : 		{}

	mov	rax, QWORD PTR this$[rbp]
	lea	rsp, QWORD PTR [rbp+64]
	pop	rbp
	ret	0
??0?$tvec4@M$0A@@glm@@QEAA@XZ ENDP			; glm::tvec4<float,0>::tvec4<float,0>
_TEXT	ENDS
; Function compile flags: /Odtp /RTCu /ZI
; File l:\dev\featherfallengine\depends\install\include\glm\detail\type_vec4.inl
;	COMDAT ??A?$tvec4@M$0A@@glm@@QEAAAEAMH@Z
_TEXT	SEGMENT
this$ = 80
i$ = 88
??A?$tvec4@M$0A@@glm@@QEAAAEAMH@Z PROC			; glm::tvec4<float,0>::operator[], COMDAT

; 329  : 	{

$LN5:
	mov	DWORD PTR [rsp+16], edx
	mov	QWORD PTR [rsp+8], rcx
	push	rbp
	sub	rsp, 96					; 00000060H
	lea	rbp, QWORD PTR [rsp+32]

; 330  : 		assert(i >= 0 && i < this->length());

	cmp	DWORD PTR i$[rbp], 0
	jl	SHORT $LN3@operator
	call	?length@?$tvec4@M$0A@@glm@@SAHXZ	; glm::tvec4<float,0>::length
	cmp	DWORD PTR i$[rbp], eax
	jl	SHORT $LN4@operator
$LN3@operator:
	mov	r8d, 330				; 0000014aH
	lea	rdx, OFFSET FLAT:??_C@_1JE@JLGGFMIE@?$AAl?$AA?3?$AA?2?$AAd?$AAe?$AAv?$AA?2?$AAf?$AAe?$AAa?$AAt?$AAh?$AAe?$AAr?$AAf?$AAa?$AAl?$AAl?$AAe?$AAn?$AAg?$AAi?$AAn?$AAe?$AA?2?$AAd?$AAe?$AAp?$AAe?$AAn?$AAd?$AAs@
	lea	rcx, OFFSET FLAT:??_C@_1DK@BGNCJAPL@?$AAi?$AA?5?$AA?$DO?$AA?$DN?$AA?5?$AA0?$AA?5?$AA?$CG?$AA?$CG?$AA?5?$AAi?$AA?5?$AA?$DM?$AA?5?$AAt?$AAh?$AAi?$AAs?$AA?9?$AA?$DO?$AAl?$AAe?$AAn?$AAg?$AAt?$AAh?$AA?$CI?$AA?$CJ?$AA?$AA@
	call	QWORD PTR __imp__wassert
	xor	eax, eax
$LN4@operator:

; 331  : 		return (&x)[i];

	movsxd	rax, DWORD PTR i$[rbp]
	mov	rcx, QWORD PTR this$[rbp]
	lea	rax, QWORD PTR [rcx+rax*4]

; 332  : 	}

	lea	rsp, QWORD PTR [rbp+64]
	pop	rbp
	ret	0
??A?$tvec4@M$0A@@glm@@QEAAAEAMH@Z ENDP			; glm::tvec4<float,0>::operator[]
_TEXT	ENDS
; Function compile flags: /Odtp /RTCu /ZI
; File l:\dev\featherfallengine\depends\install\include\glm\detail\type_vec4.hpp
;	COMDAT ?length@?$tvec4@M$0A@@glm@@SAHXZ
_TEXT	SEGMENT
?length@?$tvec4@M$0A@@glm@@SAHXZ PROC			; glm::tvec4<float,0>::length, COMDAT

; 85   : 		GLM_FUNC_DECL static length_type length(){return 4;}

$LN3:
	push	rbp
	sub	rsp, 64					; 00000040H
	mov	rbp, rsp
	mov	eax, 4
	lea	rsp, QWORD PTR [rbp+64]
	pop	rbp
	ret	0
?length@?$tvec4@M$0A@@glm@@SAHXZ ENDP			; glm::tvec4<float,0>::length
_TEXT	ENDS
; Function compile flags: /Odtp /RTCu /ZI
; File c:\program files (x86)\microsoft visual studio\2017\enterprise\vc\tools\msvc\14.14.26428\include\limits
;	COMDAT ?max@?$numeric_limits@_J@std@@SA_JXZ
_TEXT	SEGMENT
?max@?$numeric_limits@_J@std@@SA_JXZ PROC		; std::numeric_limits<__int64>::max, COMDAT

; 973  : 		{	// return maximum value

$LN3:
	push	rbp
	sub	rsp, 64					; 00000040H
	mov	rbp, rsp

; 974  : 		return (LLONG_MAX);

	mov	rax, 9223372036854775807		; 7fffffffffffffffH

; 975  : 		}

	lea	rsp, QWORD PTR [rbp+64]
	pop	rbp
	ret	0
?max@?$numeric_limits@_J@std@@SA_JXZ ENDP		; std::numeric_limits<__int64>::max
_TEXT	ENDS
; Function compile flags: /Odtp /RTCu /ZI
; File l:\dev\featherfallengine\featherfall-examples\src\scene\layerscene.cpp
;	COMDAT ?__empty_global_delete@@YAXPEAX_K@Z
_TEXT	SEGMENT
__formal$ = 80
__formal$ = 88
?__empty_global_delete@@YAXPEAX_K@Z PROC		; __empty_global_delete, COMDAT

$LN3:
	mov	QWORD PTR [rsp+16], rdx
	mov	QWORD PTR [rsp+8], rcx
	push	rbp
	sub	rsp, 64					; 00000040H
	mov	rbp, rsp
	lea	rsp, QWORD PTR [rbp+64]
	pop	rbp
	ret	0
?__empty_global_delete@@YAXPEAX_K@Z ENDP		; __empty_global_delete
_TEXT	ENDS
; Function compile flags: /Odtp /RTCu /ZI
; File l:\dev\featherfallengine\featherfall-examples\src\scene\layerscene.cpp
;	COMDAT ?__empty_global_delete@@YAXPEAX@Z
_TEXT	SEGMENT
__formal$ = 80
?__empty_global_delete@@YAXPEAX@Z PROC			; __empty_global_delete, COMDAT

$LN3:
	mov	QWORD PTR [rsp+8], rcx
	push	rbp
	sub	rsp, 64					; 00000040H
	mov	rbp, rsp
	lea	rsp, QWORD PTR [rbp+64]
	pop	rbp
	ret	0
?__empty_global_delete@@YAXPEAX@Z ENDP			; __empty_global_delete
_TEXT	ENDS
; Function compile flags: /Odtp /RTCu /ZI
;	COMDAT ??_H@YAXPEAX_K1P6APEAX0@Z@Z
_TEXT	SEGMENT
tv66 = 64
tv67 = 72
__t$ = 96
__s$ = 104
__n$ = 112
__f$ = 120
??_H@YAXPEAX_K1P6APEAX0@Z@Z PROC			; `vector constructor iterator', COMDAT
$LN7:
	mov	QWORD PTR [rsp+32], r9
	mov	QWORD PTR [rsp+24], r8
	mov	QWORD PTR [rsp+16], rdx
	mov	QWORD PTR [rsp+8], rcx
	push	rbp
	sub	rsp, 112				; 00000070H
	lea	rbp, QWORD PTR [rsp+32]
$LN2@vector:
	mov	rax, QWORD PTR __n$[rbp]
	mov	QWORD PTR tv66[rbp], rax
	mov	rax, QWORD PTR __n$[rbp]
	dec	rax
	mov	QWORD PTR __n$[rbp], rax
	cmp	QWORD PTR tv66[rbp], 0
	jbe	SHORT $LN5@vector
	mov	DWORD PTR tv67[rbp], 1
	jmp	SHORT $LN6@vector
$LN5@vector:
	mov	DWORD PTR tv67[rbp], 0
$LN6@vector:
	cmp	DWORD PTR tv67[rbp], 0
	je	SHORT $LN3@vector
	mov	rcx, QWORD PTR __t$[rbp]
	call	QWORD PTR __f$[rbp]
	mov	rax, QWORD PTR __s$[rbp]
	mov	rcx, QWORD PTR __t$[rbp]
	add	rcx, rax
	mov	rax, rcx
	mov	QWORD PTR __t$[rbp], rax
	jmp	SHORT $LN2@vector
$LN3@vector:
	lea	rsp, QWORD PTR [rbp+80]
	pop	rbp
	ret	0
??_H@YAXPEAX_K1P6APEAX0@Z@Z ENDP			; `vector constructor iterator'
_TEXT	ENDS
END
