; Listing generated by Microsoft (R) Optimizing Compiler Version 19.14.26433.0 

include listing.inc

INCLUDELIB MSVCRTD
INCLUDELIB OLDNAMES

PUBLIC	??_H@YAXPEAX_K1P6APEAX0@Z@Z			; `vector constructor iterator'
PUBLIC	?__empty_global_delete@@YAXPEAX@Z		; __empty_global_delete
PUBLIC	?__empty_global_delete@@YAXPEAX_K@Z		; __empty_global_delete
PUBLIC	?max@?$numeric_limits@_J@std@@SA_JXZ		; std::numeric_limits<__int64>::max
PUBLIC	??2@YAPEAX_KPEAX@Z				; operator new
PUBLIC	?length@?$char_traits@D@std@@SA_KQEBD@Z		; std::char_traits<char>::length
PUBLIC	?copy@?$char_traits@D@std@@SAPEADQEADQEBD_K@Z	; std::char_traits<char>::copy
PUBLIC	?move@?$char_traits@D@std@@SAPEADQEADQEBD_K@Z	; std::char_traits<char>::move
PUBLIC	?assign@?$char_traits@D@std@@SAXAEADAEBD@Z	; std::char_traits<char>::assign
PUBLIC	??0_Container_proxy@std@@QEAA@XZ		; std::_Container_proxy::_Container_proxy
PUBLIC	??0_Container_base12@std@@QEAA@XZ		; std::_Container_base12::_Container_base12
PUBLIC	?_Getpfirst@_Container_base12@std@@QEBAPEAPEAU_Iterator_base12@2@XZ ; std::_Container_base12::_Getpfirst
PUBLIC	?_Orphan_all@_Container_base12@std@@QEAAXXZ	; std::_Container_base12::_Orphan_all
PUBLIC	?_Clrcont@_Iterator_base12@std@@QEAAXXZ		; std::_Iterator_base12::_Clrcont
PUBLIC	?_Getpnext@_Iterator_base12@std@@QEAAPEAPEAU12@XZ ; std::_Iterator_base12::_Getpnext
PUBLIC	??$_Get_size_of_n@$00@std@@YA_K_K@Z		; std::_Get_size_of_n<1>
PUBLIC	?_Allocate@_Default_allocate_traits@std@@SAPEAX_K@Z ; std::_Default_allocate_traits::_Allocate
PUBLIC	?_Adjust_manually_vector_aligned@std@@YAXAEAPEAXAEA_K@Z ; std::_Adjust_manually_vector_aligned
PUBLIC	??$_Convert_size@_K@std@@YA_K_K@Z		; std::_Convert_size<unsigned __int64>
PUBLIC	??$_Min_value@_K@std@@YAAEB_KAEB_K0@Z		; std::_Min_value<unsigned __int64>
PUBLIC	??0?$allocator@D@std@@QEAA@XZ			; std::allocator<char>::allocator<char>
PUBLIC	?deallocate@?$allocator@D@std@@QEAAXQEAD_K@Z	; std::allocator<char>::deallocate
PUBLIC	?allocate@?$allocator@D@std@@QEAAPEAD_K@Z	; std::allocator<char>::allocate
PUBLIC	?max_size@?$_Default_allocator_traits@V?$allocator@D@std@@@std@@SA_KAEBV?$allocator@D@2@@Z ; std::_Default_allocator_traits<std::allocator<char> >::max_size
PUBLIC	??0?$_String_val@U?$_Simple_types@D@std@@@std@@QEAA@XZ ; std::_String_val<std::_Simple_types<char> >::_String_val<std::_Simple_types<char> >
PUBLIC	?_Myptr@?$_String_val@U?$_Simple_types@D@std@@@std@@QEAAPEADXZ ; std::_String_val<std::_Simple_types<char> >::_Myptr
PUBLIC	?_Large_string_engaged@?$_String_val@U?$_Simple_types@D@std@@@std@@QEBA_NXZ ; std::_String_val<std::_Simple_types<char> >::_Large_string_engaged
PUBLIC	??0_Bxty@?$_String_val@U?$_Simple_types@D@std@@@std@@QEAA@XZ ; std::_String_val<std::_Simple_types<char> >::_Bxty::_Bxty
PUBLIC	??1_Bxty@?$_String_val@U?$_Simple_types@D@std@@@std@@QEAA@XZ ; std::_String_val<std::_Simple_types<char> >::_Bxty::~_Bxty
PUBLIC	??1?$_String_val@U?$_Simple_types@D@std@@@std@@QEAA@XZ ; std::_String_val<std::_Simple_types<char> >::~_String_val<std::_Simple_types<char> >
PUBLIC	??0?$_String_alloc@U?$_String_base_types@DV?$allocator@D@std@@@std@@@std@@QEAA@XZ ; std::_String_alloc<std::_String_base_types<char,std::allocator<char> > >::_String_alloc<std::_String_base_types<char,std::allocator<char> > >
PUBLIC	??1?$_String_alloc@U?$_String_base_types@DV?$allocator@D@std@@@std@@@std@@QEAA@XZ ; std::_String_alloc<std::_String_base_types<char,std::allocator<char> > >::~_String_alloc<std::_String_base_types<char,std::allocator<char> > >
PUBLIC	?_Alloc_proxy@?$_String_alloc@U?$_String_base_types@DV?$allocator@D@std@@@std@@@std@@QEAAXXZ ; std::_String_alloc<std::_String_base_types<char,std::allocator<char> > >::_Alloc_proxy
PUBLIC	?_Free_proxy@?$_String_alloc@U?$_String_base_types@DV?$allocator@D@std@@@std@@@std@@QEAAXXZ ; std::_String_alloc<std::_String_base_types<char,std::allocator<char> > >::_Free_proxy
PUBLIC	?_Myproxy@?$_String_alloc@U?$_String_base_types@DV?$allocator@D@std@@@std@@@std@@QEAAAEAPEAU_Container_proxy@2@XZ ; std::_String_alloc<std::_String_base_types<char,std::allocator<char> > >::_Myproxy
PUBLIC	?_Orphan_all@?$_String_alloc@U?$_String_base_types@DV?$allocator@D@std@@@std@@@std@@QEAAXXZ ; std::_String_alloc<std::_String_base_types<char,std::allocator<char> > >::_Orphan_all
PUBLIC	?_Getal@?$_String_alloc@U?$_String_base_types@DV?$allocator@D@std@@@std@@@std@@QEAAAEAV?$allocator@D@2@XZ ; std::_String_alloc<std::_String_base_types<char,std::allocator<char> > >::_Getal
PUBLIC	?_Getal@?$_String_alloc@U?$_String_base_types@DV?$allocator@D@std@@@std@@@std@@QEBAAEBV?$allocator@D@2@XZ ; std::_String_alloc<std::_String_base_types<char,std::allocator<char> > >::_Getal
PUBLIC	?_Get_data@?$_String_alloc@U?$_String_base_types@DV?$allocator@D@std@@@std@@@std@@QEAAAEAV?$_String_val@U?$_Simple_types@D@std@@@2@XZ ; std::_String_alloc<std::_String_base_types<char,std::allocator<char> > >::_Get_data
PUBLIC	?_Get_data@?$_String_alloc@U?$_String_base_types@DV?$allocator@D@std@@@std@@@std@@QEBAAEBV?$_String_val@U?$_Simple_types@D@std@@@2@XZ ; std::_String_alloc<std::_String_base_types<char,std::allocator<char> > >::_Get_data
PUBLIC	?_Get_first@?$_Compressed_pair@V?$allocator@D@std@@V?$_String_val@U?$_Simple_types@D@std@@@2@$00@std@@QEAAAEAV?$allocator@D@2@XZ ; std::_Compressed_pair<std::allocator<char>,std::_String_val<std::_Simple_types<char> >,1>::_Get_first
PUBLIC	?_Get_first@?$_Compressed_pair@V?$allocator@D@std@@V?$_String_val@U?$_Simple_types@D@std@@@2@$00@std@@QEBAAEBV?$allocator@D@2@XZ ; std::_Compressed_pair<std::allocator<char>,std::_String_val<std::_Simple_types<char> >,1>::_Get_first
PUBLIC	?_Get_second@?$_Compressed_pair@V?$allocator@D@std@@V?$_String_val@U?$_Simple_types@D@std@@@2@$00@std@@QEAAAEAV?$_String_val@U?$_Simple_types@D@std@@@2@XZ ; std::_Compressed_pair<std::allocator<char>,std::_String_val<std::_Simple_types<char> >,1>::_Get_second
PUBLIC	?_Get_second@?$_Compressed_pair@V?$allocator@D@std@@V?$_String_val@U?$_Simple_types@D@std@@@2@$00@std@@QEBAAEBV?$_String_val@U?$_Simple_types@D@std@@@2@XZ ; std::_Compressed_pair<std::allocator<char>,std::_String_val<std::_Simple_types<char> >,1>::_Get_second
PUBLIC	??1?$_Compressed_pair@V?$allocator@D@std@@V?$_String_val@U?$_Simple_types@D@std@@@2@$00@std@@QEAA@XZ ; std::_Compressed_pair<std::allocator<char>,std::_String_val<std::_Simple_types<char> >,1>::~_Compressed_pair<std::allocator<char>,std::_String_val<std::_Simple_types<char> >,1>
PUBLIC	??0?$basic_string@DU?$char_traits@D@std@@V?$allocator@D@2@@std@@QEAA@QEBD@Z ; std::basic_string<char,std::char_traits<char>,std::allocator<char> >::basic_string<char,std::char_traits<char>,std::allocator<char> >
PUBLIC	??1?$basic_string@DU?$char_traits@D@std@@V?$allocator@D@2@@std@@QEAA@XZ ; std::basic_string<char,std::char_traits<char>,std::allocator<char> >::~basic_string<char,std::char_traits<char>,std::allocator<char> >
PUBLIC	?assign@?$basic_string@DU?$char_traits@D@std@@V?$allocator@D@2@@std@@QEAAAEAV12@QEBD_K@Z ; std::basic_string<char,std::char_traits<char>,std::allocator<char> >::assign
PUBLIC	?assign@?$basic_string@DU?$char_traits@D@std@@V?$allocator@D@2@@std@@QEAAAEAV12@QEBD@Z ; std::basic_string<char,std::char_traits<char>,std::allocator<char> >::assign
PUBLIC	?max_size@?$basic_string@DU?$char_traits@D@std@@V?$allocator@D@2@@std@@QEBA_KXZ ; std::basic_string<char,std::char_traits<char>,std::allocator<char> >::max_size
PUBLIC	?_Calculate_growth@?$basic_string@DU?$char_traits@D@std@@V?$allocator@D@2@@std@@QEBA_K_K@Z ; std::basic_string<char,std::char_traits<char>,std::allocator<char> >::_Calculate_growth
PUBLIC	?_Tidy_init@?$basic_string@DU?$char_traits@D@std@@V?$allocator@D@2@@std@@QEAAXXZ ; std::basic_string<char,std::char_traits<char>,std::allocator<char> >::_Tidy_init
PUBLIC	?_Tidy_deallocate@?$basic_string@DU?$char_traits@D@std@@V?$allocator@D@2@@std@@QEAAXXZ ; std::basic_string<char,std::char_traits<char>,std::allocator<char> >::_Tidy_deallocate
PUBLIC	?_Xlen@?$basic_string@DU?$char_traits@D@std@@V?$allocator@D@2@@std@@SAXXZ ; std::basic_string<char,std::char_traits<char>,std::allocator<char> >::_Xlen
PUBLIC	??_GShader@graphics@core@@QEAAPEAXI@Z		; core::graphics::Shader::`scalar deleting destructor'
PUBLIC	?__autoclassinit2@Texture@graphics@core@@QEAAX_K@Z ; core::graphics::Texture::__autoclassinit2
PUBLIC	??_GTexture@graphics@core@@QEAAPEAXI@Z		; core::graphics::Texture::`scalar deleting destructor'
PUBLIC	??_GVBO@buffers@core@@QEAAPEAXI@Z		; core::buffers::VBO::`scalar deleting destructor'
PUBLIC	?SizeOfType@BufferElement@buffers@core@@SAII@Z	; core::buffers::BufferElement::SizeOfType
PUBLIC	??0?$allocator@UBufferElement@buffers@core@@@std@@QEAA@XZ ; std::allocator<core::buffers::BufferElement>::allocator<core::buffers::BufferElement>
PUBLIC	?deallocate@?$allocator@UBufferElement@buffers@core@@@std@@QEAAXQEAUBufferElement@buffers@core@@_K@Z ; std::allocator<core::buffers::BufferElement>::deallocate
PUBLIC	?allocate@?$allocator@UBufferElement@buffers@core@@@std@@QEAAPEAUBufferElement@buffers@core@@_K@Z ; std::allocator<core::buffers::BufferElement>::allocate
PUBLIC	?max_size@?$_Default_allocator_traits@V?$allocator@UBufferElement@buffers@core@@@std@@@std@@SA_KAEBV?$allocator@UBufferElement@buffers@core@@@2@@Z ; std::_Default_allocator_traits<std::allocator<core::buffers::BufferElement> >::max_size
PUBLIC	??0?$_Vector_alloc@U?$_Vec_base_types@UBufferElement@buffers@core@@V?$allocator@UBufferElement@buffers@core@@@std@@@std@@@std@@QEAA@XZ ; std::_Vector_alloc<std::_Vec_base_types<core::buffers::BufferElement,std::allocator<core::buffers::BufferElement> > >::_Vector_alloc<std::_Vec_base_types<core::buffers::BufferElement,std::allocator<core::buffers::BufferElement> > >
PUBLIC	??1?$_Vector_alloc@U?$_Vec_base_types@UBufferElement@buffers@core@@V?$allocator@UBufferElement@buffers@core@@@std@@@std@@@std@@QEAA@XZ ; std::_Vector_alloc<std::_Vec_base_types<core::buffers::BufferElement,std::allocator<core::buffers::BufferElement> > >::~_Vector_alloc<std::_Vec_base_types<core::buffers::BufferElement,std::allocator<core::buffers::BufferElement> > >
PUBLIC	?_Alloc_proxy@?$_Vector_alloc@U?$_Vec_base_types@UBufferElement@buffers@core@@V?$allocator@UBufferElement@buffers@core@@@std@@@std@@@std@@QEAAXXZ ; std::_Vector_alloc<std::_Vec_base_types<core::buffers::BufferElement,std::allocator<core::buffers::BufferElement> > >::_Alloc_proxy
PUBLIC	?_Free_proxy@?$_Vector_alloc@U?$_Vec_base_types@UBufferElement@buffers@core@@V?$allocator@UBufferElement@buffers@core@@@std@@@std@@@std@@QEAAXXZ ; std::_Vector_alloc<std::_Vec_base_types<core::buffers::BufferElement,std::allocator<core::buffers::BufferElement> > >::_Free_proxy
PUBLIC	?_Getpfirst@?$_Vector_alloc@U?$_Vec_base_types@UBufferElement@buffers@core@@V?$allocator@UBufferElement@buffers@core@@@std@@@std@@@std@@QEBAPEAPEAU_Iterator_base12@2@XZ ; std::_Vector_alloc<std::_Vec_base_types<core::buffers::BufferElement,std::allocator<core::buffers::BufferElement> > >::_Getpfirst
PUBLIC	?_Myproxy@?$_Vector_alloc@U?$_Vec_base_types@UBufferElement@buffers@core@@V?$allocator@UBufferElement@buffers@core@@@std@@@std@@@std@@QEAAAEAPEAU_Container_proxy@2@XZ ; std::_Vector_alloc<std::_Vec_base_types<core::buffers::BufferElement,std::allocator<core::buffers::BufferElement> > >::_Myproxy
PUBLIC	?_Orphan_all@?$_Vector_alloc@U?$_Vec_base_types@UBufferElement@buffers@core@@V?$allocator@UBufferElement@buffers@core@@@std@@@std@@@std@@QEAAXXZ ; std::_Vector_alloc<std::_Vec_base_types<core::buffers::BufferElement,std::allocator<core::buffers::BufferElement> > >::_Orphan_all
PUBLIC	?_Getal@?$_Vector_alloc@U?$_Vec_base_types@UBufferElement@buffers@core@@V?$allocator@UBufferElement@buffers@core@@@std@@@std@@@std@@QEAAAEAV?$allocator@UBufferElement@buffers@core@@@2@XZ ; std::_Vector_alloc<std::_Vec_base_types<core::buffers::BufferElement,std::allocator<core::buffers::BufferElement> > >::_Getal
PUBLIC	?_Getal@?$_Vector_alloc@U?$_Vec_base_types@UBufferElement@buffers@core@@V?$allocator@UBufferElement@buffers@core@@@std@@@std@@@std@@QEBAAEBV?$allocator@UBufferElement@buffers@core@@@2@XZ ; std::_Vector_alloc<std::_Vec_base_types<core::buffers::BufferElement,std::allocator<core::buffers::BufferElement> > >::_Getal
PUBLIC	?_Get_data@?$_Vector_alloc@U?$_Vec_base_types@UBufferElement@buffers@core@@V?$allocator@UBufferElement@buffers@core@@@std@@@std@@@std@@QEAAAEAV?$_Vector_val@U?$_Simple_types@UBufferElement@buffers@core@@@std@@@2@XZ ; std::_Vector_alloc<std::_Vec_base_types<core::buffers::BufferElement,std::allocator<core::buffers::BufferElement> > >::_Get_data
PUBLIC	?_Get_data@?$_Vector_alloc@U?$_Vec_base_types@UBufferElement@buffers@core@@V?$allocator@UBufferElement@buffers@core@@@std@@@std@@@std@@QEBAAEBV?$_Vector_val@U?$_Simple_types@UBufferElement@buffers@core@@@std@@@2@XZ ; std::_Vector_alloc<std::_Vec_base_types<core::buffers::BufferElement,std::allocator<core::buffers::BufferElement> > >::_Get_data
PUBLIC	?_Myfirst@?$_Vector_alloc@U?$_Vec_base_types@UBufferElement@buffers@core@@V?$allocator@UBufferElement@buffers@core@@@std@@@std@@@std@@QEAAAEAPEAUBufferElement@buffers@core@@XZ ; std::_Vector_alloc<std::_Vec_base_types<core::buffers::BufferElement,std::allocator<core::buffers::BufferElement> > >::_Myfirst
PUBLIC	?_Myfirst@?$_Vector_alloc@U?$_Vec_base_types@UBufferElement@buffers@core@@V?$allocator@UBufferElement@buffers@core@@@std@@@std@@@std@@QEBAAEBQEAUBufferElement@buffers@core@@XZ ; std::_Vector_alloc<std::_Vec_base_types<core::buffers::BufferElement,std::allocator<core::buffers::BufferElement> > >::_Myfirst
PUBLIC	?_Mylast@?$_Vector_alloc@U?$_Vec_base_types@UBufferElement@buffers@core@@V?$allocator@UBufferElement@buffers@core@@@std@@@std@@@std@@QEAAAEAPEAUBufferElement@buffers@core@@XZ ; std::_Vector_alloc<std::_Vec_base_types<core::buffers::BufferElement,std::allocator<core::buffers::BufferElement> > >::_Mylast
PUBLIC	?_Mylast@?$_Vector_alloc@U?$_Vec_base_types@UBufferElement@buffers@core@@V?$allocator@UBufferElement@buffers@core@@@std@@@std@@@std@@QEBAAEBQEAUBufferElement@buffers@core@@XZ ; std::_Vector_alloc<std::_Vec_base_types<core::buffers::BufferElement,std::allocator<core::buffers::BufferElement> > >::_Mylast
PUBLIC	?_Myend@?$_Vector_alloc@U?$_Vec_base_types@UBufferElement@buffers@core@@V?$allocator@UBufferElement@buffers@core@@@std@@@std@@@std@@QEAAAEAPEAUBufferElement@buffers@core@@XZ ; std::_Vector_alloc<std::_Vec_base_types<core::buffers::BufferElement,std::allocator<core::buffers::BufferElement> > >::_Myend
PUBLIC	?_Myend@?$_Vector_alloc@U?$_Vec_base_types@UBufferElement@buffers@core@@V?$allocator@UBufferElement@buffers@core@@@std@@@std@@@std@@QEBAAEBQEAUBufferElement@buffers@core@@XZ ; std::_Vector_alloc<std::_Vec_base_types<core::buffers::BufferElement,std::allocator<core::buffers::BufferElement> > >::_Myend
PUBLIC	??0?$_Vector_val@U?$_Simple_types@UBufferElement@buffers@core@@@std@@@std@@QEAA@XZ ; std::_Vector_val<std::_Simple_types<core::buffers::BufferElement> >::_Vector_val<std::_Simple_types<core::buffers::BufferElement> >
PUBLIC	?_Get_first@?$_Compressed_pair@V?$allocator@UBufferElement@buffers@core@@@std@@V?$_Vector_val@U?$_Simple_types@UBufferElement@buffers@core@@@std@@@2@$00@std@@QEAAAEAV?$allocator@UBufferElement@buffers@core@@@2@XZ ; std::_Compressed_pair<std::allocator<core::buffers::BufferElement>,std::_Vector_val<std::_Simple_types<core::buffers::BufferElement> >,1>::_Get_first
PUBLIC	?_Get_first@?$_Compressed_pair@V?$allocator@UBufferElement@buffers@core@@@std@@V?$_Vector_val@U?$_Simple_types@UBufferElement@buffers@core@@@std@@@2@$00@std@@QEBAAEBV?$allocator@UBufferElement@buffers@core@@@2@XZ ; std::_Compressed_pair<std::allocator<core::buffers::BufferElement>,std::_Vector_val<std::_Simple_types<core::buffers::BufferElement> >,1>::_Get_first
PUBLIC	?_Get_second@?$_Compressed_pair@V?$allocator@UBufferElement@buffers@core@@@std@@V?$_Vector_val@U?$_Simple_types@UBufferElement@buffers@core@@@std@@@2@$00@std@@QEAAAEAV?$_Vector_val@U?$_Simple_types@UBufferElement@buffers@core@@@std@@@2@XZ ; std::_Compressed_pair<std::allocator<core::buffers::BufferElement>,std::_Vector_val<std::_Simple_types<core::buffers::BufferElement> >,1>::_Get_second
PUBLIC	?_Get_second@?$_Compressed_pair@V?$allocator@UBufferElement@buffers@core@@@std@@V?$_Vector_val@U?$_Simple_types@UBufferElement@buffers@core@@@std@@@2@$00@std@@QEBAAEBV?$_Vector_val@U?$_Simple_types@UBufferElement@buffers@core@@@std@@@2@XZ ; std::_Compressed_pair<std::allocator<core::buffers::BufferElement>,std::_Vector_val<std::_Simple_types<core::buffers::BufferElement> >,1>::_Get_second
PUBLIC	??0?$vector@UBufferElement@buffers@core@@V?$allocator@UBufferElement@buffers@core@@@std@@@std@@QEAA@XZ ; std::vector<core::buffers::BufferElement,std::allocator<core::buffers::BufferElement> >::vector<core::buffers::BufferElement,std::allocator<core::buffers::BufferElement> >
PUBLIC	??1?$vector@UBufferElement@buffers@core@@V?$allocator@UBufferElement@buffers@core@@@std@@@std@@QEAA@XZ ; std::vector<core::buffers::BufferElement,std::allocator<core::buffers::BufferElement> >::~vector<core::buffers::BufferElement,std::allocator<core::buffers::BufferElement> >
PUBLIC	?push_back@?$vector@UBufferElement@buffers@core@@V?$allocator@UBufferElement@buffers@core@@@std@@@std@@QEAAX$$QEAUBufferElement@buffers@core@@@Z ; std::vector<core::buffers::BufferElement,std::allocator<core::buffers::BufferElement> >::push_back
PUBLIC	?size@?$vector@UBufferElement@buffers@core@@V?$allocator@UBufferElement@buffers@core@@@std@@@std@@QEBA_KXZ ; std::vector<core::buffers::BufferElement,std::allocator<core::buffers::BufferElement> >::size
PUBLIC	?max_size@?$vector@UBufferElement@buffers@core@@V?$allocator@UBufferElement@buffers@core@@@std@@@std@@QEBA_KXZ ; std::vector<core::buffers::BufferElement,std::allocator<core::buffers::BufferElement> >::max_size
PUBLIC	?capacity@?$vector@UBufferElement@buffers@core@@V?$allocator@UBufferElement@buffers@core@@@std@@@std@@QEBA_KXZ ; std::vector<core::buffers::BufferElement,std::allocator<core::buffers::BufferElement> >::capacity
PUBLIC	?_Has_unused_capacity@?$vector@UBufferElement@buffers@core@@V?$allocator@UBufferElement@buffers@core@@@std@@@std@@AEBA_NXZ ; std::vector<core::buffers::BufferElement,std::allocator<core::buffers::BufferElement> >::_Has_unused_capacity
PUBLIC	?_Umove@?$vector@UBufferElement@buffers@core@@V?$allocator@UBufferElement@buffers@core@@@std@@@std@@AEAAPEAUBufferElement@buffers@core@@PEAU345@00@Z ; std::vector<core::buffers::BufferElement,std::allocator<core::buffers::BufferElement> >::_Umove
PUBLIC	?_Umove_if_noexcept1@?$vector@UBufferElement@buffers@core@@V?$allocator@UBufferElement@buffers@core@@@std@@@std@@AEAAXPEAUBufferElement@buffers@core@@00U?$integral_constant@_N$00@2@@Z ; std::vector<core::buffers::BufferElement,std::allocator<core::buffers::BufferElement> >::_Umove_if_noexcept1
PUBLIC	?_Umove_if_noexcept@?$vector@UBufferElement@buffers@core@@V?$allocator@UBufferElement@buffers@core@@@std@@@std@@AEAAXPEAUBufferElement@buffers@core@@00@Z ; std::vector<core::buffers::BufferElement,std::allocator<core::buffers::BufferElement> >::_Umove_if_noexcept
PUBLIC	?_Destroy@?$vector@UBufferElement@buffers@core@@V?$allocator@UBufferElement@buffers@core@@@std@@@std@@AEAAXPEAUBufferElement@buffers@core@@0@Z ; std::vector<core::buffers::BufferElement,std::allocator<core::buffers::BufferElement> >::_Destroy
PUBLIC	?_Calculate_growth@?$vector@UBufferElement@buffers@core@@V?$allocator@UBufferElement@buffers@core@@@std@@@std@@AEBA_K_K@Z ; std::vector<core::buffers::BufferElement,std::allocator<core::buffers::BufferElement> >::_Calculate_growth
PUBLIC	?_Change_array@?$vector@UBufferElement@buffers@core@@V?$allocator@UBufferElement@buffers@core@@@std@@@std@@AEAAXQEAUBufferElement@buffers@core@@_K1@Z ; std::vector<core::buffers::BufferElement,std::allocator<core::buffers::BufferElement> >::_Change_array
PUBLIC	?_Tidy@?$vector@UBufferElement@buffers@core@@V?$allocator@UBufferElement@buffers@core@@@std@@@std@@AEAAXXZ ; std::vector<core::buffers::BufferElement,std::allocator<core::buffers::BufferElement> >::_Tidy
PUBLIC	?_Xlength@?$vector@UBufferElement@buffers@core@@V?$allocator@UBufferElement@buffers@core@@@std@@@std@@CAXXZ ; std::vector<core::buffers::BufferElement,std::allocator<core::buffers::BufferElement> >::_Xlength
PUBLIC	?_Orphan_range@?$vector@UBufferElement@buffers@core@@V?$allocator@UBufferElement@buffers@core@@@std@@@std@@AEBAXPEAUBufferElement@buffers@core@@0@Z ; std::vector<core::buffers::BufferElement,std::allocator<core::buffers::BufferElement> >::_Orphan_range
PUBLIC	??0BufferLayout@buffers@core@@QEAA@XZ		; core::buffers::BufferLayout::BufferLayout
PUBLIC	??$push@M@BufferLayout@buffers@core@@QEAAXI@Z	; core::buffers::BufferLayout::push<float>
PUBLIC	??1BufferLayout@buffers@core@@QEAA@XZ		; core::buffers::BufferLayout::~BufferLayout
PUBLIC	?__autoclassinit2@BufferLayout@buffers@core@@QEAAX_K@Z ; core::buffers::BufferLayout::__autoclassinit2
PUBLIC	??_GBufferLayout@buffers@core@@QEAAPEAXI@Z	; core::buffers::BufferLayout::`scalar deleting destructor'
PUBLIC	??_GVAO@buffers@core@@QEAAPEAXI@Z		; core::buffers::VAO::`scalar deleting destructor'
PUBLIC	?getCount@IBO@buffers@core@@QEBAHXZ		; core::buffers::IBO::getCount
PUBLIC	??_GIBO@buffers@core@@QEAAPEAXI@Z		; core::buffers::IBO::`scalar deleting destructor'
PUBLIC	??0?$allocator@U?$pair@PEBDV?$function@$$A6APEAVScene@1Application@@XZ@std@@@std@@@std@@QEAA@XZ ; std::allocator<std::pair<char const *,std::function<Application::Scene::Scene * __cdecl(void)> > >::allocator<std::pair<char const *,std::function<Application::Scene::Scene * __cdecl(void)> > >
PUBLIC	?deallocate@?$allocator@U?$pair@PEBDV?$function@$$A6APEAVScene@1Application@@XZ@std@@@std@@@std@@QEAAXQEAU?$pair@PEBDV?$function@$$A6APEAVScene@1Application@@XZ@std@@@2@_K@Z ; std::allocator<std::pair<char const *,std::function<Application::Scene::Scene * __cdecl(void)> > >::deallocate
PUBLIC	??0?$_Vector_alloc@U?$_Vec_base_types@U?$pair@PEBDV?$function@$$A6APEAVScene@1Application@@XZ@std@@@std@@V?$allocator@U?$pair@PEBDV?$function@$$A6APEAVScene@1Application@@XZ@std@@@std@@@2@@std@@@std@@QEAA@XZ ; std::_Vector_alloc<std::_Vec_base_types<std::pair<char const *,std::function<Application::Scene::Scene * __cdecl(void)> >,std::allocator<std::pair<char const *,std::function<Application::Scene::Scene * __cdecl(void)> > > > >::_Vector_alloc<std::_Vec_base_types<std::pair<char const *,std::function<Application::Scene::Scene * __cdecl(void)> >,std::allocator<std::pair<char const *,std::function<Application::Scene::Scene * __cdecl(void)> > > > >
PUBLIC	??1?$_Vector_alloc@U?$_Vec_base_types@U?$pair@PEBDV?$function@$$A6APEAVScene@1Application@@XZ@std@@@std@@V?$allocator@U?$pair@PEBDV?$function@$$A6APEAVScene@1Application@@XZ@std@@@std@@@2@@std@@@std@@QEAA@XZ ; std::_Vector_alloc<std::_Vec_base_types<std::pair<char const *,std::function<Application::Scene::Scene * __cdecl(void)> >,std::allocator<std::pair<char const *,std::function<Application::Scene::Scene * __cdecl(void)> > > > >::~_Vector_alloc<std::_Vec_base_types<std::pair<char const *,std::function<Application::Scene::Scene * __cdecl(void)> >,std::allocator<std::pair<char const *,std::function<Application::Scene::Scene * __cdecl(void)> > > > >
PUBLIC	?_Alloc_proxy@?$_Vector_alloc@U?$_Vec_base_types@U?$pair@PEBDV?$function@$$A6APEAVScene@1Application@@XZ@std@@@std@@V?$allocator@U?$pair@PEBDV?$function@$$A6APEAVScene@1Application@@XZ@std@@@std@@@2@@std@@@std@@QEAAXXZ ; std::_Vector_alloc<std::_Vec_base_types<std::pair<char const *,std::function<Application::Scene::Scene * __cdecl(void)> >,std::allocator<std::pair<char const *,std::function<Application::Scene::Scene * __cdecl(void)> > > > >::_Alloc_proxy
PUBLIC	?_Free_proxy@?$_Vector_alloc@U?$_Vec_base_types@U?$pair@PEBDV?$function@$$A6APEAVScene@1Application@@XZ@std@@@std@@V?$allocator@U?$pair@PEBDV?$function@$$A6APEAVScene@1Application@@XZ@std@@@std@@@2@@std@@@std@@QEAAXXZ ; std::_Vector_alloc<std::_Vec_base_types<std::pair<char const *,std::function<Application::Scene::Scene * __cdecl(void)> >,std::allocator<std::pair<char const *,std::function<Application::Scene::Scene * __cdecl(void)> > > > >::_Free_proxy
PUBLIC	?_Myproxy@?$_Vector_alloc@U?$_Vec_base_types@U?$pair@PEBDV?$function@$$A6APEAVScene@1Application@@XZ@std@@@std@@V?$allocator@U?$pair@PEBDV?$function@$$A6APEAVScene@1Application@@XZ@std@@@std@@@2@@std@@@std@@QEAAAEAPEAU_Container_proxy@2@XZ ; std::_Vector_alloc<std::_Vec_base_types<std::pair<char const *,std::function<Application::Scene::Scene * __cdecl(void)> >,std::allocator<std::pair<char const *,std::function<Application::Scene::Scene * __cdecl(void)> > > > >::_Myproxy
PUBLIC	?_Orphan_all@?$_Vector_alloc@U?$_Vec_base_types@U?$pair@PEBDV?$function@$$A6APEAVScene@1Application@@XZ@std@@@std@@V?$allocator@U?$pair@PEBDV?$function@$$A6APEAVScene@1Application@@XZ@std@@@std@@@2@@std@@@std@@QEAAXXZ ; std::_Vector_alloc<std::_Vec_base_types<std::pair<char const *,std::function<Application::Scene::Scene * __cdecl(void)> >,std::allocator<std::pair<char const *,std::function<Application::Scene::Scene * __cdecl(void)> > > > >::_Orphan_all
PUBLIC	?_Getal@?$_Vector_alloc@U?$_Vec_base_types@U?$pair@PEBDV?$function@$$A6APEAVScene@1Application@@XZ@std@@@std@@V?$allocator@U?$pair@PEBDV?$function@$$A6APEAVScene@1Application@@XZ@std@@@std@@@2@@std@@@std@@QEAAAEAV?$allocator@U?$pair@PEBDV?$function@$$A6APEAVScene@1Application@@XZ@std@@@std@@@2@XZ ; std::_Vector_alloc<std::_Vec_base_types<std::pair<char const *,std::function<Application::Scene::Scene * __cdecl(void)> >,std::allocator<std::pair<char const *,std::function<Application::Scene::Scene * __cdecl(void)> > > > >::_Getal
PUBLIC	?_Get_data@?$_Vector_alloc@U?$_Vec_base_types@U?$pair@PEBDV?$function@$$A6APEAVScene@1Application@@XZ@std@@@std@@V?$allocator@U?$pair@PEBDV?$function@$$A6APEAVScene@1Application@@XZ@std@@@std@@@2@@std@@@std@@QEAAAEAV?$_Vector_val@U?$_Simple_types@U?$pair@PEBDV?$function@$$A6APEAVScene@1Application@@XZ@std@@@std@@@std@@@2@XZ ; std::_Vector_alloc<std::_Vec_base_types<std::pair<char const *,std::function<Application::Scene::Scene * __cdecl(void)> >,std::allocator<std::pair<char const *,std::function<Application::Scene::Scene * __cdecl(void)> > > > >::_Get_data
PUBLIC	?_Get_data@?$_Vector_alloc@U?$_Vec_base_types@U?$pair@PEBDV?$function@$$A6APEAVScene@1Application@@XZ@std@@@std@@V?$allocator@U?$pair@PEBDV?$function@$$A6APEAVScene@1Application@@XZ@std@@@std@@@2@@std@@@std@@QEBAAEBV?$_Vector_val@U?$_Simple_types@U?$pair@PEBDV?$function@$$A6APEAVScene@1Application@@XZ@std@@@std@@@std@@@2@XZ ; std::_Vector_alloc<std::_Vec_base_types<std::pair<char const *,std::function<Application::Scene::Scene * __cdecl(void)> >,std::allocator<std::pair<char const *,std::function<Application::Scene::Scene * __cdecl(void)> > > > >::_Get_data
PUBLIC	?_Myfirst@?$_Vector_alloc@U?$_Vec_base_types@U?$pair@PEBDV?$function@$$A6APEAVScene@1Application@@XZ@std@@@std@@V?$allocator@U?$pair@PEBDV?$function@$$A6APEAVScene@1Application@@XZ@std@@@std@@@2@@std@@@std@@QEAAAEAPEAU?$pair@PEBDV?$function@$$A6APEAVScene@1Application@@XZ@std@@@2@XZ ; std::_Vector_alloc<std::_Vec_base_types<std::pair<char const *,std::function<Application::Scene::Scene * __cdecl(void)> >,std::allocator<std::pair<char const *,std::function<Application::Scene::Scene * __cdecl(void)> > > > >::_Myfirst
PUBLIC	?_Myfirst@?$_Vector_alloc@U?$_Vec_base_types@U?$pair@PEBDV?$function@$$A6APEAVScene@1Application@@XZ@std@@@std@@V?$allocator@U?$pair@PEBDV?$function@$$A6APEAVScene@1Application@@XZ@std@@@std@@@2@@std@@@std@@QEBAAEBQEAU?$pair@PEBDV?$function@$$A6APEAVScene@1Application@@XZ@std@@@2@XZ ; std::_Vector_alloc<std::_Vec_base_types<std::pair<char const *,std::function<Application::Scene::Scene * __cdecl(void)> >,std::allocator<std::pair<char const *,std::function<Application::Scene::Scene * __cdecl(void)> > > > >::_Myfirst
PUBLIC	?_Mylast@?$_Vector_alloc@U?$_Vec_base_types@U?$pair@PEBDV?$function@$$A6APEAVScene@1Application@@XZ@std@@@std@@V?$allocator@U?$pair@PEBDV?$function@$$A6APEAVScene@1Application@@XZ@std@@@std@@@2@@std@@@std@@QEAAAEAPEAU?$pair@PEBDV?$function@$$A6APEAVScene@1Application@@XZ@std@@@2@XZ ; std::_Vector_alloc<std::_Vec_base_types<std::pair<char const *,std::function<Application::Scene::Scene * __cdecl(void)> >,std::allocator<std::pair<char const *,std::function<Application::Scene::Scene * __cdecl(void)> > > > >::_Mylast
PUBLIC	?_Myend@?$_Vector_alloc@U?$_Vec_base_types@U?$pair@PEBDV?$function@$$A6APEAVScene@1Application@@XZ@std@@@std@@V?$allocator@U?$pair@PEBDV?$function@$$A6APEAVScene@1Application@@XZ@std@@@std@@@2@@std@@@std@@QEAAAEAPEAU?$pair@PEBDV?$function@$$A6APEAVScene@1Application@@XZ@std@@@2@XZ ; std::_Vector_alloc<std::_Vec_base_types<std::pair<char const *,std::function<Application::Scene::Scene * __cdecl(void)> >,std::allocator<std::pair<char const *,std::function<Application::Scene::Scene * __cdecl(void)> > > > >::_Myend
PUBLIC	?_Myend@?$_Vector_alloc@U?$_Vec_base_types@U?$pair@PEBDV?$function@$$A6APEAVScene@1Application@@XZ@std@@@std@@V?$allocator@U?$pair@PEBDV?$function@$$A6APEAVScene@1Application@@XZ@std@@@std@@@2@@std@@@std@@QEBAAEBQEAU?$pair@PEBDV?$function@$$A6APEAVScene@1Application@@XZ@std@@@2@XZ ; std::_Vector_alloc<std::_Vec_base_types<std::pair<char const *,std::function<Application::Scene::Scene * __cdecl(void)> >,std::allocator<std::pair<char const *,std::function<Application::Scene::Scene * __cdecl(void)> > > > >::_Myend
PUBLIC	??0?$_Vector_val@U?$_Simple_types@U?$pair@PEBDV?$function@$$A6APEAVScene@1Application@@XZ@std@@@std@@@std@@@std@@QEAA@XZ ; std::_Vector_val<std::_Simple_types<std::pair<char const *,std::function<Application::Scene::Scene * __cdecl(void)> > > >::_Vector_val<std::_Simple_types<std::pair<char const *,std::function<Application::Scene::Scene * __cdecl(void)> > > >
PUBLIC	?_Get_first@?$_Compressed_pair@V?$allocator@U?$pair@PEBDV?$function@$$A6APEAVScene@1Application@@XZ@std@@@std@@@std@@V?$_Vector_val@U?$_Simple_types@U?$pair@PEBDV?$function@$$A6APEAVScene@1Application@@XZ@std@@@std@@@std@@@2@$00@std@@QEAAAEAV?$allocator@U?$pair@PEBDV?$function@$$A6APEAVScene@1Application@@XZ@std@@@std@@@2@XZ ; std::_Compressed_pair<std::allocator<std::pair<char const *,std::function<Application::Scene::Scene * __cdecl(void)> > >,std::_Vector_val<std::_Simple_types<std::pair<char const *,std::function<Application::Scene::Scene * __cdecl(void)> > > >,1>::_Get_first
PUBLIC	?_Get_second@?$_Compressed_pair@V?$allocator@U?$pair@PEBDV?$function@$$A6APEAVScene@1Application@@XZ@std@@@std@@@std@@V?$_Vector_val@U?$_Simple_types@U?$pair@PEBDV?$function@$$A6APEAVScene@1Application@@XZ@std@@@std@@@std@@@2@$00@std@@QEAAAEAV?$_Vector_val@U?$_Simple_types@U?$pair@PEBDV?$function@$$A6APEAVScene@1Application@@XZ@std@@@std@@@std@@@2@XZ ; std::_Compressed_pair<std::allocator<std::pair<char const *,std::function<Application::Scene::Scene * __cdecl(void)> > >,std::_Vector_val<std::_Simple_types<std::pair<char const *,std::function<Application::Scene::Scene * __cdecl(void)> > > >,1>::_Get_second
PUBLIC	?_Get_second@?$_Compressed_pair@V?$allocator@U?$pair@PEBDV?$function@$$A6APEAVScene@1Application@@XZ@std@@@std@@@std@@V?$_Vector_val@U?$_Simple_types@U?$pair@PEBDV?$function@$$A6APEAVScene@1Application@@XZ@std@@@std@@@std@@@2@$00@std@@QEBAAEBV?$_Vector_val@U?$_Simple_types@U?$pair@PEBDV?$function@$$A6APEAVScene@1Application@@XZ@std@@@std@@@std@@@2@XZ ; std::_Compressed_pair<std::allocator<std::pair<char const *,std::function<Application::Scene::Scene * __cdecl(void)> > >,std::_Vector_val<std::_Simple_types<std::pair<char const *,std::function<Application::Scene::Scene * __cdecl(void)> > > >,1>::_Get_second
PUBLIC	??0?$vector@U?$pair@PEBDV?$function@$$A6APEAVScene@1Application@@XZ@std@@@std@@V?$allocator@U?$pair@PEBDV?$function@$$A6APEAVScene@1Application@@XZ@std@@@std@@@2@@std@@QEAA@XZ ; std::vector<std::pair<char const *,std::function<Application::Scene::Scene * __cdecl(void)> >,std::allocator<std::pair<char const *,std::function<Application::Scene::Scene * __cdecl(void)> > > >::vector<std::pair<char const *,std::function<Application::Scene::Scene * __cdecl(void)> >,std::allocator<std::pair<char const *,std::function<Application::Scene::Scene * __cdecl(void)> > > >
PUBLIC	??1?$vector@U?$pair@PEBDV?$function@$$A6APEAVScene@1Application@@XZ@std@@@std@@V?$allocator@U?$pair@PEBDV?$function@$$A6APEAVScene@1Application@@XZ@std@@@std@@@2@@std@@QEAA@XZ ; std::vector<std::pair<char const *,std::function<Application::Scene::Scene * __cdecl(void)> >,std::allocator<std::pair<char const *,std::function<Application::Scene::Scene * __cdecl(void)> > > >::~vector<std::pair<char const *,std::function<Application::Scene::Scene * __cdecl(void)> >,std::allocator<std::pair<char const *,std::function<Application::Scene::Scene * __cdecl(void)> > > >
PUBLIC	?_Unchecked_begin@?$vector@U?$pair@PEBDV?$function@$$A6APEAVScene@1Application@@XZ@std@@@std@@V?$allocator@U?$pair@PEBDV?$function@$$A6APEAVScene@1Application@@XZ@std@@@std@@@2@@std@@QEAAPEAU?$pair@PEBDV?$function@$$A6APEAVScene@1Application@@XZ@std@@@2@XZ ; std::vector<std::pair<char const *,std::function<Application::Scene::Scene * __cdecl(void)> >,std::allocator<std::pair<char const *,std::function<Application::Scene::Scene * __cdecl(void)> > > >::_Unchecked_begin
PUBLIC	?_Unchecked_end@?$vector@U?$pair@PEBDV?$function@$$A6APEAVScene@1Application@@XZ@std@@@std@@V?$allocator@U?$pair@PEBDV?$function@$$A6APEAVScene@1Application@@XZ@std@@@std@@@2@@std@@QEAAPEAU?$pair@PEBDV?$function@$$A6APEAVScene@1Application@@XZ@std@@@2@XZ ; std::vector<std::pair<char const *,std::function<Application::Scene::Scene * __cdecl(void)> >,std::allocator<std::pair<char const *,std::function<Application::Scene::Scene * __cdecl(void)> > > >::_Unchecked_end
PUBLIC	?capacity@?$vector@U?$pair@PEBDV?$function@$$A6APEAVScene@1Application@@XZ@std@@@std@@V?$allocator@U?$pair@PEBDV?$function@$$A6APEAVScene@1Application@@XZ@std@@@std@@@2@@std@@QEBA_KXZ ; std::vector<std::pair<char const *,std::function<Application::Scene::Scene * __cdecl(void)> >,std::allocator<std::pair<char const *,std::function<Application::Scene::Scene * __cdecl(void)> > > >::capacity
PUBLIC	?_Destroy@?$vector@U?$pair@PEBDV?$function@$$A6APEAVScene@1Application@@XZ@std@@@std@@V?$allocator@U?$pair@PEBDV?$function@$$A6APEAVScene@1Application@@XZ@std@@@std@@@2@@std@@AEAAXPEAU?$pair@PEBDV?$function@$$A6APEAVScene@1Application@@XZ@std@@@2@0@Z ; std::vector<std::pair<char const *,std::function<Application::Scene::Scene * __cdecl(void)> >,std::allocator<std::pair<char const *,std::function<Application::Scene::Scene * __cdecl(void)> > > >::_Destroy
PUBLIC	?_Tidy@?$vector@U?$pair@PEBDV?$function@$$A6APEAVScene@1Application@@XZ@std@@@std@@V?$allocator@U?$pair@PEBDV?$function@$$A6APEAVScene@1Application@@XZ@std@@@std@@@2@@std@@AEAAXXZ ; std::vector<std::pair<char const *,std::function<Application::Scene::Scene * __cdecl(void)> >,std::allocator<std::pair<char const *,std::function<Application::Scene::Scene * __cdecl(void)> > > >::_Tidy
PUBLIC	??0MainMenuScene@Scene@Application@@QEAA@AEAPEAV112@@Z ; Application::Scene::MainMenuScene::MainMenuScene
PUBLIC	??1MainMenuScene@Scene@Application@@UEAA@XZ	; Application::Scene::MainMenuScene::~MainMenuScene
PUBLIC	?OnUpdate@MainMenuScene@Scene@Application@@UEAAXM@Z ; Application::Scene::MainMenuScene::OnUpdate
PUBLIC	?OnRender@MainMenuScene@Scene@Application@@UEAAXXZ ; Application::Scene::MainMenuScene::OnRender
PUBLIC	?OnImGuiRender@MainMenuScene@Scene@Application@@UEAAXXZ ; Application::Scene::MainMenuScene::OnImGuiRender
PUBLIC	?OnReloadScene@MainMenuScene@Scene@Application@@QEAAXXZ ; Application::Scene::MainMenuScene::OnReloadScene
PUBLIC	??_GMainMenuScene@Scene@Application@@UEAAPEAXI@Z ; Application::Scene::MainMenuScene::`scalar deleting destructor'
PUBLIC	??0ImVec2@@QEAA@MM@Z				; ImVec2::ImVec2
PUBLIC	?length@?$tvec4@M$0A@@glm@@SAHXZ		; glm::tvec4<float,0>::length
PUBLIC	??A?$tvec4@M$0A@@glm@@QEAAAEAMH@Z		; glm::tvec4<float,0>::operator[]
PUBLIC	??0?$tvec4@M$0A@@glm@@QEAA@XZ			; glm::tvec4<float,0>::tvec4<float,0>
PUBLIC	??0?$tmat4x4@M$0A@@glm@@QEAA@AEBM@Z		; glm::tmat4x4<float,0>::tmat4x4<float,0>
PUBLIC	?length@?$tmat4x4@M$0A@@glm@@SAHXZ		; glm::tmat4x4<float,0>::length
PUBLIC	??A?$tmat4x4@M$0A@@glm@@QEAAAEAU?$tvec4@M$0A@@1@H@Z ; glm::tmat4x4<float,0>::operator[]
PUBLIC	??$ortho@M@glm@@YA?AU?$tmat4x4@M$0A@@0@MMMMMM@Z	; glm::ortho<float>
PUBLIC	??R?$_Func_class@PEAVScene@1Application@@$$V@std@@QEBAPEAVScene@2Application@@XZ ; std::_Func_class<Application::Scene::Scene *>::operator()
PUBLIC	??1?$_Func_class@PEAVScene@1Application@@$$V@std@@QEAA@XZ ; std::_Func_class<Application::Scene::Scene *>::~_Func_class<Application::Scene::Scene *>
PUBLIC	?_Empty@?$_Func_class@PEAVScene@1Application@@$$V@std@@IEBA_NXZ ; std::_Func_class<Application::Scene::Scene *>::_Empty
PUBLIC	?_Tidy@?$_Func_class@PEAVScene@1Application@@$$V@std@@IEAAXXZ ; std::_Func_class<Application::Scene::Scene *>::_Tidy
PUBLIC	?_Local@?$_Func_class@PEAVScene@1Application@@$$V@std@@AEBA_NXZ ; std::_Func_class<Application::Scene::Scene *>::_Local
PUBLIC	?_Getimpl@?$_Func_class@PEAVScene@1Application@@$$V@std@@AEBAPEAV?$_Func_base@PEAVScene@1Application@@$$V@2@XZ ; std::_Func_class<Application::Scene::Scene *>::_Getimpl
PUBLIC	?_Set@?$_Func_class@PEAVScene@1Application@@$$V@std@@AEAAXPEAV?$_Func_base@PEAVScene@1Application@@$$V@2@@Z ; std::_Func_class<Application::Scene::Scene *>::_Set
PUBLIC	?_Getspace@?$_Func_class@PEAVScene@1Application@@$$V@std@@AEBAPEBXXZ ; std::_Func_class<Application::Scene::Scene *>::_Getspace
PUBLIC	??1?$function@$$A6APEAVScene@1Application@@XZ@std@@QEAA@XZ ; std::function<Application::Scene::Scene * __cdecl(void)>::~function<Application::Scene::Scene * __cdecl(void)>
PUBLIC	??1?$pair@PEBDV?$function@$$A6APEAVScene@1Application@@XZ@std@@@std@@QEAA@XZ ; std::pair<char const *,std::function<Application::Scene::Scene * __cdecl(void)> >::~pair<char const *,std::function<Application::Scene::Scene * __cdecl(void)> >
PUBLIC	??_G?$pair@PEBDV?$function@$$A6APEAVScene@1Application@@XZ@std@@@std@@QEAAPEAXI@Z ; std::pair<char const *,std::function<Application::Scene::Scene * __cdecl(void)> >::`scalar deleting destructor'
PUBLIC	??$move@AEAUBufferElement@buffers@core@@@std@@YA$$QEAUBufferElement@buffers@core@@AEAU123@@Z ; std::move<core::buffers::BufferElement &>
PUBLIC	??$emplace_back@UBufferElement@buffers@core@@@?$vector@UBufferElement@buffers@core@@V?$allocator@UBufferElement@buffers@core@@@std@@@std@@QEAA@$$QEAUBufferElement@buffers@core@@@Z ; std::vector<core::buffers::BufferElement,std::allocator<core::buffers::BufferElement> >::emplace_back<core::buffers::BufferElement>
PUBLIC	??$forward@UBufferElement@buffers@core@@@std@@YA$$QEAUBufferElement@buffers@core@@AEAU123@@Z ; std::forward<core::buffers::BufferElement>
PUBLIC	??$_Emplace_back_with_unused_capacity@UBufferElement@buffers@core@@@?$vector@UBufferElement@buffers@core@@V?$allocator@UBufferElement@buffers@core@@@std@@@std@@AEAA@$$QEAUBufferElement@buffers@core@@@Z ; std::vector<core::buffers::BufferElement,std::allocator<core::buffers::BufferElement> >::_Emplace_back_with_unused_capacity<core::buffers::BufferElement>
PUBLIC	??$_Unfancy@UBufferElement@buffers@core@@@std@@YAPEAUBufferElement@buffers@core@@PEAU123@@Z ; std::_Unfancy<core::buffers::BufferElement>
PUBLIC	??$construct@UBufferElement@buffers@core@@U123@@?$_Default_allocator_traits@V?$allocator@UBufferElement@buffers@core@@@std@@@std@@SAXAEAV?$allocator@UBufferElement@buffers@core@@@1@QEAUBufferElement@buffers@core@@$$QEAU345@@Z ; std::_Default_allocator_traits<std::allocator<core::buffers::BufferElement> >::construct<core::buffers::BufferElement,core::buffers::BufferElement>
PUBLIC	??$_Emplace_reallocate@UBufferElement@buffers@core@@@?$vector@UBufferElement@buffers@core@@V?$allocator@UBufferElement@buffers@core@@@std@@@std@@QEAAPEAUBufferElement@buffers@core@@QEAU234@$$QEAU234@@Z ; std::vector<core::buffers::BufferElement,std::allocator<core::buffers::BufferElement> >::_Emplace_reallocate<core::buffers::BufferElement>
PUBLIC	??$_Unfancy@D@std@@YAPEADPEAD@Z			; std::_Unfancy<char>
PUBLIC	??$?0$$V@?$_Compressed_pair@V?$allocator@U?$pair@PEBDV?$function@$$A6APEAVScene@1Application@@XZ@std@@@std@@@std@@V?$_Vector_val@U?$_Simple_types@U?$pair@PEBDV?$function@$$A6APEAVScene@1Application@@XZ@std@@@std@@@std@@@2@$00@std@@QEAA@U_Zero_then_variadic_args_t@1@@Z ; std::_Compressed_pair<std::allocator<std::pair<char const *,std::function<Application::Scene::Scene * __cdecl(void)> > >,std::_Vector_val<std::_Simple_types<std::pair<char const *,std::function<Application::Scene::Scene * __cdecl(void)> > > >,1>::_Compressed_pair<std::allocator<std::pair<char const *,std::function<Application::Scene::Scene * __cdecl(void)> > >,std::_Vector_val<std::_Simple_types<std::pair<char const *,std::function<Application::Scene::Scene * __cdecl(void)> > > >,1><>
PUBLIC	??$?0$$V@?$_Compressed_pair@V?$allocator@UBufferElement@buffers@core@@@std@@V?$_Vector_val@U?$_Simple_types@UBufferElement@buffers@core@@@std@@@2@$00@std@@QEAA@U_Zero_then_variadic_args_t@1@@Z ; std::_Compressed_pair<std::allocator<core::buffers::BufferElement>,std::_Vector_val<std::_Simple_types<core::buffers::BufferElement> >,1>::_Compressed_pair<std::allocator<core::buffers::BufferElement>,std::_Vector_val<std::_Simple_types<core::buffers::BufferElement> >,1><>
PUBLIC	??$?0$$V@?$_Compressed_pair@V?$allocator@D@std@@V?$_String_val@U?$_Simple_types@D@std@@@2@$00@std@@QEAA@U_Zero_then_variadic_args_t@1@@Z ; std::_Compressed_pair<std::allocator<char>,std::_String_val<std::_Simple_types<char> >,1>::_Compressed_pair<std::allocator<char>,std::_String_val<std::_Simple_types<char> >,1><>
PUBLIC	??$addressof@PEAD@std@@YAPEAPEADAEAPEAD@Z	; std::addressof<char *>
PUBLIC	??$destroy@PEAD@?$_Default_allocator_traits@V?$allocator@D@std@@@std@@SAXAEAV?$allocator@D@1@QEAPEAD@Z ; std::_Default_allocator_traits<std::allocator<char> >::destroy<char *>
PUBLIC	??$_Max_value@_K@std@@YAAEB_KAEB_K0@Z		; std::_Max_value<unsigned __int64>
PUBLIC	??$construct@PEADAEBQEAD@?$_Default_allocator_traits@V?$allocator@D@std@@@std@@SAXAEAV?$allocator@D@1@QEAPEADAEBQEAD@Z ; std::_Default_allocator_traits<std::allocator<char> >::construct<char *,char * const &>
PUBLIC	??$addressof@V?$_String_val@U?$_Simple_types@D@std@@@std@@@std@@YAPEAV?$_String_val@U?$_Simple_types@D@std@@@0@AEAV10@@Z ; std::addressof<std::_String_val<std::_Simple_types<char> > >
PUBLIC	??$_Allocate@$0BA@U_Default_allocate_traits@std@@$0A@@std@@YAPEAX_K@Z ; std::_Allocate<16,std::_Default_allocate_traits,0>
PUBLIC	??$_Deallocate@$0BA@$0A@@std@@YAXPEAX_K@Z	; std::_Deallocate<16,0>
PUBLIC	?allocate@?$allocator@U_Container_proxy@std@@@std@@QEAAPEAU_Container_proxy@2@_K@Z ; std::allocator<std::_Container_proxy>::allocate
PUBLIC	??$?0U?$pair@PEBDV?$function@$$A6APEAVScene@1Application@@XZ@std@@@std@@@?$allocator@U_Container_proxy@std@@@std@@QEAA@AEBV?$allocator@U?$pair@PEBDV?$function@$$A6APEAVScene@1Application@@XZ@std@@@std@@@1@@Z ; std::allocator<std::_Container_proxy>::allocator<std::_Container_proxy><std::pair<char const *,std::function<Application::Scene::Scene * __cdecl(void)> > >
PUBLIC	?deallocate@?$_Default_allocator_traits@V?$allocator@U_Container_proxy@std@@@std@@@std@@SAXAEAV?$allocator@U_Container_proxy@std@@@2@QEAU_Container_proxy@2@_K@Z ; std::_Default_allocator_traits<std::allocator<std::_Container_proxy> >::deallocate
PUBLIC	??$destroy@U_Container_proxy@std@@@?$_Default_allocator_traits@V?$allocator@U_Container_proxy@std@@@std@@@std@@SAXAEAV?$allocator@U_Container_proxy@std@@@1@QEAU_Container_proxy@1@@Z ; std::_Default_allocator_traits<std::allocator<std::_Container_proxy> >::destroy<std::_Container_proxy>
PUBLIC	??$_Deallocate_plain@V?$allocator@U_Container_proxy@std@@@std@@$0A@@std@@YAXAEAV?$allocator@U_Container_proxy@std@@@0@QEAU_Container_proxy@0@@Z ; std::_Deallocate_plain<std::allocator<std::_Container_proxy>,0>
PUBLIC	??$_Unfancy@U_Container_proxy@std@@@std@@YAPEAU_Container_proxy@0@PEAU10@@Z ; std::_Unfancy<std::_Container_proxy>
PUBLIC	??$construct@U_Container_proxy@std@@U12@@?$_Default_allocator_traits@V?$allocator@U_Container_proxy@std@@@std@@@std@@SAXAEAV?$allocator@U_Container_proxy@std@@@1@QEAU_Container_proxy@1@$$QEAU31@@Z ; std::_Default_allocator_traits<std::allocator<std::_Container_proxy> >::construct<std::_Container_proxy,std::_Container_proxy>
PUBLIC	??$addressof@V?$_Vector_val@U?$_Simple_types@U?$pair@PEBDV?$function@$$A6APEAVScene@1Application@@XZ@std@@@std@@@std@@@std@@@std@@YAPEAV?$_Vector_val@U?$_Simple_types@U?$pair@PEBDV?$function@$$A6APEAVScene@1Application@@XZ@std@@@std@@@std@@@0@AEAV10@@Z ; std::addressof<std::_Vector_val<std::_Simple_types<std::pair<char const *,std::function<Application::Scene::Scene * __cdecl(void)> > > > >
PUBLIC	??$_Destroy_range@V?$allocator@U?$pair@PEBDV?$function@$$A6APEAVScene@1Application@@XZ@std@@@std@@@std@@@std@@YAXPEAU?$pair@PEBDV?$function@$$A6APEAVScene@1Application@@XZ@std@@@0@0AEAV?$allocator@U?$pair@PEBDV?$function@$$A6APEAVScene@1Application@@XZ@std@@@std@@@0@@Z ; std::_Destroy_range<std::allocator<std::pair<char const *,std::function<Application::Scene::Scene * __cdecl(void)> > > >
PUBLIC	??$?0UBufferElement@buffers@core@@@?$allocator@U_Container_proxy@std@@@std@@QEAA@AEBV?$allocator@UBufferElement@buffers@core@@@1@@Z ; std::allocator<std::_Container_proxy>::allocator<std::_Container_proxy><core::buffers::BufferElement>
PUBLIC	??$addressof@V?$_Vector_val@U?$_Simple_types@UBufferElement@buffers@core@@@std@@@std@@@std@@YAPEAV?$_Vector_val@U?$_Simple_types@UBufferElement@buffers@core@@@std@@@0@AEAV10@@Z ; std::addressof<std::_Vector_val<std::_Simple_types<core::buffers::BufferElement> > >
PUBLIC	??$_Destroy_range@V?$allocator@UBufferElement@buffers@core@@@std@@@std@@YAXPEAUBufferElement@buffers@core@@0AEAV?$allocator@UBufferElement@buffers@core@@@0@@Z ; std::_Destroy_range<std::allocator<core::buffers::BufferElement> >
PUBLIC	??$?0D@?$allocator@U_Container_proxy@std@@@std@@QEAA@AEBV?$allocator@D@1@@Z ; std::allocator<std::_Container_proxy>::allocator<std::_Container_proxy><char>
PUBLIC	??$_Get_size_of_n@$0BA@@std@@YA_K_K@Z		; std::_Get_size_of_n<16>
PUBLIC	??$orthoRH@M@glm@@YA?AU?$tmat4x4@M$0A@@0@MMMMMM@Z ; glm::orthoRH<float>
PUBLIC	??$forward@AEBQEAD@std@@YAAEBQEADAEBQEAD@Z	; std::forward<char * const &>
PUBLIC	??$_Allocate_manually_vector_aligned@U_Default_allocate_traits@std@@@std@@YAPEAX_K@Z ; std::_Allocate_manually_vector_aligned<std::_Default_allocate_traits>
PUBLIC	??$forward@U_Container_proxy@std@@@std@@YA$$QEAU_Container_proxy@0@AEAU10@@Z ; std::forward<std::_Container_proxy>
PUBLIC	??$_Destroy_range1@V?$allocator@U?$pair@PEBDV?$function@$$A6APEAVScene@1Application@@XZ@std@@@std@@@std@@@std@@YAXPEAU?$pair@PEBDV?$function@$$A6APEAVScene@1Application@@XZ@std@@@0@0AEAV?$allocator@U?$pair@PEBDV?$function@$$A6APEAVScene@1Application@@XZ@std@@@std@@@0@U?$integral_constant@_N$0A@@0@@Z ; std::_Destroy_range1<std::allocator<std::pair<char const *,std::function<Application::Scene::Scene * __cdecl(void)> > > >
PUBLIC	??$_Destroy_range1@V?$allocator@UBufferElement@buffers@core@@@std@@@std@@YAXPEAUBufferElement@buffers@core@@0AEAV?$allocator@UBufferElement@buffers@core@@@0@U?$integral_constant@_N$00@0@@Z ; std::_Destroy_range1<std::allocator<core::buffers::BufferElement> >
PUBLIC	??$_Uninitialized_move@PEAUBufferElement@buffers@core@@PEAU123@V?$allocator@UBufferElement@buffers@core@@@std@@@std@@YAPEAUBufferElement@buffers@core@@QEAU123@0PEAU123@AEAV?$allocator@UBufferElement@buffers@core@@@0@@Z ; std::_Uninitialized_move<core::buffers::BufferElement *,core::buffers::BufferElement *,std::allocator<core::buffers::BufferElement> >
PUBLIC	??$_Get_size_of_n@$0M@@std@@YA_K_K@Z		; std::_Get_size_of_n<12>
PUBLIC	??$_Unfancy@U?$pair@PEBDV?$function@$$A6APEAVScene@1Application@@XZ@std@@@std@@@std@@YAPEAU?$pair@PEBDV?$function@$$A6APEAVScene@1Application@@XZ@std@@@0@PEAU10@@Z ; std::_Unfancy<std::pair<char const *,std::function<Application::Scene::Scene * __cdecl(void)> > >
PUBLIC	??$destroy@U?$pair@PEBDV?$function@$$A6APEAVScene@1Application@@XZ@std@@@std@@@?$_Default_allocator_traits@V?$allocator@U?$pair@PEBDV?$function@$$A6APEAVScene@1Application@@XZ@std@@@std@@@std@@@std@@SAXAEAV?$allocator@U?$pair@PEBDV?$function@$$A6APEAVScene@1Application@@XZ@std@@@std@@@1@QEAU?$pair@PEBDV?$function@$$A6APEAVScene@1Application@@XZ@std@@@1@@Z ; std::_Default_allocator_traits<std::allocator<std::pair<char const *,std::function<Application::Scene::Scene * __cdecl(void)> > > >::destroy<std::pair<char const *,std::function<Application::Scene::Scene * __cdecl(void)> > >
PUBLIC	??$_Unchecked@PEAUBufferElement@buffers@core@@@std@@YAPEAUBufferElement@buffers@core@@PEAU123@@Z ; std::_Unchecked<core::buffers::BufferElement *>
PUBLIC	??$_Ptr_move_cat@UBufferElement@buffers@core@@U123@@std@@YA?AU_Really_trivial_ptr_iterator_tag@0@AEBQEAUBufferElement@buffers@core@@0@Z ; std::_Ptr_move_cat<core::buffers::BufferElement,core::buffers::BufferElement>
PUBLIC	??$_Uninitialized_move_al_unchecked@UBufferElement@buffers@core@@U123@V?$allocator@UBufferElement@buffers@core@@@std@@@std@@YAPEAUBufferElement@buffers@core@@QEAU123@00AEAV?$allocator@UBufferElement@buffers@core@@@0@U_Really_trivial_ptr_iterator_tag@0@U?$integral_constant@_N$00@0@@Z ; std::_Uninitialized_move_al_unchecked<core::buffers::BufferElement,core::buffers::BufferElement,std::allocator<core::buffers::BufferElement> >
PUBLIC	??$_Rechecked@PEAUBufferElement@buffers@core@@PEAU123@@std@@YAAEAPEAUBufferElement@buffers@core@@AEAPEAU123@QEAU123@@Z ; std::_Rechecked<core::buffers::BufferElement *,core::buffers::BufferElement *>
PUBLIC	??$?0MHHH@?$tvec4@M$0A@@glm@@QEAA@MHHH@Z	; glm::tvec4<float,0>::tvec4<float,0><float,int,int,int>
PUBLIC	??$?0HMHH@?$tvec4@M$0A@@glm@@QEAA@HMHH@Z	; glm::tvec4<float,0>::tvec4<float,0><int,float,int,int>
PUBLIC	??$?0HHMH@?$tvec4@M$0A@@glm@@QEAA@HHMH@Z	; glm::tvec4<float,0>::tvec4<float,0><int,int,float,int>
PUBLIC	??$?0HHHM@?$tvec4@M$0A@@glm@@QEAA@HHHM@Z	; glm::tvec4<float,0>::tvec4<float,0><int,int,int,float>
PUBLIC	??$_Copy_memmove@PEAUBufferElement@buffers@core@@PEAU123@@std@@YAPEAUBufferElement@buffers@core@@PEAU123@00@Z ; std::_Copy_memmove<core::buffers::BufferElement *,core::buffers::BufferElement *>
PUBLIC	?__LINE__Var@?0??_Adjust_manually_vector_aligned@std@@YAXAEAPEAXAEA_K@Z@4JA ; `std::_Adjust_manually_vector_aligned'::`1'::__LINE__Var
PUBLIC	??_C@_1NE@FCGGJAHE@?$AAc?$AA?3?$AA?2?$AAp?$AAr?$AAo?$AAg?$AAr?$AAa?$AAm?$AA?5?$AAf?$AAi?$AAl?$AAe?$AAs?$AA?5?$AA?$CI?$AAx?$AA8?$AA6?$AA?$CJ?$AA?2?$AAm?$AAi?$AAc?$AAr?$AAo?$AAs?$AAo?$AAf?$AAt@ ; `string'
PUBLIC	??_C@_1EK@NIFDJFDG@?$AAs?$AAt?$AAd?$AA?3?$AA?3?$AA_?$AAA?$AAd?$AAj?$AAu?$AAs?$AAt?$AA_?$AAm?$AAa?$AAn?$AAu?$AAa?$AAl?$AAl?$AAy?$AA_?$AAv?$AAe?$AAc?$AAt?$AAo?$AAr?$AA_?$AAa?$AAl?$AAi@ ; `string'
PUBLIC	??_C@_1CG@JNLFBNGN@?$AA?$CC?$AAi?$AAn?$AAv?$AAa?$AAl?$AAi?$AAd?$AA?5?$AAa?$AAr?$AAg?$AAu?$AAm?$AAe?$AAn?$AAt?$AA?$CC?$AA?$AA@ ; `string'
PUBLIC	??_7MainMenuScene@Scene@Application@@6B@	; Application::Scene::MainMenuScene::`vftable'
PUBLIC	??_C@_0BM@BFJKNBFF@res?1shaders?1MainMenu?4shader?$AA@ ; `string'
PUBLIC	??_C@_0CG@DAJJAFE@res?1textures?1FeatherFall?9MainMen@ ; `string'
PUBLIC	??_C@_0CB@MPFGBK@res?1textures?1FeatherFall?9Owl?4png@ ; `string'
PUBLIC	?__LINE__Var@?0??OnRender@MainMenuScene@Scene@Application@@UEAAXXZ@4JA ; `Application::Scene::MainMenuScene::OnRender'::`1'::__LINE__Var
PUBLIC	??_C@_0L@OMAPAGJJ@percentage?$AA@		; `string'
PUBLIC	??_C@_0EK@EOGGOJAF@l?3?2dev?2featherfallengine?2feather@ ; `string'
PUBLIC	??_C@_0EI@LIJNNICP@glDrawElements?$CIGL_TRIANGLES?0?5ibo@ ; `string'
PUBLIC	??_C@_0BJ@IDPKMNNF@Select?5a?5Scene?5to?5load?3?5?$AA@ ; `string'
PUBLIC	??_C@_0BD@KHMMBBJK@BG?5Texture?5Control?$AA@	; `string'
PUBLIC	??_C@_04GFJLOHHD@?$CF?43f?$AA@			; `string'
PUBLIC	??_C@_0BA@NNMDDBIH@Texture?5Control?$AA@	; `string'
PUBLIC	??_C@_0BI@LDGJAANB@TODO?3?5Make?5Gradient?5BG?$CB?$AA@ ; `string'
PUBLIC	?__LINE__Var@?0??OnReloadScene@MainMenuScene@Scene@Application@@QEAAXXZ@4JA ; `Application::Scene::MainMenuScene::OnReloadScene'::`1'::__LINE__Var
PUBLIC	??_C@_0CF@BDFDNJP@glClearColor?$CI0?40f?0?50?40f?0?50?40f?0?51@ ; `string'
PUBLIC	??_C@_08IMNAFLGG@prMatrix?$AA@			; `string'
PUBLIC	??_C@_05GLHHFCDG@ffTex?$AA@			; `string'
PUBLIC	??_C@_07NNBCNLBN@iconTex?$AA@			; `string'
PUBLIC	??_C@_1JI@BDACPION@?$AAl?$AA?3?$AA?2?$AAd?$AAe?$AAv?$AA?2?$AAf?$AAe?$AAa?$AAt?$AAh?$AAe?$AAr?$AAf?$AAa?$AAl?$AAl?$AAe?$AAn?$AAg?$AAi?$AAn?$AAe?$AA?2?$AAd?$AAe?$AAp?$AAe?$AAn?$AAd?$AAs@ ; `string'
PUBLIC	??_C@_1CG@KOFHLCJL@?$AAi?$AA?5?$AA?$DM?$AA?5?$AAt?$AAh?$AAi?$AAs?$AA?9?$AA?$DO?$AAl?$AAe?$AAn?$AAg?$AAt?$AAh?$AA?$CI?$AA?$CJ?$AA?$AA@ ; `string'
PUBLIC	??_C@_0BD@OLBABOEK@vector?$DMT?$DO?5too?5long?$AA@ ; `string'
PUBLIC	??_C@_0BA@JFNIOLAK@string?5too?5long?$AA@	; `string'
PUBLIC	??_C@_0BE@LMNLACIC@_Ptr_container?5?$CB?$DN?50?$AA@ ; `string'
PUBLIC	??_C@_1DG@HGDKEBPG@?$AA?$CC?$AA_?$AAP?$AAt?$AAr?$AA_?$AAc?$AAo?$AAn?$AAt?$AAa?$AAi?$AAn?$AAe?$AAr?$AA?5?$AA?$CB?$AA?$DN?$AA?5?$AA0?$AA?$CC?$AA?5?$AA?$CG?$AA?$CG?$AA?5?$AA0?$AA?$AA@ ; `string'
PUBLIC	??_C@_17CNPHIMPH@?$AA?$CF?$AAl?$AAs?$AA?$AA@	; `string'
PUBLIC	??_C@_1EO@GFNCMDLA@?$AAs?$AAt?$AAd?$AA?3?$AA?3?$AA_?$AAA?$AAl?$AAl?$AAo?$AAc?$AAa?$AAt?$AAe?$AA_?$AAm?$AAa?$AAn?$AAu?$AAa?$AAl?$AAl?$AAy?$AA_?$AAv?$AAe?$AAc?$AAt?$AAo?$AAr?$AA_?$AAa@ ; `string'
PUBLIC	??_C@_1JE@JLGGFMIE@?$AAl?$AA?3?$AA?2?$AAd?$AAe?$AAv?$AA?2?$AAf?$AAe?$AAa?$AAt?$AAh?$AAe?$AAr?$AAf?$AAa?$AAl?$AAl?$AAe?$AAn?$AAg?$AAi?$AAn?$AAe?$AA?2?$AAd?$AAe?$AAp?$AAe?$AAn?$AAd?$AAs@ ; `string'
PUBLIC	??_C@_1DK@BGNCJAPL@?$AAi?$AA?5?$AA?$DO?$AA?$DN?$AA?5?$AA0?$AA?5?$AA?$CG?$AA?$CG?$AA?5?$AAi?$AA?5?$AA?$DM?$AA?5?$AAt?$AAh?$AAi?$AAs?$AA?9?$AA?$DO?$AAl?$AAe?$AAn?$AAg?$AAt?$AAh?$AA?$CI?$AA?$CJ?$AA?$AA@ ; `string'
PUBLIC	??_R4MainMenuScene@Scene@Application@@6B@	; Application::Scene::MainMenuScene::`RTTI Complete Object Locator'
PUBLIC	??_R0?AVMainMenuScene@Scene@Application@@@8	; Application::Scene::MainMenuScene `RTTI Type Descriptor'
PUBLIC	??_R3MainMenuScene@Scene@Application@@8		; Application::Scene::MainMenuScene::`RTTI Class Hierarchy Descriptor'
PUBLIC	??_R2MainMenuScene@Scene@Application@@8		; Application::Scene::MainMenuScene::`RTTI Base Class Array'
PUBLIC	??_R1A@?0A@EA@MainMenuScene@Scene@Application@@8 ; Application::Scene::MainMenuScene::`RTTI Base Class Descriptor at (0,-1,0,64)'
PUBLIC	??_R1A@?0A@EA@Scene@0Application@@8		; Application::Scene::Scene::`RTTI Base Class Descriptor at (0,-1,0,64)'
PUBLIC	??_R0?AVScene@0Application@@@8			; Application::Scene::Scene `RTTI Type Descriptor'
PUBLIC	??_R3Scene@0Application@@8			; Application::Scene::Scene::`RTTI Class Hierarchy Descriptor'
PUBLIC	??_R2Scene@0Application@@8			; Application::Scene::Scene::`RTTI Base Class Array'
PUBLIC	__real@3f800000
PUBLIC	__real@3f847ae147ae147b
PUBLIC	__real@40000000
PUBLIC	__real@40800000
PUBLIC	__real@40900000
PUBLIC	__real@41000000
PUBLIC	__real@bf800000
PUBLIC	__real@c0000000
PUBLIC	__real@c0800000
PUBLIC	__real@c0900000
PUBLIC	__real@c1000000
PUBLIC	__xmm@80000000800000008000000080000000
EXTRN	??2@YAPEAX_K@Z:PROC				; operator new
EXTRN	??3@YAXPEAX_K@Z:PROC				; operator delete
EXTRN	??0Scene@0Application@@QEAA@XZ:PROC		; Application::Scene::Scene::Scene
EXTRN	??1Scene@0Application@@UEAA@XZ:PROC		; Application::Scene::Scene::~Scene
EXTRN	__imp__invalid_parameter:PROC
EXTRN	__imp_??0_Lockit@std@@QEAA@H@Z:PROC
EXTRN	__imp_??1_Lockit@std@@QEAA@XZ:PROC
EXTRN	memcpy:PROC
EXTRN	memmove:PROC
EXTRN	strlen:PROC
EXTRN	__imp__CrtDbgReportW:PROC
EXTRN	?_Xlength_error@std@@YAXPEBD@Z:PROC		; std::_Xlength_error
EXTRN	?_Xbad_function_call@std@@YAXXZ:PROC		; std::_Xbad_function_call
EXTRN	__imp__wassert:PROC
EXTRN	??0Shader@graphics@core@@QEAA@AEBV?$basic_string@DU?$char_traits@D@std@@V?$allocator@D@2@@std@@@Z:PROC ; core::graphics::Shader::Shader
EXTRN	??1Shader@graphics@core@@QEAA@XZ:PROC		; core::graphics::Shader::~Shader
EXTRN	?bind@Shader@graphics@core@@QEBAXXZ:PROC	; core::graphics::Shader::bind
EXTRN	?setUniform1i@Shader@graphics@core@@QEAAXPEBDH@Z:PROC ; core::graphics::Shader::setUniform1i
EXTRN	?setUniform1f@Shader@graphics@core@@QEAAXPEBDM@Z:PROC ; core::graphics::Shader::setUniform1f
EXTRN	?setUniformMat4@Shader@graphics@core@@QEAAXPEBDAEBU?$tmat4x4@M$0A@@glm@@@Z:PROC ; core::graphics::Shader::setUniformMat4
EXTRN	??0Texture@graphics@core@@QEAA@V?$basic_string@DU?$char_traits@D@std@@V?$allocator@D@2@@std@@@Z:PROC ; core::graphics::Texture::Texture
EXTRN	??1Texture@graphics@core@@QEAA@XZ:PROC		; core::graphics::Texture::~Texture
EXTRN	?bind@Texture@graphics@core@@QEBAXI@Z:PROC	; core::graphics::Texture::bind
EXTRN	??0VBO@buffers@core@@QEAA@PEBXI_N@Z:PROC	; core::buffers::VBO::VBO
EXTRN	??1VBO@buffers@core@@QEAA@XZ:PROC		; core::buffers::VBO::~VBO
EXTRN	__imp_glClearColor:PROC
EXTRN	__imp_glDrawElements:PROC
EXTRN	?GLLogError@@YA_NPEBD0H@Z:PROC			; GLLogError
EXTRN	?GLClearError@@YAXXZ:PROC			; GLClearError
EXTRN	??0VAO@buffers@core@@QEAA@XZ:PROC		; core::buffers::VAO::VAO
EXTRN	??1VAO@buffers@core@@QEAA@XZ:PROC		; core::buffers::VAO::~VAO
EXTRN	?bind@VAO@buffers@core@@QEBAXXZ:PROC		; core::buffers::VAO::bind
EXTRN	?addBuffer@VAO@buffers@core@@QEAAXAEBVVBO@23@AEBVBufferLayout@23@@Z:PROC ; core::buffers::VAO::addBuffer
EXTRN	??0IBO@buffers@core@@QEAA@PEBII_N@Z:PROC	; core::buffers::IBO::IBO
EXTRN	??1IBO@buffers@core@@QEAA@XZ:PROC		; core::buffers::IBO::~IBO
EXTRN	?bind@IBO@buffers@core@@QEBAXXZ:PROC		; core::buffers::IBO::bind
EXTRN	??_EMainMenuScene@Scene@Application@@UEAAPEAXI@Z:PROC ; Application::Scene::MainMenuScene::`vector deleting destructor'
EXTRN	?Begin@ImGui@@YA_NPEBDPEA_NH@Z:PROC		; ImGui::Begin
EXTRN	?End@ImGui@@YAXXZ:PROC				; ImGui::End
EXTRN	?Text@ImGui@@YAXPEBDZZ:PROC			; ImGui::Text
EXTRN	?Button@ImGui@@YA_NPEBDAEBUImVec2@@@Z:PROC	; ImGui::Button
EXTRN	?SliderFloat@ImGui@@YA_NPEBDPEAMMM0M@Z:PROC	; ImGui::SliderFloat
EXTRN	_CxxThrowException:PROC
EXTRN	_RTC_InitBase:PROC
EXTRN	_RTC_Shutdown:PROC
EXTRN	__CxxFrameHandler3:PROC
EXTRN	__GSHandlerCheck:PROC
EXTRN	__GSHandlerCheck_EH:PROC
EXTRN	__security_check_cookie:PROC
EXTRN	??_7type_info@@6B@:BYTE				; type_info::`vftable'
EXTRN	__security_cookie:QWORD
EXTRN	_fltused:DWORD
;	COMDAT pdata
pdata	SEGMENT
$pdata$??_H@YAXPEAX_K1P6APEAX0@Z@Z DD imagerel $LN7
	DD	imagerel $LN7+111
	DD	imagerel $unwind$??_H@YAXPEAX_K1P6APEAX0@Z@Z
pdata	ENDS
;	COMDAT pdata
pdata	SEGMENT
$pdata$?__empty_global_delete@@YAXPEAX@Z DD imagerel $LN3
	DD	imagerel $LN3+19
	DD	imagerel $unwind$?__empty_global_delete@@YAXPEAX@Z
pdata	ENDS
;	COMDAT pdata
pdata	SEGMENT
$pdata$?__empty_global_delete@@YAXPEAX_K@Z DD imagerel $LN3
	DD	imagerel $LN3+24
	DD	imagerel $unwind$?__empty_global_delete@@YAXPEAX_K@Z
pdata	ENDS
;	COMDAT pdata
pdata	SEGMENT
$pdata$?max@?$numeric_limits@_J@std@@SA_JXZ DD imagerel $LN3
	DD	imagerel $LN3+25
	DD	imagerel $unwind$?max@?$numeric_limits@_J@std@@SA_JXZ
pdata	ENDS
;	COMDAT pdata
pdata	SEGMENT
$pdata$??2@YAPEAX_KPEAX@Z DD imagerel $LN3
	DD	imagerel $LN3+28
	DD	imagerel $unwind$??2@YAPEAX_KPEAX@Z
pdata	ENDS
;	COMDAT pdata
pdata	SEGMENT
$pdata$?length@?$char_traits@D@std@@SA_KQEBD@Z DD imagerel $LN3
	DD	imagerel $LN3+30
	DD	imagerel $unwind$?length@?$char_traits@D@std@@SA_KQEBD@Z
pdata	ENDS
;	COMDAT pdata
pdata	SEGMENT
$pdata$?copy@?$char_traits@D@std@@SAPEADQEADQEBD_K@Z DD imagerel $LN3
	DD	imagerel $LN3+48
	DD	imagerel $unwind$?copy@?$char_traits@D@std@@SAPEADQEADQEBD_K@Z
pdata	ENDS
;	COMDAT pdata
pdata	SEGMENT
$pdata$?move@?$char_traits@D@std@@SAPEADQEADQEBD_K@Z DD imagerel $LN3
	DD	imagerel $LN3+48
	DD	imagerel $unwind$?move@?$char_traits@D@std@@SAPEADQEADQEBD_K@Z
pdata	ENDS
;	COMDAT pdata
pdata	SEGMENT
$pdata$?assign@?$char_traits@D@std@@SAXAEADAEBD@Z DD imagerel $LN3
	DD	imagerel $LN3+37
	DD	imagerel $unwind$?assign@?$char_traits@D@std@@SAXAEADAEBD@Z
pdata	ENDS
;	COMDAT pdata
pdata	SEGMENT
$pdata$??0_Container_proxy@std@@QEAA@XZ DD imagerel $LN3
	DD	imagerel $LN3+46
	DD	imagerel $unwind$??0_Container_proxy@std@@QEAA@XZ
pdata	ENDS
;	COMDAT pdata
pdata	SEGMENT
$pdata$??0_Container_base12@std@@QEAA@XZ DD imagerel $LN3
	DD	imagerel $LN3+34
	DD	imagerel $unwind$??0_Container_base12@std@@QEAA@XZ
pdata	ENDS
;	COMDAT pdata
pdata	SEGMENT
$pdata$?_Getpfirst@_Container_base12@std@@QEBAPEAPEAU_Iterator_base12@2@XZ DD imagerel $LN5
	DD	imagerel $LN5+58
	DD	imagerel $unwind$?_Getpfirst@_Container_base12@std@@QEBAPEAPEAU_Iterator_base12@2@XZ
pdata	ENDS
;	COMDAT pdata
pdata	SEGMENT
$pdata$?_Orphan_all@_Container_base12@std@@QEAAXXZ DD imagerel $LN7
	DD	imagerel $LN7+172
	DD	imagerel $unwind$?_Orphan_all@_Container_base12@std@@QEAAXXZ
pdata	ENDS
;	COMDAT pdata
pdata	SEGMENT
$pdata$?_Clrcont@_Iterator_base12@std@@QEAAXXZ DD imagerel $LN3
	DD	imagerel $LN3+30
	DD	imagerel $unwind$?_Clrcont@_Iterator_base12@std@@QEAAXXZ
pdata	ENDS
;	COMDAT pdata
pdata	SEGMENT
$pdata$?_Getpnext@_Iterator_base12@std@@QEAAPEAPEAU12@XZ DD imagerel $LN3
	DD	imagerel $LN3+27
	DD	imagerel $unwind$?_Getpnext@_Iterator_base12@std@@QEAAPEAPEAU12@XZ
pdata	ENDS
;	COMDAT pdata
pdata	SEGMENT
$pdata$??$_Get_size_of_n@$00@std@@YA_K_K@Z DD imagerel $LN3
	DD	imagerel $LN3+23
	DD	imagerel $unwind$??$_Get_size_of_n@$00@std@@YA_K_K@Z
pdata	ENDS
;	COMDAT pdata
pdata	SEGMENT
$pdata$?_Allocate@_Default_allocate_traits@std@@SAPEAX_K@Z DD imagerel $LN3
	DD	imagerel $LN3+30
	DD	imagerel $unwind$?_Allocate@_Default_allocate_traits@std@@SAPEAX_K@Z
pdata	ENDS
;	COMDAT pdata
pdata	SEGMENT
$pdata$?_Adjust_manually_vector_aligned@std@@YAXAEAPEAXAEA_K@Z DD imagerel $LN6
	DD	imagerel $LN6+255
	DD	imagerel $unwind$?_Adjust_manually_vector_aligned@std@@YAXAEAPEAXAEA_K@Z
pdata	ENDS
;	COMDAT pdata
pdata	SEGMENT
$pdata$??$_Convert_size@_K@std@@YA_K_K@Z DD imagerel $LN3
	DD	imagerel $LN3+23
	DD	imagerel $unwind$??$_Convert_size@_K@std@@YA_K_K@Z
pdata	ENDS
;	COMDAT pdata
pdata	SEGMENT
$pdata$??$_Min_value@_K@std@@YAAEB_KAEB_K0@Z DD imagerel $LN5
	DD	imagerel $LN5+70
	DD	imagerel $unwind$??$_Min_value@_K@std@@YAAEB_KAEB_K0@Z
pdata	ENDS
;	COMDAT pdata
pdata	SEGMENT
$pdata$??0?$allocator@D@std@@QEAA@XZ DD imagerel $LN3
	DD	imagerel $LN3+23
	DD	imagerel $unwind$??0?$allocator@D@std@@QEAA@XZ
pdata	ENDS
;	COMDAT pdata
pdata	SEGMENT
$pdata$?deallocate@?$allocator@D@std@@QEAAXQEAD_K@Z DD imagerel $LN3
	DD	imagerel $LN3+44
	DD	imagerel $unwind$?deallocate@?$allocator@D@std@@QEAAXQEAD_K@Z
pdata	ENDS
;	COMDAT pdata
pdata	SEGMENT
$pdata$?allocate@?$allocator@D@std@@QEAAPEAD_K@Z DD imagerel $LN3
	DD	imagerel $LN3+43
	DD	imagerel $unwind$?allocate@?$allocator@D@std@@QEAAPEAD_K@Z
pdata	ENDS
;	COMDAT pdata
pdata	SEGMENT
$pdata$?max_size@?$_Default_allocator_traits@V?$allocator@D@std@@@std@@SA_KAEBV?$allocator@D@2@@Z DD imagerel $LN3
	DD	imagerel $LN3+26
	DD	imagerel $unwind$?max_size@?$_Default_allocator_traits@V?$allocator@D@std@@@std@@SA_KAEBV?$allocator@D@2@@Z
pdata	ENDS
;	COMDAT pdata
pdata	SEGMENT
$pdata$??0?$_String_val@U?$_Simple_types@D@std@@@std@@QEAA@XZ DD imagerel $LN4
	DD	imagerel $LN4+74
	DD	imagerel $unwind$??0?$_String_val@U?$_Simple_types@D@std@@@std@@QEAA@XZ
pdata	ENDS
;	COMDAT pdata
pdata	SEGMENT
$pdata$?_Myptr@?$_String_val@U?$_Simple_types@D@std@@@std@@QEAAPEADXZ DD imagerel $LN4
	DD	imagerel $LN4+70
	DD	imagerel $unwind$?_Myptr@?$_String_val@U?$_Simple_types@D@std@@@std@@QEAAPEADXZ
pdata	ENDS
;	COMDAT pdata
pdata	SEGMENT
$pdata$?_Large_string_engaged@?$_String_val@U?$_Simple_types@D@std@@@std@@QEBA_NXZ DD imagerel $LN5
	DD	imagerel $LN5+50
	DD	imagerel $unwind$?_Large_string_engaged@?$_String_val@U?$_Simple_types@D@std@@@std@@QEBA_NXZ
pdata	ENDS
;	COMDAT pdata
pdata	SEGMENT
$pdata$??0_Bxty@?$_String_val@U?$_Simple_types@D@std@@@std@@QEAA@XZ DD imagerel $LN3
	DD	imagerel $LN3+23
	DD	imagerel $unwind$??0_Bxty@?$_String_val@U?$_Simple_types@D@std@@@std@@QEAA@XZ
pdata	ENDS
;	COMDAT pdata
pdata	SEGMENT
$pdata$??1_Bxty@?$_String_val@U?$_Simple_types@D@std@@@std@@QEAA@XZ DD imagerel $LN3
	DD	imagerel $LN3+19
	DD	imagerel $unwind$??1_Bxty@?$_String_val@U?$_Simple_types@D@std@@@std@@QEAA@XZ
pdata	ENDS
;	COMDAT pdata
pdata	SEGMENT
$pdata$??1?$_String_val@U?$_Simple_types@D@std@@@std@@QEAA@XZ DD imagerel $LN3
	DD	imagerel $LN3+37
	DD	imagerel $unwind$??1?$_String_val@U?$_Simple_types@D@std@@@std@@QEAA@XZ
pdata	ENDS
;	COMDAT pdata
pdata	SEGMENT
$pdata$??0?$_String_alloc@U?$_String_base_types@DV?$allocator@D@std@@@std@@@std@@QEAA@XZ DD imagerel $LN4
	DD	imagerel $LN4+60
	DD	imagerel $unwind$??0?$_String_alloc@U?$_String_base_types@DV?$allocator@D@std@@@std@@@std@@QEAA@XZ
pdata	ENDS
;	COMDAT pdata
pdata	SEGMENT
$pdata$?dtor$0@?0???0?$_String_alloc@U?$_String_base_types@DV?$allocator@D@std@@@std@@@std@@QEAA@XZ@4HA DD imagerel ?dtor$0@?0???0?$_String_alloc@U?$_String_base_types@DV?$allocator@D@std@@@std@@@std@@QEAA@XZ@4HA
	DD	imagerel ?dtor$0@?0???0?$_String_alloc@U?$_String_base_types@DV?$allocator@D@std@@@std@@@std@@QEAA@XZ@4HA+25
	DD	imagerel $unwind$?dtor$0@?0???0?$_String_alloc@U?$_String_base_types@DV?$allocator@D@std@@@std@@@std@@QEAA@XZ@4HA
pdata	ENDS
;	COMDAT pdata
pdata	SEGMENT
$pdata$??1?$_String_alloc@U?$_String_base_types@DV?$allocator@D@std@@@std@@@std@@QEAA@XZ DD imagerel $LN3
	DD	imagerel $LN3+52
	DD	imagerel $unwind$??1?$_String_alloc@U?$_String_base_types@DV?$allocator@D@std@@@std@@@std@@QEAA@XZ
pdata	ENDS
;	COMDAT pdata
pdata	SEGMENT
$pdata$?_Alloc_proxy@?$_String_alloc@U?$_String_base_types@DV?$allocator@D@std@@@std@@@std@@QEAAXXZ DD imagerel $LN3
	DD	imagerel $LN3+209
	DD	imagerel $unwind$?_Alloc_proxy@?$_String_alloc@U?$_String_base_types@DV?$allocator@D@std@@@std@@@std@@QEAAXXZ
pdata	ENDS
;	COMDAT pdata
pdata	SEGMENT
$pdata$?_Free_proxy@?$_String_alloc@U?$_String_base_types@DV?$allocator@D@std@@@std@@@std@@QEAAXXZ DD imagerel $LN3
	DD	imagerel $LN3+135
	DD	imagerel $unwind$?_Free_proxy@?$_String_alloc@U?$_String_base_types@DV?$allocator@D@std@@@std@@@std@@QEAAXXZ
pdata	ENDS
;	COMDAT pdata
pdata	SEGMENT
$pdata$?_Myproxy@?$_String_alloc@U?$_String_base_types@DV?$allocator@D@std@@@std@@@std@@QEAAAEAPEAU_Container_proxy@2@XZ DD imagerel $LN3
	DD	imagerel $LN3+30
	DD	imagerel $unwind$?_Myproxy@?$_String_alloc@U?$_String_base_types@DV?$allocator@D@std@@@std@@@std@@QEAAAEAPEAU_Container_proxy@2@XZ
pdata	ENDS
;	COMDAT pdata
pdata	SEGMENT
$pdata$?_Orphan_all@?$_String_alloc@U?$_String_base_types@DV?$allocator@D@std@@@std@@@std@@QEAAXXZ DD imagerel $LN3
	DD	imagerel $LN3+38
	DD	imagerel $unwind$?_Orphan_all@?$_String_alloc@U?$_String_base_types@DV?$allocator@D@std@@@std@@@std@@QEAAXXZ
pdata	ENDS
;	COMDAT pdata
pdata	SEGMENT
$pdata$?_Getal@?$_String_alloc@U?$_String_base_types@DV?$allocator@D@std@@@std@@@std@@QEAAAEAV?$allocator@D@2@XZ DD imagerel $LN3
	DD	imagerel $LN3+33
	DD	imagerel $unwind$?_Getal@?$_String_alloc@U?$_String_base_types@DV?$allocator@D@std@@@std@@@std@@QEAAAEAV?$allocator@D@2@XZ
pdata	ENDS
;	COMDAT pdata
pdata	SEGMENT
$pdata$?_Getal@?$_String_alloc@U?$_String_base_types@DV?$allocator@D@std@@@std@@@std@@QEBAAEBV?$allocator@D@2@XZ DD imagerel $LN3
	DD	imagerel $LN3+33
	DD	imagerel $unwind$?_Getal@?$_String_alloc@U?$_String_base_types@DV?$allocator@D@std@@@std@@@std@@QEBAAEBV?$allocator@D@2@XZ
pdata	ENDS
;	COMDAT pdata
pdata	SEGMENT
$pdata$?_Get_data@?$_String_alloc@U?$_String_base_types@DV?$allocator@D@std@@@std@@@std@@QEAAAEAV?$_String_val@U?$_Simple_types@D@std@@@2@XZ DD imagerel $LN3
	DD	imagerel $LN3+33
	DD	imagerel $unwind$?_Get_data@?$_String_alloc@U?$_String_base_types@DV?$allocator@D@std@@@std@@@std@@QEAAAEAV?$_String_val@U?$_Simple_types@D@std@@@2@XZ
pdata	ENDS
;	COMDAT pdata
pdata	SEGMENT
$pdata$?_Get_data@?$_String_alloc@U?$_String_base_types@DV?$allocator@D@std@@@std@@@std@@QEBAAEBV?$_String_val@U?$_Simple_types@D@std@@@2@XZ DD imagerel $LN3
	DD	imagerel $LN3+33
	DD	imagerel $unwind$?_Get_data@?$_String_alloc@U?$_String_base_types@DV?$allocator@D@std@@@std@@@std@@QEBAAEBV?$_String_val@U?$_Simple_types@D@std@@@2@XZ
pdata	ENDS
;	COMDAT pdata
pdata	SEGMENT
$pdata$?_Get_first@?$_Compressed_pair@V?$allocator@D@std@@V?$_String_val@U?$_Simple_types@D@std@@@2@$00@std@@QEAAAEAV?$allocator@D@2@XZ DD imagerel $LN3
	DD	imagerel $LN3+23
	DD	imagerel $unwind$?_Get_first@?$_Compressed_pair@V?$allocator@D@std@@V?$_String_val@U?$_Simple_types@D@std@@@2@$00@std@@QEAAAEAV?$allocator@D@2@XZ
pdata	ENDS
;	COMDAT pdata
pdata	SEGMENT
$pdata$?_Get_first@?$_Compressed_pair@V?$allocator@D@std@@V?$_String_val@U?$_Simple_types@D@std@@@2@$00@std@@QEBAAEBV?$allocator@D@2@XZ DD imagerel $LN3
	DD	imagerel $LN3+23
	DD	imagerel $unwind$?_Get_first@?$_Compressed_pair@V?$allocator@D@std@@V?$_String_val@U?$_Simple_types@D@std@@@2@$00@std@@QEBAAEBV?$allocator@D@2@XZ
pdata	ENDS
;	COMDAT pdata
pdata	SEGMENT
$pdata$?_Get_second@?$_Compressed_pair@V?$allocator@D@std@@V?$_String_val@U?$_Simple_types@D@std@@@2@$00@std@@QEAAAEAV?$_String_val@U?$_Simple_types@D@std@@@2@XZ DD imagerel $LN3
	DD	imagerel $LN3+23
	DD	imagerel $unwind$?_Get_second@?$_Compressed_pair@V?$allocator@D@std@@V?$_String_val@U?$_Simple_types@D@std@@@2@$00@std@@QEAAAEAV?$_String_val@U?$_Simple_types@D@std@@@2@XZ
pdata	ENDS
;	COMDAT pdata
pdata	SEGMENT
$pdata$?_Get_second@?$_Compressed_pair@V?$allocator@D@std@@V?$_String_val@U?$_Simple_types@D@std@@@2@$00@std@@QEBAAEBV?$_String_val@U?$_Simple_types@D@std@@@2@XZ DD imagerel $LN3
	DD	imagerel $LN3+23
	DD	imagerel $unwind$?_Get_second@?$_Compressed_pair@V?$allocator@D@std@@V?$_String_val@U?$_Simple_types@D@std@@@2@$00@std@@QEBAAEBV?$_String_val@U?$_Simple_types@D@std@@@2@XZ
pdata	ENDS
;	COMDAT pdata
pdata	SEGMENT
$pdata$??1?$_Compressed_pair@V?$allocator@D@std@@V?$_String_val@U?$_Simple_types@D@std@@@2@$00@std@@QEAA@XZ DD imagerel $LN3
	DD	imagerel $LN3+33
	DD	imagerel $unwind$??1?$_Compressed_pair@V?$allocator@D@std@@V?$_String_val@U?$_Simple_types@D@std@@@2@$00@std@@QEAA@XZ
pdata	ENDS
;	COMDAT pdata
pdata	SEGMENT
$pdata$??0?$basic_string@DU?$char_traits@D@std@@V?$allocator@D@2@@std@@QEAA@QEBD@Z DD imagerel $LN4
	DD	imagerel $LN4+71
	DD	imagerel $unwind$??0?$basic_string@DU?$char_traits@D@std@@V?$allocator@D@2@@std@@QEAA@QEBD@Z
pdata	ENDS
;	COMDAT pdata
pdata	SEGMENT
$pdata$?dtor$0@?0???0?$basic_string@DU?$char_traits@D@std@@V?$allocator@D@2@@std@@QEAA@QEBD@Z@4HA DD imagerel ?dtor$0@?0???0?$basic_string@DU?$char_traits@D@std@@V?$allocator@D@2@@std@@QEAA@QEBD@Z@4HA
	DD	imagerel ?dtor$0@?0???0?$basic_string@DU?$char_traits@D@std@@V?$allocator@D@2@@std@@QEAA@QEBD@Z@4HA+25
	DD	imagerel $unwind$?dtor$0@?0???0?$basic_string@DU?$char_traits@D@std@@V?$allocator@D@2@@std@@QEAA@QEBD@Z@4HA
pdata	ENDS
;	COMDAT pdata
pdata	SEGMENT
$pdata$??1?$basic_string@DU?$char_traits@D@std@@V?$allocator@D@2@@std@@QEAA@XZ DD imagerel $LN3
	DD	imagerel $LN3+49
	DD	imagerel $unwind$??1?$basic_string@DU?$char_traits@D@std@@V?$allocator@D@2@@std@@QEAA@XZ
pdata	ENDS
;	COMDAT pdata
pdata	SEGMENT
$pdata$?assign@?$basic_string@DU?$char_traits@D@std@@V?$allocator@D@2@@std@@QEAAAEAV12@QEBD_K@Z DD imagerel $LN4
	DD	imagerel $LN4+209
	DD	imagerel $unwind$?assign@?$basic_string@DU?$char_traits@D@std@@V?$allocator@D@2@@std@@QEAAAEAV12@QEBD_K@Z
pdata	ENDS
;	COMDAT pdata
pdata	SEGMENT
$pdata$?assign@?$basic_string@DU?$char_traits@D@std@@V?$allocator@D@2@@std@@QEAAAEAV12@QEBD@Z DD imagerel $LN3
	DD	imagerel $LN3+59
	DD	imagerel $unwind$?assign@?$basic_string@DU?$char_traits@D@std@@V?$allocator@D@2@@std@@QEAAAEAV12@QEBD@Z
pdata	ENDS
;	COMDAT pdata
pdata	SEGMENT
$pdata$?max_size@?$basic_string@DU?$char_traits@D@std@@V?$allocator@D@2@@std@@QEBA_KXZ DD imagerel $LN3
	DD	imagerel $LN3+138
	DD	imagerel $unwind$?max_size@?$basic_string@DU?$char_traits@D@std@@V?$allocator@D@2@@std@@QEBA_KXZ
pdata	ENDS
;	COMDAT pdata
pdata	SEGMENT
$pdata$?_Calculate_growth@?$basic_string@DU?$char_traits@D@std@@V?$allocator@D@2@@std@@QEBA_K_K@Z DD imagerel $LN5
	DD	imagerel $LN5+210
	DD	imagerel $unwind$?_Calculate_growth@?$basic_string@DU?$char_traits@D@std@@V?$allocator@D@2@@std@@QEBA_K_K@Z
pdata	ENDS
;	COMDAT pdata
pdata	SEGMENT
$pdata$?_Tidy_init@?$basic_string@DU?$char_traits@D@std@@V?$allocator@D@2@@std@@QEAAXXZ DD imagerel $LN3
	DD	imagerel $LN3+92
	DD	imagerel $unwind$?_Tidy_init@?$basic_string@DU?$char_traits@D@std@@V?$allocator@D@2@@std@@QEAAXXZ
pdata	ENDS
;	COMDAT pdata
pdata	SEGMENT
$pdata$?_Tidy_deallocate@?$basic_string@DU?$char_traits@D@std@@V?$allocator@D@2@@std@@QEAAXXZ DD imagerel $LN4
	DD	imagerel $LN4+200
	DD	imagerel $unwind$?_Tidy_deallocate@?$basic_string@DU?$char_traits@D@std@@V?$allocator@D@2@@std@@QEAAXXZ
pdata	ENDS
;	COMDAT pdata
pdata	SEGMENT
$pdata$?_Xlen@?$basic_string@DU?$char_traits@D@std@@V?$allocator@D@2@@std@@SAXXZ DD imagerel $LN3
	DD	imagerel $LN3+29
	DD	imagerel $unwind$?_Xlen@?$basic_string@DU?$char_traits@D@std@@V?$allocator@D@2@@std@@SAXXZ
pdata	ENDS
;	COMDAT pdata
pdata	SEGMENT
$pdata$??_GShader@graphics@core@@QEAAPEAXI@Z DD imagerel $LN4
	DD	imagerel $LN4+62
	DD	imagerel $unwind$??_GShader@graphics@core@@QEAAPEAXI@Z
pdata	ENDS
;	COMDAT pdata
pdata	SEGMENT
$pdata$?__autoclassinit2@Texture@graphics@core@@QEAAX_K@Z DD imagerel $LN3
	DD	imagerel $LN3+38
	DD	imagerel $unwind$?__autoclassinit2@Texture@graphics@core@@QEAAX_K@Z
pdata	ENDS
;	COMDAT pdata
pdata	SEGMENT
$pdata$??_GTexture@graphics@core@@QEAAPEAXI@Z DD imagerel $LN4
	DD	imagerel $LN4+62
	DD	imagerel $unwind$??_GTexture@graphics@core@@QEAAPEAXI@Z
pdata	ENDS
;	COMDAT pdata
pdata	SEGMENT
$pdata$??_GVBO@buffers@core@@QEAAPEAXI@Z DD imagerel $LN4
	DD	imagerel $LN4+62
	DD	imagerel $unwind$??_GVBO@buffers@core@@QEAAPEAXI@Z
pdata	ENDS
;	COMDAT pdata
pdata	SEGMENT
$pdata$?SizeOfType@BufferElement@buffers@core@@SAII@Z DD imagerel $LN9
	DD	imagerel $LN9+84
	DD	imagerel $unwind$?SizeOfType@BufferElement@buffers@core@@SAII@Z
pdata	ENDS
;	COMDAT pdata
pdata	SEGMENT
$pdata$??0?$allocator@UBufferElement@buffers@core@@@std@@QEAA@XZ DD imagerel $LN3
	DD	imagerel $LN3+23
	DD	imagerel $unwind$??0?$allocator@UBufferElement@buffers@core@@@std@@QEAA@XZ
pdata	ENDS
;	COMDAT pdata
pdata	SEGMENT
$pdata$?deallocate@?$allocator@UBufferElement@buffers@core@@@std@@QEAAXQEAUBufferElement@buffers@core@@_K@Z DD imagerel $LN3
	DD	imagerel $LN3+48
	DD	imagerel $unwind$?deallocate@?$allocator@UBufferElement@buffers@core@@@std@@QEAAXQEAUBufferElement@buffers@core@@_K@Z
pdata	ENDS
;	COMDAT pdata
pdata	SEGMENT
$pdata$?allocate@?$allocator@UBufferElement@buffers@core@@@std@@QEAAPEAUBufferElement@buffers@core@@_K@Z DD imagerel $LN3
	DD	imagerel $LN3+43
	DD	imagerel $unwind$?allocate@?$allocator@UBufferElement@buffers@core@@@std@@QEAAPEAUBufferElement@buffers@core@@_K@Z
pdata	ENDS
;	COMDAT pdata
pdata	SEGMENT
$pdata$?max_size@?$_Default_allocator_traits@V?$allocator@UBufferElement@buffers@core@@@std@@@std@@SA_KAEBV?$allocator@UBufferElement@buffers@core@@@2@@Z DD imagerel $LN3
	DD	imagerel $LN3+29
	DD	imagerel $unwind$?max_size@?$_Default_allocator_traits@V?$allocator@UBufferElement@buffers@core@@@std@@@std@@SA_KAEBV?$allocator@UBufferElement@buffers@core@@@2@@Z
pdata	ENDS
;	COMDAT pdata
pdata	SEGMENT
$pdata$??0?$_Vector_alloc@U?$_Vec_base_types@UBufferElement@buffers@core@@V?$allocator@UBufferElement@buffers@core@@@std@@@std@@@std@@QEAA@XZ DD imagerel $LN3
	DD	imagerel $LN3+50
	DD	imagerel $unwind$??0?$_Vector_alloc@U?$_Vec_base_types@UBufferElement@buffers@core@@V?$allocator@UBufferElement@buffers@core@@@std@@@std@@@std@@QEAA@XZ
pdata	ENDS
;	COMDAT pdata
pdata	SEGMENT
$pdata$??1?$_Vector_alloc@U?$_Vec_base_types@UBufferElement@buffers@core@@V?$allocator@UBufferElement@buffers@core@@@std@@@std@@@std@@QEAA@XZ DD imagerel $LN3
	DD	imagerel $LN3+39
	DD	imagerel $unwind$??1?$_Vector_alloc@U?$_Vec_base_types@UBufferElement@buffers@core@@V?$allocator@UBufferElement@buffers@core@@@std@@@std@@@std@@QEAA@XZ
pdata	ENDS
;	COMDAT pdata
pdata	SEGMENT
$pdata$?_Alloc_proxy@?$_Vector_alloc@U?$_Vec_base_types@UBufferElement@buffers@core@@V?$allocator@UBufferElement@buffers@core@@@std@@@std@@@std@@QEAAXXZ DD imagerel $LN3
	DD	imagerel $LN3+209
	DD	imagerel $unwind$?_Alloc_proxy@?$_Vector_alloc@U?$_Vec_base_types@UBufferElement@buffers@core@@V?$allocator@UBufferElement@buffers@core@@@std@@@std@@@std@@QEAAXXZ
pdata	ENDS
;	COMDAT pdata
pdata	SEGMENT
$pdata$?_Free_proxy@?$_Vector_alloc@U?$_Vec_base_types@UBufferElement@buffers@core@@V?$allocator@UBufferElement@buffers@core@@@std@@@std@@@std@@QEAAXXZ DD imagerel $LN3
	DD	imagerel $LN3+135
	DD	imagerel $unwind$?_Free_proxy@?$_Vector_alloc@U?$_Vec_base_types@UBufferElement@buffers@core@@V?$allocator@UBufferElement@buffers@core@@@std@@@std@@@std@@QEAAXXZ
pdata	ENDS
;	COMDAT pdata
pdata	SEGMENT
$pdata$?_Getpfirst@?$_Vector_alloc@U?$_Vec_base_types@UBufferElement@buffers@core@@V?$allocator@UBufferElement@buffers@core@@@std@@@std@@@std@@QEBAPEAPEAU_Iterator_base12@2@XZ DD imagerel $LN3
	DD	imagerel $LN3+38
	DD	imagerel $unwind$?_Getpfirst@?$_Vector_alloc@U?$_Vec_base_types@UBufferElement@buffers@core@@V?$allocator@UBufferElement@buffers@core@@@std@@@std@@@std@@QEBAPEAPEAU_Iterator_base12@2@XZ
pdata	ENDS
;	COMDAT pdata
pdata	SEGMENT
$pdata$?_Myproxy@?$_Vector_alloc@U?$_Vec_base_types@UBufferElement@buffers@core@@V?$allocator@UBufferElement@buffers@core@@@std@@@std@@@std@@QEAAAEAPEAU_Container_proxy@2@XZ DD imagerel $LN3
	DD	imagerel $LN3+30
	DD	imagerel $unwind$?_Myproxy@?$_Vector_alloc@U?$_Vec_base_types@UBufferElement@buffers@core@@V?$allocator@UBufferElement@buffers@core@@@std@@@std@@@std@@QEAAAEAPEAU_Container_proxy@2@XZ
pdata	ENDS
;	COMDAT pdata
pdata	SEGMENT
$pdata$?_Orphan_all@?$_Vector_alloc@U?$_Vec_base_types@UBufferElement@buffers@core@@V?$allocator@UBufferElement@buffers@core@@@std@@@std@@@std@@QEAAXXZ DD imagerel $LN3
	DD	imagerel $LN3+38
	DD	imagerel $unwind$?_Orphan_all@?$_Vector_alloc@U?$_Vec_base_types@UBufferElement@buffers@core@@V?$allocator@UBufferElement@buffers@core@@@std@@@std@@@std@@QEAAXXZ
pdata	ENDS
;	COMDAT pdata
pdata	SEGMENT
$pdata$?_Getal@?$_Vector_alloc@U?$_Vec_base_types@UBufferElement@buffers@core@@V?$allocator@UBufferElement@buffers@core@@@std@@@std@@@std@@QEAAAEAV?$allocator@UBufferElement@buffers@core@@@2@XZ DD imagerel $LN3
	DD	imagerel $LN3+33
	DD	imagerel $unwind$?_Getal@?$_Vector_alloc@U?$_Vec_base_types@UBufferElement@buffers@core@@V?$allocator@UBufferElement@buffers@core@@@std@@@std@@@std@@QEAAAEAV?$allocator@UBufferElement@buffers@core@@@2@XZ
pdata	ENDS
;	COMDAT pdata
pdata	SEGMENT
$pdata$?_Getal@?$_Vector_alloc@U?$_Vec_base_types@UBufferElement@buffers@core@@V?$allocator@UBufferElement@buffers@core@@@std@@@std@@@std@@QEBAAEBV?$allocator@UBufferElement@buffers@core@@@2@XZ DD imagerel $LN3
	DD	imagerel $LN3+33
	DD	imagerel $unwind$?_Getal@?$_Vector_alloc@U?$_Vec_base_types@UBufferElement@buffers@core@@V?$allocator@UBufferElement@buffers@core@@@std@@@std@@@std@@QEBAAEBV?$allocator@UBufferElement@buffers@core@@@2@XZ
pdata	ENDS
;	COMDAT pdata
pdata	SEGMENT
$pdata$?_Get_data@?$_Vector_alloc@U?$_Vec_base_types@UBufferElement@buffers@core@@V?$allocator@UBufferElement@buffers@core@@@std@@@std@@@std@@QEAAAEAV?$_Vector_val@U?$_Simple_types@UBufferElement@buffers@core@@@std@@@2@XZ DD imagerel $LN3
	DD	imagerel $LN3+33
	DD	imagerel $unwind$?_Get_data@?$_Vector_alloc@U?$_Vec_base_types@UBufferElement@buffers@core@@V?$allocator@UBufferElement@buffers@core@@@std@@@std@@@std@@QEAAAEAV?$_Vector_val@U?$_Simple_types@UBufferElement@buffers@core@@@std@@@2@XZ
pdata	ENDS
;	COMDAT pdata
pdata	SEGMENT
$pdata$?_Get_data@?$_Vector_alloc@U?$_Vec_base_types@UBufferElement@buffers@core@@V?$allocator@UBufferElement@buffers@core@@@std@@@std@@@std@@QEBAAEBV?$_Vector_val@U?$_Simple_types@UBufferElement@buffers@core@@@std@@@2@XZ DD imagerel $LN3
	DD	imagerel $LN3+33
	DD	imagerel $unwind$?_Get_data@?$_Vector_alloc@U?$_Vec_base_types@UBufferElement@buffers@core@@V?$allocator@UBufferElement@buffers@core@@@std@@@std@@@std@@QEBAAEBV?$_Vector_val@U?$_Simple_types@UBufferElement@buffers@core@@@std@@@2@XZ
pdata	ENDS
;	COMDAT pdata
pdata	SEGMENT
$pdata$?_Myfirst@?$_Vector_alloc@U?$_Vec_base_types@UBufferElement@buffers@core@@V?$allocator@UBufferElement@buffers@core@@@std@@@std@@@std@@QEAAAEAPEAUBufferElement@buffers@core@@XZ DD imagerel $LN3
	DD	imagerel $LN3+34
	DD	imagerel $unwind$?_Myfirst@?$_Vector_alloc@U?$_Vec_base_types@UBufferElement@buffers@core@@V?$allocator@UBufferElement@buffers@core@@@std@@@std@@@std@@QEAAAEAPEAUBufferElement@buffers@core@@XZ
pdata	ENDS
;	COMDAT pdata
pdata	SEGMENT
$pdata$?_Myfirst@?$_Vector_alloc@U?$_Vec_base_types@UBufferElement@buffers@core@@V?$allocator@UBufferElement@buffers@core@@@std@@@std@@@std@@QEBAAEBQEAUBufferElement@buffers@core@@XZ DD imagerel $LN3
	DD	imagerel $LN3+34
	DD	imagerel $unwind$?_Myfirst@?$_Vector_alloc@U?$_Vec_base_types@UBufferElement@buffers@core@@V?$allocator@UBufferElement@buffers@core@@@std@@@std@@@std@@QEBAAEBQEAUBufferElement@buffers@core@@XZ
pdata	ENDS
;	COMDAT pdata
pdata	SEGMENT
$pdata$?_Mylast@?$_Vector_alloc@U?$_Vec_base_types@UBufferElement@buffers@core@@V?$allocator@UBufferElement@buffers@core@@@std@@@std@@@std@@QEAAAEAPEAUBufferElement@buffers@core@@XZ DD imagerel $LN3
	DD	imagerel $LN3+34
	DD	imagerel $unwind$?_Mylast@?$_Vector_alloc@U?$_Vec_base_types@UBufferElement@buffers@core@@V?$allocator@UBufferElement@buffers@core@@@std@@@std@@@std@@QEAAAEAPEAUBufferElement@buffers@core@@XZ
pdata	ENDS
;	COMDAT pdata
pdata	SEGMENT
$pdata$?_Mylast@?$_Vector_alloc@U?$_Vec_base_types@UBufferElement@buffers@core@@V?$allocator@UBufferElement@buffers@core@@@std@@@std@@@std@@QEBAAEBQEAUBufferElement@buffers@core@@XZ DD imagerel $LN3
	DD	imagerel $LN3+34
	DD	imagerel $unwind$?_Mylast@?$_Vector_alloc@U?$_Vec_base_types@UBufferElement@buffers@core@@V?$allocator@UBufferElement@buffers@core@@@std@@@std@@@std@@QEBAAEBQEAUBufferElement@buffers@core@@XZ
pdata	ENDS
;	COMDAT pdata
pdata	SEGMENT
$pdata$?_Myend@?$_Vector_alloc@U?$_Vec_base_types@UBufferElement@buffers@core@@V?$allocator@UBufferElement@buffers@core@@@std@@@std@@@std@@QEAAAEAPEAUBufferElement@buffers@core@@XZ DD imagerel $LN3
	DD	imagerel $LN3+34
	DD	imagerel $unwind$?_Myend@?$_Vector_alloc@U?$_Vec_base_types@UBufferElement@buffers@core@@V?$allocator@UBufferElement@buffers@core@@@std@@@std@@@std@@QEAAAEAPEAUBufferElement@buffers@core@@XZ
pdata	ENDS
;	COMDAT pdata
pdata	SEGMENT
$pdata$?_Myend@?$_Vector_alloc@U?$_Vec_base_types@UBufferElement@buffers@core@@V?$allocator@UBufferElement@buffers@core@@@std@@@std@@@std@@QEBAAEBQEAUBufferElement@buffers@core@@XZ DD imagerel $LN3
	DD	imagerel $LN3+34
	DD	imagerel $unwind$?_Myend@?$_Vector_alloc@U?$_Vec_base_types@UBufferElement@buffers@core@@V?$allocator@UBufferElement@buffers@core@@@std@@@std@@@std@@QEBAAEBQEAUBufferElement@buffers@core@@XZ
pdata	ENDS
;	COMDAT pdata
pdata	SEGMENT
$pdata$??0?$_Vector_val@U?$_Simple_types@UBufferElement@buffers@core@@@std@@@std@@QEAA@XZ DD imagerel $LN3
	DD	imagerel $LN3+70
	DD	imagerel $unwind$??0?$_Vector_val@U?$_Simple_types@UBufferElement@buffers@core@@@std@@@std@@QEAA@XZ
pdata	ENDS
;	COMDAT pdata
pdata	SEGMENT
$pdata$?_Get_first@?$_Compressed_pair@V?$allocator@UBufferElement@buffers@core@@@std@@V?$_Vector_val@U?$_Simple_types@UBufferElement@buffers@core@@@std@@@2@$00@std@@QEAAAEAV?$allocator@UBufferElement@buffers@core@@@2@XZ DD imagerel $LN3
	DD	imagerel $LN3+23
	DD	imagerel $unwind$?_Get_first@?$_Compressed_pair@V?$allocator@UBufferElement@buffers@core@@@std@@V?$_Vector_val@U?$_Simple_types@UBufferElement@buffers@core@@@std@@@2@$00@std@@QEAAAEAV?$allocator@UBufferElement@buffers@core@@@2@XZ
pdata	ENDS
;	COMDAT pdata
pdata	SEGMENT
$pdata$?_Get_first@?$_Compressed_pair@V?$allocator@UBufferElement@buffers@core@@@std@@V?$_Vector_val@U?$_Simple_types@UBufferElement@buffers@core@@@std@@@2@$00@std@@QEBAAEBV?$allocator@UBufferElement@buffers@core@@@2@XZ DD imagerel $LN3
	DD	imagerel $LN3+23
	DD	imagerel $unwind$?_Get_first@?$_Compressed_pair@V?$allocator@UBufferElement@buffers@core@@@std@@V?$_Vector_val@U?$_Simple_types@UBufferElement@buffers@core@@@std@@@2@$00@std@@QEBAAEBV?$allocator@UBufferElement@buffers@core@@@2@XZ
pdata	ENDS
;	COMDAT pdata
pdata	SEGMENT
$pdata$?_Get_second@?$_Compressed_pair@V?$allocator@UBufferElement@buffers@core@@@std@@V?$_Vector_val@U?$_Simple_types@UBufferElement@buffers@core@@@std@@@2@$00@std@@QEAAAEAV?$_Vector_val@U?$_Simple_types@UBufferElement@buffers@core@@@std@@@2@XZ DD imagerel $LN3
	DD	imagerel $LN3+23
	DD	imagerel $unwind$?_Get_second@?$_Compressed_pair@V?$allocator@UBufferElement@buffers@core@@@std@@V?$_Vector_val@U?$_Simple_types@UBufferElement@buffers@core@@@std@@@2@$00@std@@QEAAAEAV?$_Vector_val@U?$_Simple_types@UBufferElement@buffers@core@@@std@@@2@XZ
pdata	ENDS
;	COMDAT pdata
pdata	SEGMENT
$pdata$?_Get_second@?$_Compressed_pair@V?$allocator@UBufferElement@buffers@core@@@std@@V?$_Vector_val@U?$_Simple_types@UBufferElement@buffers@core@@@std@@@2@$00@std@@QEBAAEBV?$_Vector_val@U?$_Simple_types@UBufferElement@buffers@core@@@std@@@2@XZ DD imagerel $LN3
	DD	imagerel $LN3+23
	DD	imagerel $unwind$?_Get_second@?$_Compressed_pair@V?$allocator@UBufferElement@buffers@core@@@std@@V?$_Vector_val@U?$_Simple_types@UBufferElement@buffers@core@@@std@@@2@$00@std@@QEBAAEBV?$_Vector_val@U?$_Simple_types@UBufferElement@buffers@core@@@std@@@2@XZ
pdata	ENDS
;	COMDAT pdata
pdata	SEGMENT
$pdata$??0?$vector@UBufferElement@buffers@core@@V?$allocator@UBufferElement@buffers@core@@@std@@@std@@QEAA@XZ DD imagerel $LN3
	DD	imagerel $LN3+43
	DD	imagerel $unwind$??0?$vector@UBufferElement@buffers@core@@V?$allocator@UBufferElement@buffers@core@@@std@@@std@@QEAA@XZ
pdata	ENDS
;	COMDAT pdata
pdata	SEGMENT
$pdata$??1?$vector@UBufferElement@buffers@core@@V?$allocator@UBufferElement@buffers@core@@@std@@@std@@QEAA@XZ DD imagerel $LN3
	DD	imagerel $LN3+49
	DD	imagerel $unwind$??1?$vector@UBufferElement@buffers@core@@V?$allocator@UBufferElement@buffers@core@@@std@@@std@@QEAA@XZ
pdata	ENDS
;	COMDAT pdata
pdata	SEGMENT
$pdata$?push_back@?$vector@UBufferElement@buffers@core@@V?$allocator@UBufferElement@buffers@core@@@std@@@std@@QEAAX$$QEAUBufferElement@buffers@core@@@Z DD imagerel $LN3
	DD	imagerel $LN3+47
	DD	imagerel $unwind$?push_back@?$vector@UBufferElement@buffers@core@@V?$allocator@UBufferElement@buffers@core@@@std@@@std@@QEAAX$$QEAUBufferElement@buffers@core@@@Z
pdata	ENDS
;	COMDAT pdata
pdata	SEGMENT
$pdata$?size@?$vector@UBufferElement@buffers@core@@V?$allocator@UBufferElement@buffers@core@@@std@@@std@@QEBA_KXZ DD imagerel $LN3
	DD	imagerel $LN3+69
	DD	imagerel $unwind$?size@?$vector@UBufferElement@buffers@core@@V?$allocator@UBufferElement@buffers@core@@@std@@@std@@QEBA_KXZ
pdata	ENDS
;	COMDAT pdata
pdata	SEGMENT
$pdata$?max_size@?$vector@UBufferElement@buffers@core@@V?$allocator@UBufferElement@buffers@core@@@std@@@std@@QEBA_KXZ DD imagerel $LN3
	DD	imagerel $LN3+67
	DD	imagerel $unwind$?max_size@?$vector@UBufferElement@buffers@core@@V?$allocator@UBufferElement@buffers@core@@@std@@@std@@QEBA_KXZ
pdata	ENDS
;	COMDAT pdata
pdata	SEGMENT
$pdata$?capacity@?$vector@UBufferElement@buffers@core@@V?$allocator@UBufferElement@buffers@core@@@std@@@std@@QEBA_KXZ DD imagerel $LN3
	DD	imagerel $LN3+69
	DD	imagerel $unwind$?capacity@?$vector@UBufferElement@buffers@core@@V?$allocator@UBufferElement@buffers@core@@@std@@@std@@QEBA_KXZ
pdata	ENDS
;	COMDAT pdata
pdata	SEGMENT
$pdata$?_Has_unused_capacity@?$vector@UBufferElement@buffers@core@@V?$allocator@UBufferElement@buffers@core@@@std@@@std@@AEBA_NXZ DD imagerel $LN5
	DD	imagerel $LN5+75
	DD	imagerel $unwind$?_Has_unused_capacity@?$vector@UBufferElement@buffers@core@@V?$allocator@UBufferElement@buffers@core@@@std@@@std@@AEBA_NXZ
pdata	ENDS
;	COMDAT pdata
pdata	SEGMENT
$pdata$?_Umove@?$vector@UBufferElement@buffers@core@@V?$allocator@UBufferElement@buffers@core@@@std@@@std@@AEAAPEAUBufferElement@buffers@core@@PEAU345@00@Z DD imagerel $LN3
	DD	imagerel $LN3+65
	DD	imagerel $unwind$?_Umove@?$vector@UBufferElement@buffers@core@@V?$allocator@UBufferElement@buffers@core@@@std@@@std@@AEAAPEAUBufferElement@buffers@core@@PEAU345@00@Z
pdata	ENDS
;	COMDAT pdata
pdata	SEGMENT
$pdata$?_Umove_if_noexcept1@?$vector@UBufferElement@buffers@core@@V?$allocator@UBufferElement@buffers@core@@@std@@@std@@AEAAXPEAUBufferElement@buffers@core@@00U?$integral_constant@_N$00@2@@Z DD imagerel $LN3
	DD	imagerel $LN3+65
	DD	imagerel $unwind$?_Umove_if_noexcept1@?$vector@UBufferElement@buffers@core@@V?$allocator@UBufferElement@buffers@core@@@std@@@std@@AEAAXPEAUBufferElement@buffers@core@@00U?$integral_constant@_N$00@2@@Z
pdata	ENDS
;	COMDAT pdata
pdata	SEGMENT
$pdata$?_Umove_if_noexcept@?$vector@UBufferElement@buffers@core@@V?$allocator@UBufferElement@buffers@core@@@std@@@std@@AEAAXPEAUBufferElement@buffers@core@@00@Z DD imagerel $LN3
	DD	imagerel $LN3+92
	DD	imagerel $unwind$?_Umove_if_noexcept@?$vector@UBufferElement@buffers@core@@V?$allocator@UBufferElement@buffers@core@@@std@@@std@@AEAAXPEAUBufferElement@buffers@core@@00@Z
pdata	ENDS
;	COMDAT pdata
pdata	SEGMENT
$pdata$?_Destroy@?$vector@UBufferElement@buffers@core@@V?$allocator@UBufferElement@buffers@core@@@std@@@std@@AEAAXPEAUBufferElement@buffers@core@@0@Z DD imagerel $LN3
	DD	imagerel $LN3+56
	DD	imagerel $unwind$?_Destroy@?$vector@UBufferElement@buffers@core@@V?$allocator@UBufferElement@buffers@core@@@std@@@std@@AEAAXPEAUBufferElement@buffers@core@@0@Z
pdata	ENDS
;	COMDAT pdata
pdata	SEGMENT
$pdata$?_Calculate_growth@?$vector@UBufferElement@buffers@core@@V?$allocator@UBufferElement@buffers@core@@@std@@@std@@AEBA_K_K@Z DD imagerel $LN5
	DD	imagerel $LN5+139
	DD	imagerel $unwind$?_Calculate_growth@?$vector@UBufferElement@buffers@core@@V?$allocator@UBufferElement@buffers@core@@@std@@@std@@AEBA_K_K@Z
pdata	ENDS
;	COMDAT pdata
pdata	SEGMENT
$pdata$?_Change_array@?$vector@UBufferElement@buffers@core@@V?$allocator@UBufferElement@buffers@core@@@std@@@std@@AEAAXQEAUBufferElement@buffers@core@@_K1@Z DD imagerel $LN4
	DD	imagerel $LN4+244
	DD	imagerel $unwind$?_Change_array@?$vector@UBufferElement@buffers@core@@V?$allocator@UBufferElement@buffers@core@@@std@@@std@@AEAAXQEAUBufferElement@buffers@core@@_K1@Z
pdata	ENDS
;	COMDAT pdata
pdata	SEGMENT
$pdata$?_Tidy@?$vector@UBufferElement@buffers@core@@V?$allocator@UBufferElement@buffers@core@@@std@@@std@@AEAAXXZ DD imagerel $LN4
	DD	imagerel $LN4+195
	DD	imagerel $unwind$?_Tidy@?$vector@UBufferElement@buffers@core@@V?$allocator@UBufferElement@buffers@core@@@std@@@std@@AEAAXXZ
pdata	ENDS
;	COMDAT pdata
pdata	SEGMENT
$pdata$?_Xlength@?$vector@UBufferElement@buffers@core@@V?$allocator@UBufferElement@buffers@core@@@std@@@std@@CAXXZ DD imagerel $LN3
	DD	imagerel $LN3+29
	DD	imagerel $unwind$?_Xlength@?$vector@UBufferElement@buffers@core@@V?$allocator@UBufferElement@buffers@core@@@std@@@std@@CAXXZ
pdata	ENDS
;	COMDAT pdata
pdata	SEGMENT
$pdata$?_Orphan_range@?$vector@UBufferElement@buffers@core@@V?$allocator@UBufferElement@buffers@core@@@std@@@std@@AEBAXPEAUBufferElement@buffers@core@@0@Z DD imagerel $LN10
	DD	imagerel $LN10+215
	DD	imagerel $unwind$?_Orphan_range@?$vector@UBufferElement@buffers@core@@V?$allocator@UBufferElement@buffers@core@@@std@@@std@@AEBAXPEAUBufferElement@buffers@core@@0@Z
pdata	ENDS
;	COMDAT pdata
pdata	SEGMENT
$pdata$?dtor$0@?0??_Orphan_range@?$vector@UBufferElement@buffers@core@@V?$allocator@UBufferElement@buffers@core@@@std@@@std@@AEBAXPEAUBufferElement@buffers@core@@0@Z@4HA DD imagerel ?dtor$0@?0??_Orphan_range@?$vector@UBufferElement@buffers@core@@V?$allocator@UBufferElement@buffers@core@@@std@@@std@@AEBAXPEAUBufferElement@buffers@core@@0@Z@4HA
	DD	imagerel ?dtor$0@?0??_Orphan_range@?$vector@UBufferElement@buffers@core@@V?$allocator@UBufferElement@buffers@core@@@std@@@std@@AEBAXPEAUBufferElement@buffers@core@@0@Z@4HA+26
	DD	imagerel $unwind$?dtor$0@?0??_Orphan_range@?$vector@UBufferElement@buffers@core@@V?$allocator@UBufferElement@buffers@core@@@std@@@std@@AEBAXPEAUBufferElement@buffers@core@@0@Z@4HA
pdata	ENDS
;	COMDAT pdata
pdata	SEGMENT
$pdata$??0BufferLayout@buffers@core@@QEAA@XZ DD imagerel $LN4
	DD	imagerel $LN4+48
	DD	imagerel $unwind$??0BufferLayout@buffers@core@@QEAA@XZ
pdata	ENDS
;	COMDAT pdata
pdata	SEGMENT
$pdata$??$push@M@BufferLayout@buffers@core@@QEAAXI@Z DD imagerel $LN3
	DD	imagerel $LN3+93
	DD	imagerel $unwind$??$push@M@BufferLayout@buffers@core@@QEAAXI@Z
pdata	ENDS
;	COMDAT pdata
pdata	SEGMENT
$pdata$??1BufferLayout@buffers@core@@QEAA@XZ DD imagerel $LN3
	DD	imagerel $LN3+33
	DD	imagerel $unwind$??1BufferLayout@buffers@core@@QEAA@XZ
pdata	ENDS
;	COMDAT pdata
pdata	SEGMENT
$pdata$?__autoclassinit2@BufferLayout@buffers@core@@QEAAX_K@Z DD imagerel $LN3
	DD	imagerel $LN3+38
	DD	imagerel $unwind$?__autoclassinit2@BufferLayout@buffers@core@@QEAAX_K@Z
pdata	ENDS
;	COMDAT pdata
pdata	SEGMENT
$pdata$??_GBufferLayout@buffers@core@@QEAAPEAXI@Z DD imagerel $LN4
	DD	imagerel $LN4+62
	DD	imagerel $unwind$??_GBufferLayout@buffers@core@@QEAAPEAXI@Z
pdata	ENDS
;	COMDAT pdata
pdata	SEGMENT
$pdata$??_GVAO@buffers@core@@QEAAPEAXI@Z DD imagerel $LN4
	DD	imagerel $LN4+62
	DD	imagerel $unwind$??_GVAO@buffers@core@@QEAAPEAXI@Z
pdata	ENDS
;	COMDAT pdata
pdata	SEGMENT
$pdata$?getCount@IBO@buffers@core@@QEBAHXZ DD imagerel $LN3
	DD	imagerel $LN3+26
	DD	imagerel $unwind$?getCount@IBO@buffers@core@@QEBAHXZ
pdata	ENDS
;	COMDAT pdata
pdata	SEGMENT
$pdata$??_GIBO@buffers@core@@QEAAPEAXI@Z DD imagerel $LN4
	DD	imagerel $LN4+62
	DD	imagerel $unwind$??_GIBO@buffers@core@@QEAAPEAXI@Z
pdata	ENDS
;	COMDAT pdata
pdata	SEGMENT
$pdata$??0?$allocator@U?$pair@PEBDV?$function@$$A6APEAVScene@1Application@@XZ@std@@@std@@@std@@QEAA@XZ DD imagerel $LN3
	DD	imagerel $LN3+23
	DD	imagerel $unwind$??0?$allocator@U?$pair@PEBDV?$function@$$A6APEAVScene@1Application@@XZ@std@@@std@@@std@@QEAA@XZ
pdata	ENDS
;	COMDAT pdata
pdata	SEGMENT
$pdata$?deallocate@?$allocator@U?$pair@PEBDV?$function@$$A6APEAVScene@1Application@@XZ@std@@@std@@@std@@QEAAXQEAU?$pair@PEBDV?$function@$$A6APEAVScene@1Application@@XZ@std@@@2@_K@Z DD imagerel $LN3
	DD	imagerel $LN3+48
	DD	imagerel $unwind$?deallocate@?$allocator@U?$pair@PEBDV?$function@$$A6APEAVScene@1Application@@XZ@std@@@std@@@std@@QEAAXQEAU?$pair@PEBDV?$function@$$A6APEAVScene@1Application@@XZ@std@@@2@_K@Z
pdata	ENDS
;	COMDAT pdata
pdata	SEGMENT
$pdata$??0?$_Vector_alloc@U?$_Vec_base_types@U?$pair@PEBDV?$function@$$A6APEAVScene@1Application@@XZ@std@@@std@@V?$allocator@U?$pair@PEBDV?$function@$$A6APEAVScene@1Application@@XZ@std@@@std@@@2@@std@@@std@@QEAA@XZ DD imagerel $LN3
	DD	imagerel $LN3+50
	DD	imagerel $unwind$??0?$_Vector_alloc@U?$_Vec_base_types@U?$pair@PEBDV?$function@$$A6APEAVScene@1Application@@XZ@std@@@std@@V?$allocator@U?$pair@PEBDV?$function@$$A6APEAVScene@1Application@@XZ@std@@@std@@@2@@std@@@std@@QEAA@XZ
pdata	ENDS
;	COMDAT pdata
pdata	SEGMENT
$pdata$??1?$_Vector_alloc@U?$_Vec_base_types@U?$pair@PEBDV?$function@$$A6APEAVScene@1Application@@XZ@std@@@std@@V?$allocator@U?$pair@PEBDV?$function@$$A6APEAVScene@1Application@@XZ@std@@@std@@@2@@std@@@std@@QEAA@XZ DD imagerel $LN3
	DD	imagerel $LN3+39
	DD	imagerel $unwind$??1?$_Vector_alloc@U?$_Vec_base_types@U?$pair@PEBDV?$function@$$A6APEAVScene@1Application@@XZ@std@@@std@@V?$allocator@U?$pair@PEBDV?$function@$$A6APEAVScene@1Application@@XZ@std@@@std@@@2@@std@@@std@@QEAA@XZ
pdata	ENDS
;	COMDAT pdata
pdata	SEGMENT
$pdata$?_Alloc_proxy@?$_Vector_alloc@U?$_Vec_base_types@U?$pair@PEBDV?$function@$$A6APEAVScene@1Application@@XZ@std@@@std@@V?$allocator@U?$pair@PEBDV?$function@$$A6APEAVScene@1Application@@XZ@std@@@std@@@2@@std@@@std@@QEAAXXZ DD imagerel $LN3
	DD	imagerel $LN3+209
	DD	imagerel $unwind$?_Alloc_proxy@?$_Vector_alloc@U?$_Vec_base_types@U?$pair@PEBDV?$function@$$A6APEAVScene@1Application@@XZ@std@@@std@@V?$allocator@U?$pair@PEBDV?$function@$$A6APEAVScene@1Application@@XZ@std@@@std@@@2@@std@@@std@@QEAAXXZ
pdata	ENDS
;	COMDAT pdata
pdata	SEGMENT
$pdata$?_Free_proxy@?$_Vector_alloc@U?$_Vec_base_types@U?$pair@PEBDV?$function@$$A6APEAVScene@1Application@@XZ@std@@@std@@V?$allocator@U?$pair@PEBDV?$function@$$A6APEAVScene@1Application@@XZ@std@@@std@@@2@@std@@@std@@QEAAXXZ DD imagerel $LN3
	DD	imagerel $LN3+135
	DD	imagerel $unwind$?_Free_proxy@?$_Vector_alloc@U?$_Vec_base_types@U?$pair@PEBDV?$function@$$A6APEAVScene@1Application@@XZ@std@@@std@@V?$allocator@U?$pair@PEBDV?$function@$$A6APEAVScene@1Application@@XZ@std@@@std@@@2@@std@@@std@@QEAAXXZ
pdata	ENDS
;	COMDAT pdata
pdata	SEGMENT
$pdata$?_Myproxy@?$_Vector_alloc@U?$_Vec_base_types@U?$pair@PEBDV?$function@$$A6APEAVScene@1Application@@XZ@std@@@std@@V?$allocator@U?$pair@PEBDV?$function@$$A6APEAVScene@1Application@@XZ@std@@@std@@@2@@std@@@std@@QEAAAEAPEAU_Container_proxy@2@XZ DD imagerel $LN3
	DD	imagerel $LN3+30
	DD	imagerel $unwind$?_Myproxy@?$_Vector_alloc@U?$_Vec_base_types@U?$pair@PEBDV?$function@$$A6APEAVScene@1Application@@XZ@std@@@std@@V?$allocator@U?$pair@PEBDV?$function@$$A6APEAVScene@1Application@@XZ@std@@@std@@@2@@std@@@std@@QEAAAEAPEAU_Container_proxy@2@XZ
pdata	ENDS
;	COMDAT pdata
pdata	SEGMENT
$pdata$?_Orphan_all@?$_Vector_alloc@U?$_Vec_base_types@U?$pair@PEBDV?$function@$$A6APEAVScene@1Application@@XZ@std@@@std@@V?$allocator@U?$pair@PEBDV?$function@$$A6APEAVScene@1Application@@XZ@std@@@std@@@2@@std@@@std@@QEAAXXZ DD imagerel $LN3
	DD	imagerel $LN3+38
	DD	imagerel $unwind$?_Orphan_all@?$_Vector_alloc@U?$_Vec_base_types@U?$pair@PEBDV?$function@$$A6APEAVScene@1Application@@XZ@std@@@std@@V?$allocator@U?$pair@PEBDV?$function@$$A6APEAVScene@1Application@@XZ@std@@@std@@@2@@std@@@std@@QEAAXXZ
pdata	ENDS
;	COMDAT pdata
pdata	SEGMENT
$pdata$?_Getal@?$_Vector_alloc@U?$_Vec_base_types@U?$pair@PEBDV?$function@$$A6APEAVScene@1Application@@XZ@std@@@std@@V?$allocator@U?$pair@PEBDV?$function@$$A6APEAVScene@1Application@@XZ@std@@@std@@@2@@std@@@std@@QEAAAEAV?$allocator@U?$pair@PEBDV?$function@$$A6APEAVScene@1Application@@XZ@std@@@std@@@2@XZ DD imagerel $LN3
	DD	imagerel $LN3+33
	DD	imagerel $unwind$?_Getal@?$_Vector_alloc@U?$_Vec_base_types@U?$pair@PEBDV?$function@$$A6APEAVScene@1Application@@XZ@std@@@std@@V?$allocator@U?$pair@PEBDV?$function@$$A6APEAVScene@1Application@@XZ@std@@@std@@@2@@std@@@std@@QEAAAEAV?$allocator@U?$pair@PEBDV?$function@$$A6APEAVScene@1Application@@XZ@std@@@std@@@2@XZ
pdata	ENDS
;	COMDAT pdata
pdata	SEGMENT
$pdata$?_Get_data@?$_Vector_alloc@U?$_Vec_base_types@U?$pair@PEBDV?$function@$$A6APEAVScene@1Application@@XZ@std@@@std@@V?$allocator@U?$pair@PEBDV?$function@$$A6APEAVScene@1Application@@XZ@std@@@std@@@2@@std@@@std@@QEAAAEAV?$_Vector_val@U?$_Simple_types@U?$pair@PEBDV?$function@$$A6APEAVScene@1Application@@XZ@std@@@std@@@std@@@2@XZ DD imagerel $LN3
	DD	imagerel $LN3+33
	DD	imagerel $unwind$?_Get_data@?$_Vector_alloc@U?$_Vec_base_types@U?$pair@PEBDV?$function@$$A6APEAVScene@1Application@@XZ@std@@@std@@V?$allocator@U?$pair@PEBDV?$function@$$A6APEAVScene@1Application@@XZ@std@@@std@@@2@@std@@@std@@QEAAAEAV?$_Vector_val@U?$_Simple_types@U?$pair@PEBDV?$function@$$A6APEAVScene@1Application@@XZ@std@@@std@@@std@@@2@XZ
pdata	ENDS
;	COMDAT pdata
pdata	SEGMENT
$pdata$?_Get_data@?$_Vector_alloc@U?$_Vec_base_types@U?$pair@PEBDV?$function@$$A6APEAVScene@1Application@@XZ@std@@@std@@V?$allocator@U?$pair@PEBDV?$function@$$A6APEAVScene@1Application@@XZ@std@@@std@@@2@@std@@@std@@QEBAAEBV?$_Vector_val@U?$_Simple_types@U?$pair@PEBDV?$function@$$A6APEAVScene@1Application@@XZ@std@@@std@@@std@@@2@XZ DD imagerel $LN3
	DD	imagerel $LN3+33
	DD	imagerel $unwind$?_Get_data@?$_Vector_alloc@U?$_Vec_base_types@U?$pair@PEBDV?$function@$$A6APEAVScene@1Application@@XZ@std@@@std@@V?$allocator@U?$pair@PEBDV?$function@$$A6APEAVScene@1Application@@XZ@std@@@std@@@2@@std@@@std@@QEBAAEBV?$_Vector_val@U?$_Simple_types@U?$pair@PEBDV?$function@$$A6APEAVScene@1Application@@XZ@std@@@std@@@std@@@2@XZ
pdata	ENDS
;	COMDAT pdata
pdata	SEGMENT
$pdata$?_Myfirst@?$_Vector_alloc@U?$_Vec_base_types@U?$pair@PEBDV?$function@$$A6APEAVScene@1Application@@XZ@std@@@std@@V?$allocator@U?$pair@PEBDV?$function@$$A6APEAVScene@1Application@@XZ@std@@@std@@@2@@std@@@std@@QEAAAEAPEAU?$pair@PEBDV?$function@$$A6APEAVScene@1Application@@XZ@std@@@2@XZ DD imagerel $LN3
	DD	imagerel $LN3+34
	DD	imagerel $unwind$?_Myfirst@?$_Vector_alloc@U?$_Vec_base_types@U?$pair@PEBDV?$function@$$A6APEAVScene@1Application@@XZ@std@@@std@@V?$allocator@U?$pair@PEBDV?$function@$$A6APEAVScene@1Application@@XZ@std@@@std@@@2@@std@@@std@@QEAAAEAPEAU?$pair@PEBDV?$function@$$A6APEAVScene@1Application@@XZ@std@@@2@XZ
pdata	ENDS
;	COMDAT pdata
pdata	SEGMENT
$pdata$?_Myfirst@?$_Vector_alloc@U?$_Vec_base_types@U?$pair@PEBDV?$function@$$A6APEAVScene@1Application@@XZ@std@@@std@@V?$allocator@U?$pair@PEBDV?$function@$$A6APEAVScene@1Application@@XZ@std@@@std@@@2@@std@@@std@@QEBAAEBQEAU?$pair@PEBDV?$function@$$A6APEAVScene@1Application@@XZ@std@@@2@XZ DD imagerel $LN3
	DD	imagerel $LN3+34
	DD	imagerel $unwind$?_Myfirst@?$_Vector_alloc@U?$_Vec_base_types@U?$pair@PEBDV?$function@$$A6APEAVScene@1Application@@XZ@std@@@std@@V?$allocator@U?$pair@PEBDV?$function@$$A6APEAVScene@1Application@@XZ@std@@@std@@@2@@std@@@std@@QEBAAEBQEAU?$pair@PEBDV?$function@$$A6APEAVScene@1Application@@XZ@std@@@2@XZ
pdata	ENDS
;	COMDAT pdata
pdata	SEGMENT
$pdata$?_Mylast@?$_Vector_alloc@U?$_Vec_base_types@U?$pair@PEBDV?$function@$$A6APEAVScene@1Application@@XZ@std@@@std@@V?$allocator@U?$pair@PEBDV?$function@$$A6APEAVScene@1Application@@XZ@std@@@std@@@2@@std@@@std@@QEAAAEAPEAU?$pair@PEBDV?$function@$$A6APEAVScene@1Application@@XZ@std@@@2@XZ DD imagerel $LN3
	DD	imagerel $LN3+34
	DD	imagerel $unwind$?_Mylast@?$_Vector_alloc@U?$_Vec_base_types@U?$pair@PEBDV?$function@$$A6APEAVScene@1Application@@XZ@std@@@std@@V?$allocator@U?$pair@PEBDV?$function@$$A6APEAVScene@1Application@@XZ@std@@@std@@@2@@std@@@std@@QEAAAEAPEAU?$pair@PEBDV?$function@$$A6APEAVScene@1Application@@XZ@std@@@2@XZ
pdata	ENDS
;	COMDAT pdata
pdata	SEGMENT
$pdata$?_Myend@?$_Vector_alloc@U?$_Vec_base_types@U?$pair@PEBDV?$function@$$A6APEAVScene@1Application@@XZ@std@@@std@@V?$allocator@U?$pair@PEBDV?$function@$$A6APEAVScene@1Application@@XZ@std@@@std@@@2@@std@@@std@@QEAAAEAPEAU?$pair@PEBDV?$function@$$A6APEAVScene@1Application@@XZ@std@@@2@XZ DD imagerel $LN3
	DD	imagerel $LN3+34
	DD	imagerel $unwind$?_Myend@?$_Vector_alloc@U?$_Vec_base_types@U?$pair@PEBDV?$function@$$A6APEAVScene@1Application@@XZ@std@@@std@@V?$allocator@U?$pair@PEBDV?$function@$$A6APEAVScene@1Application@@XZ@std@@@std@@@2@@std@@@std@@QEAAAEAPEAU?$pair@PEBDV?$function@$$A6APEAVScene@1Application@@XZ@std@@@2@XZ
pdata	ENDS
;	COMDAT pdata
pdata	SEGMENT
$pdata$?_Myend@?$_Vector_alloc@U?$_Vec_base_types@U?$pair@PEBDV?$function@$$A6APEAVScene@1Application@@XZ@std@@@std@@V?$allocator@U?$pair@PEBDV?$function@$$A6APEAVScene@1Application@@XZ@std@@@std@@@2@@std@@@std@@QEBAAEBQEAU?$pair@PEBDV?$function@$$A6APEAVScene@1Application@@XZ@std@@@2@XZ DD imagerel $LN3
	DD	imagerel $LN3+34
	DD	imagerel $unwind$?_Myend@?$_Vector_alloc@U?$_Vec_base_types@U?$pair@PEBDV?$function@$$A6APEAVScene@1Application@@XZ@std@@@std@@V?$allocator@U?$pair@PEBDV?$function@$$A6APEAVScene@1Application@@XZ@std@@@std@@@2@@std@@@std@@QEBAAEBQEAU?$pair@PEBDV?$function@$$A6APEAVScene@1Application@@XZ@std@@@2@XZ
pdata	ENDS
;	COMDAT pdata
pdata	SEGMENT
$pdata$??0?$_Vector_val@U?$_Simple_types@U?$pair@PEBDV?$function@$$A6APEAVScene@1Application@@XZ@std@@@std@@@std@@@std@@QEAA@XZ DD imagerel $LN3
	DD	imagerel $LN3+70
	DD	imagerel $unwind$??0?$_Vector_val@U?$_Simple_types@U?$pair@PEBDV?$function@$$A6APEAVScene@1Application@@XZ@std@@@std@@@std@@@std@@QEAA@XZ
pdata	ENDS
;	COMDAT pdata
pdata	SEGMENT
$pdata$?_Get_first@?$_Compressed_pair@V?$allocator@U?$pair@PEBDV?$function@$$A6APEAVScene@1Application@@XZ@std@@@std@@@std@@V?$_Vector_val@U?$_Simple_types@U?$pair@PEBDV?$function@$$A6APEAVScene@1Application@@XZ@std@@@std@@@std@@@2@$00@std@@QEAAAEAV?$allocator@U?$pair@PEBDV?$function@$$A6APEAVScene@1Application@@XZ@std@@@std@@@2@XZ DD imagerel $LN3
	DD	imagerel $LN3+23
	DD	imagerel $unwind$?_Get_first@?$_Compressed_pair@V?$allocator@U?$pair@PEBDV?$function@$$A6APEAVScene@1Application@@XZ@std@@@std@@@std@@V?$_Vector_val@U?$_Simple_types@U?$pair@PEBDV?$function@$$A6APEAVScene@1Application@@XZ@std@@@std@@@std@@@2@$00@std@@QEAAAEAV?$allocator@U?$pair@PEBDV?$function@$$A6APEAVScene@1Application@@XZ@std@@@std@@@2@XZ
pdata	ENDS
;	COMDAT pdata
pdata	SEGMENT
$pdata$?_Get_second@?$_Compressed_pair@V?$allocator@U?$pair@PEBDV?$function@$$A6APEAVScene@1Application@@XZ@std@@@std@@@std@@V?$_Vector_val@U?$_Simple_types@U?$pair@PEBDV?$function@$$A6APEAVScene@1Application@@XZ@std@@@std@@@std@@@2@$00@std@@QEAAAEAV?$_Vector_val@U?$_Simple_types@U?$pair@PEBDV?$function@$$A6APEAVScene@1Application@@XZ@std@@@std@@@std@@@2@XZ DD imagerel $LN3
	DD	imagerel $LN3+23
	DD	imagerel $unwind$?_Get_second@?$_Compressed_pair@V?$allocator@U?$pair@PEBDV?$function@$$A6APEAVScene@1Application@@XZ@std@@@std@@@std@@V?$_Vector_val@U?$_Simple_types@U?$pair@PEBDV?$function@$$A6APEAVScene@1Application@@XZ@std@@@std@@@std@@@2@$00@std@@QEAAAEAV?$_Vector_val@U?$_Simple_types@U?$pair@PEBDV?$function@$$A6APEAVScene@1Application@@XZ@std@@@std@@@std@@@2@XZ
pdata	ENDS
;	COMDAT pdata
pdata	SEGMENT
$pdata$?_Get_second@?$_Compressed_pair@V?$allocator@U?$pair@PEBDV?$function@$$A6APEAVScene@1Application@@XZ@std@@@std@@@std@@V?$_Vector_val@U?$_Simple_types@U?$pair@PEBDV?$function@$$A6APEAVScene@1Application@@XZ@std@@@std@@@std@@@2@$00@std@@QEBAAEBV?$_Vector_val@U?$_Simple_types@U?$pair@PEBDV?$function@$$A6APEAVScene@1Application@@XZ@std@@@std@@@std@@@2@XZ DD imagerel $LN3
	DD	imagerel $LN3+23
	DD	imagerel $unwind$?_Get_second@?$_Compressed_pair@V?$allocator@U?$pair@PEBDV?$function@$$A6APEAVScene@1Application@@XZ@std@@@std@@@std@@V?$_Vector_val@U?$_Simple_types@U?$pair@PEBDV?$function@$$A6APEAVScene@1Application@@XZ@std@@@std@@@std@@@2@$00@std@@QEBAAEBV?$_Vector_val@U?$_Simple_types@U?$pair@PEBDV?$function@$$A6APEAVScene@1Application@@XZ@std@@@std@@@std@@@2@XZ
pdata	ENDS
;	COMDAT pdata
pdata	SEGMENT
$pdata$??0?$vector@U?$pair@PEBDV?$function@$$A6APEAVScene@1Application@@XZ@std@@@std@@V?$allocator@U?$pair@PEBDV?$function@$$A6APEAVScene@1Application@@XZ@std@@@std@@@2@@std@@QEAA@XZ DD imagerel $LN3
	DD	imagerel $LN3+43
	DD	imagerel $unwind$??0?$vector@U?$pair@PEBDV?$function@$$A6APEAVScene@1Application@@XZ@std@@@std@@V?$allocator@U?$pair@PEBDV?$function@$$A6APEAVScene@1Application@@XZ@std@@@std@@@2@@std@@QEAA@XZ
pdata	ENDS
;	COMDAT pdata
pdata	SEGMENT
$pdata$??1?$vector@U?$pair@PEBDV?$function@$$A6APEAVScene@1Application@@XZ@std@@@std@@V?$allocator@U?$pair@PEBDV?$function@$$A6APEAVScene@1Application@@XZ@std@@@std@@@2@@std@@QEAA@XZ DD imagerel $LN3
	DD	imagerel $LN3+49
	DD	imagerel $unwind$??1?$vector@U?$pair@PEBDV?$function@$$A6APEAVScene@1Application@@XZ@std@@@std@@V?$allocator@U?$pair@PEBDV?$function@$$A6APEAVScene@1Application@@XZ@std@@@std@@@2@@std@@QEAA@XZ
pdata	ENDS
;	COMDAT pdata
pdata	SEGMENT
$pdata$?_Unchecked_begin@?$vector@U?$pair@PEBDV?$function@$$A6APEAVScene@1Application@@XZ@std@@@std@@V?$allocator@U?$pair@PEBDV?$function@$$A6APEAVScene@1Application@@XZ@std@@@std@@@2@@std@@QEAAPEAU?$pair@PEBDV?$function@$$A6APEAVScene@1Application@@XZ@std@@@2@XZ DD imagerel $LN3
	DD	imagerel $LN3+33
	DD	imagerel $unwind$?_Unchecked_begin@?$vector@U?$pair@PEBDV?$function@$$A6APEAVScene@1Application@@XZ@std@@@std@@V?$allocator@U?$pair@PEBDV?$function@$$A6APEAVScene@1Application@@XZ@std@@@std@@@2@@std@@QEAAPEAU?$pair@PEBDV?$function@$$A6APEAVScene@1Application@@XZ@std@@@2@XZ
pdata	ENDS
;	COMDAT pdata
pdata	SEGMENT
$pdata$?_Unchecked_end@?$vector@U?$pair@PEBDV?$function@$$A6APEAVScene@1Application@@XZ@std@@@std@@V?$allocator@U?$pair@PEBDV?$function@$$A6APEAVScene@1Application@@XZ@std@@@std@@@2@@std@@QEAAPEAU?$pair@PEBDV?$function@$$A6APEAVScene@1Application@@XZ@std@@@2@XZ DD imagerel $LN3
	DD	imagerel $LN3+33
	DD	imagerel $unwind$?_Unchecked_end@?$vector@U?$pair@PEBDV?$function@$$A6APEAVScene@1Application@@XZ@std@@@std@@V?$allocator@U?$pair@PEBDV?$function@$$A6APEAVScene@1Application@@XZ@std@@@std@@@2@@std@@QEAAPEAU?$pair@PEBDV?$function@$$A6APEAVScene@1Application@@XZ@std@@@2@XZ
pdata	ENDS
;	COMDAT pdata
pdata	SEGMENT
$pdata$?capacity@?$vector@U?$pair@PEBDV?$function@$$A6APEAVScene@1Application@@XZ@std@@@std@@V?$allocator@U?$pair@PEBDV?$function@$$A6APEAVScene@1Application@@XZ@std@@@std@@@2@@std@@QEBA_KXZ DD imagerel $LN3
	DD	imagerel $LN3+69
	DD	imagerel $unwind$?capacity@?$vector@U?$pair@PEBDV?$function@$$A6APEAVScene@1Application@@XZ@std@@@std@@V?$allocator@U?$pair@PEBDV?$function@$$A6APEAVScene@1Application@@XZ@std@@@std@@@2@@std@@QEBA_KXZ
pdata	ENDS
;	COMDAT pdata
pdata	SEGMENT
$pdata$?_Destroy@?$vector@U?$pair@PEBDV?$function@$$A6APEAVScene@1Application@@XZ@std@@@std@@V?$allocator@U?$pair@PEBDV?$function@$$A6APEAVScene@1Application@@XZ@std@@@std@@@2@@std@@AEAAXPEAU?$pair@PEBDV?$function@$$A6APEAVScene@1Application@@XZ@std@@@2@0@Z DD imagerel $LN3
	DD	imagerel $LN3+56
	DD	imagerel $unwind$?_Destroy@?$vector@U?$pair@PEBDV?$function@$$A6APEAVScene@1Application@@XZ@std@@@std@@V?$allocator@U?$pair@PEBDV?$function@$$A6APEAVScene@1Application@@XZ@std@@@std@@@2@@std@@AEAAXPEAU?$pair@PEBDV?$function@$$A6APEAVScene@1Application@@XZ@std@@@2@0@Z
pdata	ENDS
;	COMDAT pdata
pdata	SEGMENT
$pdata$?_Tidy@?$vector@U?$pair@PEBDV?$function@$$A6APEAVScene@1Application@@XZ@std@@@std@@V?$allocator@U?$pair@PEBDV?$function@$$A6APEAVScene@1Application@@XZ@std@@@std@@@2@@std@@AEAAXXZ DD imagerel $LN4
	DD	imagerel $LN4+195
	DD	imagerel $unwind$?_Tidy@?$vector@U?$pair@PEBDV?$function@$$A6APEAVScene@1Application@@XZ@std@@@std@@V?$allocator@U?$pair@PEBDV?$function@$$A6APEAVScene@1Application@@XZ@std@@@std@@@2@@std@@AEAAXXZ
pdata	ENDS
;	COMDAT pdata
pdata	SEGMENT
$pdata$??0MainMenuScene@Scene@Application@@QEAA@AEAPEAV112@@Z DD imagerel $LN34
	DD	imagerel $LN34+1642
	DD	imagerel $unwind$??0MainMenuScene@Scene@Application@@QEAA@AEAPEAV112@@Z
pdata	ENDS
;	COMDAT pdata
pdata	SEGMENT
$pdata$?dtor$0@?0???0MainMenuScene@Scene@Application@@QEAA@AEAPEAV112@@Z@4HA DD imagerel ?dtor$0@?0???0MainMenuScene@Scene@Application@@QEAA@AEAPEAV112@@Z@4HA
	DD	imagerel ?dtor$0@?0???0MainMenuScene@Scene@Application@@QEAA@AEAPEAV112@@Z@4HA+28
	DD	imagerel $unwind$?dtor$0@?0???0MainMenuScene@Scene@Application@@QEAA@AEAPEAV112@@Z@4HA
pdata	ENDS
;	COMDAT pdata
pdata	SEGMENT
$pdata$?dtor$1@?0???0MainMenuScene@Scene@Application@@QEAA@AEAPEAV112@@Z@4HA DD imagerel ?dtor$1@?0???0MainMenuScene@Scene@Application@@QEAA@AEAPEAV112@@Z@4HA
	DD	imagerel ?dtor$1@?0???0MainMenuScene@Scene@Application@@QEAA@AEAPEAV112@@Z@4HA+32
	DD	imagerel $unwind$?dtor$1@?0???0MainMenuScene@Scene@Application@@QEAA@AEAPEAV112@@Z@4HA
pdata	ENDS
;	COMDAT pdata
pdata	SEGMENT
$pdata$?dtor$2@?0???0MainMenuScene@Scene@Application@@QEAA@AEAPEAV112@@Z@4HA DD imagerel ?dtor$2@?0???0MainMenuScene@Scene@Application@@QEAA@AEAPEAV112@@Z@4HA
	DD	imagerel ?dtor$2@?0???0MainMenuScene@Scene@Application@@QEAA@AEAPEAV112@@Z@4HA+33
	DD	imagerel $unwind$?dtor$2@?0???0MainMenuScene@Scene@Application@@QEAA@AEAPEAV112@@Z@4HA
pdata	ENDS
;	COMDAT pdata
pdata	SEGMENT
$pdata$?dtor$3@?0???0MainMenuScene@Scene@Application@@QEAA@AEAPEAV112@@Z@4HA DD imagerel ?dtor$3@?0???0MainMenuScene@Scene@Application@@QEAA@AEAPEAV112@@Z@4HA
	DD	imagerel ?dtor$3@?0???0MainMenuScene@Scene@Application@@QEAA@AEAPEAV112@@Z@4HA+33
	DD	imagerel $unwind$?dtor$3@?0???0MainMenuScene@Scene@Application@@QEAA@AEAPEAV112@@Z@4HA
pdata	ENDS
;	COMDAT pdata
pdata	SEGMENT
$pdata$?dtor$4@?0???0MainMenuScene@Scene@Application@@QEAA@AEAPEAV112@@Z@4HA DD imagerel ?dtor$4@?0???0MainMenuScene@Scene@Application@@QEAA@AEAPEAV112@@Z@4HA
	DD	imagerel ?dtor$4@?0???0MainMenuScene@Scene@Application@@QEAA@AEAPEAV112@@Z@4HA+33
	DD	imagerel $unwind$?dtor$4@?0???0MainMenuScene@Scene@Application@@QEAA@AEAPEAV112@@Z@4HA
pdata	ENDS
;	COMDAT pdata
pdata	SEGMENT
$pdata$?dtor$5@?0???0MainMenuScene@Scene@Application@@QEAA@AEAPEAV112@@Z@4HA DD imagerel ?dtor$5@?0???0MainMenuScene@Scene@Application@@QEAA@AEAPEAV112@@Z@4HA
	DD	imagerel ?dtor$5@?0???0MainMenuScene@Scene@Application@@QEAA@AEAPEAV112@@Z@4HA+33
	DD	imagerel $unwind$?dtor$5@?0???0MainMenuScene@Scene@Application@@QEAA@AEAPEAV112@@Z@4HA
pdata	ENDS
;	COMDAT pdata
pdata	SEGMENT
$pdata$?dtor$6@?0???0MainMenuScene@Scene@Application@@QEAA@AEAPEAV112@@Z@4HA DD imagerel ?dtor$6@?0???0MainMenuScene@Scene@Application@@QEAA@AEAPEAV112@@Z@4HA
	DD	imagerel ?dtor$6@?0???0MainMenuScene@Scene@Application@@QEAA@AEAPEAV112@@Z@4HA+33
	DD	imagerel $unwind$?dtor$6@?0???0MainMenuScene@Scene@Application@@QEAA@AEAPEAV112@@Z@4HA
pdata	ENDS
;	COMDAT pdata
pdata	SEGMENT
$pdata$?dtor$7@?0???0MainMenuScene@Scene@Application@@QEAA@AEAPEAV112@@Z@4HA DD imagerel ?dtor$7@?0???0MainMenuScene@Scene@Application@@QEAA@AEAPEAV112@@Z@4HA
	DD	imagerel ?dtor$7@?0???0MainMenuScene@Scene@Application@@QEAA@AEAPEAV112@@Z@4HA+48
	DD	imagerel $unwind$?dtor$7@?0???0MainMenuScene@Scene@Application@@QEAA@AEAPEAV112@@Z@4HA
pdata	ENDS
;	COMDAT pdata
pdata	SEGMENT
$pdata$?dtor$8@?0???0MainMenuScene@Scene@Application@@QEAA@AEAPEAV112@@Z@4HA DD imagerel ?dtor$8@?0???0MainMenuScene@Scene@Application@@QEAA@AEAPEAV112@@Z@4HA
	DD	imagerel ?dtor$8@?0???0MainMenuScene@Scene@Application@@QEAA@AEAPEAV112@@Z@4HA+33
	DD	imagerel $unwind$?dtor$8@?0???0MainMenuScene@Scene@Application@@QEAA@AEAPEAV112@@Z@4HA
pdata	ENDS
;	COMDAT pdata
pdata	SEGMENT
$pdata$?dtor$10@?0???0MainMenuScene@Scene@Application@@QEAA@AEAPEAV112@@Z@4HA DD imagerel ?dtor$10@?0???0MainMenuScene@Scene@Application@@QEAA@AEAPEAV112@@Z@4HA
	DD	imagerel ?dtor$10@?0???0MainMenuScene@Scene@Application@@QEAA@AEAPEAV112@@Z@4HA+33
	DD	imagerel $unwind$?dtor$10@?0???0MainMenuScene@Scene@Application@@QEAA@AEAPEAV112@@Z@4HA
pdata	ENDS
;	COMDAT pdata
pdata	SEGMENT
$pdata$?dtor$12@?0???0MainMenuScene@Scene@Application@@QEAA@AEAPEAV112@@Z@4HA DD imagerel ?dtor$12@?0???0MainMenuScene@Scene@Application@@QEAA@AEAPEAV112@@Z@4HA
	DD	imagerel ?dtor$12@?0???0MainMenuScene@Scene@Application@@QEAA@AEAPEAV112@@Z@4HA+33
	DD	imagerel $unwind$?dtor$12@?0???0MainMenuScene@Scene@Application@@QEAA@AEAPEAV112@@Z@4HA
pdata	ENDS
;	COMDAT pdata
pdata	SEGMENT
$pdata$??1MainMenuScene@Scene@Application@@UEAA@XZ DD imagerel $LN15
	DD	imagerel $LN15+524
	DD	imagerel $unwind$??1MainMenuScene@Scene@Application@@UEAA@XZ
pdata	ENDS
;	COMDAT pdata
pdata	SEGMENT
$pdata$?OnUpdate@MainMenuScene@Scene@Application@@UEAAXM@Z DD imagerel $LN3
	DD	imagerel $LN3+25
	DD	imagerel $unwind$?OnUpdate@MainMenuScene@Scene@Application@@UEAAXM@Z
pdata	ENDS
;	COMDAT pdata
pdata	SEGMENT
$pdata$?OnRender@MainMenuScene@Scene@Application@@UEAAXXZ DD imagerel $LN4
	DD	imagerel $LN4+129
	DD	imagerel $unwind$?OnRender@MainMenuScene@Scene@Application@@UEAAXXZ
pdata	ENDS
;	COMDAT pdata
pdata	SEGMENT
$pdata$?OnImGuiRender@MainMenuScene@Scene@Application@@UEAAXXZ DD imagerel $LN7
	DD	imagerel $LN7+275
	DD	imagerel $unwind$?OnImGuiRender@MainMenuScene@Scene@Application@@UEAAXXZ
pdata	ENDS
;	COMDAT pdata
pdata	SEGMENT
$pdata$?OnReloadScene@MainMenuScene@Scene@Application@@QEAAXXZ DD imagerel $LN4
	DD	imagerel $LN4+237
	DD	imagerel $unwind$?OnReloadScene@MainMenuScene@Scene@Application@@QEAAXXZ
pdata	ENDS
;	COMDAT pdata
pdata	SEGMENT
$pdata$??_GMainMenuScene@Scene@Application@@UEAAPEAXI@Z DD imagerel $LN4
	DD	imagerel $LN4+62
	DD	imagerel $unwind$??_GMainMenuScene@Scene@Application@@UEAAPEAXI@Z
pdata	ENDS
;	COMDAT pdata
pdata	SEGMENT
$pdata$??0ImVec2@@QEAA@MM@Z DD imagerel $LN3
	DD	imagerel $LN3+62
	DD	imagerel $unwind$??0ImVec2@@QEAA@MM@Z
pdata	ENDS
;	COMDAT pdata
pdata	SEGMENT
$pdata$?length@?$tvec4@M$0A@@glm@@SAHXZ DD imagerel $LN3
	DD	imagerel $LN3+20
	DD	imagerel $unwind$?length@?$tvec4@M$0A@@glm@@SAHXZ
pdata	ENDS
;	COMDAT pdata
pdata	SEGMENT
$pdata$??A?$tvec4@M$0A@@glm@@QEAAAEAMH@Z DD imagerel $LN5
	DD	imagerel $LN5+81
	DD	imagerel $unwind$??A?$tvec4@M$0A@@glm@@QEAAAEAMH@Z
pdata	ENDS
;	COMDAT pdata
pdata	SEGMENT
$pdata$??0?$tvec4@M$0A@@glm@@QEAA@XZ DD imagerel $LN3
	DD	imagerel $LN3+70
	DD	imagerel $unwind$??0?$tvec4@M$0A@@glm@@QEAA@XZ
pdata	ENDS
;	COMDAT pdata
pdata	SEGMENT
$pdata$??0?$tmat4x4@M$0A@@glm@@QEAA@AEBM@Z DD imagerel $LN3
	DD	imagerel $LN3+327
	DD	imagerel $unwind$??0?$tmat4x4@M$0A@@glm@@QEAA@AEBM@Z
pdata	ENDS
;	COMDAT pdata
pdata	SEGMENT
$pdata$?length@?$tmat4x4@M$0A@@glm@@SAHXZ DD imagerel $LN3
	DD	imagerel $LN3+20
	DD	imagerel $unwind$?length@?$tmat4x4@M$0A@@glm@@SAHXZ
pdata	ENDS
;	COMDAT pdata
pdata	SEGMENT
$pdata$??A?$tmat4x4@M$0A@@glm@@QEAAAEAU?$tvec4@M$0A@@1@H@Z DD imagerel $LN4
	DD	imagerel $LN4+81
	DD	imagerel $unwind$??A?$tmat4x4@M$0A@@glm@@QEAAAEAU?$tvec4@M$0A@@1@H@Z
pdata	ENDS
;	COMDAT pdata
pdata	SEGMENT
$pdata$??$ortho@M@glm@@YA?AU?$tmat4x4@M$0A@@0@MMMMMM@Z DD imagerel $LN3
	DD	imagerel $LN3+106
	DD	imagerel $unwind$??$ortho@M@glm@@YA?AU?$tmat4x4@M$0A@@0@MMMMMM@Z
pdata	ENDS
;	COMDAT pdata
pdata	SEGMENT
$pdata$??R?$_Func_class@PEAVScene@1Application@@$$V@std@@QEBAPEAVScene@2Application@@XZ DD imagerel $LN4
	DD	imagerel $LN4+69
	DD	imagerel $unwind$??R?$_Func_class@PEAVScene@1Application@@$$V@std@@QEBAPEAVScene@2Application@@XZ
pdata	ENDS
;	COMDAT pdata
pdata	SEGMENT
$pdata$??1?$_Func_class@PEAVScene@1Application@@$$V@std@@QEAA@XZ DD imagerel $LN3
	DD	imagerel $LN3+30
	DD	imagerel $unwind$??1?$_Func_class@PEAVScene@1Application@@$$V@std@@QEAA@XZ
pdata	ENDS
;	COMDAT pdata
pdata	SEGMENT
$pdata$?_Empty@?$_Func_class@PEAVScene@1Application@@$$V@std@@IEBA_NXZ DD imagerel $LN5
	DD	imagerel $LN5+55
	DD	imagerel $unwind$?_Empty@?$_Func_class@PEAVScene@1Application@@$$V@std@@IEBA_NXZ
pdata	ENDS
;	COMDAT pdata
pdata	SEGMENT
$pdata$?_Tidy@?$_Func_class@PEAVScene@1Application@@$$V@std@@IEAAXXZ DD imagerel $LN6
	DD	imagerel $LN6+105
	DD	imagerel $unwind$?_Tidy@?$_Func_class@PEAVScene@1Application@@$$V@std@@IEAAXXZ
pdata	ENDS
;	COMDAT pdata
pdata	SEGMENT
$pdata$?_Local@?$_Func_class@PEAVScene@1Application@@$$V@std@@AEBA_NXZ DD imagerel $LN5
	DD	imagerel $LN5+72
	DD	imagerel $unwind$?_Local@?$_Func_class@PEAVScene@1Application@@$$V@std@@AEBA_NXZ
pdata	ENDS
;	COMDAT pdata
pdata	SEGMENT
$pdata$?_Getimpl@?$_Func_class@PEAVScene@1Application@@$$V@std@@AEBAPEAV?$_Func_base@PEAVScene@1Application@@$$V@2@XZ DD imagerel $LN3
	DD	imagerel $LN3+36
	DD	imagerel $unwind$?_Getimpl@?$_Func_class@PEAVScene@1Application@@$$V@std@@AEBAPEAV?$_Func_base@PEAVScene@1Application@@$$V@2@XZ
pdata	ENDS
;	COMDAT pdata
pdata	SEGMENT
$pdata$?_Set@?$_Func_class@PEAVScene@1Application@@$$V@std@@AEAAXPEAV?$_Func_base@PEAVScene@1Application@@$$V@2@@Z DD imagerel $LN3
	DD	imagerel $LN3+45
	DD	imagerel $unwind$?_Set@?$_Func_class@PEAVScene@1Application@@$$V@std@@AEAAXPEAV?$_Func_base@PEAVScene@1Application@@$$V@2@@Z
pdata	ENDS
;	COMDAT pdata
pdata	SEGMENT
$pdata$?_Getspace@?$_Func_class@PEAVScene@1Application@@$$V@std@@AEBAPEBXXZ DD imagerel $LN3
	DD	imagerel $LN3+23
	DD	imagerel $unwind$?_Getspace@?$_Func_class@PEAVScene@1Application@@$$V@std@@AEBAPEBXXZ
pdata	ENDS
;	COMDAT pdata
pdata	SEGMENT
$pdata$??1?$function@$$A6APEAVScene@1Application@@XZ@std@@QEAA@XZ DD imagerel $LN3
	DD	imagerel $LN3+30
	DD	imagerel $unwind$??1?$function@$$A6APEAVScene@1Application@@XZ@std@@QEAA@XZ
pdata	ENDS
;	COMDAT pdata
pdata	SEGMENT
$pdata$??1?$pair@PEBDV?$function@$$A6APEAVScene@1Application@@XZ@std@@@std@@QEAA@XZ DD imagerel $LN3
	DD	imagerel $LN3+37
	DD	imagerel $unwind$??1?$pair@PEBDV?$function@$$A6APEAVScene@1Application@@XZ@std@@@std@@QEAA@XZ
pdata	ENDS
;	COMDAT pdata
pdata	SEGMENT
$pdata$??_G?$pair@PEBDV?$function@$$A6APEAVScene@1Application@@XZ@std@@@std@@QEAAPEAXI@Z DD imagerel $LN4
	DD	imagerel $LN4+62
	DD	imagerel $unwind$??_G?$pair@PEBDV?$function@$$A6APEAVScene@1Application@@XZ@std@@@std@@QEAAPEAXI@Z
pdata	ENDS
;	COMDAT pdata
pdata	SEGMENT
$pdata$??$move@AEAUBufferElement@buffers@core@@@std@@YA$$QEAUBufferElement@buffers@core@@AEAU123@@Z DD imagerel $LN3
	DD	imagerel $LN3+23
	DD	imagerel $unwind$??$move@AEAUBufferElement@buffers@core@@@std@@YA$$QEAUBufferElement@buffers@core@@AEAU123@@Z
pdata	ENDS
;	COMDAT pdata
pdata	SEGMENT
$pdata$??$emplace_back@UBufferElement@buffers@core@@@?$vector@UBufferElement@buffers@core@@V?$allocator@UBufferElement@buffers@core@@@std@@@std@@QEAA@$$QEAUBufferElement@buffers@core@@@Z DD imagerel $LN4
	DD	imagerel $LN4+110
	DD	imagerel $unwind$??$emplace_back@UBufferElement@buffers@core@@@?$vector@UBufferElement@buffers@core@@V?$allocator@UBufferElement@buffers@core@@@std@@@std@@QEAA@$$QEAUBufferElement@buffers@core@@@Z
pdata	ENDS
;	COMDAT pdata
pdata	SEGMENT
$pdata$??$forward@UBufferElement@buffers@core@@@std@@YA$$QEAUBufferElement@buffers@core@@AEAU123@@Z DD imagerel $LN3
	DD	imagerel $LN3+23
	DD	imagerel $unwind$??$forward@UBufferElement@buffers@core@@@std@@YA$$QEAUBufferElement@buffers@core@@AEAU123@@Z
pdata	ENDS
;	COMDAT pdata
pdata	SEGMENT
$pdata$??$_Emplace_back_with_unused_capacity@UBufferElement@buffers@core@@@?$vector@UBufferElement@buffers@core@@V?$allocator@UBufferElement@buffers@core@@@std@@@std@@AEAA@$$QEAUBufferElement@buffers@core@@@Z DD imagerel $LN3
	DD	imagerel $LN3+182
	DD	imagerel $unwind$??$_Emplace_back_with_unused_capacity@UBufferElement@buffers@core@@@?$vector@UBufferElement@buffers@core@@V?$allocator@UBufferElement@buffers@core@@@std@@@std@@AEAA@$$QEAUBufferElement@buffers@core@@@Z
pdata	ENDS
;	COMDAT pdata
pdata	SEGMENT
$pdata$??$_Unfancy@UBufferElement@buffers@core@@@std@@YAPEAUBufferElement@buffers@core@@PEAU123@@Z DD imagerel $LN3
	DD	imagerel $LN3+23
	DD	imagerel $unwind$??$_Unfancy@UBufferElement@buffers@core@@@std@@YAPEAUBufferElement@buffers@core@@PEAU123@@Z
pdata	ENDS
;	COMDAT pdata
pdata	SEGMENT
$pdata$??$construct@UBufferElement@buffers@core@@U123@@?$_Default_allocator_traits@V?$allocator@UBufferElement@buffers@core@@@std@@@std@@SAXAEAV?$allocator@UBufferElement@buffers@core@@@1@QEAUBufferElement@buffers@core@@$$QEAU345@@Z DD imagerel $LN3
	DD	imagerel $LN3+79
	DD	imagerel $unwind$??$construct@UBufferElement@buffers@core@@U123@@?$_Default_allocator_traits@V?$allocator@UBufferElement@buffers@core@@@std@@@std@@SAXAEAV?$allocator@UBufferElement@buffers@core@@@1@QEAUBufferElement@buffers@core@@$$QEAU345@@Z
pdata	ENDS
;	COMDAT pdata
pdata	SEGMENT
$pdata$??$_Emplace_reallocate@UBufferElement@buffers@core@@@?$vector@UBufferElement@buffers@core@@V?$allocator@UBufferElement@buffers@core@@@std@@@std@@QEAAPEAUBufferElement@buffers@core@@QEAU234@$$QEAU234@@Z DD imagerel $LN13
	DD	imagerel $LN13+560
	DD	imagerel $unwind$??$_Emplace_reallocate@UBufferElement@buffers@core@@@?$vector@UBufferElement@buffers@core@@V?$allocator@UBufferElement@buffers@core@@@std@@@std@@QEAAPEAUBufferElement@buffers@core@@QEAU234@$$QEAU234@@Z
pdata	ENDS
;	COMDAT pdata
pdata	SEGMENT
$pdata$?catch$0@?0???$_Emplace_reallocate@UBufferElement@buffers@core@@@?$vector@UBufferElement@buffers@core@@V?$allocator@UBufferElement@buffers@core@@@std@@@std@@QEAAPEAUBufferElement@buffers@core@@QEAU234@$$QEAU234@@Z@4HA DD imagerel ?catch$0@?0???$_Emplace_reallocate@UBufferElement@buffers@core@@@?$vector@UBufferElement@buffers@core@@V?$allocator@UBufferElement@buffers@core@@@std@@@std@@QEAAPEAUBufferElement@buffers@core@@QEAU234@$$QEAU234@@Z@4HA
	DD	imagerel ?catch$0@?0???$_Emplace_reallocate@UBufferElement@buffers@core@@@?$vector@UBufferElement@buffers@core@@V?$allocator@UBufferElement@buffers@core@@@std@@@std@@QEAAPEAUBufferElement@buffers@core@@QEAU234@$$QEAU234@@Z@4HA+75
	DD	imagerel $unwind$?catch$0@?0???$_Emplace_reallocate@UBufferElement@buffers@core@@@?$vector@UBufferElement@buffers@core@@V?$allocator@UBufferElement@buffers@core@@@std@@@std@@QEAAPEAUBufferElement@buffers@core@@QEAU234@$$QEAU234@@Z@4HA
pdata	ENDS
;	COMDAT pdata
pdata	SEGMENT
$pdata$??$_Unfancy@D@std@@YAPEADPEAD@Z DD imagerel $LN3
	DD	imagerel $LN3+23
	DD	imagerel $unwind$??$_Unfancy@D@std@@YAPEADPEAD@Z
pdata	ENDS
;	COMDAT pdata
pdata	SEGMENT
$pdata$??$?0$$V@?$_Compressed_pair@V?$allocator@U?$pair@PEBDV?$function@$$A6APEAVScene@1Application@@XZ@std@@@std@@@std@@V?$_Vector_val@U?$_Simple_types@U?$pair@PEBDV?$function@$$A6APEAVScene@1Application@@XZ@std@@@std@@@std@@@2@$00@std@@QEAA@U_Zero_then_variadic_args_t@1@@Z DD imagerel $LN3
	DD	imagerel $LN3+50
	DD	imagerel $unwind$??$?0$$V@?$_Compressed_pair@V?$allocator@U?$pair@PEBDV?$function@$$A6APEAVScene@1Application@@XZ@std@@@std@@@std@@V?$_Vector_val@U?$_Simple_types@U?$pair@PEBDV?$function@$$A6APEAVScene@1Application@@XZ@std@@@std@@@std@@@2@$00@std@@QEAA@U_Zero_then_variadic_args_t@1@@Z
pdata	ENDS
;	COMDAT pdata
pdata	SEGMENT
$pdata$??$?0$$V@?$_Compressed_pair@V?$allocator@UBufferElement@buffers@core@@@std@@V?$_Vector_val@U?$_Simple_types@UBufferElement@buffers@core@@@std@@@2@$00@std@@QEAA@U_Zero_then_variadic_args_t@1@@Z DD imagerel $LN3
	DD	imagerel $LN3+50
	DD	imagerel $unwind$??$?0$$V@?$_Compressed_pair@V?$allocator@UBufferElement@buffers@core@@@std@@V?$_Vector_val@U?$_Simple_types@UBufferElement@buffers@core@@@std@@@2@$00@std@@QEAA@U_Zero_then_variadic_args_t@1@@Z
pdata	ENDS
;	COMDAT pdata
pdata	SEGMENT
$pdata$??$?0$$V@?$_Compressed_pair@V?$allocator@D@std@@V?$_String_val@U?$_Simple_types@D@std@@@2@$00@std@@QEAA@U_Zero_then_variadic_args_t@1@@Z DD imagerel $LN4
	DD	imagerel $LN4+50
	DD	imagerel $unwind$??$?0$$V@?$_Compressed_pair@V?$allocator@D@std@@V?$_String_val@U?$_Simple_types@D@std@@@2@$00@std@@QEAA@U_Zero_then_variadic_args_t@1@@Z
pdata	ENDS
;	COMDAT pdata
pdata	SEGMENT
$pdata$??$addressof@PEAD@std@@YAPEAPEADAEAPEAD@Z DD imagerel $LN3
	DD	imagerel $LN3+23
	DD	imagerel $unwind$??$addressof@PEAD@std@@YAPEAPEADAEAPEAD@Z
pdata	ENDS
;	COMDAT pdata
pdata	SEGMENT
$pdata$??$destroy@PEAD@?$_Default_allocator_traits@V?$allocator@D@std@@@std@@SAXAEAV?$allocator@D@1@QEAPEAD@Z DD imagerel $LN3
	DD	imagerel $LN3+24
	DD	imagerel $unwind$??$destroy@PEAD@?$_Default_allocator_traits@V?$allocator@D@std@@@std@@SAXAEAV?$allocator@D@1@QEAPEAD@Z
pdata	ENDS
;	COMDAT pdata
pdata	SEGMENT
$pdata$??$_Max_value@_K@std@@YAAEB_KAEB_K0@Z DD imagerel $LN5
	DD	imagerel $LN5+70
	DD	imagerel $unwind$??$_Max_value@_K@std@@YAAEB_KAEB_K0@Z
pdata	ENDS
;	COMDAT pdata
pdata	SEGMENT
$pdata$??R<lambda_66f57f934f28d61049862f64df852ff0>@@QEBAXQEAD_KQEBD@Z DD imagerel ??R<lambda_66f57f934f28d61049862f64df852ff0>@@QEBAXQEAD_KQEBD@Z
	DD	imagerel ??R<lambda_66f57f934f28d61049862f64df852ff0>@@QEBAXQEAD_KQEBD@Z+83
	DD	imagerel $unwind$??R<lambda_66f57f934f28d61049862f64df852ff0>@@QEBAXQEAD_KQEBD@Z
pdata	ENDS
;	COMDAT pdata
pdata	SEGMENT
$pdata$??$_Reallocate_for@V<lambda_66f57f934f28d61049862f64df852ff0>@@PEBD@?$basic_string@DU?$char_traits@D@std@@V?$allocator@D@2@@std@@QEAAAEAV01@_KV<lambda_66f57f934f28d61049862f64df852ff0>@@PEBD@Z DD imagerel ??$_Reallocate_for@V<lambda_66f57f934f28d61049862f64df852ff0>@@PEBD@?$basic_string@DU?$char_traits@D@std@@V?$allocator@D@2@@std@@QEAAAEAV01@_KV<lambda_66f57f934f28d61049862f64df852ff0>@@PEBD@Z
	DD	imagerel ??$_Reallocate_for@V<lambda_66f57f934f28d61049862f64df852ff0>@@PEBD@?$basic_string@DU?$char_traits@D@std@@V?$allocator@D@2@@std@@QEAAAEAV01@_KV<lambda_66f57f934f28d61049862f64df852ff0>@@PEBD@Z+354
	DD	imagerel $unwind$??$_Reallocate_for@V<lambda_66f57f934f28d61049862f64df852ff0>@@PEBD@?$basic_string@DU?$char_traits@D@std@@V?$allocator@D@2@@std@@QEAAAEAV01@_KV<lambda_66f57f934f28d61049862f64df852ff0>@@PEBD@Z
pdata	ENDS
;	COMDAT pdata
pdata	SEGMENT
$pdata$??$construct@PEADAEBQEAD@?$_Default_allocator_traits@V?$allocator@D@std@@@std@@SAXAEAV?$allocator@D@1@QEAPEADAEBQEAD@Z DD imagerel $LN3
	DD	imagerel $LN3+68
	DD	imagerel $unwind$??$construct@PEADAEBQEAD@?$_Default_allocator_traits@V?$allocator@D@std@@@std@@SAXAEAV?$allocator@D@1@QEAPEADAEBQEAD@Z
pdata	ENDS
;	COMDAT pdata
pdata	SEGMENT
$pdata$??$addressof@V?$_String_val@U?$_Simple_types@D@std@@@std@@@std@@YAPEAV?$_String_val@U?$_Simple_types@D@std@@@0@AEAV10@@Z DD imagerel $LN3
	DD	imagerel $LN3+23
	DD	imagerel $unwind$??$addressof@V?$_String_val@U?$_Simple_types@D@std@@@std@@@std@@YAPEAV?$_String_val@U?$_Simple_types@D@std@@@0@AEAV10@@Z
pdata	ENDS
;	COMDAT pdata
pdata	SEGMENT
$pdata$??$_Allocate@$0BA@U_Default_allocate_traits@std@@$0A@@std@@YAPEAX_K@Z DD imagerel $LN5
	DD	imagerel $LN5+62
	DD	imagerel $unwind$??$_Allocate@$0BA@U_Default_allocate_traits@std@@$0A@@std@@YAPEAX_K@Z
pdata	ENDS
;	COMDAT pdata
pdata	SEGMENT
$pdata$??$_Deallocate@$0BA@$0A@@std@@YAXPEAX_K@Z DD imagerel $LN4
	DD	imagerel $LN4+62
	DD	imagerel $unwind$??$_Deallocate@$0BA@$0A@@std@@YAXPEAX_K@Z
pdata	ENDS
;	COMDAT pdata
pdata	SEGMENT
$pdata$?allocate@?$allocator@U_Container_proxy@std@@@std@@QEAAPEAU_Container_proxy@2@_K@Z DD imagerel $LN3
	DD	imagerel $LN3+43
	DD	imagerel $unwind$?allocate@?$allocator@U_Container_proxy@std@@@std@@QEAAPEAU_Container_proxy@2@_K@Z
pdata	ENDS
;	COMDAT pdata
pdata	SEGMENT
$pdata$??$?0U?$pair@PEBDV?$function@$$A6APEAVScene@1Application@@XZ@std@@@std@@@?$allocator@U_Container_proxy@std@@@std@@QEAA@AEBV?$allocator@U?$pair@PEBDV?$function@$$A6APEAVScene@1Application@@XZ@std@@@std@@@1@@Z DD imagerel $LN3
	DD	imagerel $LN3+28
	DD	imagerel $unwind$??$?0U?$pair@PEBDV?$function@$$A6APEAVScene@1Application@@XZ@std@@@std@@@?$allocator@U_Container_proxy@std@@@std@@QEAA@AEBV?$allocator@U?$pair@PEBDV?$function@$$A6APEAVScene@1Application@@XZ@std@@@std@@@1@@Z
pdata	ENDS
;	COMDAT pdata
pdata	SEGMENT
$pdata$?deallocate@?$_Default_allocator_traits@V?$allocator@U_Container_proxy@std@@@std@@@std@@SAXAEAV?$allocator@U_Container_proxy@std@@@2@QEAU_Container_proxy@2@_K@Z DD imagerel $LN3
	DD	imagerel $LN3+48
	DD	imagerel $unwind$?deallocate@?$_Default_allocator_traits@V?$allocator@U_Container_proxy@std@@@std@@@std@@SAXAEAV?$allocator@U_Container_proxy@std@@@2@QEAU_Container_proxy@2@_K@Z
pdata	ENDS
;	COMDAT pdata
pdata	SEGMENT
$pdata$??$destroy@U_Container_proxy@std@@@?$_Default_allocator_traits@V?$allocator@U_Container_proxy@std@@@std@@@std@@SAXAEAV?$allocator@U_Container_proxy@std@@@1@QEAU_Container_proxy@1@@Z DD imagerel $LN3
	DD	imagerel $LN3+24
	DD	imagerel $unwind$??$destroy@U_Container_proxy@std@@@?$_Default_allocator_traits@V?$allocator@U_Container_proxy@std@@@std@@@std@@SAXAEAV?$allocator@U_Container_proxy@std@@@1@QEAU_Container_proxy@1@@Z
pdata	ENDS
;	COMDAT pdata
pdata	SEGMENT
$pdata$??$_Deallocate_plain@V?$allocator@U_Container_proxy@std@@@std@@$0A@@std@@YAXAEAV?$allocator@U_Container_proxy@std@@@0@QEAU_Container_proxy@0@@Z DD imagerel $LN3
	DD	imagerel $LN3+45
	DD	imagerel $unwind$??$_Deallocate_plain@V?$allocator@U_Container_proxy@std@@@std@@$0A@@std@@YAXAEAV?$allocator@U_Container_proxy@std@@@0@QEAU_Container_proxy@0@@Z
pdata	ENDS
;	COMDAT pdata
pdata	SEGMENT
$pdata$??$_Unfancy@U_Container_proxy@std@@@std@@YAPEAU_Container_proxy@0@PEAU10@@Z DD imagerel $LN3
	DD	imagerel $LN3+23
	DD	imagerel $unwind$??$_Unfancy@U_Container_proxy@std@@@std@@YAPEAU_Container_proxy@0@PEAU10@@Z
pdata	ENDS
;	COMDAT pdata
pdata	SEGMENT
$pdata$??$construct@U_Container_proxy@std@@U12@@?$_Default_allocator_traits@V?$allocator@U_Container_proxy@std@@@std@@@std@@SAXAEAV?$allocator@U_Container_proxy@std@@@1@QEAU_Container_proxy@1@$$QEAU31@@Z DD imagerel $LN3
	DD	imagerel $LN3+79
	DD	imagerel $unwind$??$construct@U_Container_proxy@std@@U12@@?$_Default_allocator_traits@V?$allocator@U_Container_proxy@std@@@std@@@std@@SAXAEAV?$allocator@U_Container_proxy@std@@@1@QEAU_Container_proxy@1@$$QEAU31@@Z
pdata	ENDS
;	COMDAT pdata
pdata	SEGMENT
$pdata$??$addressof@V?$_Vector_val@U?$_Simple_types@U?$pair@PEBDV?$function@$$A6APEAVScene@1Application@@XZ@std@@@std@@@std@@@std@@@std@@YAPEAV?$_Vector_val@U?$_Simple_types@U?$pair@PEBDV?$function@$$A6APEAVScene@1Application@@XZ@std@@@std@@@std@@@0@AEAV10@@Z DD imagerel $LN3
	DD	imagerel $LN3+23
	DD	imagerel $unwind$??$addressof@V?$_Vector_val@U?$_Simple_types@U?$pair@PEBDV?$function@$$A6APEAVScene@1Application@@XZ@std@@@std@@@std@@@std@@@std@@YAPEAV?$_Vector_val@U?$_Simple_types@U?$pair@PEBDV?$function@$$A6APEAVScene@1Application@@XZ@std@@@std@@@std@@@0@AEAV10@@Z
pdata	ENDS
;	COMDAT pdata
pdata	SEGMENT
$pdata$??$_Destroy_range@V?$allocator@U?$pair@PEBDV?$function@$$A6APEAVScene@1Application@@XZ@std@@@std@@@std@@@std@@YAXPEAU?$pair@PEBDV?$function@$$A6APEAVScene@1Application@@XZ@std@@@0@0AEAV?$allocator@U?$pair@PEBDV?$function@$$A6APEAVScene@1Application@@XZ@std@@@std@@@0@@Z DD imagerel $LN3
	DD	imagerel $LN3+53
	DD	imagerel $unwind$??$_Destroy_range@V?$allocator@U?$pair@PEBDV?$function@$$A6APEAVScene@1Application@@XZ@std@@@std@@@std@@@std@@YAXPEAU?$pair@PEBDV?$function@$$A6APEAVScene@1Application@@XZ@std@@@0@0AEAV?$allocator@U?$pair@PEBDV?$function@$$A6APEAVScene@1Application@@XZ@std@@@std@@@0@@Z
pdata	ENDS
;	COMDAT pdata
pdata	SEGMENT
$pdata$??$?0UBufferElement@buffers@core@@@?$allocator@U_Container_proxy@std@@@std@@QEAA@AEBV?$allocator@UBufferElement@buffers@core@@@1@@Z DD imagerel $LN3
	DD	imagerel $LN3+28
	DD	imagerel $unwind$??$?0UBufferElement@buffers@core@@@?$allocator@U_Container_proxy@std@@@std@@QEAA@AEBV?$allocator@UBufferElement@buffers@core@@@1@@Z
pdata	ENDS
;	COMDAT pdata
pdata	SEGMENT
$pdata$??$addressof@V?$_Vector_val@U?$_Simple_types@UBufferElement@buffers@core@@@std@@@std@@@std@@YAPEAV?$_Vector_val@U?$_Simple_types@UBufferElement@buffers@core@@@std@@@0@AEAV10@@Z DD imagerel $LN3
	DD	imagerel $LN3+23
	DD	imagerel $unwind$??$addressof@V?$_Vector_val@U?$_Simple_types@UBufferElement@buffers@core@@@std@@@std@@@std@@YAPEAV?$_Vector_val@U?$_Simple_types@UBufferElement@buffers@core@@@std@@@0@AEAV10@@Z
pdata	ENDS
;	COMDAT pdata
pdata	SEGMENT
$pdata$??$_Destroy_range@V?$allocator@UBufferElement@buffers@core@@@std@@@std@@YAXPEAUBufferElement@buffers@core@@0AEAV?$allocator@UBufferElement@buffers@core@@@0@@Z DD imagerel $LN3
	DD	imagerel $LN3+53
	DD	imagerel $unwind$??$_Destroy_range@V?$allocator@UBufferElement@buffers@core@@@std@@@std@@YAXPEAUBufferElement@buffers@core@@0AEAV?$allocator@UBufferElement@buffers@core@@@0@@Z
pdata	ENDS
;	COMDAT pdata
pdata	SEGMENT
$pdata$??$?0D@?$allocator@U_Container_proxy@std@@@std@@QEAA@AEBV?$allocator@D@1@@Z DD imagerel $LN3
	DD	imagerel $LN3+28
	DD	imagerel $unwind$??$?0D@?$allocator@U_Container_proxy@std@@@std@@QEAA@AEBV?$allocator@D@1@@Z
pdata	ENDS
;	COMDAT pdata
pdata	SEGMENT
$pdata$??$_Get_size_of_n@$0BA@@std@@YA_K_K@Z DD imagerel $LN4
	DD	imagerel $LN4+70
	DD	imagerel $unwind$??$_Get_size_of_n@$0BA@@std@@YA_K_K@Z
pdata	ENDS
;	COMDAT pdata
pdata	SEGMENT
$pdata$??$orthoRH@M@glm@@YA?AU?$tmat4x4@M$0A@@0@MMMMMM@Z DD imagerel $LN3
	DD	imagerel $LN3+636
	DD	imagerel $unwind$??$orthoRH@M@glm@@YA?AU?$tmat4x4@M$0A@@0@MMMMMM@Z
pdata	ENDS
;	COMDAT pdata
pdata	SEGMENT
$pdata$??$forward@AEBQEAD@std@@YAAEBQEADAEBQEAD@Z DD imagerel $LN3
	DD	imagerel $LN3+23
	DD	imagerel $unwind$??$forward@AEBQEAD@std@@YAAEBQEADAEBQEAD@Z
pdata	ENDS
;	COMDAT pdata
pdata	SEGMENT
$pdata$??$_Allocate_manually_vector_aligned@U_Default_allocate_traits@std@@@std@@YAPEAX_K@Z DD imagerel $LN7
	DD	imagerel $LN7+261
	DD	imagerel $unwind$??$_Allocate_manually_vector_aligned@U_Default_allocate_traits@std@@@std@@YAPEAX_K@Z
pdata	ENDS
;	COMDAT pdata
pdata	SEGMENT
$pdata$??$forward@U_Container_proxy@std@@@std@@YA$$QEAU_Container_proxy@0@AEAU10@@Z DD imagerel $LN3
	DD	imagerel $LN3+23
	DD	imagerel $unwind$??$forward@U_Container_proxy@std@@@std@@YA$$QEAU_Container_proxy@0@AEAU10@@Z
pdata	ENDS
;	COMDAT pdata
pdata	SEGMENT
$pdata$??$_Destroy_range1@V?$allocator@U?$pair@PEBDV?$function@$$A6APEAVScene@1Application@@XZ@std@@@std@@@std@@@std@@YAXPEAU?$pair@PEBDV?$function@$$A6APEAVScene@1Application@@XZ@std@@@0@0AEAV?$allocator@U?$pair@PEBDV?$function@$$A6APEAVScene@1Application@@XZ@std@@@std@@@0@U?$integral_constant@_N$0A@@0@@Z DD imagerel $LN6
	DD	imagerel $LN6+83
	DD	imagerel $unwind$??$_Destroy_range1@V?$allocator@U?$pair@PEBDV?$function@$$A6APEAVScene@1Application@@XZ@std@@@std@@@std@@@std@@YAXPEAU?$pair@PEBDV?$function@$$A6APEAVScene@1Application@@XZ@std@@@0@0AEAV?$allocator@U?$pair@PEBDV?$function@$$A6APEAVScene@1Application@@XZ@std@@@std@@@0@U?$integral_constant@_N$0A@@0@@Z
pdata	ENDS
;	COMDAT pdata
pdata	SEGMENT
$pdata$??$_Destroy_range1@V?$allocator@UBufferElement@buffers@core@@@std@@@std@@YAXPEAUBufferElement@buffers@core@@0AEAV?$allocator@UBufferElement@buffers@core@@@0@U?$integral_constant@_N$00@0@@Z DD imagerel $LN3
	DD	imagerel $LN3+34
	DD	imagerel $unwind$??$_Destroy_range1@V?$allocator@UBufferElement@buffers@core@@@std@@@std@@YAXPEAUBufferElement@buffers@core@@0AEAV?$allocator@UBufferElement@buffers@core@@@0@U?$integral_constant@_N$00@0@@Z
pdata	ENDS
;	COMDAT pdata
pdata	SEGMENT
$pdata$??$_Uninitialized_move@PEAUBufferElement@buffers@core@@PEAU123@V?$allocator@UBufferElement@buffers@core@@@std@@@std@@YAPEAUBufferElement@buffers@core@@QEAU123@0PEAU123@AEAV?$allocator@UBufferElement@buffers@core@@@0@@Z DD imagerel $LN3
	DD	imagerel $LN3+187
	DD	imagerel $unwind$??$_Uninitialized_move@PEAUBufferElement@buffers@core@@PEAU123@V?$allocator@UBufferElement@buffers@core@@@std@@@std@@YAPEAUBufferElement@buffers@core@@QEAU123@0PEAU123@AEAV?$allocator@UBufferElement@buffers@core@@@0@@Z
pdata	ENDS
;	COMDAT pdata
pdata	SEGMENT
$pdata$??$_Get_size_of_n@$0M@@std@@YA_K_K@Z DD imagerel $LN4
	DD	imagerel $LN4+70
	DD	imagerel $unwind$??$_Get_size_of_n@$0M@@std@@YA_K_K@Z
pdata	ENDS
;	COMDAT pdata
pdata	SEGMENT
$pdata$??$_Unfancy@U?$pair@PEBDV?$function@$$A6APEAVScene@1Application@@XZ@std@@@std@@@std@@YAPEAU?$pair@PEBDV?$function@$$A6APEAVScene@1Application@@XZ@std@@@0@PEAU10@@Z DD imagerel $LN3
	DD	imagerel $LN3+23
	DD	imagerel $unwind$??$_Unfancy@U?$pair@PEBDV?$function@$$A6APEAVScene@1Application@@XZ@std@@@std@@@std@@YAPEAU?$pair@PEBDV?$function@$$A6APEAVScene@1Application@@XZ@std@@@0@PEAU10@@Z
pdata	ENDS
;	COMDAT pdata
pdata	SEGMENT
$pdata$??$destroy@U?$pair@PEBDV?$function@$$A6APEAVScene@1Application@@XZ@std@@@std@@@?$_Default_allocator_traits@V?$allocator@U?$pair@PEBDV?$function@$$A6APEAVScene@1Application@@XZ@std@@@std@@@std@@@std@@SAXAEAV?$allocator@U?$pair@PEBDV?$function@$$A6APEAVScene@1Application@@XZ@std@@@std@@@1@QEAU?$pair@PEBDV?$function@$$A6APEAVScene@1Application@@XZ@std@@@1@@Z DD imagerel $LN3
	DD	imagerel $LN3+37
	DD	imagerel $unwind$??$destroy@U?$pair@PEBDV?$function@$$A6APEAVScene@1Application@@XZ@std@@@std@@@?$_Default_allocator_traits@V?$allocator@U?$pair@PEBDV?$function@$$A6APEAVScene@1Application@@XZ@std@@@std@@@std@@@std@@SAXAEAV?$allocator@U?$pair@PEBDV?$function@$$A6APEAVScene@1Application@@XZ@std@@@std@@@1@QEAU?$pair@PEBDV?$function@$$A6APEAVScene@1Application@@XZ@std@@@1@@Z
pdata	ENDS
;	COMDAT pdata
pdata	SEGMENT
$pdata$??$_Unchecked@PEAUBufferElement@buffers@core@@@std@@YAPEAUBufferElement@buffers@core@@PEAU123@@Z DD imagerel $LN3
	DD	imagerel $LN3+23
	DD	imagerel $unwind$??$_Unchecked@PEAUBufferElement@buffers@core@@@std@@YAPEAUBufferElement@buffers@core@@PEAU123@@Z
pdata	ENDS
;	COMDAT pdata
pdata	SEGMENT
$pdata$??$_Ptr_move_cat@UBufferElement@buffers@core@@U123@@std@@YA?AU_Really_trivial_ptr_iterator_tag@0@AEBQEAUBufferElement@buffers@core@@0@Z DD imagerel $LN3
	DD	imagerel $LN3+33
	DD	imagerel $unwind$??$_Ptr_move_cat@UBufferElement@buffers@core@@U123@@std@@YA?AU_Really_trivial_ptr_iterator_tag@0@AEBQEAUBufferElement@buffers@core@@0@Z
pdata	ENDS
;	COMDAT pdata
pdata	SEGMENT
$pdata$??$_Uninitialized_move_al_unchecked@UBufferElement@buffers@core@@U123@V?$allocator@UBufferElement@buffers@core@@@std@@@std@@YAPEAUBufferElement@buffers@core@@QEAU123@00AEAV?$allocator@UBufferElement@buffers@core@@@0@U_Really_trivial_ptr_iterator_tag@0@U?$integral_constant@_N$00@0@@Z DD imagerel $LN3
	DD	imagerel $LN3+53
	DD	imagerel $unwind$??$_Uninitialized_move_al_unchecked@UBufferElement@buffers@core@@U123@V?$allocator@UBufferElement@buffers@core@@@std@@@std@@YAPEAUBufferElement@buffers@core@@QEAU123@00AEAV?$allocator@UBufferElement@buffers@core@@@0@U_Really_trivial_ptr_iterator_tag@0@U?$integral_constant@_N$00@0@@Z
pdata	ENDS
;	COMDAT pdata
pdata	SEGMENT
$pdata$??$_Rechecked@PEAUBufferElement@buffers@core@@PEAU123@@std@@YAAEAPEAUBufferElement@buffers@core@@AEAPEAU123@QEAU123@@Z DD imagerel $LN3
	DD	imagerel $LN3+39
	DD	imagerel $unwind$??$_Rechecked@PEAUBufferElement@buffers@core@@PEAU123@@std@@YAAEAPEAUBufferElement@buffers@core@@AEAPEAU123@QEAU123@@Z
pdata	ENDS
;	COMDAT pdata
pdata	SEGMENT
$pdata$??$?0MHHH@?$tvec4@M$0A@@glm@@QEAA@MHHH@Z DD imagerel $LN3
	DD	imagerel $LN3+94
	DD	imagerel $unwind$??$?0MHHH@?$tvec4@M$0A@@glm@@QEAA@MHHH@Z
pdata	ENDS
;	COMDAT pdata
pdata	SEGMENT
$pdata$??$?0HMHH@?$tvec4@M$0A@@glm@@QEAA@HMHH@Z DD imagerel $LN3
	DD	imagerel $LN3+93
	DD	imagerel $unwind$??$?0HMHH@?$tvec4@M$0A@@glm@@QEAA@HMHH@Z
pdata	ENDS
;	COMDAT pdata
pdata	SEGMENT
$pdata$??$?0HHMH@?$tvec4@M$0A@@glm@@QEAA@HHMH@Z DD imagerel $LN3
	DD	imagerel $LN3+93
	DD	imagerel $unwind$??$?0HHMH@?$tvec4@M$0A@@glm@@QEAA@HHMH@Z
pdata	ENDS
;	COMDAT pdata
pdata	SEGMENT
$pdata$??$?0HHHM@?$tvec4@M$0A@@glm@@QEAA@HHHM@Z DD imagerel $LN3
	DD	imagerel $LN3+92
	DD	imagerel $unwind$??$?0HHHM@?$tvec4@M$0A@@glm@@QEAA@HHHM@Z
pdata	ENDS
;	COMDAT pdata
pdata	SEGMENT
$pdata$??$_Copy_memmove@PEAUBufferElement@buffers@core@@PEAU123@@std@@YAPEAUBufferElement@buffers@core@@PEAU123@00@Z DD imagerel $LN3
	DD	imagerel $LN3+110
	DD	imagerel $unwind$??$_Copy_memmove@PEAUBufferElement@buffers@core@@PEAU123@@std@@YAPEAUBufferElement@buffers@core@@PEAU123@00@Z
pdata	ENDS
;	COMDAT __xmm@80000000800000008000000080000000
CONST	SEGMENT
__xmm@80000000800000008000000080000000 DB 00H, 00H, 00H, 080H, 00H, 00H, 00H
	DB	080H, 00H, 00H, 00H, 080H, 00H, 00H, 00H, 080H
CONST	ENDS
;	COMDAT __real@c1000000
CONST	SEGMENT
__real@c1000000 DD 0c1000000r			; -8
CONST	ENDS
;	COMDAT __real@c0900000
CONST	SEGMENT
__real@c0900000 DD 0c0900000r			; -4.5
CONST	ENDS
;	COMDAT __real@c0800000
CONST	SEGMENT
__real@c0800000 DD 0c0800000r			; -4
CONST	ENDS
;	COMDAT __real@c0000000
CONST	SEGMENT
__real@c0000000 DD 0c0000000r			; -2
CONST	ENDS
;	COMDAT __real@bf800000
CONST	SEGMENT
__real@bf800000 DD 0bf800000r			; -1
CONST	ENDS
;	COMDAT __real@41000000
CONST	SEGMENT
__real@41000000 DD 041000000r			; 8
CONST	ENDS
;	COMDAT __real@40900000
CONST	SEGMENT
__real@40900000 DD 040900000r			; 4.5
CONST	ENDS
;	COMDAT __real@40800000
CONST	SEGMENT
__real@40800000 DD 040800000r			; 4
CONST	ENDS
;	COMDAT __real@40000000
CONST	SEGMENT
__real@40000000 DD 040000000r			; 2
CONST	ENDS
;	COMDAT __real@3f847ae147ae147b
CONST	SEGMENT
__real@3f847ae147ae147b DQ 03f847ae147ae147br	; 0.01
CONST	ENDS
;	COMDAT __real@3f800000
CONST	SEGMENT
__real@3f800000 DD 03f800000r			; 1
CONST	ENDS
;	COMDAT rtc$TMZ
rtc$TMZ	SEGMENT
_RTC_Shutdown.rtc$TMZ DQ FLAT:_RTC_Shutdown
rtc$TMZ	ENDS
;	COMDAT rtc$IMZ
rtc$IMZ	SEGMENT
_RTC_InitBase.rtc$IMZ DQ FLAT:_RTC_InitBase
rtc$IMZ	ENDS
;	COMDAT ??_R2Scene@0Application@@8
rdata$r	SEGMENT
??_R2Scene@0Application@@8 DD imagerel ??_R1A@?0A@EA@Scene@0Application@@8 ; Application::Scene::Scene::`RTTI Base Class Array'
	ORG $+3
rdata$r	ENDS
;	COMDAT ??_R3Scene@0Application@@8
rdata$r	SEGMENT
??_R3Scene@0Application@@8 DD 00H			; Application::Scene::Scene::`RTTI Class Hierarchy Descriptor'
	DD	00H
	DD	01H
	DD	imagerel ??_R2Scene@0Application@@8
rdata$r	ENDS
;	COMDAT ??_R0?AVScene@0Application@@@8
data$r	SEGMENT
??_R0?AVScene@0Application@@@8 DQ FLAT:??_7type_info@@6B@ ; Application::Scene::Scene `RTTI Type Descriptor'
	DQ	0000000000000000H
	DB	'.?AVScene@0Application@@', 00H
data$r	ENDS
;	COMDAT ??_R1A@?0A@EA@Scene@0Application@@8
rdata$r	SEGMENT
??_R1A@?0A@EA@Scene@0Application@@8 DD imagerel ??_R0?AVScene@0Application@@@8 ; Application::Scene::Scene::`RTTI Base Class Descriptor at (0,-1,0,64)'
	DD	00H
	DD	00H
	DD	0ffffffffH
	DD	00H
	DD	040H
	DD	imagerel ??_R3Scene@0Application@@8
rdata$r	ENDS
;	COMDAT ??_R1A@?0A@EA@MainMenuScene@Scene@Application@@8
rdata$r	SEGMENT
??_R1A@?0A@EA@MainMenuScene@Scene@Application@@8 DD imagerel ??_R0?AVMainMenuScene@Scene@Application@@@8 ; Application::Scene::MainMenuScene::`RTTI Base Class Descriptor at (0,-1,0,64)'
	DD	01H
	DD	00H
	DD	0ffffffffH
	DD	00H
	DD	040H
	DD	imagerel ??_R3MainMenuScene@Scene@Application@@8
rdata$r	ENDS
;	COMDAT ??_R2MainMenuScene@Scene@Application@@8
rdata$r	SEGMENT
??_R2MainMenuScene@Scene@Application@@8 DD imagerel ??_R1A@?0A@EA@MainMenuScene@Scene@Application@@8 ; Application::Scene::MainMenuScene::`RTTI Base Class Array'
	DD	imagerel ??_R1A@?0A@EA@Scene@0Application@@8
	ORG $+3
rdata$r	ENDS
;	COMDAT ??_R3MainMenuScene@Scene@Application@@8
rdata$r	SEGMENT
??_R3MainMenuScene@Scene@Application@@8 DD 00H		; Application::Scene::MainMenuScene::`RTTI Class Hierarchy Descriptor'
	DD	00H
	DD	02H
	DD	imagerel ??_R2MainMenuScene@Scene@Application@@8
rdata$r	ENDS
;	COMDAT ??_R0?AVMainMenuScene@Scene@Application@@@8
data$r	SEGMENT
??_R0?AVMainMenuScene@Scene@Application@@@8 DQ FLAT:??_7type_info@@6B@ ; Application::Scene::MainMenuScene `RTTI Type Descriptor'
	DQ	0000000000000000H
	DB	'.?AVMainMenuScene@Scene@Application@@', 00H
data$r	ENDS
;	COMDAT ??_R4MainMenuScene@Scene@Application@@6B@
rdata$r	SEGMENT
??_R4MainMenuScene@Scene@Application@@6B@ DD 01H	; Application::Scene::MainMenuScene::`RTTI Complete Object Locator'
	DD	00H
	DD	00H
	DD	imagerel ??_R0?AVMainMenuScene@Scene@Application@@@8
	DD	imagerel ??_R3MainMenuScene@Scene@Application@@8
	DD	imagerel ??_R4MainMenuScene@Scene@Application@@6B@
rdata$r	ENDS
;	COMDAT ??_C@_1DK@BGNCJAPL@?$AAi?$AA?5?$AA?$DO?$AA?$DN?$AA?5?$AA0?$AA?5?$AA?$CG?$AA?$CG?$AA?5?$AAi?$AA?5?$AA?$DM?$AA?5?$AAt?$AAh?$AAi?$AAs?$AA?9?$AA?$DO?$AAl?$AAe?$AAn?$AAg?$AAt?$AAh?$AA?$CI?$AA?$CJ?$AA?$AA@
CONST	SEGMENT
??_C@_1DK@BGNCJAPL@?$AAi?$AA?5?$AA?$DO?$AA?$DN?$AA?5?$AA0?$AA?5?$AA?$CG?$AA?$CG?$AA?5?$AAi?$AA?5?$AA?$DM?$AA?5?$AAt?$AAh?$AAi?$AAs?$AA?9?$AA?$DO?$AAl?$AAe?$AAn?$AAg?$AAt?$AAh?$AA?$CI?$AA?$CJ?$AA?$AA@ DB 'i'
	DB	00H, ' ', 00H, '>', 00H, '=', 00H, ' ', 00H, '0', 00H, ' ', 00H
	DB	'&', 00H, '&', 00H, ' ', 00H, 'i', 00H, ' ', 00H, '<', 00H, ' '
	DB	00H, 't', 00H, 'h', 00H, 'i', 00H, 's', 00H, '-', 00H, '>', 00H
	DB	'l', 00H, 'e', 00H, 'n', 00H, 'g', 00H, 't', 00H, 'h', 00H, '('
	DB	00H, ')', 00H, 00H, 00H			; `string'
CONST	ENDS
;	COMDAT ??_C@_1JE@JLGGFMIE@?$AAl?$AA?3?$AA?2?$AAd?$AAe?$AAv?$AA?2?$AAf?$AAe?$AAa?$AAt?$AAh?$AAe?$AAr?$AAf?$AAa?$AAl?$AAl?$AAe?$AAn?$AAg?$AAi?$AAn?$AAe?$AA?2?$AAd?$AAe?$AAp?$AAe?$AAn?$AAd?$AAs@
CONST	SEGMENT
??_C@_1JE@JLGGFMIE@?$AAl?$AA?3?$AA?2?$AAd?$AAe?$AAv?$AA?2?$AAf?$AAe?$AAa?$AAt?$AAh?$AAe?$AAr?$AAf?$AAa?$AAl?$AAl?$AAe?$AAn?$AAg?$AAi?$AAn?$AAe?$AA?2?$AAd?$AAe?$AAp?$AAe?$AAn?$AAd?$AAs@ DB 'l'
	DB	00H, ':', 00H, '\', 00H, 'd', 00H, 'e', 00H, 'v', 00H, '\', 00H
	DB	'f', 00H, 'e', 00H, 'a', 00H, 't', 00H, 'h', 00H, 'e', 00H, 'r'
	DB	00H, 'f', 00H, 'a', 00H, 'l', 00H, 'l', 00H, 'e', 00H, 'n', 00H
	DB	'g', 00H, 'i', 00H, 'n', 00H, 'e', 00H, '\', 00H, 'd', 00H, 'e'
	DB	00H, 'p', 00H, 'e', 00H, 'n', 00H, 'd', 00H, 's', 00H, '\', 00H
	DB	'i', 00H, 'n', 00H, 's', 00H, 't', 00H, 'a', 00H, 'l', 00H, 'l'
	DB	00H, '\', 00H, 'i', 00H, 'n', 00H, 'c', 00H, 'l', 00H, 'u', 00H
	DB	'd', 00H, 'e', 00H, '\', 00H, 'g', 00H, 'l', 00H, 'm', 00H, '\'
	DB	00H, 'd', 00H, 'e', 00H, 't', 00H, 'a', 00H, 'i', 00H, 'l', 00H
	DB	'\', 00H, 't', 00H, 'y', 00H, 'p', 00H, 'e', 00H, '_', 00H, 'v'
	DB	00H, 'e', 00H, 'c', 00H, '4', 00H, '.', 00H, 'i', 00H, 'n', 00H
	DB	'l', 00H, 00H, 00H				; `string'
CONST	ENDS
;	COMDAT ??_C@_1EO@GFNCMDLA@?$AAs?$AAt?$AAd?$AA?3?$AA?3?$AA_?$AAA?$AAl?$AAl?$AAo?$AAc?$AAa?$AAt?$AAe?$AA_?$AAm?$AAa?$AAn?$AAu?$AAa?$AAl?$AAl?$AAy?$AA_?$AAv?$AAe?$AAc?$AAt?$AAo?$AAr?$AA_?$AAa@
CONST	SEGMENT
??_C@_1EO@GFNCMDLA@?$AAs?$AAt?$AAd?$AA?3?$AA?3?$AA_?$AAA?$AAl?$AAl?$AAo?$AAc?$AAa?$AAt?$AAe?$AA_?$AAm?$AAa?$AAn?$AAu?$AAa?$AAl?$AAl?$AAy?$AA_?$AAv?$AAe?$AAc?$AAt?$AAo?$AAr?$AA_?$AAa@ DB 's'
	DB	00H, 't', 00H, 'd', 00H, ':', 00H, ':', 00H, '_', 00H, 'A', 00H
	DB	'l', 00H, 'l', 00H, 'o', 00H, 'c', 00H, 'a', 00H, 't', 00H, 'e'
	DB	00H, '_', 00H, 'm', 00H, 'a', 00H, 'n', 00H, 'u', 00H, 'a', 00H
	DB	'l', 00H, 'l', 00H, 'y', 00H, '_', 00H, 'v', 00H, 'e', 00H, 'c'
	DB	00H, 't', 00H, 'o', 00H, 'r', 00H, '_', 00H, 'a', 00H, 'l', 00H
	DB	'i', 00H, 'g', 00H, 'n', 00H, 'e', 00H, 'd', 00H, 00H, 00H ; `string'
CONST	ENDS
;	COMDAT ??_C@_17CNPHIMPH@?$AA?$CF?$AAl?$AAs?$AA?$AA@
CONST	SEGMENT
??_C@_17CNPHIMPH@?$AA?$CF?$AAl?$AAs?$AA?$AA@ DB '%', 00H, 'l', 00H, 's', 00H
	DB	00H, 00H					; `string'
CONST	ENDS
;	COMDAT ??_C@_1DG@HGDKEBPG@?$AA?$CC?$AA_?$AAP?$AAt?$AAr?$AA_?$AAc?$AAo?$AAn?$AAt?$AAa?$AAi?$AAn?$AAe?$AAr?$AA?5?$AA?$CB?$AA?$DN?$AA?5?$AA0?$AA?$CC?$AA?5?$AA?$CG?$AA?$CG?$AA?5?$AA0?$AA?$AA@
CONST	SEGMENT
??_C@_1DG@HGDKEBPG@?$AA?$CC?$AA_?$AAP?$AAt?$AAr?$AA_?$AAc?$AAo?$AAn?$AAt?$AAa?$AAi?$AAn?$AAe?$AAr?$AA?5?$AA?$CB?$AA?$DN?$AA?5?$AA0?$AA?$CC?$AA?5?$AA?$CG?$AA?$CG?$AA?5?$AA0?$AA?$AA@ DB '"'
	DB	00H, '_', 00H, 'P', 00H, 't', 00H, 'r', 00H, '_', 00H, 'c', 00H
	DB	'o', 00H, 'n', 00H, 't', 00H, 'a', 00H, 'i', 00H, 'n', 00H, 'e'
	DB	00H, 'r', 00H, ' ', 00H, '!', 00H, '=', 00H, ' ', 00H, '0', 00H
	DB	'"', 00H, ' ', 00H, '&', 00H, '&', 00H, ' ', 00H, '0', 00H, 00H
	DB	00H						; `string'
CONST	ENDS
;	COMDAT ??_C@_0BE@LMNLACIC@_Ptr_container?5?$CB?$DN?50?$AA@
CONST	SEGMENT
??_C@_0BE@LMNLACIC@_Ptr_container?5?$CB?$DN?50?$AA@ DB '_Ptr_container !='
	DB	' 0', 00H					; `string'
CONST	ENDS
;	COMDAT ??_C@_0BA@JFNIOLAK@string?5too?5long?$AA@
CONST	SEGMENT
??_C@_0BA@JFNIOLAK@string?5too?5long?$AA@ DB 'string too long', 00H ; `string'
CONST	ENDS
;	COMDAT ??_C@_0BD@OLBABOEK@vector?$DMT?$DO?5too?5long?$AA@
CONST	SEGMENT
??_C@_0BD@OLBABOEK@vector?$DMT?$DO?5too?5long?$AA@ DB 'vector<T> too long'
	DB	00H						; `string'
CONST	ENDS
;	COMDAT ??_C@_1CG@KOFHLCJL@?$AAi?$AA?5?$AA?$DM?$AA?5?$AAt?$AAh?$AAi?$AAs?$AA?9?$AA?$DO?$AAl?$AAe?$AAn?$AAg?$AAt?$AAh?$AA?$CI?$AA?$CJ?$AA?$AA@
CONST	SEGMENT
??_C@_1CG@KOFHLCJL@?$AAi?$AA?5?$AA?$DM?$AA?5?$AAt?$AAh?$AAi?$AAs?$AA?9?$AA?$DO?$AAl?$AAe?$AAn?$AAg?$AAt?$AAh?$AA?$CI?$AA?$CJ?$AA?$AA@ DB 'i'
	DB	00H, ' ', 00H, '<', 00H, ' ', 00H, 't', 00H, 'h', 00H, 'i', 00H
	DB	's', 00H, '-', 00H, '>', 00H, 'l', 00H, 'e', 00H, 'n', 00H, 'g'
	DB	00H, 't', 00H, 'h', 00H, '(', 00H, ')', 00H, 00H, 00H ; `string'
CONST	ENDS
;	COMDAT ??_C@_1JI@BDACPION@?$AAl?$AA?3?$AA?2?$AAd?$AAe?$AAv?$AA?2?$AAf?$AAe?$AAa?$AAt?$AAh?$AAe?$AAr?$AAf?$AAa?$AAl?$AAl?$AAe?$AAn?$AAg?$AAi?$AAn?$AAe?$AA?2?$AAd?$AAe?$AAp?$AAe?$AAn?$AAd?$AAs@
CONST	SEGMENT
??_C@_1JI@BDACPION@?$AAl?$AA?3?$AA?2?$AAd?$AAe?$AAv?$AA?2?$AAf?$AAe?$AAa?$AAt?$AAh?$AAe?$AAr?$AAf?$AAa?$AAl?$AAl?$AAe?$AAn?$AAg?$AAi?$AAn?$AAe?$AA?2?$AAd?$AAe?$AAp?$AAe?$AAn?$AAd?$AAs@ DB 'l'
	DB	00H, ':', 00H, '\', 00H, 'd', 00H, 'e', 00H, 'v', 00H, '\', 00H
	DB	'f', 00H, 'e', 00H, 'a', 00H, 't', 00H, 'h', 00H, 'e', 00H, 'r'
	DB	00H, 'f', 00H, 'a', 00H, 'l', 00H, 'l', 00H, 'e', 00H, 'n', 00H
	DB	'g', 00H, 'i', 00H, 'n', 00H, 'e', 00H, '\', 00H, 'd', 00H, 'e'
	DB	00H, 'p', 00H, 'e', 00H, 'n', 00H, 'd', 00H, 's', 00H, '\', 00H
	DB	'i', 00H, 'n', 00H, 's', 00H, 't', 00H, 'a', 00H, 'l', 00H, 'l'
	DB	00H, '\', 00H, 'i', 00H, 'n', 00H, 'c', 00H, 'l', 00H, 'u', 00H
	DB	'd', 00H, 'e', 00H, '\', 00H, 'g', 00H, 'l', 00H, 'm', 00H, '\'
	DB	00H, 'd', 00H, 'e', 00H, 't', 00H, 'a', 00H, 'i', 00H, 'l', 00H
	DB	'\', 00H, 't', 00H, 'y', 00H, 'p', 00H, 'e', 00H, '_', 00H, 'm'
	DB	00H, 'a', 00H, 't', 00H, '4', 00H, 'x', 00H, '4', 00H, '.', 00H
	DB	'i', 00H, 'n', 00H, 'l', 00H, 00H, 00H	; `string'
CONST	ENDS
;	COMDAT ??_C@_07NNBCNLBN@iconTex?$AA@
CONST	SEGMENT
??_C@_07NNBCNLBN@iconTex?$AA@ DB 'iconTex', 00H		; `string'
CONST	ENDS
;	COMDAT ??_C@_05GLHHFCDG@ffTex?$AA@
CONST	SEGMENT
??_C@_05GLHHFCDG@ffTex?$AA@ DB 'ffTex', 00H		; `string'
CONST	ENDS
;	COMDAT ??_C@_08IMNAFLGG@prMatrix?$AA@
CONST	SEGMENT
??_C@_08IMNAFLGG@prMatrix?$AA@ DB 'prMatrix', 00H	; `string'
CONST	ENDS
;	COMDAT ??_C@_0CF@BDFDNJP@glClearColor?$CI0?40f?0?50?40f?0?50?40f?0?51@
CONST	SEGMENT
??_C@_0CF@BDFDNJP@glClearColor?$CI0?40f?0?50?40f?0?50?40f?0?51@ DB 'glCle'
	DB	'arColor(0.0f, 0.0f, 0.0f, 1.0f)', 00H	; `string'
CONST	ENDS
;	COMDAT ?__LINE__Var@?0??OnReloadScene@MainMenuScene@Scene@Application@@QEAAXXZ@4JA
_DATA	SEGMENT
?__LINE__Var@?0??OnReloadScene@MainMenuScene@Scene@Application@@QEAAXXZ@4JA DD 05aH ; `Application::Scene::MainMenuScene::OnReloadScene'::`1'::__LINE__Var
_DATA	ENDS
;	COMDAT ??_C@_0BI@LDGJAANB@TODO?3?5Make?5Gradient?5BG?$CB?$AA@
CONST	SEGMENT
??_C@_0BI@LDGJAANB@TODO?3?5Make?5Gradient?5BG?$CB?$AA@ DB 'TODO: Make Gra'
	DB	'dient BG!', 00H				; `string'
CONST	ENDS
;	COMDAT ??_C@_0BA@NNMDDBIH@Texture?5Control?$AA@
CONST	SEGMENT
??_C@_0BA@NNMDDBIH@Texture?5Control?$AA@ DB 'Texture Control', 00H ; `string'
CONST	ENDS
;	COMDAT ??_C@_04GFJLOHHD@?$CF?43f?$AA@
CONST	SEGMENT
??_C@_04GFJLOHHD@?$CF?43f?$AA@ DB '%.3f', 00H		; `string'
CONST	ENDS
;	COMDAT ??_C@_0BD@KHMMBBJK@BG?5Texture?5Control?$AA@
CONST	SEGMENT
??_C@_0BD@KHMMBBJK@BG?5Texture?5Control?$AA@ DB 'BG Texture Control', 00H ; `string'
CONST	ENDS
;	COMDAT ??_C@_0BJ@IDPKMNNF@Select?5a?5Scene?5to?5load?3?5?$AA@
CONST	SEGMENT
??_C@_0BJ@IDPKMNNF@Select?5a?5Scene?5to?5load?3?5?$AA@ DB 'Select a Scene'
	DB	' to load: ', 00H				; `string'
CONST	ENDS
;	COMDAT ??_C@_0EI@LIJNNICP@glDrawElements?$CIGL_TRIANGLES?0?5ibo@
CONST	SEGMENT
??_C@_0EI@LIJNNICP@glDrawElements?$CIGL_TRIANGLES?0?5ibo@ DB 'glDrawEleme'
	DB	'nts(GL_TRIANGLES, ibo->getCount(), GL_UNSIGNED_INT, nullptr)', 00H ; `string'
CONST	ENDS
;	COMDAT ??_C@_0EK@EOGGOJAF@l?3?2dev?2featherfallengine?2feather@
CONST	SEGMENT
??_C@_0EK@EOGGOJAF@l?3?2dev?2featherfallengine?2feather@ DB 'l:\dev\feath'
	DB	'erfallengine\featherfall-examples\src\scene\mainmenuscene.cpp'
	DB	00H						; `string'
CONST	ENDS
;	COMDAT ??_C@_0L@OMAPAGJJ@percentage?$AA@
CONST	SEGMENT
??_C@_0L@OMAPAGJJ@percentage?$AA@ DB 'percentage', 00H	; `string'
CONST	ENDS
;	COMDAT ?__LINE__Var@?0??OnRender@MainMenuScene@Scene@Application@@UEAAXXZ@4JA
_DATA	SEGMENT
?__LINE__Var@?0??OnRender@MainMenuScene@Scene@Application@@UEAAXXZ@4JA DD 043H ; `Application::Scene::MainMenuScene::OnRender'::`1'::__LINE__Var
_DATA	ENDS
;	COMDAT ??_C@_0CB@MPFGBK@res?1textures?1FeatherFall?9Owl?4png@
CONST	SEGMENT
??_C@_0CB@MPFGBK@res?1textures?1FeatherFall?9Owl?4png@ DB 'res/textures/F'
	DB	'eatherFall-Owl.png', 00H			; `string'
CONST	ENDS
;	COMDAT ??_C@_0CG@DAJJAFE@res?1textures?1FeatherFall?9MainMen@
CONST	SEGMENT
??_C@_0CG@DAJJAFE@res?1textures?1FeatherFall?9MainMen@ DB 'res/textures/F'
	DB	'eatherFall-MainMenu.png', 00H		; `string'
CONST	ENDS
;	COMDAT ??_C@_0BM@BFJKNBFF@res?1shaders?1MainMenu?4shader?$AA@
CONST	SEGMENT
??_C@_0BM@BFJKNBFF@res?1shaders?1MainMenu?4shader?$AA@ DB 'res/shaders/Ma'
	DB	'inMenu.shader', 00H				; `string'
CONST	ENDS
;	COMDAT ??_7MainMenuScene@Scene@Application@@6B@
CONST	SEGMENT
??_7MainMenuScene@Scene@Application@@6B@ DQ FLAT:??_R4MainMenuScene@Scene@Application@@6B@ ; Application::Scene::MainMenuScene::`vftable'
	DQ	FLAT:??_EMainMenuScene@Scene@Application@@UEAAPEAXI@Z
	DQ	FLAT:?OnUpdate@MainMenuScene@Scene@Application@@UEAAXM@Z
	DQ	FLAT:?OnRender@MainMenuScene@Scene@Application@@UEAAXXZ
	DQ	FLAT:?OnImGuiRender@MainMenuScene@Scene@Application@@UEAAXXZ
CONST	ENDS
;	COMDAT ??_C@_1CG@JNLFBNGN@?$AA?$CC?$AAi?$AAn?$AAv?$AAa?$AAl?$AAi?$AAd?$AA?5?$AAa?$AAr?$AAg?$AAu?$AAm?$AAe?$AAn?$AAt?$AA?$CC?$AA?$AA@
CONST	SEGMENT
??_C@_1CG@JNLFBNGN@?$AA?$CC?$AAi?$AAn?$AAv?$AAa?$AAl?$AAi?$AAd?$AA?5?$AAa?$AAr?$AAg?$AAu?$AAm?$AAe?$AAn?$AAt?$AA?$CC?$AA?$AA@ DB '"'
	DB	00H, 'i', 00H, 'n', 00H, 'v', 00H, 'a', 00H, 'l', 00H, 'i', 00H
	DB	'd', 00H, ' ', 00H, 'a', 00H, 'r', 00H, 'g', 00H, 'u', 00H, 'm'
	DB	00H, 'e', 00H, 'n', 00H, 't', 00H, '"', 00H, 00H, 00H ; `string'
CONST	ENDS
;	COMDAT ??_C@_1EK@NIFDJFDG@?$AAs?$AAt?$AAd?$AA?3?$AA?3?$AA_?$AAA?$AAd?$AAj?$AAu?$AAs?$AAt?$AA_?$AAm?$AAa?$AAn?$AAu?$AAa?$AAl?$AAl?$AAy?$AA_?$AAv?$AAe?$AAc?$AAt?$AAo?$AAr?$AA_?$AAa?$AAl?$AAi@
CONST	SEGMENT
??_C@_1EK@NIFDJFDG@?$AAs?$AAt?$AAd?$AA?3?$AA?3?$AA_?$AAA?$AAd?$AAj?$AAu?$AAs?$AAt?$AA_?$AAm?$AAa?$AAn?$AAu?$AAa?$AAl?$AAl?$AAy?$AA_?$AAv?$AAe?$AAc?$AAt?$AAo?$AAr?$AA_?$AAa?$AAl?$AAi@ DB 's'
	DB	00H, 't', 00H, 'd', 00H, ':', 00H, ':', 00H, '_', 00H, 'A', 00H
	DB	'd', 00H, 'j', 00H, 'u', 00H, 's', 00H, 't', 00H, '_', 00H, 'm'
	DB	00H, 'a', 00H, 'n', 00H, 'u', 00H, 'a', 00H, 'l', 00H, 'l', 00H
	DB	'y', 00H, '_', 00H, 'v', 00H, 'e', 00H, 'c', 00H, 't', 00H, 'o'
	DB	00H, 'r', 00H, '_', 00H, 'a', 00H, 'l', 00H, 'i', 00H, 'g', 00H
	DB	'n', 00H, 'e', 00H, 'd', 00H, 00H, 00H	; `string'
CONST	ENDS
;	COMDAT ??_C@_1NE@FCGGJAHE@?$AAc?$AA?3?$AA?2?$AAp?$AAr?$AAo?$AAg?$AAr?$AAa?$AAm?$AA?5?$AAf?$AAi?$AAl?$AAe?$AAs?$AA?5?$AA?$CI?$AAx?$AA8?$AA6?$AA?$CJ?$AA?2?$AAm?$AAi?$AAc?$AAr?$AAo?$AAs?$AAo?$AAf?$AAt@
CONST	SEGMENT
??_C@_1NE@FCGGJAHE@?$AAc?$AA?3?$AA?2?$AAp?$AAr?$AAo?$AAg?$AAr?$AAa?$AAm?$AA?5?$AAf?$AAi?$AAl?$AAe?$AAs?$AA?5?$AA?$CI?$AAx?$AA8?$AA6?$AA?$CJ?$AA?2?$AAm?$AAi?$AAc?$AAr?$AAo?$AAs?$AAo?$AAf?$AAt@ DB 'c'
	DB	00H, ':', 00H, '\', 00H, 'p', 00H, 'r', 00H, 'o', 00H, 'g', 00H
	DB	'r', 00H, 'a', 00H, 'm', 00H, ' ', 00H, 'f', 00H, 'i', 00H, 'l'
	DB	00H, 'e', 00H, 's', 00H, ' ', 00H, '(', 00H, 'x', 00H, '8', 00H
	DB	'6', 00H, ')', 00H, '\', 00H, 'm', 00H, 'i', 00H, 'c', 00H, 'r'
	DB	00H, 'o', 00H, 's', 00H, 'o', 00H, 'f', 00H, 't', 00H, ' ', 00H
	DB	'v', 00H, 'i', 00H, 's', 00H, 'u', 00H, 'a', 00H, 'l', 00H, ' '
	DB	00H, 's', 00H, 't', 00H, 'u', 00H, 'd', 00H, 'i', 00H, 'o', 00H
	DB	'\', 00H, '2', 00H, '0', 00H, '1', 00H, '7', 00H, '\', 00H, 'e'
	DB	00H, 'n', 00H, 't', 00H, 'e', 00H, 'r', 00H, 'p', 00H, 'r', 00H
	DB	'i', 00H, 's', 00H, 'e', 00H, '\', 00H, 'v', 00H, 'c', 00H, '\'
	DB	00H, 't', 00H, 'o', 00H, 'o', 00H, 'l', 00H, 's', 00H, '\', 00H
	DB	'm', 00H, 's', 00H, 'v', 00H, 'c', 00H, '\', 00H, '1', 00H, '4'
	DB	00H, '.', 00H, '1', 00H, '4', 00H, '.', 00H, '2', 00H, '6', 00H
	DB	'4', 00H, '2', 00H, '8', 00H, '\', 00H, 'i', 00H, 'n', 00H, 'c'
	DB	00H, 'l', 00H, 'u', 00H, 'd', 00H, 'e', 00H, '\', 00H, 'x', 00H
	DB	'm', 00H, 'e', 00H, 'm', 00H, 'o', 00H, 'r', 00H, 'y', 00H, '0'
	DB	00H, 00H, 00H				; `string'
CONST	ENDS
;	COMDAT ?__LINE__Var@?0??_Adjust_manually_vector_aligned@std@@YAXAEAPEAXAEA_K@Z@4JA
_DATA	SEGMENT
?__LINE__Var@?0??_Adjust_manually_vector_aligned@std@@YAXAEAPEAXAEA_K@Z@4JA DD 074H ; `std::_Adjust_manually_vector_aligned'::`1'::__LINE__Var
_DATA	ENDS
;	COMDAT xdata
xdata	SEGMENT
$unwind$??$_Copy_memmove@PEAUBufferElement@buffers@core@@PEAU123@@std@@YAPEAUBufferElement@buffers@core@@PEAU123@00@Z DD 025031c01H
	DD	0f217231cH
	DD	05010H
xdata	ENDS
;	COMDAT xdata
xdata	SEGMENT
$unwind$??$?0HHHM@?$tvec4@M$0A@@glm@@QEAA@HHHM@Z DD 05031b01H
	DD	07218031bH
	DD	05014H
xdata	ENDS
;	COMDAT xdata
xdata	SEGMENT
$unwind$??$?0HHMH@?$tvec4@M$0A@@glm@@QEAA@HHMH@Z DD 05031c01H
	DD	07219031cH
	DD	05015H
xdata	ENDS
;	COMDAT xdata
xdata	SEGMENT
$unwind$??$?0HMHH@?$tvec4@M$0A@@glm@@QEAA@HMHH@Z DD 05031c01H
	DD	07219031cH
	DD	05015H
xdata	ENDS
;	COMDAT xdata
xdata	SEGMENT
$unwind$??$?0MHHH@?$tvec4@M$0A@@glm@@QEAA@MHHH@Z DD 05031d01H
	DD	0721a031dH
	DD	05016H
xdata	ENDS
;	COMDAT xdata
xdata	SEGMENT
$unwind$??$_Rechecked@PEAUBufferElement@buffers@core@@PEAU123@@std@@YAAEAPEAUBufferElement@buffers@core@@AEAPEAU123@QEAU123@@Z DD 05031201H
	DD	0720f0312H
	DD	0500bH
xdata	ENDS
;	COMDAT xdata
xdata	SEGMENT
$unwind$??$_Uninitialized_move_al_unchecked@UBufferElement@buffers@core@@U123@V?$allocator@UBufferElement@buffers@core@@@std@@@std@@YAPEAUBufferElement@buffers@core@@QEAU123@00AEAV?$allocator@UBufferElement@buffers@core@@@0@U_Really_trivial_ptr_iterator_tag@0@U?$integral_constant@_N$00@0@@Z DD 025031e01H
	DD	0b219231eH
	DD	05015H
xdata	ENDS
;	COMDAT xdata
xdata	SEGMENT
$unwind$??$_Ptr_move_cat@UBufferElement@buffers@core@@U123@@std@@YA?AU_Really_trivial_ptr_iterator_tag@0@AEBQEAUBufferElement@buffers@core@@0@Z DD 05031701H
	DD	072140317H
	DD	05010H
xdata	ENDS
;	COMDAT xdata
xdata	SEGMENT
$unwind$??$_Unchecked@PEAUBufferElement@buffers@core@@@std@@YAPEAUBufferElement@buffers@core@@PEAU123@@Z DD 05030d01H
	DD	0720a030dH
	DD	05006H
xdata	ENDS
;	COMDAT xdata
xdata	SEGMENT
$unwind$??$destroy@U?$pair@PEBDV?$function@$$A6APEAVScene@1Application@@XZ@std@@@std@@@?$_Default_allocator_traits@V?$allocator@U?$pair@PEBDV?$function@$$A6APEAVScene@1Application@@XZ@std@@@std@@@std@@@std@@SAXAEAV?$allocator@U?$pair@PEBDV?$function@$$A6APEAVScene@1Application@@XZ@std@@@std@@@1@QEAU?$pair@PEBDV?$function@$$A6APEAVScene@1Application@@XZ@std@@@1@@Z DD 025031401H
	DD	0b20f2314H
	DD	0500bH
xdata	ENDS
;	COMDAT xdata
xdata	SEGMENT
$unwind$??$_Unfancy@U?$pair@PEBDV?$function@$$A6APEAVScene@1Application@@XZ@std@@@std@@@std@@YAPEAU?$pair@PEBDV?$function@$$A6APEAVScene@1Application@@XZ@std@@@0@PEAU10@@Z DD 05030d01H
	DD	0720a030dH
	DD	05006H
xdata	ENDS
;	COMDAT xdata
xdata	SEGMENT
$unwind$??$_Get_size_of_n@$0M@@std@@YA_K_K@Z DD 05030d01H
	DD	0920a030dH
	DD	05006H
xdata	ENDS
;	COMDAT xdata
xdata	SEGMENT
$unwind$??$_Uninitialized_move@PEAUBufferElement@buffers@core@@PEAU123@V?$allocator@UBufferElement@buffers@core@@@std@@@std@@YAPEAUBufferElement@buffers@core@@QEAU123@0PEAU123@AEAV?$allocator@UBufferElement@buffers@core@@@0@@Z DD 035042f19H
	DD	011c3321H
	DD	050150014H
	DD	imagerel __GSHandlerCheck
	DD	090H
xdata	ENDS
;	COMDAT xdata
xdata	SEGMENT
$unwind$??$_Destroy_range1@V?$allocator@UBufferElement@buffers@core@@@std@@@std@@YAXPEAUBufferElement@buffers@core@@0AEAV?$allocator@UBufferElement@buffers@core@@@0@U?$integral_constant@_N$00@0@@Z DD 05031c01H
	DD	07219031cH
	DD	05015H
xdata	ENDS
;	COMDAT xdata
xdata	SEGMENT
$unwind$??$_Destroy_range1@V?$allocator@U?$pair@PEBDV?$function@$$A6APEAVScene@1Application@@XZ@std@@@std@@@std@@@std@@YAXPEAU?$pair@PEBDV?$function@$$A6APEAVScene@1Application@@XZ@std@@@0@0AEAV?$allocator@U?$pair@PEBDV?$function@$$A6APEAVScene@1Application@@XZ@std@@@std@@@0@U?$integral_constant@_N$0A@@0@@Z DD 025031e01H
	DD	0b219231eH
	DD	05015H
xdata	ENDS
;	COMDAT xdata
xdata	SEGMENT
$unwind$??$forward@U_Container_proxy@std@@@std@@YA$$QEAU_Container_proxy@0@AEAU10@@Z DD 05030d01H
	DD	0720a030dH
	DD	05006H
xdata	ENDS
;	COMDAT xdata
xdata	SEGMENT
$unwind$??$_Allocate_manually_vector_aligned@U_Default_allocate_traits@std@@@std@@YAPEAX_K@Z DD 035041201H
	DD	010d3312H
	DD	050060012H
xdata	ENDS
;	COMDAT xdata
xdata	SEGMENT
$unwind$??$forward@AEBQEAD@std@@YAAEBQEADAEBQEAD@Z DD 05030d01H
	DD	0720a030dH
	DD	05006H
xdata	ENDS
;	COMDAT xdata
xdata	SEGMENT
$unwind$??$orthoRH@M@glm@@YA?AU?$tmat4x4@M$0A@@0@MMMMMM@Z DD 025063719H
	DD	01212326H
	DD	0701a0016H
	DD	050186019H
	DD	imagerel __GSHandlerCheck
	DD	0a8H
xdata	ENDS
;	COMDAT xdata
xdata	SEGMENT
$unwind$??$_Get_size_of_n@$0BA@@std@@YA_K_K@Z DD 05030d01H
	DD	0920a030dH
	DD	05006H
xdata	ENDS
;	COMDAT xdata
xdata	SEGMENT
$unwind$??$?0D@?$allocator@U_Container_proxy@std@@@std@@QEAA@AEBV?$allocator@D@1@@Z DD 05031201H
	DD	0720f0312H
	DD	0500bH
xdata	ENDS
;	COMDAT xdata
xdata	SEGMENT
$unwind$??$_Destroy_range@V?$allocator@UBufferElement@buffers@core@@@std@@@std@@YAXPEAUBufferElement@buffers@core@@0AEAV?$allocator@UBufferElement@buffers@core@@@0@@Z DD 025031901H
	DD	0d2142319H
	DD	05010H
xdata	ENDS
;	COMDAT xdata
xdata	SEGMENT
$unwind$??$addressof@V?$_Vector_val@U?$_Simple_types@UBufferElement@buffers@core@@@std@@@std@@@std@@YAPEAV?$_Vector_val@U?$_Simple_types@UBufferElement@buffers@core@@@std@@@0@AEAV10@@Z DD 05030d01H
	DD	0720a030dH
	DD	05006H
xdata	ENDS
;	COMDAT xdata
xdata	SEGMENT
$unwind$??$?0UBufferElement@buffers@core@@@?$allocator@U_Container_proxy@std@@@std@@QEAA@AEBV?$allocator@UBufferElement@buffers@core@@@1@@Z DD 05031201H
	DD	0720f0312H
	DD	0500bH
xdata	ENDS
;	COMDAT xdata
xdata	SEGMENT
$unwind$??$_Destroy_range@V?$allocator@U?$pair@PEBDV?$function@$$A6APEAVScene@1Application@@XZ@std@@@std@@@std@@@std@@YAXPEAU?$pair@PEBDV?$function@$$A6APEAVScene@1Application@@XZ@std@@@0@0AEAV?$allocator@U?$pair@PEBDV?$function@$$A6APEAVScene@1Application@@XZ@std@@@std@@@0@@Z DD 025031901H
	DD	0d2142319H
	DD	05010H
xdata	ENDS
;	COMDAT xdata
xdata	SEGMENT
$unwind$??$addressof@V?$_Vector_val@U?$_Simple_types@U?$pair@PEBDV?$function@$$A6APEAVScene@1Application@@XZ@std@@@std@@@std@@@std@@@std@@YAPEAV?$_Vector_val@U?$_Simple_types@U?$pair@PEBDV?$function@$$A6APEAVScene@1Application@@XZ@std@@@std@@@std@@@0@AEAV10@@Z DD 05030d01H
	DD	0720a030dH
	DD	05006H
xdata	ENDS
;	COMDAT xdata
xdata	SEGMENT
$unwind$??$construct@U_Container_proxy@std@@U12@@?$_Default_allocator_traits@V?$allocator@U_Container_proxy@std@@@std@@@std@@SAXAEAV?$allocator@U_Container_proxy@std@@@1@QEAU_Container_proxy@1@$$QEAU31@@Z DD 025051b01H
	DD	0d216231bH
	DD	060117012H
	DD	05010H
xdata	ENDS
;	COMDAT xdata
xdata	SEGMENT
$unwind$??$_Unfancy@U_Container_proxy@std@@@std@@YAPEAU_Container_proxy@0@PEAU10@@Z DD 05030d01H
	DD	0720a030dH
	DD	05006H
xdata	ENDS
;	COMDAT xdata
xdata	SEGMENT
$unwind$??$_Deallocate_plain@V?$allocator@U_Container_proxy@std@@@std@@$0A@@std@@YAXAEAV?$allocator@U_Container_proxy@std@@@0@QEAU_Container_proxy@0@@Z DD 025031401H
	DD	0b20f2314H
	DD	0500bH
xdata	ENDS
;	COMDAT xdata
xdata	SEGMENT
$unwind$??$destroy@U_Container_proxy@std@@@?$_Default_allocator_traits@V?$allocator@U_Container_proxy@std@@@std@@@std@@SAXAEAV?$allocator@U_Container_proxy@std@@@1@QEAU_Container_proxy@1@@Z DD 05031201H
	DD	0720f0312H
	DD	0500bH
xdata	ENDS
;	COMDAT xdata
xdata	SEGMENT
$unwind$?deallocate@?$_Default_allocator_traits@V?$allocator@U_Container_proxy@std@@@std@@@std@@SAXAEAV?$allocator@U_Container_proxy@std@@@2@QEAU_Container_proxy@2@_K@Z DD 025031901H
	DD	0b2142319H
	DD	05010H
xdata	ENDS
;	COMDAT xdata
xdata	SEGMENT
$unwind$??$?0U?$pair@PEBDV?$function@$$A6APEAVScene@1Application@@XZ@std@@@std@@@?$allocator@U_Container_proxy@std@@@std@@QEAA@AEBV?$allocator@U?$pair@PEBDV?$function@$$A6APEAVScene@1Application@@XZ@std@@@std@@@1@@Z DD 05031201H
	DD	0720f0312H
	DD	0500bH
xdata	ENDS
;	COMDAT xdata
xdata	SEGMENT
$unwind$?allocate@?$allocator@U_Container_proxy@std@@@std@@QEAAPEAU_Container_proxy@2@_K@Z DD 025031401H
	DD	0b20f2314H
	DD	0500bH
xdata	ENDS
;	COMDAT xdata
xdata	SEGMENT
$unwind$??$_Deallocate@$0BA@$0A@@std@@YAXPEAX_K@Z DD 025031401H
	DD	0b20f2314H
	DD	0500bH
xdata	ENDS
;	COMDAT xdata
xdata	SEGMENT
$unwind$??$_Allocate@$0BA@U_Default_allocate_traits@std@@$0A@@std@@YAPEAX_K@Z DD 025030f01H
	DD	0b20a230fH
	DD	05006H
xdata	ENDS
;	COMDAT xdata
xdata	SEGMENT
$unwind$??$addressof@V?$_String_val@U?$_Simple_types@D@std@@@std@@@std@@YAPEAV?$_String_val@U?$_Simple_types@D@std@@@0@AEAV10@@Z DD 05030d01H
	DD	0720a030dH
	DD	05006H
xdata	ENDS
;	COMDAT xdata
xdata	SEGMENT
$unwind$??$construct@PEADAEBQEAD@?$_Default_allocator_traits@V?$allocator@D@std@@@std@@SAXAEAV?$allocator@D@1@QEAPEADAEBQEAD@Z DD 025031901H
	DD	0d2142319H
	DD	05010H
xdata	ENDS
;	COMDAT xdata
xdata	SEGMENT
$unwind$??$_Reallocate_for@V<lambda_66f57f934f28d61049862f64df852ff0>@@PEBD@?$basic_string@DU?$char_traits@D@std@@V?$allocator@D@2@@std@@QEAAAEAV01@_KV<lambda_66f57f934f28d61049862f64df852ff0>@@PEBD@Z DD 025042f19H
	DD	011c2321H
	DD	050150012H
	DD	imagerel __GSHandlerCheck
	DD	088H
xdata	ENDS
;	COMDAT xdata
xdata	SEGMENT
$unwind$??R<lambda_66f57f934f28d61049862f64df852ff0>@@QEBAXQEAD_KQEBD@Z DD 025031e01H
	DD	0d219231eH
	DD	05015H
xdata	ENDS
;	COMDAT xdata
xdata	SEGMENT
$unwind$??$_Max_value@_K@std@@YAAEB_KAEB_K0@Z DD 05031201H
	DD	0920f0312H
	DD	0500bH
xdata	ENDS
;	COMDAT xdata
xdata	SEGMENT
$unwind$??$destroy@PEAD@?$_Default_allocator_traits@V?$allocator@D@std@@@std@@SAXAEAV?$allocator@D@1@QEAPEAD@Z DD 05031201H
	DD	0720f0312H
	DD	0500bH
xdata	ENDS
;	COMDAT xdata
xdata	SEGMENT
$unwind$??$addressof@PEAD@std@@YAPEAPEADAEAPEAD@Z DD 05030d01H
	DD	0720a030dH
	DD	05006H
xdata	ENDS
;	COMDAT xdata
xdata	SEGMENT
$unwind$??$?0$$V@?$_Compressed_pair@V?$allocator@D@std@@V?$_String_val@U?$_Simple_types@D@std@@@2@$00@std@@QEAA@U_Zero_then_variadic_args_t@1@@Z DD 025031301H
	DD	0b20e2313H
	DD	0500aH
xdata	ENDS
;	COMDAT xdata
xdata	SEGMENT
$unwind$??$?0$$V@?$_Compressed_pair@V?$allocator@UBufferElement@buffers@core@@@std@@V?$_Vector_val@U?$_Simple_types@UBufferElement@buffers@core@@@std@@@2@$00@std@@QEAA@U_Zero_then_variadic_args_t@1@@Z DD 025031301H
	DD	0b20e2313H
	DD	0500aH
xdata	ENDS
;	COMDAT xdata
xdata	SEGMENT
$unwind$??$?0$$V@?$_Compressed_pair@V?$allocator@U?$pair@PEBDV?$function@$$A6APEAVScene@1Application@@XZ@std@@@std@@@std@@V?$_Vector_val@U?$_Simple_types@U?$pair@PEBDV?$function@$$A6APEAVScene@1Application@@XZ@std@@@std@@@std@@@2@$00@std@@QEAA@U_Zero_then_variadic_args_t@1@@Z DD 025031301H
	DD	0b20e2313H
	DD	0500aH
xdata	ENDS
;	COMDAT xdata
xdata	SEGMENT
$unwind$??$_Unfancy@D@std@@YAPEADPEAD@Z DD 05030d01H
	DD	0720a030dH
	DD	05006H
xdata	ENDS
;	COMDAT xdata
xdata	SEGMENT
$unwind$?catch$0@?0???$_Emplace_reallocate@UBufferElement@buffers@core@@@?$vector@UBufferElement@buffers@core@@V?$allocator@UBufferElement@buffers@core@@@std@@@std@@QEAAPEAUBufferElement@buffers@core@@QEAU234@$$QEAU234@@Z@4HA DD 020a19H
	DD	05006320aH
	DD	imagerel __CxxFrameHandler3
	DD	imagerel $cppxdata$??$_Emplace_reallocate@UBufferElement@buffers@core@@@?$vector@UBufferElement@buffers@core@@V?$allocator@UBufferElement@buffers@core@@@std@@@std@@QEAAPEAUBufferElement@buffers@core@@QEAU234@$$QEAU234@@Z
xdata	ENDS
;	COMDAT xdata
xdata	SEGMENT
$ip2state$??$_Emplace_reallocate@UBufferElement@buffers@core@@@?$vector@UBufferElement@buffers@core@@V?$allocator@UBufferElement@buffers@core@@@std@@@std@@QEAAPEAUBufferElement@buffers@core@@QEAU234@$$QEAU234@@Z DD imagerel ??$_Emplace_reallocate@UBufferElement@buffers@core@@@?$vector@UBufferElement@buffers@core@@V?$allocator@UBufferElement@buffers@core@@@std@@@std@@QEAAPEAUBufferElement@buffers@core@@QEAU234@$$QEAU234@@Z
	DD	0ffffffffH
	DD	imagerel ??$_Emplace_reallocate@UBufferElement@buffers@core@@@?$vector@UBufferElement@buffers@core@@V?$allocator@UBufferElement@buffers@core@@@std@@@std@@QEAAPEAUBufferElement@buffers@core@@QEAU234@$$QEAU234@@Z+210
	DD	00H
	DD	imagerel ??$_Emplace_reallocate@UBufferElement@buffers@core@@@?$vector@UBufferElement@buffers@core@@V?$allocator@UBufferElement@buffers@core@@@std@@@std@@QEAAPEAUBufferElement@buffers@core@@QEAU234@$$QEAU234@@Z+488
	DD	0ffffffffH
	DD	imagerel ?catch$0@?0???$_Emplace_reallocate@UBufferElement@buffers@core@@@?$vector@UBufferElement@buffers@core@@V?$allocator@UBufferElement@buffers@core@@@std@@@std@@QEAAPEAUBufferElement@buffers@core@@QEAU234@$$QEAU234@@Z@4HA
	DD	00H
	DD	imagerel ?catch$0@?0???$_Emplace_reallocate@UBufferElement@buffers@core@@@?$vector@UBufferElement@buffers@core@@V?$allocator@UBufferElement@buffers@core@@@std@@@std@@QEAAPEAUBufferElement@buffers@core@@QEAU234@$$QEAU234@@Z@4HA+14
	DD	01H
	DD	imagerel ?catch$0@?0???$_Emplace_reallocate@UBufferElement@buffers@core@@@?$vector@UBufferElement@buffers@core@@V?$allocator@UBufferElement@buffers@core@@@std@@@std@@QEAAPEAUBufferElement@buffers@core@@QEAU234@$$QEAU234@@Z@4HA+61
	DD	00H
xdata	ENDS
;	COMDAT xdata
xdata	SEGMENT
$handlerMap$0$??$_Emplace_reallocate@UBufferElement@buffers@core@@@?$vector@UBufferElement@buffers@core@@V?$allocator@UBufferElement@buffers@core@@@std@@@std@@QEAAPEAUBufferElement@buffers@core@@QEAU234@$$QEAU234@@Z DD 040H
	DD	00H
	DD	00H
	DD	imagerel ?catch$0@?0???$_Emplace_reallocate@UBufferElement@buffers@core@@@?$vector@UBufferElement@buffers@core@@V?$allocator@UBufferElement@buffers@core@@@std@@@std@@QEAAPEAUBufferElement@buffers@core@@QEAU234@$$QEAU234@@Z@4HA
	DD	038H
xdata	ENDS
;	COMDAT xdata
xdata	SEGMENT
$tryMap$??$_Emplace_reallocate@UBufferElement@buffers@core@@@?$vector@UBufferElement@buffers@core@@V?$allocator@UBufferElement@buffers@core@@@std@@@std@@QEAAPEAUBufferElement@buffers@core@@QEAU234@$$QEAU234@@Z DD 00H
	DD	00H
	DD	01H
	DD	01H
	DD	imagerel $handlerMap$0$??$_Emplace_reallocate@UBufferElement@buffers@core@@@?$vector@UBufferElement@buffers@core@@V?$allocator@UBufferElement@buffers@core@@@std@@@std@@QEAAPEAUBufferElement@buffers@core@@QEAU234@$$QEAU234@@Z
xdata	ENDS
;	COMDAT xdata
xdata	SEGMENT
$stateUnwindMap$??$_Emplace_reallocate@UBufferElement@buffers@core@@@?$vector@UBufferElement@buffers@core@@V?$allocator@UBufferElement@buffers@core@@@std@@@std@@QEAAPEAUBufferElement@buffers@core@@QEAU234@$$QEAU234@@Z DD 0ffffffffH
	DD	00H
	DD	0ffffffffH
	DD	00H
xdata	ENDS
;	COMDAT CONST
CONST	SEGMENT
$cppxdata$??$_Emplace_reallocate@UBufferElement@buffers@core@@@?$vector@UBufferElement@buffers@core@@V?$allocator@UBufferElement@buffers@core@@@std@@@std@@QEAAPEAUBufferElement@buffers@core@@QEAU234@$$QEAU234@@Z DD 019930522H
	DD	02H
	DD	imagerel $stateUnwindMap$??$_Emplace_reallocate@UBufferElement@buffers@core@@@?$vector@UBufferElement@buffers@core@@V?$allocator@UBufferElement@buffers@core@@@std@@@std@@QEAAPEAUBufferElement@buffers@core@@QEAU234@$$QEAU234@@Z
	DD	01H
	DD	imagerel $tryMap$??$_Emplace_reallocate@UBufferElement@buffers@core@@@?$vector@UBufferElement@buffers@core@@V?$allocator@UBufferElement@buffers@core@@@std@@@std@@QEAAPEAUBufferElement@buffers@core@@QEAU234@$$QEAU234@@Z
	DD	06H
	DD	imagerel $ip2state$??$_Emplace_reallocate@UBufferElement@buffers@core@@@?$vector@UBufferElement@buffers@core@@V?$allocator@UBufferElement@buffers@core@@@std@@@std@@QEAAPEAUBufferElement@buffers@core@@QEAU234@$$QEAU234@@Z
	DD	0a0H
	DD	00H
	DD	01H
CONST	ENDS
;	COMDAT xdata
xdata	SEGMENT
$unwind$??$_Emplace_reallocate@UBufferElement@buffers@core@@@?$vector@UBufferElement@buffers@core@@V?$allocator@UBufferElement@buffers@core@@@std@@@std@@QEAAPEAUBufferElement@buffers@core@@QEAU234@$$QEAU234@@Z DD 025042719H
	DD	0117231cH
	DD	050100016H
	DD	imagerel __CxxFrameHandler3
	DD	imagerel $cppxdata$??$_Emplace_reallocate@UBufferElement@buffers@core@@@?$vector@UBufferElement@buffers@core@@V?$allocator@UBufferElement@buffers@core@@@std@@@std@@QEAAPEAUBufferElement@buffers@core@@QEAU234@$$QEAU234@@Z
xdata	ENDS
;	COMDAT xdata
xdata	SEGMENT
$unwind$??$construct@UBufferElement@buffers@core@@U123@@?$_Default_allocator_traits@V?$allocator@UBufferElement@buffers@core@@@std@@@std@@SAXAEAV?$allocator@UBufferElement@buffers@core@@@1@QEAUBufferElement@buffers@core@@$$QEAU345@@Z DD 025051b01H
	DD	0d216231bH
	DD	060117012H
	DD	05010H
xdata	ENDS
;	COMDAT xdata
xdata	SEGMENT
$unwind$??$_Unfancy@UBufferElement@buffers@core@@@std@@YAPEAUBufferElement@buffers@core@@PEAU123@@Z DD 05030d01H
	DD	0720a030dH
	DD	05006H
xdata	ENDS
;	COMDAT xdata
xdata	SEGMENT
$unwind$??$_Emplace_back_with_unused_capacity@UBufferElement@buffers@core@@@?$vector@UBufferElement@buffers@core@@V?$allocator@UBufferElement@buffers@core@@@std@@@std@@AEAA@$$QEAUBufferElement@buffers@core@@@Z DD 025031701H
	DD	0f2122317H
	DD	0500bH
xdata	ENDS
;	COMDAT xdata
xdata	SEGMENT
$unwind$??$forward@UBufferElement@buffers@core@@@std@@YA$$QEAUBufferElement@buffers@core@@AEAU123@@Z DD 05030d01H
	DD	0720a030dH
	DD	05006H
xdata	ENDS
;	COMDAT xdata
xdata	SEGMENT
$unwind$??$emplace_back@UBufferElement@buffers@core@@@?$vector@UBufferElement@buffers@core@@V?$allocator@UBufferElement@buffers@core@@@std@@@std@@QEAA@$$QEAUBufferElement@buffers@core@@@Z DD 025031401H
	DD	0d20f2314H
	DD	0500bH
xdata	ENDS
;	COMDAT xdata
xdata	SEGMENT
$unwind$??$move@AEAUBufferElement@buffers@core@@@std@@YA$$QEAUBufferElement@buffers@core@@AEAU123@@Z DD 05030d01H
	DD	0720a030dH
	DD	05006H
xdata	ENDS
;	COMDAT xdata
xdata	SEGMENT
$unwind$??_G?$pair@PEBDV?$function@$$A6APEAVScene@1Application@@XZ@std@@@std@@QEAAPEAXI@Z DD 025031301H
	DD	0b20e2313H
	DD	0500aH
xdata	ENDS
;	COMDAT xdata
xdata	SEGMENT
$unwind$??1?$pair@PEBDV?$function@$$A6APEAVScene@1Application@@XZ@std@@@std@@QEAA@XZ DD 025030f01H
	DD	0b20a230fH
	DD	05006H
xdata	ENDS
;	COMDAT xdata
xdata	SEGMENT
$unwind$??1?$function@$$A6APEAVScene@1Application@@XZ@std@@QEAA@XZ DD 025030f01H
	DD	0b20a230fH
	DD	05006H
xdata	ENDS
;	COMDAT xdata
xdata	SEGMENT
$unwind$?_Getspace@?$_Func_class@PEAVScene@1Application@@$$V@std@@AEBAPEBXXZ DD 05030d01H
	DD	0720a030dH
	DD	05006H
xdata	ENDS
;	COMDAT xdata
xdata	SEGMENT
$unwind$?_Set@?$_Func_class@PEAVScene@1Application@@$$V@std@@AEAAXPEAV?$_Func_base@PEAVScene@1Application@@$$V@2@@Z DD 05031201H
	DD	0720f0312H
	DD	0500bH
xdata	ENDS
;	COMDAT xdata
xdata	SEGMENT
$unwind$?_Getimpl@?$_Func_class@PEAVScene@1Application@@$$V@std@@AEBAPEAV?$_Func_base@PEAVScene@1Application@@$$V@2@XZ DD 05030d01H
	DD	0720a030dH
	DD	05006H
xdata	ENDS
;	COMDAT xdata
xdata	SEGMENT
$unwind$?_Local@?$_Func_class@PEAVScene@1Application@@$$V@std@@AEBA_NXZ DD 025030f01H
	DD	0d20a230fH
	DD	05006H
xdata	ENDS
;	COMDAT xdata
xdata	SEGMENT
$unwind$?_Tidy@?$_Func_class@PEAVScene@1Application@@$$V@std@@IEAAXXZ DD 025030f01H
	DD	0d20a230fH
	DD	05006H
xdata	ENDS
;	COMDAT xdata
xdata	SEGMENT
$unwind$?_Empty@?$_Func_class@PEAVScene@1Application@@$$V@std@@IEBA_NXZ DD 025030f01H
	DD	0d20a230fH
	DD	05006H
xdata	ENDS
;	COMDAT xdata
xdata	SEGMENT
$unwind$??1?$_Func_class@PEAVScene@1Application@@$$V@std@@QEAA@XZ DD 025030f01H
	DD	0b20a230fH
	DD	05006H
xdata	ENDS
;	COMDAT xdata
xdata	SEGMENT
$unwind$??R?$_Func_class@PEAVScene@1Application@@$$V@std@@QEBAPEAVScene@2Application@@XZ DD 025030f01H
	DD	0d20a230fH
	DD	05006H
xdata	ENDS
;	COMDAT xdata
xdata	SEGMENT
$unwind$??$ortho@M@glm@@YA?AU?$tmat4x4@M$0A@@0@MMMMMM@Z DD 045032401H
	DD	0f21f4324H
	DD	05018H
xdata	ENDS
;	COMDAT xdata
xdata	SEGMENT
$unwind$??A?$tmat4x4@M$0A@@glm@@QEAAAEAU?$tvec4@M$0A@@1@H@Z DD 025031301H
	DD	0b20e2313H
	DD	0500aH
xdata	ENDS
;	COMDAT xdata
xdata	SEGMENT
$unwind$?length@?$tmat4x4@M$0A@@glm@@SAHXZ DD 05030901H
	DD	072060309H
	DD	05002H
xdata	ENDS
;	COMDAT xdata
xdata	SEGMENT
$unwind$??0?$tmat4x4@M$0A@@glm@@QEAA@AEBM@Z DD 035061901H
	DD	01143319H
	DD	0700d0016H
	DD	0500b600cH
xdata	ENDS
;	COMDAT xdata
xdata	SEGMENT
$unwind$??0?$tvec4@M$0A@@glm@@QEAA@XZ DD 05030d01H
	DD	0720a030dH
	DD	05006H
xdata	ENDS
;	COMDAT xdata
xdata	SEGMENT
$unwind$??A?$tvec4@M$0A@@glm@@QEAAAEAMH@Z DD 025031301H
	DD	0b20e2313H
	DD	0500aH
xdata	ENDS
;	COMDAT xdata
xdata	SEGMENT
$unwind$?length@?$tvec4@M$0A@@glm@@SAHXZ DD 05030901H
	DD	072060309H
	DD	05002H
xdata	ENDS
;	COMDAT xdata
xdata	SEGMENT
$unwind$??0ImVec2@@QEAA@MM@Z DD 05031901H
	DD	072160319H
	DD	05012H
xdata	ENDS
;	COMDAT xdata
xdata	SEGMENT
$unwind$??_GMainMenuScene@Scene@Application@@UEAAPEAXI@Z DD 025031301H
	DD	0b20e2313H
	DD	0500aH
xdata	ENDS
;	COMDAT xdata
xdata	SEGMENT
$unwind$?OnReloadScene@MainMenuScene@Scene@Application@@QEAAXXZ DD 025030f01H
	DD	0b20a230fH
	DD	05006H
xdata	ENDS
;	COMDAT xdata
xdata	SEGMENT
$unwind$?OnImGuiRender@MainMenuScene@Scene@Application@@UEAAXXZ DD 035041201H
	DD	010d3312H
	DD	050060014H
xdata	ENDS
;	COMDAT xdata
xdata	SEGMENT
$unwind$?OnRender@MainMenuScene@Scene@Application@@UEAAXXZ DD 025030f01H
	DD	0b20a230fH
	DD	05006H
xdata	ENDS
;	COMDAT xdata
xdata	SEGMENT
$unwind$?OnUpdate@MainMenuScene@Scene@Application@@UEAAXM@Z DD 05031301H
	DD	072100313H
	DD	0500cH
xdata	ENDS
;	COMDAT xdata
xdata	SEGMENT
$unwind$??1MainMenuScene@Scene@Application@@UEAA@XZ DD 025041201H
	DD	010d2312H
	DD	05006001aH
xdata	ENDS
;	COMDAT xdata
xdata	SEGMENT
$unwind$?dtor$12@?0???0MainMenuScene@Scene@Application@@QEAA@AEAPEAV112@@Z@4HA DD 020601H
	DD	050023206H
xdata	ENDS
;	COMDAT xdata
xdata	SEGMENT
$unwind$?dtor$10@?0???0MainMenuScene@Scene@Application@@QEAA@AEAPEAV112@@Z@4HA DD 020601H
	DD	050023206H
xdata	ENDS
;	COMDAT xdata
xdata	SEGMENT
$unwind$?dtor$8@?0???0MainMenuScene@Scene@Application@@QEAA@AEAPEAV112@@Z@4HA DD 020601H
	DD	050023206H
xdata	ENDS
;	COMDAT xdata
xdata	SEGMENT
$unwind$?dtor$7@?0???0MainMenuScene@Scene@Application@@QEAA@AEAPEAV112@@Z@4HA DD 020601H
	DD	050023206H
xdata	ENDS
;	COMDAT xdata
xdata	SEGMENT
$unwind$?dtor$6@?0???0MainMenuScene@Scene@Application@@QEAA@AEAPEAV112@@Z@4HA DD 020601H
	DD	050023206H
xdata	ENDS
;	COMDAT xdata
xdata	SEGMENT
$unwind$?dtor$5@?0???0MainMenuScene@Scene@Application@@QEAA@AEAPEAV112@@Z@4HA DD 020601H
	DD	050023206H
xdata	ENDS
;	COMDAT xdata
xdata	SEGMENT
$unwind$?dtor$4@?0???0MainMenuScene@Scene@Application@@QEAA@AEAPEAV112@@Z@4HA DD 020601H
	DD	050023206H
xdata	ENDS
;	COMDAT xdata
xdata	SEGMENT
$unwind$?dtor$3@?0???0MainMenuScene@Scene@Application@@QEAA@AEAPEAV112@@Z@4HA DD 020601H
	DD	050023206H
xdata	ENDS
;	COMDAT xdata
xdata	SEGMENT
$unwind$?dtor$2@?0???0MainMenuScene@Scene@Application@@QEAA@AEAPEAV112@@Z@4HA DD 020601H
	DD	050023206H
xdata	ENDS
;	COMDAT xdata
xdata	SEGMENT
$unwind$?dtor$1@?0???0MainMenuScene@Scene@Application@@QEAA@AEAPEAV112@@Z@4HA DD 020601H
	DD	050023206H
xdata	ENDS
;	COMDAT xdata
xdata	SEGMENT
$unwind$?dtor$0@?0???0MainMenuScene@Scene@Application@@QEAA@AEAPEAV112@@Z@4HA DD 020601H
	DD	050023206H
xdata	ENDS
;	COMDAT xdata
xdata	SEGMENT
$ip2state$??0MainMenuScene@Scene@Application@@QEAA@AEAPEAV112@@Z DD imagerel ??0MainMenuScene@Scene@Application@@QEAA@AEAPEAV112@@Z
	DD	0ffffffffH
	DD	imagerel ??0MainMenuScene@Scene@Application@@QEAA@AEAPEAV112@@Z+74
	DD	00H
	DD	imagerel ??0MainMenuScene@Scene@Application@@QEAA@AEAPEAV112@@Z+129
	DD	01H
	DD	imagerel ??0MainMenuScene@Scene@Application@@QEAA@AEAPEAV112@@Z+234
	DD	02H
	DD	imagerel ??0MainMenuScene@Scene@Application@@QEAA@AEAPEAV112@@Z+290
	DD	01H
	DD	imagerel ??0MainMenuScene@Scene@Application@@QEAA@AEAPEAV112@@Z+545
	DD	03H
	DD	imagerel ??0MainMenuScene@Scene@Application@@QEAA@AEAPEAV112@@Z+614
	DD	01H
	DD	imagerel ??0MainMenuScene@Scene@Application@@QEAA@AEAPEAV112@@Z+691
	DD	04H
	DD	imagerel ??0MainMenuScene@Scene@Application@@QEAA@AEAPEAV112@@Z+760
	DD	01H
	DD	imagerel ??0MainMenuScene@Scene@Application@@QEAA@AEAPEAV112@@Z+795
	DD	05H
	DD	imagerel ??0MainMenuScene@Scene@Application@@QEAA@AEAPEAV112@@Z+868
	DD	01H
	DD	imagerel ??0MainMenuScene@Scene@Application@@QEAA@AEAPEAV112@@Z+983
	DD	06H
	DD	imagerel ??0MainMenuScene@Scene@Application@@QEAA@AEAPEAV112@@Z+1013
	DD	07H
	DD	imagerel ??0MainMenuScene@Scene@Application@@QEAA@AEAPEAV112@@Z+1056
	DD	06H
	DD	imagerel ??0MainMenuScene@Scene@Application@@QEAA@AEAPEAV112@@Z+1067
	DD	07H
	DD	imagerel ??0MainMenuScene@Scene@Application@@QEAA@AEAPEAV112@@Z+1081
	DD	08H
	DD	imagerel ??0MainMenuScene@Scene@Application@@QEAA@AEAPEAV112@@Z+1099
	DD	01H
	DD	imagerel ??0MainMenuScene@Scene@Application@@QEAA@AEAPEAV112@@Z+1148
	DD	09H
	DD	imagerel ??0MainMenuScene@Scene@Application@@QEAA@AEAPEAV112@@Z+1268
	DD	01H
	DD	imagerel ??0MainMenuScene@Scene@Application@@QEAA@AEAPEAV112@@Z+1303
	DD	0aH
	DD	imagerel ??0MainMenuScene@Scene@Application@@QEAA@AEAPEAV112@@Z+1423
	DD	01H
	DD	imagerel ??0MainMenuScene@Scene@Application@@QEAA@AEAPEAV112@@Z+1458
	DD	0bH
	DD	imagerel ??0MainMenuScene@Scene@Application@@QEAA@AEAPEAV112@@Z+1580
	DD	01H
	DD	imagerel ??0MainMenuScene@Scene@Application@@QEAA@AEAPEAV112@@Z+1611
	DD	0ffffffffH
xdata	ENDS
;	COMDAT xdata
xdata	SEGMENT
$stateUnwindMap$??0MainMenuScene@Scene@Application@@QEAA@AEAPEAV112@@Z DD 0ffffffffH
	DD	imagerel ?dtor$0@?0???0MainMenuScene@Scene@Application@@QEAA@AEAPEAV112@@Z@4HA
	DD	00H
	DD	imagerel ?dtor$1@?0???0MainMenuScene@Scene@Application@@QEAA@AEAPEAV112@@Z@4HA
	DD	01H
	DD	imagerel ?dtor$2@?0???0MainMenuScene@Scene@Application@@QEAA@AEAPEAV112@@Z@4HA
	DD	01H
	DD	imagerel ?dtor$3@?0???0MainMenuScene@Scene@Application@@QEAA@AEAPEAV112@@Z@4HA
	DD	01H
	DD	imagerel ?dtor$4@?0???0MainMenuScene@Scene@Application@@QEAA@AEAPEAV112@@Z@4HA
	DD	01H
	DD	imagerel ?dtor$5@?0???0MainMenuScene@Scene@Application@@QEAA@AEAPEAV112@@Z@4HA
	DD	01H
	DD	imagerel ?dtor$6@?0???0MainMenuScene@Scene@Application@@QEAA@AEAPEAV112@@Z@4HA
	DD	06H
	DD	imagerel ?dtor$7@?0???0MainMenuScene@Scene@Application@@QEAA@AEAPEAV112@@Z@4HA
	DD	01H
	DD	imagerel ?dtor$7@?0???0MainMenuScene@Scene@Application@@QEAA@AEAPEAV112@@Z@4HA
	DD	01H
	DD	imagerel ?dtor$8@?0???0MainMenuScene@Scene@Application@@QEAA@AEAPEAV112@@Z@4HA
	DD	01H
	DD	imagerel ?dtor$10@?0???0MainMenuScene@Scene@Application@@QEAA@AEAPEAV112@@Z@4HA
	DD	01H
	DD	imagerel ?dtor$12@?0???0MainMenuScene@Scene@Application@@QEAA@AEAPEAV112@@Z@4HA
xdata	ENDS
;	COMDAT CONST
CONST	SEGMENT
$cppxdata$??0MainMenuScene@Scene@Application@@QEAA@AEAPEAV112@@Z DD 019930522H
	DD	0cH
	DD	imagerel $stateUnwindMap$??0MainMenuScene@Scene@Application@@QEAA@AEAPEAV112@@Z
	DD	00H
	DD	00H
	DD	018H
	DD	imagerel $ip2state$??0MainMenuScene@Scene@Application@@QEAA@AEAPEAV112@@Z
	DD	01f8H
	DD	00H
	DD	01H
CONST	ENDS
;	COMDAT xdata
xdata	SEGMENT
$unwind$??0MainMenuScene@Scene@Application@@QEAA@AEAPEAV112@@Z DD 045043319H
	DD	01124317H
	DD	0500b0044H
	DD	imagerel __GSHandlerCheck_EH
	DD	imagerel $cppxdata$??0MainMenuScene@Scene@Application@@QEAA@AEAPEAV112@@Z
	DD	0212H
xdata	ENDS
;	COMDAT xdata
xdata	SEGMENT
$unwind$?_Tidy@?$vector@U?$pair@PEBDV?$function@$$A6APEAVScene@1Application@@XZ@std@@@std@@V?$allocator@U?$pair@PEBDV?$function@$$A6APEAVScene@1Application@@XZ@std@@@std@@@2@@std@@AEAAXXZ DD 025030f01H
	DD	0d20a230fH
	DD	05006H
xdata	ENDS
;	COMDAT xdata
xdata	SEGMENT
$unwind$?_Destroy@?$vector@U?$pair@PEBDV?$function@$$A6APEAVScene@1Application@@XZ@std@@@std@@V?$allocator@U?$pair@PEBDV?$function@$$A6APEAVScene@1Application@@XZ@std@@@std@@@2@@std@@AEAAXPEAU?$pair@PEBDV?$function@$$A6APEAVScene@1Application@@XZ@std@@@2@0@Z DD 025031901H
	DD	0b2142319H
	DD	05010H
xdata	ENDS
;	COMDAT xdata
xdata	SEGMENT
$unwind$?capacity@?$vector@U?$pair@PEBDV?$function@$$A6APEAVScene@1Application@@XZ@std@@@std@@V?$allocator@U?$pair@PEBDV?$function@$$A6APEAVScene@1Application@@XZ@std@@@std@@@2@@std@@QEBA_KXZ DD 025030f01H
	DD	0d20a230fH
	DD	05006H
xdata	ENDS
;	COMDAT xdata
xdata	SEGMENT
$unwind$?_Unchecked_end@?$vector@U?$pair@PEBDV?$function@$$A6APEAVScene@1Application@@XZ@std@@@std@@V?$allocator@U?$pair@PEBDV?$function@$$A6APEAVScene@1Application@@XZ@std@@@std@@@2@@std@@QEAAPEAU?$pair@PEBDV?$function@$$A6APEAVScene@1Application@@XZ@std@@@2@XZ DD 025030f01H
	DD	0b20a230fH
	DD	05006H
xdata	ENDS
;	COMDAT xdata
xdata	SEGMENT
$unwind$?_Unchecked_begin@?$vector@U?$pair@PEBDV?$function@$$A6APEAVScene@1Application@@XZ@std@@@std@@V?$allocator@U?$pair@PEBDV?$function@$$A6APEAVScene@1Application@@XZ@std@@@std@@@2@@std@@QEAAPEAU?$pair@PEBDV?$function@$$A6APEAVScene@1Application@@XZ@std@@@2@XZ DD 025030f01H
	DD	0b20a230fH
	DD	05006H
xdata	ENDS
;	COMDAT xdata
xdata	SEGMENT
$ip2state$??1?$vector@U?$pair@PEBDV?$function@$$A6APEAVScene@1Application@@XZ@std@@@std@@V?$allocator@U?$pair@PEBDV?$function@$$A6APEAVScene@1Application@@XZ@std@@@std@@@2@@std@@QEAA@XZ DD imagerel ??1?$vector@U?$pair@PEBDV?$function@$$A6APEAVScene@1Application@@XZ@std@@@std@@V?$allocator@U?$pair@PEBDV?$function@$$A6APEAVScene@1Application@@XZ@std@@@std@@@2@@std@@QEAA@XZ
	DD	0ffffffffH
xdata	ENDS
;	COMDAT CONST
CONST	SEGMENT
$cppxdata$??1?$vector@U?$pair@PEBDV?$function@$$A6APEAVScene@1Application@@XZ@std@@@std@@V?$allocator@U?$pair@PEBDV?$function@$$A6APEAVScene@1Application@@XZ@std@@@std@@@2@@std@@QEAA@XZ DD 019930522H
	DD	00H
	DD	00H
	DD	00H
	DD	00H
	DD	01H
	DD	imagerel $ip2state$??1?$vector@U?$pair@PEBDV?$function@$$A6APEAVScene@1Application@@XZ@std@@@std@@V?$allocator@U?$pair@PEBDV?$function@$$A6APEAVScene@1Application@@XZ@std@@@std@@@2@@std@@QEAA@XZ
	DD	060H
	DD	00H
	DD	05H
CONST	ENDS
;	COMDAT xdata
xdata	SEGMENT
$unwind$??1?$vector@U?$pair@PEBDV?$function@$$A6APEAVScene@1Application@@XZ@std@@@std@@V?$allocator@U?$pair@PEBDV?$function@$$A6APEAVScene@1Application@@XZ@std@@@std@@@2@@std@@QEAA@XZ DD 025031719H
	DD	0d20a230fH
	DD	05006H
	DD	imagerel __CxxFrameHandler3
	DD	imagerel $cppxdata$??1?$vector@U?$pair@PEBDV?$function@$$A6APEAVScene@1Application@@XZ@std@@@std@@V?$allocator@U?$pair@PEBDV?$function@$$A6APEAVScene@1Application@@XZ@std@@@std@@@2@@std@@QEAA@XZ
xdata	ENDS
;	COMDAT xdata
xdata	SEGMENT
$ip2state$??0?$vector@U?$pair@PEBDV?$function@$$A6APEAVScene@1Application@@XZ@std@@@std@@V?$allocator@U?$pair@PEBDV?$function@$$A6APEAVScene@1Application@@XZ@std@@@std@@@2@@std@@QEAA@XZ DD imagerel ??0?$vector@U?$pair@PEBDV?$function@$$A6APEAVScene@1Application@@XZ@std@@@std@@V?$allocator@U?$pair@PEBDV?$function@$$A6APEAVScene@1Application@@XZ@std@@@std@@@2@@std@@QEAA@XZ
	DD	0ffffffffH
xdata	ENDS
;	COMDAT CONST
CONST	SEGMENT
$cppxdata$??0?$vector@U?$pair@PEBDV?$function@$$A6APEAVScene@1Application@@XZ@std@@@std@@V?$allocator@U?$pair@PEBDV?$function@$$A6APEAVScene@1Application@@XZ@std@@@std@@@2@@std@@QEAA@XZ DD 019930522H
	DD	00H
	DD	00H
	DD	00H
	DD	00H
	DD	01H
	DD	imagerel $ip2state$??0?$vector@U?$pair@PEBDV?$function@$$A6APEAVScene@1Application@@XZ@std@@@std@@V?$allocator@U?$pair@PEBDV?$function@$$A6APEAVScene@1Application@@XZ@std@@@std@@@2@@std@@QEAA@XZ
	DD	060H
	DD	00H
	DD	05H
CONST	ENDS
;	COMDAT xdata
xdata	SEGMENT
$unwind$??0?$vector@U?$pair@PEBDV?$function@$$A6APEAVScene@1Application@@XZ@std@@@std@@V?$allocator@U?$pair@PEBDV?$function@$$A6APEAVScene@1Application@@XZ@std@@@std@@@2@@std@@QEAA@XZ DD 025031719H
	DD	0d20a230fH
	DD	05006H
	DD	imagerel __CxxFrameHandler3
	DD	imagerel $cppxdata$??0?$vector@U?$pair@PEBDV?$function@$$A6APEAVScene@1Application@@XZ@std@@@std@@V?$allocator@U?$pair@PEBDV?$function@$$A6APEAVScene@1Application@@XZ@std@@@std@@@2@@std@@QEAA@XZ
xdata	ENDS
;	COMDAT xdata
xdata	SEGMENT
$unwind$?_Get_second@?$_Compressed_pair@V?$allocator@U?$pair@PEBDV?$function@$$A6APEAVScene@1Application@@XZ@std@@@std@@@std@@V?$_Vector_val@U?$_Simple_types@U?$pair@PEBDV?$function@$$A6APEAVScene@1Application@@XZ@std@@@std@@@std@@@2@$00@std@@QEBAAEBV?$_Vector_val@U?$_Simple_types@U?$pair@PEBDV?$function@$$A6APEAVScene@1Application@@XZ@std@@@std@@@std@@@2@XZ DD 05030d01H
	DD	0720a030dH
	DD	05006H
xdata	ENDS
;	COMDAT xdata
xdata	SEGMENT
$unwind$?_Get_second@?$_Compressed_pair@V?$allocator@U?$pair@PEBDV?$function@$$A6APEAVScene@1Application@@XZ@std@@@std@@@std@@V?$_Vector_val@U?$_Simple_types@U?$pair@PEBDV?$function@$$A6APEAVScene@1Application@@XZ@std@@@std@@@std@@@2@$00@std@@QEAAAEAV?$_Vector_val@U?$_Simple_types@U?$pair@PEBDV?$function@$$A6APEAVScene@1Application@@XZ@std@@@std@@@std@@@2@XZ DD 05030d01H
	DD	0720a030dH
	DD	05006H
xdata	ENDS
;	COMDAT xdata
xdata	SEGMENT
$unwind$?_Get_first@?$_Compressed_pair@V?$allocator@U?$pair@PEBDV?$function@$$A6APEAVScene@1Application@@XZ@std@@@std@@@std@@V?$_Vector_val@U?$_Simple_types@U?$pair@PEBDV?$function@$$A6APEAVScene@1Application@@XZ@std@@@std@@@std@@@2@$00@std@@QEAAAEAV?$allocator@U?$pair@PEBDV?$function@$$A6APEAVScene@1Application@@XZ@std@@@std@@@2@XZ DD 05030d01H
	DD	0720a030dH
	DD	05006H
xdata	ENDS
;	COMDAT xdata
xdata	SEGMENT
$unwind$??0?$_Vector_val@U?$_Simple_types@U?$pair@PEBDV?$function@$$A6APEAVScene@1Application@@XZ@std@@@std@@@std@@@std@@QEAA@XZ DD 025030f01H
	DD	0b20a230fH
	DD	05006H
xdata	ENDS
;	COMDAT xdata
xdata	SEGMENT
$unwind$?_Myend@?$_Vector_alloc@U?$_Vec_base_types@U?$pair@PEBDV?$function@$$A6APEAVScene@1Application@@XZ@std@@@std@@V?$allocator@U?$pair@PEBDV?$function@$$A6APEAVScene@1Application@@XZ@std@@@std@@@2@@std@@@std@@QEBAAEBQEAU?$pair@PEBDV?$function@$$A6APEAVScene@1Application@@XZ@std@@@2@XZ DD 025030f01H
	DD	0b20a230fH
	DD	05006H
xdata	ENDS
;	COMDAT xdata
xdata	SEGMENT
$unwind$?_Myend@?$_Vector_alloc@U?$_Vec_base_types@U?$pair@PEBDV?$function@$$A6APEAVScene@1Application@@XZ@std@@@std@@V?$allocator@U?$pair@PEBDV?$function@$$A6APEAVScene@1Application@@XZ@std@@@std@@@2@@std@@@std@@QEAAAEAPEAU?$pair@PEBDV?$function@$$A6APEAVScene@1Application@@XZ@std@@@2@XZ DD 025030f01H
	DD	0b20a230fH
	DD	05006H
xdata	ENDS
;	COMDAT xdata
xdata	SEGMENT
$unwind$?_Mylast@?$_Vector_alloc@U?$_Vec_base_types@U?$pair@PEBDV?$function@$$A6APEAVScene@1Application@@XZ@std@@@std@@V?$allocator@U?$pair@PEBDV?$function@$$A6APEAVScene@1Application@@XZ@std@@@std@@@2@@std@@@std@@QEAAAEAPEAU?$pair@PEBDV?$function@$$A6APEAVScene@1Application@@XZ@std@@@2@XZ DD 025030f01H
	DD	0b20a230fH
	DD	05006H
xdata	ENDS
;	COMDAT xdata
xdata	SEGMENT
$unwind$?_Myfirst@?$_Vector_alloc@U?$_Vec_base_types@U?$pair@PEBDV?$function@$$A6APEAVScene@1Application@@XZ@std@@@std@@V?$allocator@U?$pair@PEBDV?$function@$$A6APEAVScene@1Application@@XZ@std@@@std@@@2@@std@@@std@@QEBAAEBQEAU?$pair@PEBDV?$function@$$A6APEAVScene@1Application@@XZ@std@@@2@XZ DD 025030f01H
	DD	0b20a230fH
	DD	05006H
xdata	ENDS
;	COMDAT xdata
xdata	SEGMENT
$unwind$?_Myfirst@?$_Vector_alloc@U?$_Vec_base_types@U?$pair@PEBDV?$function@$$A6APEAVScene@1Application@@XZ@std@@@std@@V?$allocator@U?$pair@PEBDV?$function@$$A6APEAVScene@1Application@@XZ@std@@@std@@@2@@std@@@std@@QEAAAEAPEAU?$pair@PEBDV?$function@$$A6APEAVScene@1Application@@XZ@std@@@2@XZ DD 025030f01H
	DD	0b20a230fH
	DD	05006H
xdata	ENDS
;	COMDAT xdata
xdata	SEGMENT
$unwind$?_Get_data@?$_Vector_alloc@U?$_Vec_base_types@U?$pair@PEBDV?$function@$$A6APEAVScene@1Application@@XZ@std@@@std@@V?$allocator@U?$pair@PEBDV?$function@$$A6APEAVScene@1Application@@XZ@std@@@std@@@2@@std@@@std@@QEBAAEBV?$_Vector_val@U?$_Simple_types@U?$pair@PEBDV?$function@$$A6APEAVScene@1Application@@XZ@std@@@std@@@std@@@2@XZ DD 025030f01H
	DD	0b20a230fH
	DD	05006H
xdata	ENDS
;	COMDAT xdata
xdata	SEGMENT
$unwind$?_Get_data@?$_Vector_alloc@U?$_Vec_base_types@U?$pair@PEBDV?$function@$$A6APEAVScene@1Application@@XZ@std@@@std@@V?$allocator@U?$pair@PEBDV?$function@$$A6APEAVScene@1Application@@XZ@std@@@std@@@2@@std@@@std@@QEAAAEAV?$_Vector_val@U?$_Simple_types@U?$pair@PEBDV?$function@$$A6APEAVScene@1Application@@XZ@std@@@std@@@std@@@2@XZ DD 025030f01H
	DD	0b20a230fH
	DD	05006H
xdata	ENDS
;	COMDAT xdata
xdata	SEGMENT
$unwind$?_Getal@?$_Vector_alloc@U?$_Vec_base_types@U?$pair@PEBDV?$function@$$A6APEAVScene@1Application@@XZ@std@@@std@@V?$allocator@U?$pair@PEBDV?$function@$$A6APEAVScene@1Application@@XZ@std@@@std@@@2@@std@@@std@@QEAAAEAV?$allocator@U?$pair@PEBDV?$function@$$A6APEAVScene@1Application@@XZ@std@@@std@@@2@XZ DD 025030f01H
	DD	0b20a230fH
	DD	05006H
xdata	ENDS
;	COMDAT xdata
xdata	SEGMENT
$unwind$?_Orphan_all@?$_Vector_alloc@U?$_Vec_base_types@U?$pair@PEBDV?$function@$$A6APEAVScene@1Application@@XZ@std@@@std@@V?$allocator@U?$pair@PEBDV?$function@$$A6APEAVScene@1Application@@XZ@std@@@std@@@2@@std@@@std@@QEAAXXZ DD 025030f01H
	DD	0b20a230fH
	DD	05006H
xdata	ENDS
;	COMDAT xdata
xdata	SEGMENT
$unwind$?_Myproxy@?$_Vector_alloc@U?$_Vec_base_types@U?$pair@PEBDV?$function@$$A6APEAVScene@1Application@@XZ@std@@@std@@V?$allocator@U?$pair@PEBDV?$function@$$A6APEAVScene@1Application@@XZ@std@@@std@@@2@@std@@@std@@QEAAAEAPEAU_Container_proxy@2@XZ DD 025030f01H
	DD	0b20a230fH
	DD	05006H
xdata	ENDS
;	COMDAT xdata
xdata	SEGMENT
$unwind$?_Free_proxy@?$_Vector_alloc@U?$_Vec_base_types@U?$pair@PEBDV?$function@$$A6APEAVScene@1Application@@XZ@std@@@std@@V?$allocator@U?$pair@PEBDV?$function@$$A6APEAVScene@1Application@@XZ@std@@@std@@@2@@std@@@std@@QEAAXXZ DD 025031d19H
	DD	0d20a230fH
	DD	05006H
	DD	imagerel __GSHandlerCheck
	DD	068H
xdata	ENDS
;	COMDAT xdata
xdata	SEGMENT
$unwind$?_Alloc_proxy@?$_Vector_alloc@U?$_Vec_base_types@U?$pair@PEBDV?$function@$$A6APEAVScene@1Application@@XZ@std@@@std@@V?$allocator@U?$pair@PEBDV?$function@$$A6APEAVScene@1Application@@XZ@std@@@std@@@2@@std@@@std@@QEAAXXZ DD 025042019H
	DD	010d2312H
	DD	050060012H
	DD	imagerel __GSHandlerCheck
	DD	080H
xdata	ENDS
;	COMDAT xdata
xdata	SEGMENT
$ip2state$??1?$_Vector_alloc@U?$_Vec_base_types@U?$pair@PEBDV?$function@$$A6APEAVScene@1Application@@XZ@std@@@std@@V?$allocator@U?$pair@PEBDV?$function@$$A6APEAVScene@1Application@@XZ@std@@@std@@@2@@std@@@std@@QEAA@XZ DD imagerel ??1?$_Vector_alloc@U?$_Vec_base_types@U?$pair@PEBDV?$function@$$A6APEAVScene@1Application@@XZ@std@@@std@@V?$allocator@U?$pair@PEBDV?$function@$$A6APEAVScene@1Application@@XZ@std@@@std@@@2@@std@@@std@@QEAA@XZ
	DD	0ffffffffH
xdata	ENDS
;	COMDAT CONST
CONST	SEGMENT
$cppxdata$??1?$_Vector_alloc@U?$_Vec_base_types@U?$pair@PEBDV?$function@$$A6APEAVScene@1Application@@XZ@std@@@std@@V?$allocator@U?$pair@PEBDV?$function@$$A6APEAVScene@1Application@@XZ@std@@@std@@@2@@std@@@std@@QEAA@XZ DD 019930522H
	DD	00H
	DD	00H
	DD	00H
	DD	00H
	DD	01H
	DD	imagerel $ip2state$??1?$_Vector_alloc@U?$_Vec_base_types@U?$pair@PEBDV?$function@$$A6APEAVScene@1Application@@XZ@std@@@std@@V?$allocator@U?$pair@PEBDV?$function@$$A6APEAVScene@1Application@@XZ@std@@@std@@@2@@std@@@std@@QEAA@XZ
	DD	060H
	DD	00H
	DD	05H
CONST	ENDS
;	COMDAT xdata
xdata	SEGMENT
$unwind$??1?$_Vector_alloc@U?$_Vec_base_types@U?$pair@PEBDV?$function@$$A6APEAVScene@1Application@@XZ@std@@@std@@V?$allocator@U?$pair@PEBDV?$function@$$A6APEAVScene@1Application@@XZ@std@@@std@@@2@@std@@@std@@QEAA@XZ DD 025031719H
	DD	0d20a230fH
	DD	05006H
	DD	imagerel __CxxFrameHandler3
	DD	imagerel $cppxdata$??1?$_Vector_alloc@U?$_Vec_base_types@U?$pair@PEBDV?$function@$$A6APEAVScene@1Application@@XZ@std@@@std@@V?$allocator@U?$pair@PEBDV?$function@$$A6APEAVScene@1Application@@XZ@std@@@std@@@2@@std@@@std@@QEAA@XZ
xdata	ENDS
;	COMDAT xdata
xdata	SEGMENT
$unwind$??0?$_Vector_alloc@U?$_Vec_base_types@U?$pair@PEBDV?$function@$$A6APEAVScene@1Application@@XZ@std@@@std@@V?$allocator@U?$pair@PEBDV?$function@$$A6APEAVScene@1Application@@XZ@std@@@std@@@2@@std@@@std@@QEAA@XZ DD 025030f01H
	DD	0d20a230fH
	DD	05006H
xdata	ENDS
;	COMDAT xdata
xdata	SEGMENT
$unwind$?deallocate@?$allocator@U?$pair@PEBDV?$function@$$A6APEAVScene@1Application@@XZ@std@@@std@@@std@@QEAAXQEAU?$pair@PEBDV?$function@$$A6APEAVScene@1Application@@XZ@std@@@2@_K@Z DD 025031901H
	DD	0b2142319H
	DD	05010H
xdata	ENDS
;	COMDAT xdata
xdata	SEGMENT
$unwind$??0?$allocator@U?$pair@PEBDV?$function@$$A6APEAVScene@1Application@@XZ@std@@@std@@@std@@QEAA@XZ DD 05030d01H
	DD	0720a030dH
	DD	05006H
xdata	ENDS
;	COMDAT xdata
xdata	SEGMENT
$unwind$??_GIBO@buffers@core@@QEAAPEAXI@Z DD 025031301H
	DD	0b20e2313H
	DD	0500aH
xdata	ENDS
;	COMDAT xdata
xdata	SEGMENT
$unwind$?getCount@IBO@buffers@core@@QEBAHXZ DD 05030d01H
	DD	0720a030dH
	DD	05006H
xdata	ENDS
;	COMDAT xdata
xdata	SEGMENT
$unwind$??_GVAO@buffers@core@@QEAAPEAXI@Z DD 025031301H
	DD	0b20e2313H
	DD	0500aH
xdata	ENDS
;	COMDAT xdata
xdata	SEGMENT
$unwind$??_GBufferLayout@buffers@core@@QEAAPEAXI@Z DD 025031301H
	DD	0b20e2313H
	DD	0500aH
xdata	ENDS
;	COMDAT xdata
xdata	SEGMENT
$unwind$?__autoclassinit2@BufferLayout@buffers@core@@QEAAX_K@Z DD 05041301H
	DD	082100313H
	DD	0500b700cH
xdata	ENDS
;	COMDAT xdata
xdata	SEGMENT
$unwind$??1BufferLayout@buffers@core@@QEAA@XZ DD 025030f01H
	DD	0b20a230fH
	DD	05006H
xdata	ENDS
;	COMDAT xdata
xdata	SEGMENT
$unwind$??$push@M@BufferLayout@buffers@core@@QEAAXI@Z DD 025031301H
	DD	0d20e2313H
	DD	0500aH
xdata	ENDS
;	COMDAT xdata
xdata	SEGMENT
$unwind$??0BufferLayout@buffers@core@@QEAA@XZ DD 025030f01H
	DD	0b20a230fH
	DD	05006H
xdata	ENDS
;	COMDAT xdata
xdata	SEGMENT
$unwind$?dtor$0@?0??_Orphan_range@?$vector@UBufferElement@buffers@core@@V?$allocator@UBufferElement@buffers@core@@@std@@@std@@AEBAXPEAUBufferElement@buffers@core@@0@Z@4HA DD 020601H
	DD	050023206H
xdata	ENDS
;	COMDAT xdata
xdata	SEGMENT
$ip2state$?_Orphan_range@?$vector@UBufferElement@buffers@core@@V?$allocator@UBufferElement@buffers@core@@@std@@@std@@AEBAXPEAUBufferElement@buffers@core@@0@Z DD imagerel ?_Orphan_range@?$vector@UBufferElement@buffers@core@@V?$allocator@UBufferElement@buffers@core@@@std@@@std@@AEBAXPEAUBufferElement@buffers@core@@0@Z
	DD	0ffffffffH
	DD	imagerel ?_Orphan_range@?$vector@UBufferElement@buffers@core@@V?$allocator@UBufferElement@buffers@core@@@std@@@std@@AEBAXPEAUBufferElement@buffers@core@@0@Z+66
	DD	00H
	DD	imagerel ?_Orphan_range@?$vector@UBufferElement@buffers@core@@V?$allocator@UBufferElement@buffers@core@@@std@@@std@@AEBAXPEAUBufferElement@buffers@core@@0@Z+187
	DD	0ffffffffH
xdata	ENDS
;	COMDAT xdata
xdata	SEGMENT
$stateUnwindMap$?_Orphan_range@?$vector@UBufferElement@buffers@core@@V?$allocator@UBufferElement@buffers@core@@@std@@@std@@AEBAXPEAUBufferElement@buffers@core@@0@Z DD 0ffffffffH
	DD	imagerel ?dtor$0@?0??_Orphan_range@?$vector@UBufferElement@buffers@core@@V?$allocator@UBufferElement@buffers@core@@@std@@@std@@AEBAXPEAUBufferElement@buffers@core@@0@Z@4HA
xdata	ENDS
;	COMDAT CONST
CONST	SEGMENT
$cppxdata$?_Orphan_range@?$vector@UBufferElement@buffers@core@@V?$allocator@UBufferElement@buffers@core@@@std@@@std@@AEBAXPEAUBufferElement@buffers@core@@0@Z DD 019930522H
	DD	01H
	DD	imagerel $stateUnwindMap$?_Orphan_range@?$vector@UBufferElement@buffers@core@@V?$allocator@UBufferElement@buffers@core@@@std@@@std@@AEBAXPEAUBufferElement@buffers@core@@0@Z
	DD	00H
	DD	00H
	DD	03H
	DD	imagerel $ip2state$?_Orphan_range@?$vector@UBufferElement@buffers@core@@V?$allocator@UBufferElement@buffers@core@@@std@@@std@@AEBAXPEAUBufferElement@buffers@core@@0@Z
	DD	070H
	DD	00H
	DD	01H
CONST	ENDS
;	COMDAT xdata
xdata	SEGMENT
$unwind$?_Orphan_range@?$vector@UBufferElement@buffers@core@@V?$allocator@UBufferElement@buffers@core@@@std@@@std@@AEBAXPEAUBufferElement@buffers@core@@0@Z DD 025033219H
	DD	0f217231cH
	DD	05010H
	DD	imagerel __GSHandlerCheck_EH
	DD	imagerel $cppxdata$?_Orphan_range@?$vector@UBufferElement@buffers@core@@V?$allocator@UBufferElement@buffers@core@@@std@@@std@@AEBAXPEAUBufferElement@buffers@core@@0@Z
	DD	07aH
xdata	ENDS
;	COMDAT xdata
xdata	SEGMENT
$unwind$?_Xlength@?$vector@UBufferElement@buffers@core@@V?$allocator@UBufferElement@buffers@core@@@std@@@std@@CAXXZ DD 025030b01H
	DD	0b206230bH
	DD	05002H
xdata	ENDS
;	COMDAT xdata
xdata	SEGMENT
$unwind$?_Tidy@?$vector@UBufferElement@buffers@core@@V?$allocator@UBufferElement@buffers@core@@@std@@@std@@AEAAXXZ DD 025030f01H
	DD	0d20a230fH
	DD	05006H
xdata	ENDS
;	COMDAT xdata
xdata	SEGMENT
$unwind$?_Change_array@?$vector@UBufferElement@buffers@core@@V?$allocator@UBufferElement@buffers@core@@@std@@@std@@AEAAXQEAUBufferElement@buffers@core@@_K1@Z DD 025031e01H
	DD	0d219231eH
	DD	05015H
xdata	ENDS
;	COMDAT xdata
xdata	SEGMENT
$unwind$?_Calculate_growth@?$vector@UBufferElement@buffers@core@@V?$allocator@UBufferElement@buffers@core@@@std@@@std@@AEBA_K_K@Z DD 025031701H
	DD	0f2122317H
	DD	0500bH
xdata	ENDS
;	COMDAT xdata
xdata	SEGMENT
$unwind$?_Destroy@?$vector@UBufferElement@buffers@core@@V?$allocator@UBufferElement@buffers@core@@@std@@@std@@AEAAXPEAUBufferElement@buffers@core@@0@Z DD 025031901H
	DD	0b2142319H
	DD	05010H
xdata	ENDS
;	COMDAT xdata
xdata	SEGMENT
$unwind$?_Umove_if_noexcept@?$vector@UBufferElement@buffers@core@@V?$allocator@UBufferElement@buffers@core@@@std@@@std@@AEAAXPEAUBufferElement@buffers@core@@00@Z DD 035052201H
	DD	011d3322H
	DD	070160011H
	DD	05015H
xdata	ENDS
;	COMDAT xdata
xdata	SEGMENT
$unwind$?_Umove_if_noexcept1@?$vector@UBufferElement@buffers@core@@V?$allocator@UBufferElement@buffers@core@@@std@@@std@@AEAAXPEAUBufferElement@buffers@core@@00U?$integral_constant@_N$00@2@@Z DD 025031e01H
	DD	0b219231eH
	DD	05015H
xdata	ENDS
;	COMDAT xdata
xdata	SEGMENT
$unwind$?_Umove@?$vector@UBufferElement@buffers@core@@V?$allocator@UBufferElement@buffers@core@@@std@@@std@@AEAAPEAUBufferElement@buffers@core@@PEAU345@00@Z DD 025031e01H
	DD	0b219231eH
	DD	05015H
xdata	ENDS
;	COMDAT xdata
xdata	SEGMENT
$unwind$?_Has_unused_capacity@?$vector@UBufferElement@buffers@core@@V?$allocator@UBufferElement@buffers@core@@@std@@@std@@AEBA_NXZ DD 025030f01H
	DD	0d20a230fH
	DD	05006H
xdata	ENDS
;	COMDAT xdata
xdata	SEGMENT
$unwind$?capacity@?$vector@UBufferElement@buffers@core@@V?$allocator@UBufferElement@buffers@core@@@std@@@std@@QEBA_KXZ DD 025030f01H
	DD	0d20a230fH
	DD	05006H
xdata	ENDS
;	COMDAT xdata
xdata	SEGMENT
$unwind$?max_size@?$vector@UBufferElement@buffers@core@@V?$allocator@UBufferElement@buffers@core@@@std@@@std@@QEBA_KXZ DD 025030f01H
	DD	0d20a230fH
	DD	05006H
xdata	ENDS
;	COMDAT xdata
xdata	SEGMENT
$unwind$?size@?$vector@UBufferElement@buffers@core@@V?$allocator@UBufferElement@buffers@core@@@std@@@std@@QEBA_KXZ DD 025030f01H
	DD	0d20a230fH
	DD	05006H
xdata	ENDS
;	COMDAT xdata
xdata	SEGMENT
$unwind$?push_back@?$vector@UBufferElement@buffers@core@@V?$allocator@UBufferElement@buffers@core@@@std@@@std@@QEAAX$$QEAUBufferElement@buffers@core@@@Z DD 025031401H
	DD	0b20f2314H
	DD	0500bH
xdata	ENDS
;	COMDAT xdata
xdata	SEGMENT
$ip2state$??1?$vector@UBufferElement@buffers@core@@V?$allocator@UBufferElement@buffers@core@@@std@@@std@@QEAA@XZ DD imagerel ??1?$vector@UBufferElement@buffers@core@@V?$allocator@UBufferElement@buffers@core@@@std@@@std@@QEAA@XZ
	DD	0ffffffffH
xdata	ENDS
;	COMDAT CONST
CONST	SEGMENT
$cppxdata$??1?$vector@UBufferElement@buffers@core@@V?$allocator@UBufferElement@buffers@core@@@std@@@std@@QEAA@XZ DD 019930522H
	DD	00H
	DD	00H
	DD	00H
	DD	00H
	DD	01H
	DD	imagerel $ip2state$??1?$vector@UBufferElement@buffers@core@@V?$allocator@UBufferElement@buffers@core@@@std@@@std@@QEAA@XZ
	DD	060H
	DD	00H
	DD	05H
CONST	ENDS
;	COMDAT xdata
xdata	SEGMENT
$unwind$??1?$vector@UBufferElement@buffers@core@@V?$allocator@UBufferElement@buffers@core@@@std@@@std@@QEAA@XZ DD 025031719H
	DD	0d20a230fH
	DD	05006H
	DD	imagerel __CxxFrameHandler3
	DD	imagerel $cppxdata$??1?$vector@UBufferElement@buffers@core@@V?$allocator@UBufferElement@buffers@core@@@std@@@std@@QEAA@XZ
xdata	ENDS
;	COMDAT xdata
xdata	SEGMENT
$ip2state$??0?$vector@UBufferElement@buffers@core@@V?$allocator@UBufferElement@buffers@core@@@std@@@std@@QEAA@XZ DD imagerel ??0?$vector@UBufferElement@buffers@core@@V?$allocator@UBufferElement@buffers@core@@@std@@@std@@QEAA@XZ
	DD	0ffffffffH
xdata	ENDS
;	COMDAT CONST
CONST	SEGMENT
$cppxdata$??0?$vector@UBufferElement@buffers@core@@V?$allocator@UBufferElement@buffers@core@@@std@@@std@@QEAA@XZ DD 019930522H
	DD	00H
	DD	00H
	DD	00H
	DD	00H
	DD	01H
	DD	imagerel $ip2state$??0?$vector@UBufferElement@buffers@core@@V?$allocator@UBufferElement@buffers@core@@@std@@@std@@QEAA@XZ
	DD	060H
	DD	00H
	DD	05H
CONST	ENDS
;	COMDAT xdata
xdata	SEGMENT
$unwind$??0?$vector@UBufferElement@buffers@core@@V?$allocator@UBufferElement@buffers@core@@@std@@@std@@QEAA@XZ DD 025031719H
	DD	0d20a230fH
	DD	05006H
	DD	imagerel __CxxFrameHandler3
	DD	imagerel $cppxdata$??0?$vector@UBufferElement@buffers@core@@V?$allocator@UBufferElement@buffers@core@@@std@@@std@@QEAA@XZ
xdata	ENDS
;	COMDAT xdata
xdata	SEGMENT
$unwind$?_Get_second@?$_Compressed_pair@V?$allocator@UBufferElement@buffers@core@@@std@@V?$_Vector_val@U?$_Simple_types@UBufferElement@buffers@core@@@std@@@2@$00@std@@QEBAAEBV?$_Vector_val@U?$_Simple_types@UBufferElement@buffers@core@@@std@@@2@XZ DD 05030d01H
	DD	0720a030dH
	DD	05006H
xdata	ENDS
;	COMDAT xdata
xdata	SEGMENT
$unwind$?_Get_second@?$_Compressed_pair@V?$allocator@UBufferElement@buffers@core@@@std@@V?$_Vector_val@U?$_Simple_types@UBufferElement@buffers@core@@@std@@@2@$00@std@@QEAAAEAV?$_Vector_val@U?$_Simple_types@UBufferElement@buffers@core@@@std@@@2@XZ DD 05030d01H
	DD	0720a030dH
	DD	05006H
xdata	ENDS
;	COMDAT xdata
xdata	SEGMENT
$unwind$?_Get_first@?$_Compressed_pair@V?$allocator@UBufferElement@buffers@core@@@std@@V?$_Vector_val@U?$_Simple_types@UBufferElement@buffers@core@@@std@@@2@$00@std@@QEBAAEBV?$allocator@UBufferElement@buffers@core@@@2@XZ DD 05030d01H
	DD	0720a030dH
	DD	05006H
xdata	ENDS
;	COMDAT xdata
xdata	SEGMENT
$unwind$?_Get_first@?$_Compressed_pair@V?$allocator@UBufferElement@buffers@core@@@std@@V?$_Vector_val@U?$_Simple_types@UBufferElement@buffers@core@@@std@@@2@$00@std@@QEAAAEAV?$allocator@UBufferElement@buffers@core@@@2@XZ DD 05030d01H
	DD	0720a030dH
	DD	05006H
xdata	ENDS
;	COMDAT xdata
xdata	SEGMENT
$unwind$??0?$_Vector_val@U?$_Simple_types@UBufferElement@buffers@core@@@std@@@std@@QEAA@XZ DD 025030f01H
	DD	0b20a230fH
	DD	05006H
xdata	ENDS
;	COMDAT xdata
xdata	SEGMENT
$unwind$?_Myend@?$_Vector_alloc@U?$_Vec_base_types@UBufferElement@buffers@core@@V?$allocator@UBufferElement@buffers@core@@@std@@@std@@@std@@QEBAAEBQEAUBufferElement@buffers@core@@XZ DD 025030f01H
	DD	0b20a230fH
	DD	05006H
xdata	ENDS
;	COMDAT xdata
xdata	SEGMENT
$unwind$?_Myend@?$_Vector_alloc@U?$_Vec_base_types@UBufferElement@buffers@core@@V?$allocator@UBufferElement@buffers@core@@@std@@@std@@@std@@QEAAAEAPEAUBufferElement@buffers@core@@XZ DD 025030f01H
	DD	0b20a230fH
	DD	05006H
xdata	ENDS
;	COMDAT xdata
xdata	SEGMENT
$unwind$?_Mylast@?$_Vector_alloc@U?$_Vec_base_types@UBufferElement@buffers@core@@V?$allocator@UBufferElement@buffers@core@@@std@@@std@@@std@@QEBAAEBQEAUBufferElement@buffers@core@@XZ DD 025030f01H
	DD	0b20a230fH
	DD	05006H
xdata	ENDS
;	COMDAT xdata
xdata	SEGMENT
$unwind$?_Mylast@?$_Vector_alloc@U?$_Vec_base_types@UBufferElement@buffers@core@@V?$allocator@UBufferElement@buffers@core@@@std@@@std@@@std@@QEAAAEAPEAUBufferElement@buffers@core@@XZ DD 025030f01H
	DD	0b20a230fH
	DD	05006H
xdata	ENDS
;	COMDAT xdata
xdata	SEGMENT
$unwind$?_Myfirst@?$_Vector_alloc@U?$_Vec_base_types@UBufferElement@buffers@core@@V?$allocator@UBufferElement@buffers@core@@@std@@@std@@@std@@QEBAAEBQEAUBufferElement@buffers@core@@XZ DD 025030f01H
	DD	0b20a230fH
	DD	05006H
xdata	ENDS
;	COMDAT xdata
xdata	SEGMENT
$unwind$?_Myfirst@?$_Vector_alloc@U?$_Vec_base_types@UBufferElement@buffers@core@@V?$allocator@UBufferElement@buffers@core@@@std@@@std@@@std@@QEAAAEAPEAUBufferElement@buffers@core@@XZ DD 025030f01H
	DD	0b20a230fH
	DD	05006H
xdata	ENDS
;	COMDAT xdata
xdata	SEGMENT
$unwind$?_Get_data@?$_Vector_alloc@U?$_Vec_base_types@UBufferElement@buffers@core@@V?$allocator@UBufferElement@buffers@core@@@std@@@std@@@std@@QEBAAEBV?$_Vector_val@U?$_Simple_types@UBufferElement@buffers@core@@@std@@@2@XZ DD 025030f01H
	DD	0b20a230fH
	DD	05006H
xdata	ENDS
;	COMDAT xdata
xdata	SEGMENT
$unwind$?_Get_data@?$_Vector_alloc@U?$_Vec_base_types@UBufferElement@buffers@core@@V?$allocator@UBufferElement@buffers@core@@@std@@@std@@@std@@QEAAAEAV?$_Vector_val@U?$_Simple_types@UBufferElement@buffers@core@@@std@@@2@XZ DD 025030f01H
	DD	0b20a230fH
	DD	05006H
xdata	ENDS
;	COMDAT xdata
xdata	SEGMENT
$unwind$?_Getal@?$_Vector_alloc@U?$_Vec_base_types@UBufferElement@buffers@core@@V?$allocator@UBufferElement@buffers@core@@@std@@@std@@@std@@QEBAAEBV?$allocator@UBufferElement@buffers@core@@@2@XZ DD 025030f01H
	DD	0b20a230fH
	DD	05006H
xdata	ENDS
;	COMDAT xdata
xdata	SEGMENT
$unwind$?_Getal@?$_Vector_alloc@U?$_Vec_base_types@UBufferElement@buffers@core@@V?$allocator@UBufferElement@buffers@core@@@std@@@std@@@std@@QEAAAEAV?$allocator@UBufferElement@buffers@core@@@2@XZ DD 025030f01H
	DD	0b20a230fH
	DD	05006H
xdata	ENDS
;	COMDAT xdata
xdata	SEGMENT
$unwind$?_Orphan_all@?$_Vector_alloc@U?$_Vec_base_types@UBufferElement@buffers@core@@V?$allocator@UBufferElement@buffers@core@@@std@@@std@@@std@@QEAAXXZ DD 025030f01H
	DD	0b20a230fH
	DD	05006H
xdata	ENDS
;	COMDAT xdata
xdata	SEGMENT
$unwind$?_Myproxy@?$_Vector_alloc@U?$_Vec_base_types@UBufferElement@buffers@core@@V?$allocator@UBufferElement@buffers@core@@@std@@@std@@@std@@QEAAAEAPEAU_Container_proxy@2@XZ DD 025030f01H
	DD	0b20a230fH
	DD	05006H
xdata	ENDS
;	COMDAT xdata
xdata	SEGMENT
$unwind$?_Getpfirst@?$_Vector_alloc@U?$_Vec_base_types@UBufferElement@buffers@core@@V?$allocator@UBufferElement@buffers@core@@@std@@@std@@@std@@QEBAPEAPEAU_Iterator_base12@2@XZ DD 025030f01H
	DD	0b20a230fH
	DD	05006H
xdata	ENDS
;	COMDAT xdata
xdata	SEGMENT
$unwind$?_Free_proxy@?$_Vector_alloc@U?$_Vec_base_types@UBufferElement@buffers@core@@V?$allocator@UBufferElement@buffers@core@@@std@@@std@@@std@@QEAAXXZ DD 025031d19H
	DD	0d20a230fH
	DD	05006H
	DD	imagerel __GSHandlerCheck
	DD	068H
xdata	ENDS
;	COMDAT xdata
xdata	SEGMENT
$unwind$?_Alloc_proxy@?$_Vector_alloc@U?$_Vec_base_types@UBufferElement@buffers@core@@V?$allocator@UBufferElement@buffers@core@@@std@@@std@@@std@@QEAAXXZ DD 025042019H
	DD	010d2312H
	DD	050060012H
	DD	imagerel __GSHandlerCheck
	DD	080H
xdata	ENDS
;	COMDAT xdata
xdata	SEGMENT
$ip2state$??1?$_Vector_alloc@U?$_Vec_base_types@UBufferElement@buffers@core@@V?$allocator@UBufferElement@buffers@core@@@std@@@std@@@std@@QEAA@XZ DD imagerel ??1?$_Vector_alloc@U?$_Vec_base_types@UBufferElement@buffers@core@@V?$allocator@UBufferElement@buffers@core@@@std@@@std@@@std@@QEAA@XZ
	DD	0ffffffffH
xdata	ENDS
;	COMDAT CONST
CONST	SEGMENT
$cppxdata$??1?$_Vector_alloc@U?$_Vec_base_types@UBufferElement@buffers@core@@V?$allocator@UBufferElement@buffers@core@@@std@@@std@@@std@@QEAA@XZ DD 019930522H
	DD	00H
	DD	00H
	DD	00H
	DD	00H
	DD	01H
	DD	imagerel $ip2state$??1?$_Vector_alloc@U?$_Vec_base_types@UBufferElement@buffers@core@@V?$allocator@UBufferElement@buffers@core@@@std@@@std@@@std@@QEAA@XZ
	DD	060H
	DD	00H
	DD	05H
CONST	ENDS
;	COMDAT xdata
xdata	SEGMENT
$unwind$??1?$_Vector_alloc@U?$_Vec_base_types@UBufferElement@buffers@core@@V?$allocator@UBufferElement@buffers@core@@@std@@@std@@@std@@QEAA@XZ DD 025031719H
	DD	0d20a230fH
	DD	05006H
	DD	imagerel __CxxFrameHandler3
	DD	imagerel $cppxdata$??1?$_Vector_alloc@U?$_Vec_base_types@UBufferElement@buffers@core@@V?$allocator@UBufferElement@buffers@core@@@std@@@std@@@std@@QEAA@XZ
xdata	ENDS
;	COMDAT xdata
xdata	SEGMENT
$unwind$??0?$_Vector_alloc@U?$_Vec_base_types@UBufferElement@buffers@core@@V?$allocator@UBufferElement@buffers@core@@@std@@@std@@@std@@QEAA@XZ DD 025030f01H
	DD	0d20a230fH
	DD	05006H
xdata	ENDS
;	COMDAT xdata
xdata	SEGMENT
$unwind$?max_size@?$_Default_allocator_traits@V?$allocator@UBufferElement@buffers@core@@@std@@@std@@SA_KAEBV?$allocator@UBufferElement@buffers@core@@@2@@Z DD 05030d01H
	DD	0720a030dH
	DD	05006H
xdata	ENDS
;	COMDAT xdata
xdata	SEGMENT
$unwind$?allocate@?$allocator@UBufferElement@buffers@core@@@std@@QEAAPEAUBufferElement@buffers@core@@_K@Z DD 025031401H
	DD	0b20f2314H
	DD	0500bH
xdata	ENDS
;	COMDAT xdata
xdata	SEGMENT
$unwind$?deallocate@?$allocator@UBufferElement@buffers@core@@@std@@QEAAXQEAUBufferElement@buffers@core@@_K@Z DD 025031901H
	DD	0b2142319H
	DD	05010H
xdata	ENDS
;	COMDAT xdata
xdata	SEGMENT
$unwind$??0?$allocator@UBufferElement@buffers@core@@@std@@QEAA@XZ DD 05030d01H
	DD	0720a030dH
	DD	05006H
xdata	ENDS
;	COMDAT xdata
xdata	SEGMENT
$unwind$?SizeOfType@BufferElement@buffers@core@@SAII@Z DD 05030c01H
	DD	09209030cH
	DD	05005H
xdata	ENDS
;	COMDAT xdata
xdata	SEGMENT
$unwind$??_GVBO@buffers@core@@QEAAPEAXI@Z DD 025031301H
	DD	0b20e2313H
	DD	0500aH
xdata	ENDS
;	COMDAT xdata
xdata	SEGMENT
$unwind$??_GTexture@graphics@core@@QEAAPEAXI@Z DD 025031301H
	DD	0b20e2313H
	DD	0500aH
xdata	ENDS
;	COMDAT xdata
xdata	SEGMENT
$unwind$?__autoclassinit2@Texture@graphics@core@@QEAAX_K@Z DD 05041301H
	DD	082100313H
	DD	0500b700cH
xdata	ENDS
;	COMDAT xdata
xdata	SEGMENT
$unwind$??_GShader@graphics@core@@QEAAPEAXI@Z DD 025031301H
	DD	0b20e2313H
	DD	0500aH
xdata	ENDS
;	COMDAT xdata
xdata	SEGMENT
$unwind$?_Xlen@?$basic_string@DU?$char_traits@D@std@@V?$allocator@D@2@@std@@SAXXZ DD 025030b01H
	DD	0b206230bH
	DD	05002H
xdata	ENDS
;	COMDAT xdata
xdata	SEGMENT
$unwind$?_Tidy_deallocate@?$basic_string@DU?$char_traits@D@std@@V?$allocator@D@2@@std@@QEAAXXZ DD 025031201H
	DD	0f20d2312H
	DD	05006H
xdata	ENDS
;	COMDAT xdata
xdata	SEGMENT
$unwind$?_Tidy_init@?$basic_string@DU?$char_traits@D@std@@V?$allocator@D@2@@std@@QEAAXXZ DD 025030f01H
	DD	0d20a230fH
	DD	05006H
xdata	ENDS
;	COMDAT xdata
xdata	SEGMENT
$unwind$?_Calculate_growth@?$basic_string@DU?$char_traits@D@std@@V?$allocator@D@2@@std@@QEBA_K_K@Z DD 025042519H
	DD	01122317H
	DD	0500b0012H
	DD	imagerel __GSHandlerCheck
	DD	088H
xdata	ENDS
;	COMDAT xdata
xdata	SEGMENT
$unwind$?max_size@?$basic_string@DU?$char_traits@D@std@@V?$allocator@D@2@@std@@QEBA_KXZ DD 025042019H
	DD	010d2312H
	DD	050060012H
	DD	imagerel __GSHandlerCheck
	DD	088H
xdata	ENDS
;	COMDAT xdata
xdata	SEGMENT
$unwind$?assign@?$basic_string@DU?$char_traits@D@std@@V?$allocator@D@2@@std@@QEAAAEAV12@QEBD@Z DD 025031401H
	DD	0b20f2314H
	DD	0500bH
xdata	ENDS
;	COMDAT xdata
xdata	SEGMENT
$unwind$?assign@?$basic_string@DU?$char_traits@D@std@@V?$allocator@D@2@@std@@QEAAAEAV12@QEBD_K@Z DD 025051d01H
	DD	0118231dH
	DD	070110011H
	DD	05010H
xdata	ENDS
;	COMDAT xdata
xdata	SEGMENT
$ip2state$??1?$basic_string@DU?$char_traits@D@std@@V?$allocator@D@2@@std@@QEAA@XZ DD imagerel ??1?$basic_string@DU?$char_traits@D@std@@V?$allocator@D@2@@std@@QEAA@XZ
	DD	0ffffffffH
xdata	ENDS
;	COMDAT CONST
CONST	SEGMENT
$cppxdata$??1?$basic_string@DU?$char_traits@D@std@@V?$allocator@D@2@@std@@QEAA@XZ DD 019930522H
	DD	00H
	DD	00H
	DD	00H
	DD	00H
	DD	01H
	DD	imagerel $ip2state$??1?$basic_string@DU?$char_traits@D@std@@V?$allocator@D@2@@std@@QEAA@XZ
	DD	060H
	DD	00H
	DD	05H
CONST	ENDS
;	COMDAT xdata
xdata	SEGMENT
$unwind$??1?$basic_string@DU?$char_traits@D@std@@V?$allocator@D@2@@std@@QEAA@XZ DD 025031719H
	DD	0d20a230fH
	DD	05006H
	DD	imagerel __CxxFrameHandler3
	DD	imagerel $cppxdata$??1?$basic_string@DU?$char_traits@D@std@@V?$allocator@D@2@@std@@QEAA@XZ
xdata	ENDS
;	COMDAT xdata
xdata	SEGMENT
$unwind$?dtor$0@?0???0?$basic_string@DU?$char_traits@D@std@@V?$allocator@D@2@@std@@QEAA@QEBD@Z@4HA DD 020601H
	DD	050023206H
xdata	ENDS
;	COMDAT xdata
xdata	SEGMENT
$ip2state$??0?$basic_string@DU?$char_traits@D@std@@V?$allocator@D@2@@std@@QEAA@QEBD@Z DD imagerel ??0?$basic_string@DU?$char_traits@D@std@@V?$allocator@D@2@@std@@QEAA@QEBD@Z
	DD	0ffffffffH
	DD	imagerel ??0?$basic_string@DU?$char_traits@D@std@@V?$allocator@D@2@@std@@QEAA@QEBD@Z+38
	DD	00H
	DD	imagerel ??0?$basic_string@DU?$char_traits@D@std@@V?$allocator@D@2@@std@@QEAA@QEBD@Z+61
	DD	0ffffffffH
xdata	ENDS
;	COMDAT xdata
xdata	SEGMENT
$stateUnwindMap$??0?$basic_string@DU?$char_traits@D@std@@V?$allocator@D@2@@std@@QEAA@QEBD@Z DD 0ffffffffH
	DD	imagerel ?dtor$0@?0???0?$basic_string@DU?$char_traits@D@std@@V?$allocator@D@2@@std@@QEAA@QEBD@Z@4HA
xdata	ENDS
;	COMDAT CONST
CONST	SEGMENT
$cppxdata$??0?$basic_string@DU?$char_traits@D@std@@V?$allocator@D@2@@std@@QEAA@QEBD@Z DD 019930522H
	DD	01H
	DD	imagerel $stateUnwindMap$??0?$basic_string@DU?$char_traits@D@std@@V?$allocator@D@2@@std@@QEAA@QEBD@Z
	DD	00H
	DD	00H
	DD	03H
	DD	imagerel $ip2state$??0?$basic_string@DU?$char_traits@D@std@@V?$allocator@D@2@@std@@QEAA@QEBD@Z
	DD	060H
	DD	00H
	DD	01H
CONST	ENDS
;	COMDAT xdata
xdata	SEGMENT
$unwind$??0?$basic_string@DU?$char_traits@D@std@@V?$allocator@D@2@@std@@QEAA@QEBD@Z DD 025031c11H
	DD	0d20f2314H
	DD	0500bH
	DD	imagerel __CxxFrameHandler3
	DD	imagerel $cppxdata$??0?$basic_string@DU?$char_traits@D@std@@V?$allocator@D@2@@std@@QEAA@QEBD@Z
xdata	ENDS
;	COMDAT xdata
xdata	SEGMENT
$unwind$??1?$_Compressed_pair@V?$allocator@D@std@@V?$_String_val@U?$_Simple_types@D@std@@@2@$00@std@@QEAA@XZ DD 025030f01H
	DD	0b20a230fH
	DD	05006H
xdata	ENDS
;	COMDAT xdata
xdata	SEGMENT
$unwind$?_Get_second@?$_Compressed_pair@V?$allocator@D@std@@V?$_String_val@U?$_Simple_types@D@std@@@2@$00@std@@QEBAAEBV?$_String_val@U?$_Simple_types@D@std@@@2@XZ DD 05030d01H
	DD	0720a030dH
	DD	05006H
xdata	ENDS
;	COMDAT xdata
xdata	SEGMENT
$unwind$?_Get_second@?$_Compressed_pair@V?$allocator@D@std@@V?$_String_val@U?$_Simple_types@D@std@@@2@$00@std@@QEAAAEAV?$_String_val@U?$_Simple_types@D@std@@@2@XZ DD 05030d01H
	DD	0720a030dH
	DD	05006H
xdata	ENDS
;	COMDAT xdata
xdata	SEGMENT
$unwind$?_Get_first@?$_Compressed_pair@V?$allocator@D@std@@V?$_String_val@U?$_Simple_types@D@std@@@2@$00@std@@QEBAAEBV?$allocator@D@2@XZ DD 05030d01H
	DD	0720a030dH
	DD	05006H
xdata	ENDS
;	COMDAT xdata
xdata	SEGMENT
$unwind$?_Get_first@?$_Compressed_pair@V?$allocator@D@std@@V?$_String_val@U?$_Simple_types@D@std@@@2@$00@std@@QEAAAEAV?$allocator@D@2@XZ DD 05030d01H
	DD	0720a030dH
	DD	05006H
xdata	ENDS
;	COMDAT xdata
xdata	SEGMENT
$unwind$?_Get_data@?$_String_alloc@U?$_String_base_types@DV?$allocator@D@std@@@std@@@std@@QEBAAEBV?$_String_val@U?$_Simple_types@D@std@@@2@XZ DD 025030f01H
	DD	0b20a230fH
	DD	05006H
xdata	ENDS
;	COMDAT xdata
xdata	SEGMENT
$unwind$?_Get_data@?$_String_alloc@U?$_String_base_types@DV?$allocator@D@std@@@std@@@std@@QEAAAEAV?$_String_val@U?$_Simple_types@D@std@@@2@XZ DD 025030f01H
	DD	0b20a230fH
	DD	05006H
xdata	ENDS
;	COMDAT xdata
xdata	SEGMENT
$unwind$?_Getal@?$_String_alloc@U?$_String_base_types@DV?$allocator@D@std@@@std@@@std@@QEBAAEBV?$allocator@D@2@XZ DD 025030f01H
	DD	0b20a230fH
	DD	05006H
xdata	ENDS
;	COMDAT xdata
xdata	SEGMENT
$unwind$?_Getal@?$_String_alloc@U?$_String_base_types@DV?$allocator@D@std@@@std@@@std@@QEAAAEAV?$allocator@D@2@XZ DD 025030f01H
	DD	0b20a230fH
	DD	05006H
xdata	ENDS
;	COMDAT xdata
xdata	SEGMENT
$unwind$?_Orphan_all@?$_String_alloc@U?$_String_base_types@DV?$allocator@D@std@@@std@@@std@@QEAAXXZ DD 025030f01H
	DD	0b20a230fH
	DD	05006H
xdata	ENDS
;	COMDAT xdata
xdata	SEGMENT
$unwind$?_Myproxy@?$_String_alloc@U?$_String_base_types@DV?$allocator@D@std@@@std@@@std@@QEAAAEAPEAU_Container_proxy@2@XZ DD 025030f01H
	DD	0b20a230fH
	DD	05006H
xdata	ENDS
;	COMDAT xdata
xdata	SEGMENT
$unwind$?_Free_proxy@?$_String_alloc@U?$_String_base_types@DV?$allocator@D@std@@@std@@@std@@QEAAXXZ DD 025031d19H
	DD	0d20a230fH
	DD	05006H
	DD	imagerel __GSHandlerCheck
	DD	068H
xdata	ENDS
;	COMDAT xdata
xdata	SEGMENT
$unwind$?_Alloc_proxy@?$_String_alloc@U?$_String_base_types@DV?$allocator@D@std@@@std@@@std@@QEAAXXZ DD 025042019H
	DD	010d2312H
	DD	050060012H
	DD	imagerel __GSHandlerCheck
	DD	080H
xdata	ENDS
;	COMDAT xdata
xdata	SEGMENT
$ip2state$??1?$_String_alloc@U?$_String_base_types@DV?$allocator@D@std@@@std@@@std@@QEAA@XZ DD imagerel ??1?$_String_alloc@U?$_String_base_types@DV?$allocator@D@std@@@std@@@std@@QEAA@XZ
	DD	0ffffffffH
xdata	ENDS
;	COMDAT CONST
CONST	SEGMENT
$cppxdata$??1?$_String_alloc@U?$_String_base_types@DV?$allocator@D@std@@@std@@@std@@QEAA@XZ DD 019930522H
	DD	00H
	DD	00H
	DD	00H
	DD	00H
	DD	01H
	DD	imagerel $ip2state$??1?$_String_alloc@U?$_String_base_types@DV?$allocator@D@std@@@std@@@std@@QEAA@XZ
	DD	060H
	DD	00H
	DD	05H
CONST	ENDS
;	COMDAT xdata
xdata	SEGMENT
$unwind$??1?$_String_alloc@U?$_String_base_types@DV?$allocator@D@std@@@std@@@std@@QEAA@XZ DD 025031719H
	DD	0d20a230fH
	DD	05006H
	DD	imagerel __CxxFrameHandler3
	DD	imagerel $cppxdata$??1?$_String_alloc@U?$_String_base_types@DV?$allocator@D@std@@@std@@@std@@QEAA@XZ
xdata	ENDS
;	COMDAT xdata
xdata	SEGMENT
$unwind$?dtor$0@?0???0?$_String_alloc@U?$_String_base_types@DV?$allocator@D@std@@@std@@@std@@QEAA@XZ@4HA DD 020601H
	DD	050023206H
xdata	ENDS
;	COMDAT xdata
xdata	SEGMENT
$ip2state$??0?$_String_alloc@U?$_String_base_types@DV?$allocator@D@std@@@std@@@std@@QEAA@XZ DD imagerel ??0?$_String_alloc@U?$_String_base_types@DV?$allocator@D@std@@@std@@@std@@QEAA@XZ
	DD	0ffffffffH
	DD	imagerel ??0?$_String_alloc@U?$_String_base_types@DV?$allocator@D@std@@@std@@@std@@QEAA@XZ+40
	DD	00H
	DD	imagerel ??0?$_String_alloc@U?$_String_base_types@DV?$allocator@D@std@@@std@@@std@@QEAA@XZ+50
	DD	0ffffffffH
xdata	ENDS
;	COMDAT xdata
xdata	SEGMENT
$stateUnwindMap$??0?$_String_alloc@U?$_String_base_types@DV?$allocator@D@std@@@std@@@std@@QEAA@XZ DD 0ffffffffH
	DD	imagerel ?dtor$0@?0???0?$_String_alloc@U?$_String_base_types@DV?$allocator@D@std@@@std@@@std@@QEAA@XZ@4HA
xdata	ENDS
;	COMDAT CONST
CONST	SEGMENT
$cppxdata$??0?$_String_alloc@U?$_String_base_types@DV?$allocator@D@std@@@std@@@std@@QEAA@XZ DD 019930522H
	DD	01H
	DD	imagerel $stateUnwindMap$??0?$_String_alloc@U?$_String_base_types@DV?$allocator@D@std@@@std@@@std@@QEAA@XZ
	DD	00H
	DD	00H
	DD	03H
	DD	imagerel $ip2state$??0?$_String_alloc@U?$_String_base_types@DV?$allocator@D@std@@@std@@@std@@QEAA@XZ
	DD	068H
	DD	00H
	DD	01H
CONST	ENDS
;	COMDAT xdata
xdata	SEGMENT
$unwind$??0?$_String_alloc@U?$_String_base_types@DV?$allocator@D@std@@@std@@@std@@QEAA@XZ DD 025031711H
	DD	0d20a230fH
	DD	05006H
	DD	imagerel __CxxFrameHandler3
	DD	imagerel $cppxdata$??0?$_String_alloc@U?$_String_base_types@DV?$allocator@D@std@@@std@@@std@@QEAA@XZ
xdata	ENDS
;	COMDAT xdata
xdata	SEGMENT
$unwind$??1?$_String_val@U?$_Simple_types@D@std@@@std@@QEAA@XZ DD 025030f01H
	DD	0b20a230fH
	DD	05006H
xdata	ENDS
;	COMDAT xdata
xdata	SEGMENT
$unwind$??1_Bxty@?$_String_val@U?$_Simple_types@D@std@@@std@@QEAA@XZ DD 05030d01H
	DD	0720a030dH
	DD	05006H
xdata	ENDS
;	COMDAT xdata
xdata	SEGMENT
$unwind$??0_Bxty@?$_String_val@U?$_Simple_types@D@std@@@std@@QEAA@XZ DD 05030d01H
	DD	0720a030dH
	DD	05006H
xdata	ENDS
;	COMDAT xdata
xdata	SEGMENT
$unwind$?_Large_string_engaged@?$_String_val@U?$_Simple_types@D@std@@@std@@QEBA_NXZ DD 05030d01H
	DD	0920a030dH
	DD	05006H
xdata	ENDS
;	COMDAT xdata
xdata	SEGMENT
$unwind$?_Myptr@?$_String_val@U?$_Simple_types@D@std@@@std@@QEAAPEADXZ DD 025030f01H
	DD	0d20a230fH
	DD	05006H
xdata	ENDS
;	COMDAT xdata
xdata	SEGMENT
$unwind$??0?$_String_val@U?$_Simple_types@D@std@@@std@@QEAA@XZ DD 025030f01H
	DD	0b20a230fH
	DD	05006H
xdata	ENDS
;	COMDAT xdata
xdata	SEGMENT
$unwind$?max_size@?$_Default_allocator_traits@V?$allocator@D@std@@@std@@SA_KAEBV?$allocator@D@2@@Z DD 05030d01H
	DD	0720a030dH
	DD	05006H
xdata	ENDS
;	COMDAT xdata
xdata	SEGMENT
$unwind$?allocate@?$allocator@D@std@@QEAAPEAD_K@Z DD 025031401H
	DD	0b20f2314H
	DD	0500bH
xdata	ENDS
;	COMDAT xdata
xdata	SEGMENT
$unwind$?deallocate@?$allocator@D@std@@QEAAXQEAD_K@Z DD 025031901H
	DD	0b2142319H
	DD	05010H
xdata	ENDS
;	COMDAT xdata
xdata	SEGMENT
$unwind$??0?$allocator@D@std@@QEAA@XZ DD 05030d01H
	DD	0720a030dH
	DD	05006H
xdata	ENDS
;	COMDAT xdata
xdata	SEGMENT
$unwind$??$_Min_value@_K@std@@YAAEB_KAEB_K0@Z DD 05031201H
	DD	0920f0312H
	DD	0500bH
xdata	ENDS
;	COMDAT xdata
xdata	SEGMENT
$unwind$??$_Convert_size@_K@std@@YA_K_K@Z DD 05030d01H
	DD	0720a030dH
	DD	05006H
xdata	ENDS
;	COMDAT xdata
xdata	SEGMENT
$unwind$?_Adjust_manually_vector_aligned@std@@YAXAEAPEAXAEA_K@Z DD 035041701H
	DD	01123317H
	DD	0500b0012H
xdata	ENDS
;	COMDAT xdata
xdata	SEGMENT
$unwind$?_Allocate@_Default_allocate_traits@std@@SAPEAX_K@Z DD 025030f01H
	DD	0b20a230fH
	DD	05006H
xdata	ENDS
;	COMDAT xdata
xdata	SEGMENT
$unwind$??$_Get_size_of_n@$00@std@@YA_K_K@Z DD 05030d01H
	DD	0720a030dH
	DD	05006H
xdata	ENDS
;	COMDAT xdata
xdata	SEGMENT
$unwind$?_Getpnext@_Iterator_base12@std@@QEAAPEAPEAU12@XZ DD 05030d01H
	DD	0720a030dH
	DD	05006H
xdata	ENDS
;	COMDAT xdata
xdata	SEGMENT
$unwind$?_Clrcont@_Iterator_base12@std@@QEAAXXZ DD 05030d01H
	DD	0720a030dH
	DD	05006H
xdata	ENDS
;	COMDAT xdata
xdata	SEGMENT
$ip2state$?_Orphan_all@_Container_base12@std@@QEAAXXZ DD imagerel ?_Orphan_all@_Container_base12@std@@QEAAXXZ
	DD	0ffffffffH
xdata	ENDS
;	COMDAT CONST
CONST	SEGMENT
$cppxdata$?_Orphan_all@_Container_base12@std@@QEAAXXZ DD 019930522H
	DD	00H
	DD	00H
	DD	00H
	DD	00H
	DD	01H
	DD	imagerel $ip2state$?_Orphan_all@_Container_base12@std@@QEAAXXZ
	DD	070H
	DD	00H
	DD	05H
CONST	ENDS
;	COMDAT xdata
xdata	SEGMENT
$unwind$?_Orphan_all@_Container_base12@std@@QEAAXXZ DD 025032819H
	DD	0f20d2312H
	DD	05006H
	DD	imagerel __GSHandlerCheck_EH
	DD	imagerel $cppxdata$?_Orphan_all@_Container_base12@std@@QEAAXXZ
	DD	07bH
xdata	ENDS
;	COMDAT xdata
xdata	SEGMENT
$unwind$?_Getpfirst@_Container_base12@std@@QEBAPEAPEAU_Iterator_base12@2@XZ DD 05030d01H
	DD	0920a030dH
	DD	05006H
xdata	ENDS
;	COMDAT xdata
xdata	SEGMENT
$unwind$??0_Container_base12@std@@QEAA@XZ DD 05030d01H
	DD	0720a030dH
	DD	05006H
xdata	ENDS
;	COMDAT xdata
xdata	SEGMENT
$unwind$??0_Container_proxy@std@@QEAA@XZ DD 05030d01H
	DD	0720a030dH
	DD	05006H
xdata	ENDS
;	COMDAT xdata
xdata	SEGMENT
$unwind$?assign@?$char_traits@D@std@@SAXAEADAEBD@Z DD 05031201H
	DD	0720f0312H
	DD	0500bH
xdata	ENDS
;	COMDAT xdata
xdata	SEGMENT
$unwind$?move@?$char_traits@D@std@@SAPEADQEADQEBD_K@Z DD 025031901H
	DD	0b2142319H
	DD	05010H
xdata	ENDS
;	COMDAT xdata
xdata	SEGMENT
$unwind$?copy@?$char_traits@D@std@@SAPEADQEADQEBD_K@Z DD 025031901H
	DD	0b2142319H
	DD	05010H
xdata	ENDS
;	COMDAT xdata
xdata	SEGMENT
$unwind$?length@?$char_traits@D@std@@SA_KQEBD@Z DD 025030f01H
	DD	0b20a230fH
	DD	05006H
xdata	ENDS
;	COMDAT xdata
xdata	SEGMENT
$unwind$??2@YAPEAX_KPEAX@Z DD 05031201H
	DD	0720f0312H
	DD	0500bH
xdata	ENDS
;	COMDAT xdata
xdata	SEGMENT
$unwind$?max@?$numeric_limits@_J@std@@SA_JXZ DD 05030901H
	DD	072060309H
	DD	05002H
xdata	ENDS
;	COMDAT xdata
xdata	SEGMENT
$unwind$?__empty_global_delete@@YAXPEAX_K@Z DD 05031201H
	DD	0720f0312H
	DD	0500bH
xdata	ENDS
;	COMDAT xdata
xdata	SEGMENT
$unwind$?__empty_global_delete@@YAXPEAX@Z DD 05030d01H
	DD	0720a030dH
	DD	05006H
xdata	ENDS
;	COMDAT xdata
xdata	SEGMENT
$unwind$??_H@YAXPEAX_K1P6APEAX0@Z@Z DD 025031e01H
	DD	0d219231eH
	DD	05015H
xdata	ENDS
; Function compile flags: /Odtp /RTCu /ZI
; File c:\program files (x86)\microsoft visual studio\2017\enterprise\vc\tools\msvc\14.14.26428\include\xutility
;	COMDAT ??$_Copy_memmove@PEAUBufferElement@buffers@core@@PEAU123@@std@@YAPEAUBufferElement@buffers@core@@PEAU123@00@Z
_TEXT	SEGMENT
_First_ch$ = 0
_Last_ch$ = 8
_Dest_ch$ = 16
_Count$ = 24
_First$ = 112
_Last$ = 120
_Dest$ = 128
??$_Copy_memmove@PEAUBufferElement@buffers@core@@PEAU123@@std@@YAPEAUBufferElement@buffers@core@@PEAU123@00@Z PROC ; std::_Copy_memmove<core::buffers::BufferElement *,core::buffers::BufferElement *>, COMDAT

; 2428 : 	{	// implement copy-like function as memmove

$LN3:
	mov	QWORD PTR [rsp+24], r8
	mov	QWORD PTR [rsp+16], rdx
	mov	QWORD PTR [rsp+8], rcx
	push	rbp
	sub	rsp, 128				; 00000080H
	lea	rbp, QWORD PTR [rsp+32]

; 2429 : 	const char * const _First_ch = const_cast<const char *>(reinterpret_cast<const volatile char *>(_First));

	mov	rax, QWORD PTR _First$[rbp]
	mov	QWORD PTR _First_ch$[rbp], rax

; 2430 : 	const char * const _Last_ch = const_cast<const char *>(reinterpret_cast<const volatile char *>(_Last));

	mov	rax, QWORD PTR _Last$[rbp]
	mov	QWORD PTR _Last_ch$[rbp], rax

; 2431 : 	char * const _Dest_ch = const_cast<char *>(reinterpret_cast<volatile char *>(_Dest));

	mov	rax, QWORD PTR _Dest$[rbp]
	mov	QWORD PTR _Dest_ch$[rbp], rax

; 2432 : 	const size_t _Count = _Last_ch - _First_ch;

	mov	rax, QWORD PTR _First_ch$[rbp]
	mov	rcx, QWORD PTR _Last_ch$[rbp]
	sub	rcx, rax
	mov	rax, rcx
	mov	QWORD PTR _Count$[rbp], rax

; 2433 : 	_CSTD memmove(_Dest_ch, _First_ch, _Count);

	mov	r8, QWORD PTR _Count$[rbp]
	mov	rdx, QWORD PTR _First_ch$[rbp]
	mov	rcx, QWORD PTR _Dest_ch$[rbp]
	call	memmove

; 2434 : 	return (reinterpret_cast<_OutIt>(_Dest_ch + _Count));

	mov	rax, QWORD PTR _Count$[rbp]
	mov	rcx, QWORD PTR _Dest_ch$[rbp]
	add	rcx, rax
	mov	rax, rcx

; 2435 : 	}

	lea	rsp, QWORD PTR [rbp+96]
	pop	rbp
	ret	0
??$_Copy_memmove@PEAUBufferElement@buffers@core@@PEAU123@@std@@YAPEAUBufferElement@buffers@core@@PEAU123@00@Z ENDP ; std::_Copy_memmove<core::buffers::BufferElement *,core::buffers::BufferElement *>
_TEXT	ENDS
; Function compile flags: /Odtp /RTCu /ZI
; File l:\dev\featherfallengine\depends\install\include\glm\detail\type_vec4.inl
;	COMDAT ??$?0HHHM@?$tvec4@M$0A@@glm@@QEAA@HHHM@Z
_TEXT	SEGMENT
this$ = 80
a$ = 88
b$ = 96
c$ = 104
d$ = 112
??$?0HHHM@?$tvec4@M$0A@@glm@@QEAA@HHHM@Z PROC		; glm::tvec4<float,0>::tvec4<float,0><int,int,int,float>, COMDAT

; 204  : 	{}

$LN3:
	mov	DWORD PTR [rsp+32], r9d
	mov	DWORD PTR [rsp+24], r8d
	mov	DWORD PTR [rsp+16], edx
	mov	QWORD PTR [rsp+8], rcx
	push	rbp
	sub	rsp, 64					; 00000040H
	mov	rbp, rsp

; 200  : 		x(static_cast<T>(a)),

	cvtsi2ss xmm0, DWORD PTR a$[rbp]
	mov	rax, QWORD PTR this$[rbp]
	movss	DWORD PTR [rax], xmm0

; 201  : 		y(static_cast<T>(b)),

	cvtsi2ss xmm0, DWORD PTR b$[rbp]
	mov	rax, QWORD PTR this$[rbp]
	movss	DWORD PTR [rax+4], xmm0

; 202  : 		z(static_cast<T>(c)),

	cvtsi2ss xmm0, DWORD PTR c$[rbp]
	mov	rax, QWORD PTR this$[rbp]
	movss	DWORD PTR [rax+8], xmm0

; 203  : 		w(static_cast<T>(d))

	mov	rax, QWORD PTR this$[rbp]
	movss	xmm0, DWORD PTR d$[rbp]
	movss	DWORD PTR [rax+12], xmm0

; 204  : 	{}

	mov	rax, QWORD PTR this$[rbp]
	lea	rsp, QWORD PTR [rbp+64]
	pop	rbp
	ret	0
??$?0HHHM@?$tvec4@M$0A@@glm@@QEAA@HHHM@Z ENDP		; glm::tvec4<float,0>::tvec4<float,0><int,int,int,float>
_TEXT	ENDS
; Function compile flags: /Odtp /RTCu /ZI
; File l:\dev\featherfallengine\depends\install\include\glm\detail\type_vec4.inl
;	COMDAT ??$?0HHMH@?$tvec4@M$0A@@glm@@QEAA@HHMH@Z
_TEXT	SEGMENT
this$ = 80
a$ = 88
b$ = 96
c$ = 104
d$ = 112
??$?0HHMH@?$tvec4@M$0A@@glm@@QEAA@HHMH@Z PROC		; glm::tvec4<float,0>::tvec4<float,0><int,int,float,int>, COMDAT

; 204  : 	{}

$LN3:
	movss	DWORD PTR [rsp+32], xmm3
	mov	DWORD PTR [rsp+24], r8d
	mov	DWORD PTR [rsp+16], edx
	mov	QWORD PTR [rsp+8], rcx
	push	rbp
	sub	rsp, 64					; 00000040H
	mov	rbp, rsp

; 200  : 		x(static_cast<T>(a)),

	cvtsi2ss xmm0, DWORD PTR a$[rbp]
	mov	rax, QWORD PTR this$[rbp]
	movss	DWORD PTR [rax], xmm0

; 201  : 		y(static_cast<T>(b)),

	cvtsi2ss xmm0, DWORD PTR b$[rbp]
	mov	rax, QWORD PTR this$[rbp]
	movss	DWORD PTR [rax+4], xmm0

; 202  : 		z(static_cast<T>(c)),

	mov	rax, QWORD PTR this$[rbp]
	movss	xmm0, DWORD PTR c$[rbp]
	movss	DWORD PTR [rax+8], xmm0

; 203  : 		w(static_cast<T>(d))

	cvtsi2ss xmm0, DWORD PTR d$[rbp]
	mov	rax, QWORD PTR this$[rbp]
	movss	DWORD PTR [rax+12], xmm0

; 204  : 	{}

	mov	rax, QWORD PTR this$[rbp]
	lea	rsp, QWORD PTR [rbp+64]
	pop	rbp
	ret	0
??$?0HHMH@?$tvec4@M$0A@@glm@@QEAA@HHMH@Z ENDP		; glm::tvec4<float,0>::tvec4<float,0><int,int,float,int>
_TEXT	ENDS
; Function compile flags: /Odtp /RTCu /ZI
; File l:\dev\featherfallengine\depends\install\include\glm\detail\type_vec4.inl
;	COMDAT ??$?0HMHH@?$tvec4@M$0A@@glm@@QEAA@HMHH@Z
_TEXT	SEGMENT
this$ = 80
a$ = 88
b$ = 96
c$ = 104
d$ = 112
??$?0HMHH@?$tvec4@M$0A@@glm@@QEAA@HMHH@Z PROC		; glm::tvec4<float,0>::tvec4<float,0><int,float,int,int>, COMDAT

; 204  : 	{}

$LN3:
	mov	DWORD PTR [rsp+32], r9d
	movss	DWORD PTR [rsp+24], xmm2
	mov	DWORD PTR [rsp+16], edx
	mov	QWORD PTR [rsp+8], rcx
	push	rbp
	sub	rsp, 64					; 00000040H
	mov	rbp, rsp

; 200  : 		x(static_cast<T>(a)),

	cvtsi2ss xmm0, DWORD PTR a$[rbp]
	mov	rax, QWORD PTR this$[rbp]
	movss	DWORD PTR [rax], xmm0

; 201  : 		y(static_cast<T>(b)),

	mov	rax, QWORD PTR this$[rbp]
	movss	xmm0, DWORD PTR b$[rbp]
	movss	DWORD PTR [rax+4], xmm0

; 202  : 		z(static_cast<T>(c)),

	cvtsi2ss xmm0, DWORD PTR c$[rbp]
	mov	rax, QWORD PTR this$[rbp]
	movss	DWORD PTR [rax+8], xmm0

; 203  : 		w(static_cast<T>(d))

	cvtsi2ss xmm0, DWORD PTR d$[rbp]
	mov	rax, QWORD PTR this$[rbp]
	movss	DWORD PTR [rax+12], xmm0

; 204  : 	{}

	mov	rax, QWORD PTR this$[rbp]
	lea	rsp, QWORD PTR [rbp+64]
	pop	rbp
	ret	0
??$?0HMHH@?$tvec4@M$0A@@glm@@QEAA@HMHH@Z ENDP		; glm::tvec4<float,0>::tvec4<float,0><int,float,int,int>
_TEXT	ENDS
; Function compile flags: /Odtp /RTCu /ZI
; File l:\dev\featherfallengine\depends\install\include\glm\detail\type_vec4.inl
;	COMDAT ??$?0MHHH@?$tvec4@M$0A@@glm@@QEAA@MHHH@Z
_TEXT	SEGMENT
this$ = 80
a$ = 88
b$ = 96
c$ = 104
d$ = 112
??$?0MHHH@?$tvec4@M$0A@@glm@@QEAA@MHHH@Z PROC		; glm::tvec4<float,0>::tvec4<float,0><float,int,int,int>, COMDAT

; 204  : 	{}

$LN3:
	mov	DWORD PTR [rsp+32], r9d
	mov	DWORD PTR [rsp+24], r8d
	movss	DWORD PTR [rsp+16], xmm1
	mov	QWORD PTR [rsp+8], rcx
	push	rbp
	sub	rsp, 64					; 00000040H
	mov	rbp, rsp

; 200  : 		x(static_cast<T>(a)),

	mov	rax, QWORD PTR this$[rbp]
	movss	xmm0, DWORD PTR a$[rbp]
	movss	DWORD PTR [rax], xmm0

; 201  : 		y(static_cast<T>(b)),

	cvtsi2ss xmm0, DWORD PTR b$[rbp]
	mov	rax, QWORD PTR this$[rbp]
	movss	DWORD PTR [rax+4], xmm0

; 202  : 		z(static_cast<T>(c)),

	cvtsi2ss xmm0, DWORD PTR c$[rbp]
	mov	rax, QWORD PTR this$[rbp]
	movss	DWORD PTR [rax+8], xmm0

; 203  : 		w(static_cast<T>(d))

	cvtsi2ss xmm0, DWORD PTR d$[rbp]
	mov	rax, QWORD PTR this$[rbp]
	movss	DWORD PTR [rax+12], xmm0

; 204  : 	{}

	mov	rax, QWORD PTR this$[rbp]
	lea	rsp, QWORD PTR [rbp+64]
	pop	rbp
	ret	0
??$?0MHHH@?$tvec4@M$0A@@glm@@QEAA@MHHH@Z ENDP		; glm::tvec4<float,0>::tvec4<float,0><float,int,int,int>
_TEXT	ENDS
; Function compile flags: /Odtp /RTCu /ZI
; File c:\program files (x86)\microsoft visual studio\2017\enterprise\vc\tools\msvc\14.14.26428\include\xutility
;	COMDAT ??$_Rechecked@PEAUBufferElement@buffers@core@@PEAU123@@std@@YAAEAPEAUBufferElement@buffers@core@@AEAPEAU123@QEAU123@@Z
_TEXT	SEGMENT
_Dest$ = 80
_Src$ = 88
??$_Rechecked@PEAUBufferElement@buffers@core@@PEAU123@@std@@YAAEAPEAUBufferElement@buffers@core@@AEAPEAU123@QEAU123@@Z PROC ; std::_Rechecked<core::buffers::BufferElement *,core::buffers::BufferElement *>, COMDAT

; 492  : 	{	// reset checked from unchecked, generic

$LN3:
	mov	QWORD PTR [rsp+16], rdx
	mov	QWORD PTR [rsp+8], rcx
	push	rbp
	sub	rsp, 64					; 00000040H
	mov	rbp, rsp

; 493  : 	_Dest = _Src;

	mov	rax, QWORD PTR _Dest$[rbp]
	mov	rcx, QWORD PTR _Src$[rbp]
	mov	QWORD PTR [rax], rcx

; 494  : 	return (_Dest);

	mov	rax, QWORD PTR _Dest$[rbp]

; 495  : 	}

	lea	rsp, QWORD PTR [rbp+64]
	pop	rbp
	ret	0
??$_Rechecked@PEAUBufferElement@buffers@core@@PEAU123@@std@@YAAEAPEAUBufferElement@buffers@core@@AEAPEAU123@QEAU123@@Z ENDP ; std::_Rechecked<core::buffers::BufferElement *,core::buffers::BufferElement *>
_TEXT	ENDS
; Function compile flags: /Odtp /RTCu /ZI
; File c:\program files (x86)\microsoft visual studio\2017\enterprise\vc\tools\msvc\14.14.26428\include\xmemory
;	COMDAT ??$_Uninitialized_move_al_unchecked@UBufferElement@buffers@core@@U123@V?$allocator@UBufferElement@buffers@core@@@std@@@std@@YAPEAUBufferElement@buffers@core@@QEAU123@00AEAV?$allocator@UBufferElement@buffers@core@@@0@U_Really_trivial_ptr_iterator_tag@0@U?$integral_constant@_N$00@0@@Z
_TEXT	SEGMENT
_First$ = 80
_Last$ = 88
_Dest$ = 96
__formal$ = 104
__formal$ = 112
__formal$ = 120
??$_Uninitialized_move_al_unchecked@UBufferElement@buffers@core@@U123@V?$allocator@UBufferElement@buffers@core@@@std@@@std@@YAPEAUBufferElement@buffers@core@@QEAU123@00AEAV?$allocator@UBufferElement@buffers@core@@@0@U_Really_trivial_ptr_iterator_tag@0@U?$integral_constant@_N$00@0@@Z PROC ; std::_Uninitialized_move_al_unchecked<core::buffers::BufferElement,core::buffers::BufferElement,std::allocator<core::buffers::BufferElement> >, COMDAT

; 242  : 	{	// move [_First, _Last) to raw _Dest, using default _Alloc construct, memmove optimization

$LN3:
	mov	QWORD PTR [rsp+32], r9
	mov	QWORD PTR [rsp+24], r8
	mov	QWORD PTR [rsp+16], rdx
	mov	QWORD PTR [rsp+8], rcx
	push	rbp
	sub	rsp, 96					; 00000060H
	lea	rbp, QWORD PTR [rsp+32]

; 243  : 	return (_Copy_memmove(_First, _Last, _Dest));

	mov	r8, QWORD PTR _Dest$[rbp]
	mov	rdx, QWORD PTR _Last$[rbp]
	mov	rcx, QWORD PTR _First$[rbp]
	call	??$_Copy_memmove@PEAUBufferElement@buffers@core@@PEAU123@@std@@YAPEAUBufferElement@buffers@core@@PEAU123@00@Z ; std::_Copy_memmove<core::buffers::BufferElement *,core::buffers::BufferElement *>

; 244  : 	}

	lea	rsp, QWORD PTR [rbp+64]
	pop	rbp
	ret	0
??$_Uninitialized_move_al_unchecked@UBufferElement@buffers@core@@U123@V?$allocator@UBufferElement@buffers@core@@@std@@@std@@YAPEAUBufferElement@buffers@core@@QEAU123@00AEAV?$allocator@UBufferElement@buffers@core@@@0@U_Really_trivial_ptr_iterator_tag@0@U?$integral_constant@_N$00@0@@Z ENDP ; std::_Uninitialized_move_al_unchecked<core::buffers::BufferElement,core::buffers::BufferElement,std::allocator<core::buffers::BufferElement> >
_TEXT	ENDS
; Function compile flags: /Odtp /RTCu /ZI
; File c:\program files (x86)\microsoft visual studio\2017\enterprise\vc\tools\msvc\14.14.26428\include\xutility
;	COMDAT ??$_Ptr_move_cat@UBufferElement@buffers@core@@U123@@std@@YA?AU_Really_trivial_ptr_iterator_tag@0@AEBQEAUBufferElement@buffers@core@@0@Z
_TEXT	SEGMENT
__$ReturnUdt$ = 80
__formal$ = 88
__formal$ = 96
??$_Ptr_move_cat@UBufferElement@buffers@core@@U123@@std@@YA?AU_Really_trivial_ptr_iterator_tag@0@AEBQEAUBufferElement@buffers@core@@0@Z PROC ; std::_Ptr_move_cat<core::buffers::BufferElement,core::buffers::BufferElement>, COMDAT

; 1016 : 	{	// return pointer move optimization category for pointers

$LN3:
	mov	QWORD PTR [rsp+24], r8
	mov	QWORD PTR [rsp+16], rdx
	mov	QWORD PTR [rsp+8], rcx
	push	rbp
	sub	rsp, 64					; 00000040H
	mov	rbp, rsp

; 1017 : 	return {};

	mov	rax, QWORD PTR __$ReturnUdt$[rbp]

; 1018 : 	}

	lea	rsp, QWORD PTR [rbp+64]
	pop	rbp
	ret	0
??$_Ptr_move_cat@UBufferElement@buffers@core@@U123@@std@@YA?AU_Really_trivial_ptr_iterator_tag@0@AEBQEAUBufferElement@buffers@core@@0@Z ENDP ; std::_Ptr_move_cat<core::buffers::BufferElement,core::buffers::BufferElement>
_TEXT	ENDS
; Function compile flags: /Odtp /RTCu /ZI
; File c:\program files (x86)\microsoft visual studio\2017\enterprise\vc\tools\msvc\14.14.26428\include\xutility
;	COMDAT ??$_Unchecked@PEAUBufferElement@buffers@core@@@std@@YAPEAUBufferElement@buffers@core@@PEAU123@@Z
_TEXT	SEGMENT
_Src$ = 80
??$_Unchecked@PEAUBufferElement@buffers@core@@@std@@YAPEAUBufferElement@buffers@core@@PEAU123@@Z PROC ; std::_Unchecked<core::buffers::BufferElement *>, COMDAT

; 461  : 	{	// construct unchecked from checked, generic

$LN3:
	mov	QWORD PTR [rsp+8], rcx
	push	rbp
	sub	rsp, 64					; 00000040H
	mov	rbp, rsp

; 462  : 	return (_Src);

	mov	rax, QWORD PTR _Src$[rbp]

; 463  : 	}

	lea	rsp, QWORD PTR [rbp+64]
	pop	rbp
	ret	0
??$_Unchecked@PEAUBufferElement@buffers@core@@@std@@YAPEAUBufferElement@buffers@core@@PEAU123@@Z ENDP ; std::_Unchecked<core::buffers::BufferElement *>
_TEXT	ENDS
; Function compile flags: /Odtp /RTCu /ZI
; File c:\program files (x86)\microsoft visual studio\2017\enterprise\vc\tools\msvc\14.14.26428\include\xmemory0
;	COMDAT ??$destroy@U?$pair@PEBDV?$function@$$A6APEAVScene@1Application@@XZ@std@@@std@@@?$_Default_allocator_traits@V?$allocator@U?$pair@PEBDV?$function@$$A6APEAVScene@1Application@@XZ@std@@@std@@@std@@@std@@SAXAEAV?$allocator@U?$pair@PEBDV?$function@$$A6APEAVScene@1Application@@XZ@std@@@std@@@1@QEAU?$pair@PEBDV?$function@$$A6APEAVScene@1Application@@XZ@std@@@1@@Z
_TEXT	SEGMENT
__formal$ = 80
_Ptr$ = 88
??$destroy@U?$pair@PEBDV?$function@$$A6APEAVScene@1Application@@XZ@std@@@std@@@?$_Default_allocator_traits@V?$allocator@U?$pair@PEBDV?$function@$$A6APEAVScene@1Application@@XZ@std@@@std@@@std@@@std@@SAXAEAV?$allocator@U?$pair@PEBDV?$function@$$A6APEAVScene@1Application@@XZ@std@@@std@@@1@QEAU?$pair@PEBDV?$function@$$A6APEAVScene@1Application@@XZ@std@@@1@@Z PROC ; std::_Default_allocator_traits<std::allocator<std::pair<char const *,std::function<Application::Scene::Scene * __cdecl(void)> > > >::destroy<std::pair<char const *,std::function<Application::Scene::Scene * __cdecl(void)> > >, COMDAT

; 925  : 		{	// destroy object at _Ptr

$LN3:
	mov	QWORD PTR [rsp+16], rdx
	mov	QWORD PTR [rsp+8], rcx
	push	rbp
	sub	rsp, 96					; 00000060H
	lea	rbp, QWORD PTR [rsp+32]

; 926  : 		_Ptr->~_Uty();

	xor	edx, edx
	mov	rcx, QWORD PTR _Ptr$[rbp]
	call	??_G?$pair@PEBDV?$function@$$A6APEAVScene@1Application@@XZ@std@@@std@@QEAAPEAXI@Z

; 927  : 		}

	lea	rsp, QWORD PTR [rbp+64]
	pop	rbp
	ret	0
??$destroy@U?$pair@PEBDV?$function@$$A6APEAVScene@1Application@@XZ@std@@@std@@@?$_Default_allocator_traits@V?$allocator@U?$pair@PEBDV?$function@$$A6APEAVScene@1Application@@XZ@std@@@std@@@std@@@std@@SAXAEAV?$allocator@U?$pair@PEBDV?$function@$$A6APEAVScene@1Application@@XZ@std@@@std@@@1@QEAU?$pair@PEBDV?$function@$$A6APEAVScene@1Application@@XZ@std@@@1@@Z ENDP ; std::_Default_allocator_traits<std::allocator<std::pair<char const *,std::function<Application::Scene::Scene * __cdecl(void)> > > >::destroy<std::pair<char const *,std::function<Application::Scene::Scene * __cdecl(void)> > >
_TEXT	ENDS
; Function compile flags: /Odtp /RTCu /ZI
; File c:\program files (x86)\microsoft visual studio\2017\enterprise\vc\tools\msvc\14.14.26428\include\xstddef
;	COMDAT ??$_Unfancy@U?$pair@PEBDV?$function@$$A6APEAVScene@1Application@@XZ@std@@@std@@@std@@YAPEAU?$pair@PEBDV?$function@$$A6APEAVScene@1Application@@XZ@std@@@0@PEAU10@@Z
_TEXT	SEGMENT
_Ptr$ = 80
??$_Unfancy@U?$pair@PEBDV?$function@$$A6APEAVScene@1Application@@XZ@std@@@std@@@std@@YAPEAU?$pair@PEBDV?$function@$$A6APEAVScene@1Application@@XZ@std@@@0@PEAU10@@Z PROC ; std::_Unfancy<std::pair<char const *,std::function<Application::Scene::Scene * __cdecl(void)> > >, COMDAT

; 388  : 	{	// do nothing for plain pointers

$LN3:
	mov	QWORD PTR [rsp+8], rcx
	push	rbp
	sub	rsp, 64					; 00000040H
	mov	rbp, rsp

; 389  : 	return (_Ptr);

	mov	rax, QWORD PTR _Ptr$[rbp]

; 390  : 	}

	lea	rsp, QWORD PTR [rbp+64]
	pop	rbp
	ret	0
??$_Unfancy@U?$pair@PEBDV?$function@$$A6APEAVScene@1Application@@XZ@std@@@std@@@std@@YAPEAU?$pair@PEBDV?$function@$$A6APEAVScene@1Application@@XZ@std@@@0@PEAU10@@Z ENDP ; std::_Unfancy<std::pair<char const *,std::function<Application::Scene::Scene * __cdecl(void)> > >
_TEXT	ENDS
; Function compile flags: /Odtp /RTCu /ZI
; File c:\program files (x86)\microsoft visual studio\2017\enterprise\vc\tools\msvc\14.14.26428\include\xmemory0
;	COMDAT ??$_Get_size_of_n@$0M@@std@@YA_K_K@Z
_TEXT	SEGMENT
_Max_possible$ = 0
_Result$ = 8
_Count$ = 96
??$_Get_size_of_n@$0M@@std@@YA_K_K@Z PROC		; std::_Get_size_of_n<12>, COMDAT

; 23   : 	{	// gets the size of _Count copies of a type sized _Ty_size

$LN4:
	mov	QWORD PTR [rsp+8], rcx
	push	rbp
	sub	rsp, 80					; 00000050H
	mov	rbp, rsp

; 24   : 	constexpr size_t _Max_possible = static_cast<size_t>(-1) / _Ty_size;

	mov	rax, 1537228672809129301		; 1555555555555555H
	mov	QWORD PTR _Max_possible$[rbp], rax

; 25   : 	size_t _Result = _Count * _Ty_size;

	imul	rax, QWORD PTR _Count$[rbp], 12
	mov	QWORD PTR _Result$[rbp], rax

; 26   : 	if (_Max_possible < _Count)

	mov	rax, 1537228672809129301		; 1555555555555555H
	cmp	QWORD PTR _Count$[rbp], rax
	jbe	SHORT $LN2@Get_size_o

; 27   : 		{	// multiply overflow, try allocating all of memory and assume the
; 28   : 			// allocation function will throw bad_alloc
; 29   : 		_Result = static_cast<size_t>(-1);

	mov	QWORD PTR _Result$[rbp], -1
$LN2@Get_size_o:

; 30   : 		}
; 31   : 
; 32   : 	return (_Result);

	mov	rax, QWORD PTR _Result$[rbp]

; 33   : 	}

	lea	rsp, QWORD PTR [rbp+80]
	pop	rbp
	ret	0
??$_Get_size_of_n@$0M@@std@@YA_K_K@Z ENDP		; std::_Get_size_of_n<12>
_TEXT	ENDS
; Function compile flags: /Odtp /RTCu /ZI
; File c:\program files (x86)\microsoft visual studio\2017\enterprise\vc\tools\msvc\14.14.26428\include\xmemory
;	COMDAT ??$_Uninitialized_move@PEAUBufferElement@buffers@core@@PEAU123@V?$allocator@UBufferElement@buffers@core@@@std@@@std@@YAPEAUBufferElement@buffers@core@@QEAU123@0PEAU123@AEAV?$allocator@UBufferElement@buffers@core@@@0@@Z
_TEXT	SEGMENT
_UFirst$ = 0
_ULast$ = 8
_UDest$ = 16
$T1 = 88
$T2 = 89
__$ArrayPad$ = 96
_First$ = 128
_Last$ = 136
_Dest$ = 144
_Al$ = 152
??$_Uninitialized_move@PEAUBufferElement@buffers@core@@PEAU123@V?$allocator@UBufferElement@buffers@core@@@std@@@std@@YAPEAUBufferElement@buffers@core@@QEAU123@0PEAU123@AEAV?$allocator@UBufferElement@buffers@core@@@0@@Z PROC ; std::_Uninitialized_move<core::buffers::BufferElement *,core::buffers::BufferElement *,std::allocator<core::buffers::BufferElement> >, COMDAT

; 250  : 	{	// move [_First, _Last) to raw _Dest, using _Al

$LN3:
	mov	QWORD PTR [rsp+32], r9
	mov	QWORD PTR [rsp+24], r8
	mov	QWORD PTR [rsp+16], rdx
	mov	QWORD PTR [rsp+8], rcx
	push	rbp
	sub	rsp, 160				; 000000a0H
	lea	rbp, QWORD PTR [rsp+48]
	mov	rax, QWORD PTR __security_cookie
	xor	rax, rbp
	mov	QWORD PTR __$ArrayPad$[rbp], rax

; 251  : 		// note: only called internally from elsewhere in the STL, debug checks
; 252  : 		// and deprecation warnings omitted
; 253  : 	const auto _UFirst = _Unchecked(_First);

	mov	rcx, QWORD PTR _First$[rbp]
	call	??$_Unchecked@PEAUBufferElement@buffers@core@@@std@@YAPEAUBufferElement@buffers@core@@PEAU123@@Z ; std::_Unchecked<core::buffers::BufferElement *>
	mov	QWORD PTR _UFirst$[rbp], rax

; 254  : 	const auto _ULast = _Unchecked(_Last);

	mov	rcx, QWORD PTR _Last$[rbp]
	call	??$_Unchecked@PEAUBufferElement@buffers@core@@@std@@YAPEAUBufferElement@buffers@core@@PEAU123@@Z ; std::_Unchecked<core::buffers::BufferElement *>
	mov	QWORD PTR _ULast$[rbp], rax

; 255  : 	const auto _UDest = _Unchecked(_Dest);

	mov	rcx, QWORD PTR _Dest$[rbp]
	call	??$_Unchecked@PEAUBufferElement@buffers@core@@@std@@YAPEAUBufferElement@buffers@core@@PEAU123@@Z ; std::_Unchecked<core::buffers::BufferElement *>
	mov	QWORD PTR _UDest$[rbp], rax

; 256  : 	return (_Rechecked(_Dest,

	lea	r8, QWORD PTR _UDest$[rbp]
	lea	rdx, QWORD PTR _UFirst$[rbp]
	lea	rcx, QWORD PTR $T2[rbp]
	call	??$_Ptr_move_cat@UBufferElement@buffers@core@@U123@@std@@YA?AU_Really_trivial_ptr_iterator_tag@0@AEBQEAUBufferElement@buffers@core@@0@Z ; std::_Ptr_move_cat<core::buffers::BufferElement,core::buffers::BufferElement>
	movzx	ecx, BYTE PTR $T1[rbp]
	mov	BYTE PTR [rsp+40], cl
	movzx	eax, BYTE PTR [rax]
	mov	BYTE PTR [rsp+32], al
	mov	r9, QWORD PTR _Al$[rbp]
	mov	r8, QWORD PTR _UDest$[rbp]
	mov	rdx, QWORD PTR _ULast$[rbp]
	mov	rcx, QWORD PTR _UFirst$[rbp]
	call	??$_Uninitialized_move_al_unchecked@UBufferElement@buffers@core@@U123@V?$allocator@UBufferElement@buffers@core@@@std@@@std@@YAPEAUBufferElement@buffers@core@@QEAU123@00AEAV?$allocator@UBufferElement@buffers@core@@@0@U_Really_trivial_ptr_iterator_tag@0@U?$integral_constant@_N$00@0@@Z ; std::_Uninitialized_move_al_unchecked<core::buffers::BufferElement,core::buffers::BufferElement,std::allocator<core::buffers::BufferElement> >
	mov	rdx, rax
	lea	rcx, QWORD PTR _Dest$[rbp]
	call	??$_Rechecked@PEAUBufferElement@buffers@core@@PEAU123@@std@@YAAEAPEAUBufferElement@buffers@core@@AEAPEAU123@QEAU123@@Z ; std::_Rechecked<core::buffers::BufferElement *,core::buffers::BufferElement *>
	mov	rax, QWORD PTR [rax]

; 257  : 		_Uninitialized_move_al_unchecked(_UFirst, _ULast, _UDest, _Al,
; 258  : 			_Ptr_move_cat(_UFirst, _UDest),
; 259  : 			_Uses_default_construct_t<_Alloc, decltype(_Unfancy(_UDest)), decltype(_STD move(*_UFirst))>())));
; 260  : 	}

	mov	rcx, QWORD PTR __$ArrayPad$[rbp]
	xor	rcx, rbp
	call	__security_check_cookie
	lea	rsp, QWORD PTR [rbp+112]
	pop	rbp
	ret	0
??$_Uninitialized_move@PEAUBufferElement@buffers@core@@PEAU123@V?$allocator@UBufferElement@buffers@core@@@std@@@std@@YAPEAUBufferElement@buffers@core@@QEAU123@0PEAU123@AEAV?$allocator@UBufferElement@buffers@core@@@0@@Z ENDP ; std::_Uninitialized_move<core::buffers::BufferElement *,core::buffers::BufferElement *,std::allocator<core::buffers::BufferElement> >
_TEXT	ENDS
; Function compile flags: /Odtp /RTCu /ZI
; File c:\program files (x86)\microsoft visual studio\2017\enterprise\vc\tools\msvc\14.14.26428\include\xmemory0
;	COMDAT ??$_Destroy_range1@V?$allocator@UBufferElement@buffers@core@@@std@@@std@@YAXPEAUBufferElement@buffers@core@@0AEAV?$allocator@UBufferElement@buffers@core@@@0@U?$integral_constant@_N$00@0@@Z
_TEXT	SEGMENT
__formal$ = 80
__formal$ = 88
__formal$ = 96
__formal$ = 104
??$_Destroy_range1@V?$allocator@UBufferElement@buffers@core@@@std@@@std@@YAXPEAUBufferElement@buffers@core@@0AEAV?$allocator@UBufferElement@buffers@core@@@0@U?$integral_constant@_N$00@0@@Z PROC ; std::_Destroy_range1<std::allocator<core::buffers::BufferElement> >, COMDAT

; 1189 : 	{	// destroy [_First, _Last), trivially destructible and default destroy

$LN3:
	mov	BYTE PTR [rsp+32], r9b
	mov	QWORD PTR [rsp+24], r8
	mov	QWORD PTR [rsp+16], rdx
	mov	QWORD PTR [rsp+8], rcx
	push	rbp
	sub	rsp, 64					; 00000040H
	mov	rbp, rsp

; 1190 : 		// nothing to do
; 1191 : 	}

	lea	rsp, QWORD PTR [rbp+64]
	pop	rbp
	ret	0
??$_Destroy_range1@V?$allocator@UBufferElement@buffers@core@@@std@@@std@@YAXPEAUBufferElement@buffers@core@@0AEAV?$allocator@UBufferElement@buffers@core@@@0@U?$integral_constant@_N$00@0@@Z ENDP ; std::_Destroy_range1<std::allocator<core::buffers::BufferElement> >
_TEXT	ENDS
; Function compile flags: /Odtp /RTCu /ZI
; File c:\program files (x86)\microsoft visual studio\2017\enterprise\vc\tools\msvc\14.14.26428\include\xmemory0
;	COMDAT ??$_Destroy_range1@V?$allocator@U?$pair@PEBDV?$function@$$A6APEAVScene@1Application@@XZ@std@@@std@@@std@@@std@@YAXPEAU?$pair@PEBDV?$function@$$A6APEAVScene@1Application@@XZ@std@@@0@0AEAV?$allocator@U?$pair@PEBDV?$function@$$A6APEAVScene@1Application@@XZ@std@@@std@@@0@U?$integral_constant@_N$0A@@0@@Z
_TEXT	SEGMENT
_First$ = 80
_Last$ = 88
_Al$ = 96
__formal$ = 104
??$_Destroy_range1@V?$allocator@U?$pair@PEBDV?$function@$$A6APEAVScene@1Application@@XZ@std@@@std@@@std@@@std@@YAXPEAU?$pair@PEBDV?$function@$$A6APEAVScene@1Application@@XZ@std@@@0@0AEAV?$allocator@U?$pair@PEBDV?$function@$$A6APEAVScene@1Application@@XZ@std@@@std@@@0@U?$integral_constant@_N$0A@@0@@Z PROC ; std::_Destroy_range1<std::allocator<std::pair<char const *,std::function<Application::Scene::Scene * __cdecl(void)> > > >, COMDAT

; 1177 : 	{	// destroy [_First, _Last), no special optimization

$LN6:
	mov	BYTE PTR [rsp+32], r9b
	mov	QWORD PTR [rsp+24], r8
	mov	QWORD PTR [rsp+16], rdx
	mov	QWORD PTR [rsp+8], rcx
	push	rbp
	sub	rsp, 96					; 00000060H
	lea	rbp, QWORD PTR [rsp+32]

; 1178 : 	for (; _First != _Last; ++_First)

	jmp	SHORT $LN4@Destroy_ra
$LN2@Destroy_ra:
	mov	rax, QWORD PTR _First$[rbp]
	add	rax, 72					; 00000048H
	mov	QWORD PTR _First$[rbp], rax
$LN4@Destroy_ra:
	mov	rax, QWORD PTR _Last$[rbp]
	cmp	QWORD PTR _First$[rbp], rax
	je	SHORT $LN3@Destroy_ra

; 1179 : 		{
; 1180 : 		allocator_traits<_Alloc>::destroy(_Al, _Unfancy(_First));

	mov	rcx, QWORD PTR _First$[rbp]
	call	??$_Unfancy@U?$pair@PEBDV?$function@$$A6APEAVScene@1Application@@XZ@std@@@std@@@std@@YAPEAU?$pair@PEBDV?$function@$$A6APEAVScene@1Application@@XZ@std@@@0@PEAU10@@Z ; std::_Unfancy<std::pair<char const *,std::function<Application::Scene::Scene * __cdecl(void)> > >
	mov	rdx, rax
	mov	rcx, QWORD PTR _Al$[rbp]
	call	??$destroy@U?$pair@PEBDV?$function@$$A6APEAVScene@1Application@@XZ@std@@@std@@@?$_Default_allocator_traits@V?$allocator@U?$pair@PEBDV?$function@$$A6APEAVScene@1Application@@XZ@std@@@std@@@std@@@std@@SAXAEAV?$allocator@U?$pair@PEBDV?$function@$$A6APEAVScene@1Application@@XZ@std@@@std@@@1@QEAU?$pair@PEBDV?$function@$$A6APEAVScene@1Application@@XZ@std@@@1@@Z ; std::_Default_allocator_traits<std::allocator<std::pair<char const *,std::function<Application::Scene::Scene * __cdecl(void)> > > >::destroy<std::pair<char const *,std::function<Application::Scene::Scene * __cdecl(void)> > >

; 1181 : 		}

	jmp	SHORT $LN2@Destroy_ra
$LN3@Destroy_ra:

; 1182 : 	}

	lea	rsp, QWORD PTR [rbp+64]
	pop	rbp
	ret	0
??$_Destroy_range1@V?$allocator@U?$pair@PEBDV?$function@$$A6APEAVScene@1Application@@XZ@std@@@std@@@std@@@std@@YAXPEAU?$pair@PEBDV?$function@$$A6APEAVScene@1Application@@XZ@std@@@0@0AEAV?$allocator@U?$pair@PEBDV?$function@$$A6APEAVScene@1Application@@XZ@std@@@std@@@0@U?$integral_constant@_N$0A@@0@@Z ENDP ; std::_Destroy_range1<std::allocator<std::pair<char const *,std::function<Application::Scene::Scene * __cdecl(void)> > > >
_TEXT	ENDS
; Function compile flags: /Odtp /RTCu /ZI
; File c:\program files (x86)\microsoft visual studio\2017\enterprise\vc\tools\msvc\14.14.26428\include\type_traits
;	COMDAT ??$forward@U_Container_proxy@std@@@std@@YA$$QEAU_Container_proxy@0@AEAU10@@Z
_TEXT	SEGMENT
_Arg$ = 80
??$forward@U_Container_proxy@std@@@std@@YA$$QEAU_Container_proxy@0@AEAU10@@Z PROC ; std::forward<std::_Container_proxy>, COMDAT

; 1540 : 	{	// forward an lvalue as either an lvalue or an rvalue

$LN3:
	mov	QWORD PTR [rsp+8], rcx
	push	rbp
	sub	rsp, 64					; 00000040H
	mov	rbp, rsp

; 1541 : 	return (static_cast<_Ty&&>(_Arg));

	mov	rax, QWORD PTR _Arg$[rbp]

; 1542 : 	}

	lea	rsp, QWORD PTR [rbp+64]
	pop	rbp
	ret	0
??$forward@U_Container_proxy@std@@@std@@YA$$QEAU_Container_proxy@0@AEAU10@@Z ENDP ; std::forward<std::_Container_proxy>
_TEXT	ENDS
; Function compile flags: /Odtp /RTCu /ZI
; File c:\program files (x86)\microsoft visual studio\2017\enterprise\vc\tools\msvc\14.14.26428\include\xmemory0
;	COMDAT ??$_Allocate_manually_vector_aligned@U_Default_allocate_traits@std@@@std@@YAPEAX_K@Z
_TEXT	SEGMENT
_Block_size$ = 0
_Ptr_container$ = 8
_Ptr$ = 16
_Bytes$ = 112
??$_Allocate_manually_vector_aligned@U_Default_allocate_traits@std@@@std@@YAPEAX_K@Z PROC ; std::_Allocate_manually_vector_aligned<std::_Default_allocate_traits>, COMDAT

; 94   : 	{	// allocate _Bytes manually aligned to at least _Big_allocation_alignment

$LN7:
	mov	QWORD PTR [rsp+8], rcx
	push	rbp
	sub	rsp, 144				; 00000090H
	lea	rbp, QWORD PTR [rsp+48]

; 95   : 	size_t _Block_size = _Non_user_size + _Bytes;

	mov	rax, QWORD PTR _Bytes$[rbp]
	add	rax, 47					; 0000002fH
	mov	QWORD PTR _Block_size$[rbp], rax

; 96   : 	if (_Block_size <= _Bytes)

	mov	rax, QWORD PTR _Bytes$[rbp]
	cmp	QWORD PTR _Block_size$[rbp], rax
	ja	SHORT $LN2@Allocate_m

; 97   : 		{	// add overflow, try allocating all of memory and assume the
; 98   : 			// allocation function will throw bad_alloc
; 99   : 		_Block_size = static_cast<size_t>(-1);

	mov	QWORD PTR _Block_size$[rbp], -1
$LN2@Allocate_m:

; 100  : 		}
; 101  : 
; 102  : 	const uintptr_t _Ptr_container = reinterpret_cast<uintptr_t>(_Traits::_Allocate(_Block_size));

	mov	rcx, QWORD PTR _Block_size$[rbp]
	call	?_Allocate@_Default_allocate_traits@std@@SAPEAX_K@Z ; std::_Default_allocate_traits::_Allocate
	mov	QWORD PTR _Ptr_container$[rbp], rax

; 103  : 	_SCL_SECURE_ALWAYS_VALIDATE(_Ptr_container != 0);	// validate even in release since we're doing p[-1]

	cmp	QWORD PTR _Ptr_container$[rbp], 0
	jne	SHORT $LN3@Allocate_m
	lea	rax, OFFSET FLAT:??_C@_0BE@LMNLACIC@_Ptr_container?5?$CB?$DN?50?$AA@
	test	rax, rax
	je	SHORT $LN5@Allocate_m
	xor	eax, eax
	test	eax, eax
	jne	SHORT $LN6@Allocate_m
$LN5@Allocate_m:
	lea	rax, OFFSET FLAT:??_C@_1DG@HGDKEBPG@?$AA?$CC?$AA_?$AAP?$AAt?$AAr?$AA_?$AAc?$AAo?$AAn?$AAt?$AAa?$AAi?$AAn?$AAe?$AAr?$AA?5?$AA?$CB?$AA?$DN?$AA?5?$AA0?$AA?$CC?$AA?5?$AA?$CG?$AA?$CG?$AA?5?$AA0?$AA?$AA@
	mov	QWORD PTR [rsp+40], rax
	lea	rax, OFFSET FLAT:??_C@_17CNPHIMPH@?$AA?$CF?$AAl?$AAs?$AA?$AA@
	mov	QWORD PTR [rsp+32], rax
	xor	r9d, r9d
	mov	r8d, 103				; 00000067H
	lea	rdx, OFFSET FLAT:??_C@_1NE@FCGGJAHE@?$AAc?$AA?3?$AA?2?$AAp?$AAr?$AAo?$AAg?$AAr?$AAa?$AAm?$AA?5?$AAf?$AAi?$AAl?$AAe?$AAs?$AA?5?$AA?$CI?$AAx?$AA8?$AA6?$AA?$CJ?$AA?2?$AAm?$AAi?$AAc?$AAr?$AAo?$AAs?$AAo?$AAf?$AAt@
	mov	ecx, 2
	call	QWORD PTR __imp__CrtDbgReportW
	cmp	eax, 1
	jne	SHORT $LN6@Allocate_m
	int	3
	xor	eax, eax
$LN6@Allocate_m:
	mov	QWORD PTR [rsp+32], 0
	mov	r9d, 103				; 00000067H
	lea	r8, OFFSET FLAT:??_C@_1NE@FCGGJAHE@?$AAc?$AA?3?$AA?2?$AAp?$AAr?$AAo?$AAg?$AAr?$AAa?$AAm?$AA?5?$AAf?$AAi?$AAl?$AAe?$AAs?$AA?5?$AA?$CI?$AAx?$AA8?$AA6?$AA?$CJ?$AA?2?$AAm?$AAi?$AAc?$AAr?$AAo?$AAs?$AAo?$AAf?$AAt@
	lea	rdx, OFFSET FLAT:??_C@_1EO@GFNCMDLA@?$AAs?$AAt?$AAd?$AA?3?$AA?3?$AA_?$AAA?$AAl?$AAl?$AAo?$AAc?$AAa?$AAt?$AAe?$AA_?$AAm?$AAa?$AAn?$AAu?$AAa?$AAl?$AAl?$AAy?$AA_?$AAv?$AAe?$AAc?$AAt?$AAo?$AAr?$AA_?$AAa@
	lea	rcx, OFFSET FLAT:??_C@_1CG@JNLFBNGN@?$AA?$CC?$AAi?$AAn?$AAv?$AAa?$AAl?$AAi?$AAd?$AA?5?$AAa?$AAr?$AAg?$AAu?$AAm?$AAe?$AAn?$AAt?$AA?$CC?$AA?$AA@
	call	QWORD PTR __imp__invalid_parameter
$LN3@Allocate_m:

; 104  : 	void * const _Ptr = reinterpret_cast<void *>((_Ptr_container + _Non_user_size)
; 105  : 		& ~(_Big_allocation_alignment - 1));

	mov	rax, QWORD PTR _Ptr_container$[rbp]
	add	rax, 47					; 0000002fH
	and	rax, -32				; ffffffffffffffe0H
	mov	QWORD PTR _Ptr$[rbp], rax

; 106  : 	static_cast<uintptr_t *>(_Ptr)[-1] = _Ptr_container;

	mov	eax, 8
	imul	rax, rax, -1
	mov	rcx, QWORD PTR _Ptr$[rbp]
	mov	rdx, QWORD PTR _Ptr_container$[rbp]
	mov	QWORD PTR [rcx+rax], rdx

; 107  : 
; 108  :   #ifdef _DEBUG
; 109  : 	static_cast<uintptr_t *>(_Ptr)[-2] = _Big_allocation_sentinel;

	mov	eax, 8
	imul	rax, rax, -2
	mov	rcx, QWORD PTR _Ptr$[rbp]
	mov	rdx, -361700864190383366		; fafafafafafafafaH
	mov	QWORD PTR [rcx+rax], rdx

; 110  :   #endif /* _DEBUG */
; 111  : 	return (_Ptr);

	mov	rax, QWORD PTR _Ptr$[rbp]

; 112  : 	}

	lea	rsp, QWORD PTR [rbp+96]
	pop	rbp
	ret	0
??$_Allocate_manually_vector_aligned@U_Default_allocate_traits@std@@@std@@YAPEAX_K@Z ENDP ; std::_Allocate_manually_vector_aligned<std::_Default_allocate_traits>
_TEXT	ENDS
; Function compile flags: /Odtp /RTCu /ZI
; File c:\program files (x86)\microsoft visual studio\2017\enterprise\vc\tools\msvc\14.14.26428\include\type_traits
;	COMDAT ??$forward@AEBQEAD@std@@YAAEBQEADAEBQEAD@Z
_TEXT	SEGMENT
_Arg$ = 80
??$forward@AEBQEAD@std@@YAAEBQEADAEBQEAD@Z PROC		; std::forward<char * const &>, COMDAT

; 1540 : 	{	// forward an lvalue as either an lvalue or an rvalue

$LN3:
	mov	QWORD PTR [rsp+8], rcx
	push	rbp
	sub	rsp, 64					; 00000040H
	mov	rbp, rsp

; 1541 : 	return (static_cast<_Ty&&>(_Arg));

	mov	rax, QWORD PTR _Arg$[rbp]

; 1542 : 	}

	lea	rsp, QWORD PTR [rbp+64]
	pop	rbp
	ret	0
??$forward@AEBQEAD@std@@YAAEBQEADAEBQEAD@Z ENDP		; std::forward<char * const &>
_TEXT	ENDS
; Function compile flags: /Odtp /RTCu /ZI
; File l:\dev\featherfallengine\depends\install\include\glm\gtc\matrix_transform.inl
;	COMDAT ??$orthoRH@M@glm@@YA?AU?$tmat4x4@M$0A@@0@MMMMMM@Z
_TEXT	SEGMENT
Result$ = 0
$T1 = 128
tv154 = 132
tv143 = 132
tv135 = 132
tv92 = 132
tv81 = 132
tv73 = 132
__$ArrayPad$ = 136
__$ReturnUdt$ = 176
left$ = 184
right$ = 192
bottom$ = 200
top$ = 208
zNear$ = 216
zFar$ = 224
??$orthoRH@M@glm@@YA?AU?$tmat4x4@M$0A@@0@MMMMMM@Z PROC	; glm::orthoRH<float>, COMDAT

; 146  : 	{

$LN3:
	movss	DWORD PTR [rsp+32], xmm3
	movss	DWORD PTR [rsp+24], xmm2
	movss	DWORD PTR [rsp+16], xmm1
	mov	QWORD PTR [rsp+8], rcx
	push	rbp
	push	rsi
	push	rdi
	sub	rsp, 176				; 000000b0H
	lea	rbp, QWORD PTR [rsp+32]
	mov	rax, QWORD PTR __security_cookie
	xor	rax, rbp
	mov	QWORD PTR __$ArrayPad$[rbp], rax

; 147  : 		tmat4x4<T, defaultp> Result(1);

	movss	xmm0, DWORD PTR __real@3f800000
	movss	DWORD PTR $T1[rbp], xmm0
	lea	rdx, QWORD PTR $T1[rbp]
	lea	rcx, QWORD PTR Result$[rbp]
	call	??0?$tmat4x4@M$0A@@glm@@QEAA@AEBM@Z	; glm::tmat4x4<float,0>::tmat4x4<float,0>

; 148  : 		Result[0][0] = static_cast<T>(2) / (right - left);

	movss	xmm0, DWORD PTR right$[rbp]
	subss	xmm0, DWORD PTR left$[rbp]
	movss	xmm1, DWORD PTR __real@40000000
	divss	xmm1, xmm0
	movaps	xmm0, xmm1
	movss	DWORD PTR tv73[rbp], xmm0
	xor	edx, edx
	lea	rcx, QWORD PTR Result$[rbp]
	call	??A?$tmat4x4@M$0A@@glm@@QEAAAEAU?$tvec4@M$0A@@1@H@Z ; glm::tmat4x4<float,0>::operator[]
	xor	edx, edx
	mov	rcx, rax
	call	??A?$tvec4@M$0A@@glm@@QEAAAEAMH@Z	; glm::tvec4<float,0>::operator[]
	movss	xmm0, DWORD PTR tv73[rbp]
	movss	DWORD PTR [rax], xmm0

; 149  : 		Result[1][1] = static_cast<T>(2) / (top - bottom);

	movss	xmm0, DWORD PTR top$[rbp]
	subss	xmm0, DWORD PTR bottom$[rbp]
	movss	xmm1, DWORD PTR __real@40000000
	divss	xmm1, xmm0
	movaps	xmm0, xmm1
	movss	DWORD PTR tv81[rbp], xmm0
	mov	edx, 1
	lea	rcx, QWORD PTR Result$[rbp]
	call	??A?$tmat4x4@M$0A@@glm@@QEAAAEAU?$tvec4@M$0A@@1@H@Z ; glm::tmat4x4<float,0>::operator[]
	mov	edx, 1
	mov	rcx, rax
	call	??A?$tvec4@M$0A@@glm@@QEAAAEAMH@Z	; glm::tvec4<float,0>::operator[]
	movss	xmm0, DWORD PTR tv81[rbp]
	movss	DWORD PTR [rax], xmm0

; 150  : 		Result[3][0] = - (right + left) / (right - left);

	movss	xmm0, DWORD PTR right$[rbp]
	addss	xmm0, DWORD PTR left$[rbp]
	xorps	xmm0, DWORD PTR __xmm@80000000800000008000000080000000
	movss	xmm1, DWORD PTR right$[rbp]
	subss	xmm1, DWORD PTR left$[rbp]
	divss	xmm0, xmm1
	movss	DWORD PTR tv92[rbp], xmm0
	mov	edx, 3
	lea	rcx, QWORD PTR Result$[rbp]
	call	??A?$tmat4x4@M$0A@@glm@@QEAAAEAU?$tvec4@M$0A@@1@H@Z ; glm::tmat4x4<float,0>::operator[]
	xor	edx, edx
	mov	rcx, rax
	call	??A?$tvec4@M$0A@@glm@@QEAAAEAMH@Z	; glm::tvec4<float,0>::operator[]
	movss	xmm0, DWORD PTR tv92[rbp]
	movss	DWORD PTR [rax], xmm0

; 151  : 		Result[3][1] = - (top + bottom) / (top - bottom);

	movss	xmm0, DWORD PTR top$[rbp]
	addss	xmm0, DWORD PTR bottom$[rbp]
	xorps	xmm0, DWORD PTR __xmm@80000000800000008000000080000000
	movss	xmm1, DWORD PTR top$[rbp]
	subss	xmm1, DWORD PTR bottom$[rbp]
	divss	xmm0, xmm1
	movss	DWORD PTR tv135[rbp], xmm0
	mov	edx, 3
	lea	rcx, QWORD PTR Result$[rbp]
	call	??A?$tmat4x4@M$0A@@glm@@QEAAAEAU?$tvec4@M$0A@@1@H@Z ; glm::tmat4x4<float,0>::operator[]
	mov	edx, 1
	mov	rcx, rax
	call	??A?$tvec4@M$0A@@glm@@QEAAAEAMH@Z	; glm::tvec4<float,0>::operator[]
	movss	xmm0, DWORD PTR tv135[rbp]
	movss	DWORD PTR [rax], xmm0

; 152  : 
; 153  : #		if GLM_DEPTH_CLIP_SPACE == GLM_DEPTH_ZERO_TO_ONE
; 154  : 			Result[2][2] = - static_cast<T>(1) / (zFar - zNear);
; 155  : 			Result[3][2] = - zNear / (zFar - zNear);
; 156  : #		else
; 157  : 			Result[2][2] = - static_cast<T>(2) / (zFar - zNear);

	movss	xmm0, DWORD PTR zFar$[rbp]
	subss	xmm0, DWORD PTR zNear$[rbp]
	movss	xmm1, DWORD PTR __real@c0000000
	divss	xmm1, xmm0
	movaps	xmm0, xmm1
	movss	DWORD PTR tv143[rbp], xmm0
	mov	edx, 2
	lea	rcx, QWORD PTR Result$[rbp]
	call	??A?$tmat4x4@M$0A@@glm@@QEAAAEAU?$tvec4@M$0A@@1@H@Z ; glm::tmat4x4<float,0>::operator[]
	mov	edx, 2
	mov	rcx, rax
	call	??A?$tvec4@M$0A@@glm@@QEAAAEAMH@Z	; glm::tvec4<float,0>::operator[]
	movss	xmm0, DWORD PTR tv143[rbp]
	movss	DWORD PTR [rax], xmm0

; 158  : 			Result[3][2] = - (zFar + zNear) / (zFar - zNear);

	movss	xmm0, DWORD PTR zFar$[rbp]
	addss	xmm0, DWORD PTR zNear$[rbp]
	xorps	xmm0, DWORD PTR __xmm@80000000800000008000000080000000
	movss	xmm1, DWORD PTR zFar$[rbp]
	subss	xmm1, DWORD PTR zNear$[rbp]
	divss	xmm0, xmm1
	movss	DWORD PTR tv154[rbp], xmm0
	mov	edx, 3
	lea	rcx, QWORD PTR Result$[rbp]
	call	??A?$tmat4x4@M$0A@@glm@@QEAAAEAU?$tvec4@M$0A@@1@H@Z ; glm::tmat4x4<float,0>::operator[]
	mov	edx, 2
	mov	rcx, rax
	call	??A?$tvec4@M$0A@@glm@@QEAAAEAMH@Z	; glm::tvec4<float,0>::operator[]
	movss	xmm0, DWORD PTR tv154[rbp]
	movss	DWORD PTR [rax], xmm0

; 159  : #		endif
; 160  : 
; 161  : 		return Result;

	lea	rax, QWORD PTR Result$[rbp]
	mov	rdi, QWORD PTR __$ReturnUdt$[rbp]
	mov	rsi, rax
	mov	ecx, 64					; 00000040H
	rep movsb
	mov	rax, QWORD PTR __$ReturnUdt$[rbp]

; 162  : 	}

	mov	rcx, QWORD PTR __$ArrayPad$[rbp]
	xor	rcx, rbp
	call	__security_check_cookie
	lea	rsp, QWORD PTR [rbp+144]
	pop	rdi
	pop	rsi
	pop	rbp
	ret	0
??$orthoRH@M@glm@@YA?AU?$tmat4x4@M$0A@@0@MMMMMM@Z ENDP	; glm::orthoRH<float>
_TEXT	ENDS
; Function compile flags: /Odtp /RTCu /ZI
; File c:\program files (x86)\microsoft visual studio\2017\enterprise\vc\tools\msvc\14.14.26428\include\xmemory0
;	COMDAT ??$_Get_size_of_n@$0BA@@std@@YA_K_K@Z
_TEXT	SEGMENT
_Max_possible$ = 0
_Result$ = 8
_Count$ = 96
??$_Get_size_of_n@$0BA@@std@@YA_K_K@Z PROC		; std::_Get_size_of_n<16>, COMDAT

; 23   : 	{	// gets the size of _Count copies of a type sized _Ty_size

$LN4:
	mov	QWORD PTR [rsp+8], rcx
	push	rbp
	sub	rsp, 80					; 00000050H
	mov	rbp, rsp

; 24   : 	constexpr size_t _Max_possible = static_cast<size_t>(-1) / _Ty_size;

	mov	rax, 1152921504606846975		; 0fffffffffffffffH
	mov	QWORD PTR _Max_possible$[rbp], rax

; 25   : 	size_t _Result = _Count * _Ty_size;

	imul	rax, QWORD PTR _Count$[rbp], 16
	mov	QWORD PTR _Result$[rbp], rax

; 26   : 	if (_Max_possible < _Count)

	mov	rax, 1152921504606846975		; 0fffffffffffffffH
	cmp	QWORD PTR _Count$[rbp], rax
	jbe	SHORT $LN2@Get_size_o

; 27   : 		{	// multiply overflow, try allocating all of memory and assume the
; 28   : 			// allocation function will throw bad_alloc
; 29   : 		_Result = static_cast<size_t>(-1);

	mov	QWORD PTR _Result$[rbp], -1
$LN2@Get_size_o:

; 30   : 		}
; 31   : 
; 32   : 	return (_Result);

	mov	rax, QWORD PTR _Result$[rbp]

; 33   : 	}

	lea	rsp, QWORD PTR [rbp+80]
	pop	rbp
	ret	0
??$_Get_size_of_n@$0BA@@std@@YA_K_K@Z ENDP		; std::_Get_size_of_n<16>
_TEXT	ENDS
; Function compile flags: /Odtp /RTCu /ZI
; File c:\program files (x86)\microsoft visual studio\2017\enterprise\vc\tools\msvc\14.14.26428\include\xmemory0
;	COMDAT ??$?0D@?$allocator@U_Container_proxy@std@@@std@@QEAA@AEBV?$allocator@D@1@@Z
_TEXT	SEGMENT
this$ = 80
__formal$ = 88
??$?0D@?$allocator@U_Container_proxy@std@@@std@@QEAA@AEBV?$allocator@D@1@@Z PROC ; std::allocator<std::_Container_proxy>::allocator<std::_Container_proxy><char>, COMDAT

; 1025 : 		{	// construct from a related allocator (do nothing)

$LN3:
	mov	QWORD PTR [rsp+16], rdx
	mov	QWORD PTR [rsp+8], rcx
	push	rbp
	sub	rsp, 64					; 00000040H
	mov	rbp, rsp

; 1026 : 		}

	mov	rax, QWORD PTR this$[rbp]
	lea	rsp, QWORD PTR [rbp+64]
	pop	rbp
	ret	0
??$?0D@?$allocator@U_Container_proxy@std@@@std@@QEAA@AEBV?$allocator@D@1@@Z ENDP ; std::allocator<std::_Container_proxy>::allocator<std::_Container_proxy><char>
_TEXT	ENDS
; Function compile flags: /Odtp /RTCu /ZI
; File c:\program files (x86)\microsoft visual studio\2017\enterprise\vc\tools\msvc\14.14.26428\include\xmemory0
;	COMDAT ??$_Destroy_range@V?$allocator@UBufferElement@buffers@core@@@std@@@std@@YAXPEAUBufferElement@buffers@core@@0AEAV?$allocator@UBufferElement@buffers@core@@@0@@Z
_TEXT	SEGMENT
$T1 = 64
_First$ = 96
_Last$ = 104
_Al$ = 112
??$_Destroy_range@V?$allocator@UBufferElement@buffers@core@@@std@@@std@@YAXPEAUBufferElement@buffers@core@@0AEAV?$allocator@UBufferElement@buffers@core@@@0@@Z PROC ; std::_Destroy_range<std::allocator<core::buffers::BufferElement> >, COMDAT

; 1198 : 	{	// destroy [_First, _Last), choose optimization

$LN3:
	mov	QWORD PTR [rsp+24], r8
	mov	QWORD PTR [rsp+16], rdx
	mov	QWORD PTR [rsp+8], rcx
	push	rbp
	sub	rsp, 112				; 00000070H
	lea	rbp, QWORD PTR [rsp+32]

; 1199 : 		// note that this is an optimization for debug mode codegen;
; 1200 : 		// in release mode the BE removes all of this
; 1201 : 	using _Val = typename _Alloc::value_type;
; 1202 : 	_Destroy_range1(_First, _Last, _Al, _Conjunction_t<

	movzx	r9d, BYTE PTR $T1[rbp]
	mov	r8, QWORD PTR _Al$[rbp]
	mov	rdx, QWORD PTR _Last$[rbp]
	mov	rcx, QWORD PTR _First$[rbp]
	call	??$_Destroy_range1@V?$allocator@UBufferElement@buffers@core@@@std@@@std@@YAXPEAUBufferElement@buffers@core@@0AEAV?$allocator@UBufferElement@buffers@core@@@0@U?$integral_constant@_N$00@0@@Z ; std::_Destroy_range1<std::allocator<core::buffers::BufferElement> >

; 1203 : 		is_trivially_destructible<_Val>,
; 1204 : 		_Uses_default_destroy<_Alloc, _Val *>>());
; 1205 : 	}

	lea	rsp, QWORD PTR [rbp+80]
	pop	rbp
	ret	0
??$_Destroy_range@V?$allocator@UBufferElement@buffers@core@@@std@@@std@@YAXPEAUBufferElement@buffers@core@@0AEAV?$allocator@UBufferElement@buffers@core@@@0@@Z ENDP ; std::_Destroy_range<std::allocator<core::buffers::BufferElement> >
_TEXT	ENDS
; Function compile flags: /Odtp /RTCu /ZI
; File c:\program files (x86)\microsoft visual studio\2017\enterprise\vc\tools\msvc\14.14.26428\include\xstddef
;	COMDAT ??$addressof@V?$_Vector_val@U?$_Simple_types@UBufferElement@buffers@core@@@std@@@std@@@std@@YAPEAV?$_Vector_val@U?$_Simple_types@UBufferElement@buffers@core@@@std@@@0@AEAV10@@Z
_TEXT	SEGMENT
_Val$ = 80
??$addressof@V?$_Vector_val@U?$_Simple_types@UBufferElement@buffers@core@@@std@@@std@@@std@@YAPEAV?$_Vector_val@U?$_Simple_types@UBufferElement@buffers@core@@@std@@@0@AEAV10@@Z PROC ; std::addressof<std::_Vector_val<std::_Simple_types<core::buffers::BufferElement> > >, COMDAT

; 372  : 	{	// return address of _Val

$LN3:
	mov	QWORD PTR [rsp+8], rcx
	push	rbp
	sub	rsp, 64					; 00000040H
	mov	rbp, rsp

; 373  : 	return (__builtin_addressof(_Val));

	mov	rax, QWORD PTR _Val$[rbp]

; 374  : 	}

	lea	rsp, QWORD PTR [rbp+64]
	pop	rbp
	ret	0
??$addressof@V?$_Vector_val@U?$_Simple_types@UBufferElement@buffers@core@@@std@@@std@@@std@@YAPEAV?$_Vector_val@U?$_Simple_types@UBufferElement@buffers@core@@@std@@@0@AEAV10@@Z ENDP ; std::addressof<std::_Vector_val<std::_Simple_types<core::buffers::BufferElement> > >
_TEXT	ENDS
; Function compile flags: /Odtp /RTCu /ZI
; File c:\program files (x86)\microsoft visual studio\2017\enterprise\vc\tools\msvc\14.14.26428\include\xmemory0
;	COMDAT ??$?0UBufferElement@buffers@core@@@?$allocator@U_Container_proxy@std@@@std@@QEAA@AEBV?$allocator@UBufferElement@buffers@core@@@1@@Z
_TEXT	SEGMENT
this$ = 80
__formal$ = 88
??$?0UBufferElement@buffers@core@@@?$allocator@U_Container_proxy@std@@@std@@QEAA@AEBV?$allocator@UBufferElement@buffers@core@@@1@@Z PROC ; std::allocator<std::_Container_proxy>::allocator<std::_Container_proxy><core::buffers::BufferElement>, COMDAT

; 1025 : 		{	// construct from a related allocator (do nothing)

$LN3:
	mov	QWORD PTR [rsp+16], rdx
	mov	QWORD PTR [rsp+8], rcx
	push	rbp
	sub	rsp, 64					; 00000040H
	mov	rbp, rsp

; 1026 : 		}

	mov	rax, QWORD PTR this$[rbp]
	lea	rsp, QWORD PTR [rbp+64]
	pop	rbp
	ret	0
??$?0UBufferElement@buffers@core@@@?$allocator@U_Container_proxy@std@@@std@@QEAA@AEBV?$allocator@UBufferElement@buffers@core@@@1@@Z ENDP ; std::allocator<std::_Container_proxy>::allocator<std::_Container_proxy><core::buffers::BufferElement>
_TEXT	ENDS
; Function compile flags: /Odtp /RTCu /ZI
; File c:\program files (x86)\microsoft visual studio\2017\enterprise\vc\tools\msvc\14.14.26428\include\xmemory0
;	COMDAT ??$_Destroy_range@V?$allocator@U?$pair@PEBDV?$function@$$A6APEAVScene@1Application@@XZ@std@@@std@@@std@@@std@@YAXPEAU?$pair@PEBDV?$function@$$A6APEAVScene@1Application@@XZ@std@@@0@0AEAV?$allocator@U?$pair@PEBDV?$function@$$A6APEAVScene@1Application@@XZ@std@@@std@@@0@@Z
_TEXT	SEGMENT
$T1 = 64
_First$ = 96
_Last$ = 104
_Al$ = 112
??$_Destroy_range@V?$allocator@U?$pair@PEBDV?$function@$$A6APEAVScene@1Application@@XZ@std@@@std@@@std@@@std@@YAXPEAU?$pair@PEBDV?$function@$$A6APEAVScene@1Application@@XZ@std@@@0@0AEAV?$allocator@U?$pair@PEBDV?$function@$$A6APEAVScene@1Application@@XZ@std@@@std@@@0@@Z PROC ; std::_Destroy_range<std::allocator<std::pair<char const *,std::function<Application::Scene::Scene * __cdecl(void)> > > >, COMDAT

; 1198 : 	{	// destroy [_First, _Last), choose optimization

$LN3:
	mov	QWORD PTR [rsp+24], r8
	mov	QWORD PTR [rsp+16], rdx
	mov	QWORD PTR [rsp+8], rcx
	push	rbp
	sub	rsp, 112				; 00000070H
	lea	rbp, QWORD PTR [rsp+32]

; 1199 : 		// note that this is an optimization for debug mode codegen;
; 1200 : 		// in release mode the BE removes all of this
; 1201 : 	using _Val = typename _Alloc::value_type;
; 1202 : 	_Destroy_range1(_First, _Last, _Al, _Conjunction_t<

	movzx	r9d, BYTE PTR $T1[rbp]
	mov	r8, QWORD PTR _Al$[rbp]
	mov	rdx, QWORD PTR _Last$[rbp]
	mov	rcx, QWORD PTR _First$[rbp]
	call	??$_Destroy_range1@V?$allocator@U?$pair@PEBDV?$function@$$A6APEAVScene@1Application@@XZ@std@@@std@@@std@@@std@@YAXPEAU?$pair@PEBDV?$function@$$A6APEAVScene@1Application@@XZ@std@@@0@0AEAV?$allocator@U?$pair@PEBDV?$function@$$A6APEAVScene@1Application@@XZ@std@@@std@@@0@U?$integral_constant@_N$0A@@0@@Z ; std::_Destroy_range1<std::allocator<std::pair<char const *,std::function<Application::Scene::Scene * __cdecl(void)> > > >

; 1203 : 		is_trivially_destructible<_Val>,
; 1204 : 		_Uses_default_destroy<_Alloc, _Val *>>());
; 1205 : 	}

	lea	rsp, QWORD PTR [rbp+80]
	pop	rbp
	ret	0
??$_Destroy_range@V?$allocator@U?$pair@PEBDV?$function@$$A6APEAVScene@1Application@@XZ@std@@@std@@@std@@@std@@YAXPEAU?$pair@PEBDV?$function@$$A6APEAVScene@1Application@@XZ@std@@@0@0AEAV?$allocator@U?$pair@PEBDV?$function@$$A6APEAVScene@1Application@@XZ@std@@@std@@@0@@Z ENDP ; std::_Destroy_range<std::allocator<std::pair<char const *,std::function<Application::Scene::Scene * __cdecl(void)> > > >
_TEXT	ENDS
; Function compile flags: /Odtp /RTCu /ZI
; File c:\program files (x86)\microsoft visual studio\2017\enterprise\vc\tools\msvc\14.14.26428\include\xstddef
;	COMDAT ??$addressof@V?$_Vector_val@U?$_Simple_types@U?$pair@PEBDV?$function@$$A6APEAVScene@1Application@@XZ@std@@@std@@@std@@@std@@@std@@YAPEAV?$_Vector_val@U?$_Simple_types@U?$pair@PEBDV?$function@$$A6APEAVScene@1Application@@XZ@std@@@std@@@std@@@0@AEAV10@@Z
_TEXT	SEGMENT
_Val$ = 80
??$addressof@V?$_Vector_val@U?$_Simple_types@U?$pair@PEBDV?$function@$$A6APEAVScene@1Application@@XZ@std@@@std@@@std@@@std@@@std@@YAPEAV?$_Vector_val@U?$_Simple_types@U?$pair@PEBDV?$function@$$A6APEAVScene@1Application@@XZ@std@@@std@@@std@@@0@AEAV10@@Z PROC ; std::addressof<std::_Vector_val<std::_Simple_types<std::pair<char const *,std::function<Application::Scene::Scene * __cdecl(void)> > > > >, COMDAT

; 372  : 	{	// return address of _Val

$LN3:
	mov	QWORD PTR [rsp+8], rcx
	push	rbp
	sub	rsp, 64					; 00000040H
	mov	rbp, rsp

; 373  : 	return (__builtin_addressof(_Val));

	mov	rax, QWORD PTR _Val$[rbp]

; 374  : 	}

	lea	rsp, QWORD PTR [rbp+64]
	pop	rbp
	ret	0
??$addressof@V?$_Vector_val@U?$_Simple_types@U?$pair@PEBDV?$function@$$A6APEAVScene@1Application@@XZ@std@@@std@@@std@@@std@@@std@@YAPEAV?$_Vector_val@U?$_Simple_types@U?$pair@PEBDV?$function@$$A6APEAVScene@1Application@@XZ@std@@@std@@@std@@@0@AEAV10@@Z ENDP ; std::addressof<std::_Vector_val<std::_Simple_types<std::pair<char const *,std::function<Application::Scene::Scene * __cdecl(void)> > > > >
_TEXT	ENDS
; Function compile flags: /Odtp /RTCu /ZI
; File c:\program files (x86)\microsoft visual studio\2017\enterprise\vc\tools\msvc\14.14.26428\include\xmemory0
;	COMDAT ??$construct@U_Container_proxy@std@@U12@@?$_Default_allocator_traits@V?$allocator@U_Container_proxy@std@@@std@@@std@@SAXAEAV?$allocator@U_Container_proxy@std@@@1@QEAU_Container_proxy@1@$$QEAU31@@Z
_TEXT	SEGMENT
$T1 = 64
__formal$ = 112
_Ptr$ = 120
<_Args_0>$ = 128
??$construct@U_Container_proxy@std@@U12@@?$_Default_allocator_traits@V?$allocator@U_Container_proxy@std@@@std@@@std@@SAXAEAV?$allocator@U_Container_proxy@std@@@1@QEAU_Container_proxy@1@$$QEAU31@@Z PROC ; std::_Default_allocator_traits<std::allocator<std::_Container_proxy> >::construct<std::_Container_proxy,std::_Container_proxy>, COMDAT

; 918  : 		{	// construct _Objty(_Types...) at _Ptr

$LN3:
	mov	QWORD PTR [rsp+24], r8
	mov	QWORD PTR [rsp+16], rdx
	mov	QWORD PTR [rsp+8], rcx
	push	rbp
	push	rsi
	push	rdi
	sub	rsp, 112				; 00000070H
	lea	rbp, QWORD PTR [rsp+32]
	mov	rdx, QWORD PTR _Ptr$[rbp]
	mov	ecx, 16
	call	??2@YAPEAX_KPEAX@Z			; operator new
	mov	QWORD PTR $T1[rbp], rax
	mov	rcx, QWORD PTR <_Args_0>$[rbp]
	call	??$forward@U_Container_proxy@std@@@std@@YA$$QEAU_Container_proxy@0@AEAU10@@Z ; std::forward<std::_Container_proxy>
	mov	rdi, QWORD PTR $T1[rbp]
	mov	rsi, rax
	mov	ecx, 16
	rep movsb

; 919  : 		::new (const_cast<void *>(static_cast<const volatile void *>(_Ptr)))
; 920  : 			_Objty(_STD forward<_Types>(_Args)...);
; 921  : 		}

	lea	rsp, QWORD PTR [rbp+80]
	pop	rdi
	pop	rsi
	pop	rbp
	ret	0
??$construct@U_Container_proxy@std@@U12@@?$_Default_allocator_traits@V?$allocator@U_Container_proxy@std@@@std@@@std@@SAXAEAV?$allocator@U_Container_proxy@std@@@1@QEAU_Container_proxy@1@$$QEAU31@@Z ENDP ; std::_Default_allocator_traits<std::allocator<std::_Container_proxy> >::construct<std::_Container_proxy,std::_Container_proxy>
_TEXT	ENDS
; Function compile flags: /Odtp /RTCu /ZI
; File c:\program files (x86)\microsoft visual studio\2017\enterprise\vc\tools\msvc\14.14.26428\include\xstddef
;	COMDAT ??$_Unfancy@U_Container_proxy@std@@@std@@YAPEAU_Container_proxy@0@PEAU10@@Z
_TEXT	SEGMENT
_Ptr$ = 80
??$_Unfancy@U_Container_proxy@std@@@std@@YAPEAU_Container_proxy@0@PEAU10@@Z PROC ; std::_Unfancy<std::_Container_proxy>, COMDAT

; 388  : 	{	// do nothing for plain pointers

$LN3:
	mov	QWORD PTR [rsp+8], rcx
	push	rbp
	sub	rsp, 64					; 00000040H
	mov	rbp, rsp

; 389  : 	return (_Ptr);

	mov	rax, QWORD PTR _Ptr$[rbp]

; 390  : 	}

	lea	rsp, QWORD PTR [rbp+64]
	pop	rbp
	ret	0
??$_Unfancy@U_Container_proxy@std@@@std@@YAPEAU_Container_proxy@0@PEAU10@@Z ENDP ; std::_Unfancy<std::_Container_proxy>
_TEXT	ENDS
; Function compile flags: /Odtp /RTCu /ZI
; File c:\program files (x86)\microsoft visual studio\2017\enterprise\vc\tools\msvc\14.14.26428\include\xmemory0
;	COMDAT ??$_Deallocate_plain@V?$allocator@U_Container_proxy@std@@@std@@$0A@@std@@YAXAEAV?$allocator@U_Container_proxy@std@@@0@QEAU_Container_proxy@0@@Z
_TEXT	SEGMENT
_Al$ = 80
_Ptr$ = 88
??$_Deallocate_plain@V?$allocator@U_Container_proxy@std@@@std@@$0A@@std@@YAXAEAV?$allocator@U_Container_proxy@std@@@0@QEAU_Container_proxy@0@@Z PROC ; std::_Deallocate_plain<std::allocator<std::_Container_proxy>,0>, COMDAT

; 1306 : 	{	// deallocate a plain pointer using an allocator, non-fancy pointers special case

$LN3:
	mov	QWORD PTR [rsp+16], rdx
	mov	QWORD PTR [rsp+8], rcx
	push	rbp
	sub	rsp, 96					; 00000060H
	lea	rbp, QWORD PTR [rsp+32]

; 1307 : 	allocator_traits<_Alloc>::deallocate(_Al, _Ptr, 1);

	mov	r8d, 1
	mov	rdx, QWORD PTR _Ptr$[rbp]
	mov	rcx, QWORD PTR _Al$[rbp]
	call	?deallocate@?$_Default_allocator_traits@V?$allocator@U_Container_proxy@std@@@std@@@std@@SAXAEAV?$allocator@U_Container_proxy@std@@@2@QEAU_Container_proxy@2@_K@Z ; std::_Default_allocator_traits<std::allocator<std::_Container_proxy> >::deallocate

; 1308 : 	}

	lea	rsp, QWORD PTR [rbp+64]
	pop	rbp
	ret	0
??$_Deallocate_plain@V?$allocator@U_Container_proxy@std@@@std@@$0A@@std@@YAXAEAV?$allocator@U_Container_proxy@std@@@0@QEAU_Container_proxy@0@@Z ENDP ; std::_Deallocate_plain<std::allocator<std::_Container_proxy>,0>
_TEXT	ENDS
; Function compile flags: /Odtp /RTCu /ZI
; File c:\program files (x86)\microsoft visual studio\2017\enterprise\vc\tools\msvc\14.14.26428\include\xmemory0
;	COMDAT ??$destroy@U_Container_proxy@std@@@?$_Default_allocator_traits@V?$allocator@U_Container_proxy@std@@@std@@@std@@SAXAEAV?$allocator@U_Container_proxy@std@@@1@QEAU_Container_proxy@1@@Z
_TEXT	SEGMENT
__formal$ = 80
_Ptr$ = 88
??$destroy@U_Container_proxy@std@@@?$_Default_allocator_traits@V?$allocator@U_Container_proxy@std@@@std@@@std@@SAXAEAV?$allocator@U_Container_proxy@std@@@1@QEAU_Container_proxy@1@@Z PROC ; std::_Default_allocator_traits<std::allocator<std::_Container_proxy> >::destroy<std::_Container_proxy>, COMDAT

; 925  : 		{	// destroy object at _Ptr

$LN3:
	mov	QWORD PTR [rsp+16], rdx
	mov	QWORD PTR [rsp+8], rcx
	push	rbp
	sub	rsp, 64					; 00000040H
	mov	rbp, rsp

; 926  : 		_Ptr->~_Uty();
; 927  : 		}

	lea	rsp, QWORD PTR [rbp+64]
	pop	rbp
	ret	0
??$destroy@U_Container_proxy@std@@@?$_Default_allocator_traits@V?$allocator@U_Container_proxy@std@@@std@@@std@@SAXAEAV?$allocator@U_Container_proxy@std@@@1@QEAU_Container_proxy@1@@Z ENDP ; std::_Default_allocator_traits<std::allocator<std::_Container_proxy> >::destroy<std::_Container_proxy>
_TEXT	ENDS
; Function compile flags: /Odtp /RTCu /ZI
; File c:\program files (x86)\microsoft visual studio\2017\enterprise\vc\tools\msvc\14.14.26428\include\xmemory0
;	COMDAT ?deallocate@?$_Default_allocator_traits@V?$allocator@U_Container_proxy@std@@@std@@@std@@SAXAEAV?$allocator@U_Container_proxy@std@@@2@QEAU_Container_proxy@2@_K@Z
_TEXT	SEGMENT
__formal$ = 80
_Ptr$ = 88
_Count$ = 96
?deallocate@?$_Default_allocator_traits@V?$allocator@U_Container_proxy@std@@@std@@@std@@SAXAEAV?$allocator@U_Container_proxy@std@@@2@QEAU_Container_proxy@2@_K@Z PROC ; std::_Default_allocator_traits<std::allocator<std::_Container_proxy> >::deallocate, COMDAT

; 910  : 		{	// deallocate _Count elements at _Ptr

$LN3:
	mov	QWORD PTR [rsp+24], r8
	mov	QWORD PTR [rsp+16], rdx
	mov	QWORD PTR [rsp+8], rcx
	push	rbp
	sub	rsp, 96					; 00000060H
	lea	rbp, QWORD PTR [rsp+32]

; 911  : 		// no overflow check on the following multiply; we assume _Allocate did that check
; 912  : 		_Deallocate<_New_alignof<value_type>>(_Ptr, sizeof(value_type) * _Count);

	imul	rax, QWORD PTR _Count$[rbp], 16
	mov	rdx, rax
	mov	rcx, QWORD PTR _Ptr$[rbp]
	call	??$_Deallocate@$0BA@$0A@@std@@YAXPEAX_K@Z ; std::_Deallocate<16,0>

; 913  : 		}

	lea	rsp, QWORD PTR [rbp+64]
	pop	rbp
	ret	0
?deallocate@?$_Default_allocator_traits@V?$allocator@U_Container_proxy@std@@@std@@@std@@SAXAEAV?$allocator@U_Container_proxy@std@@@2@QEAU_Container_proxy@2@_K@Z ENDP ; std::_Default_allocator_traits<std::allocator<std::_Container_proxy> >::deallocate
_TEXT	ENDS
; Function compile flags: /Odtp /RTCu /ZI
; File c:\program files (x86)\microsoft visual studio\2017\enterprise\vc\tools\msvc\14.14.26428\include\xmemory0
;	COMDAT ??$?0U?$pair@PEBDV?$function@$$A6APEAVScene@1Application@@XZ@std@@@std@@@?$allocator@U_Container_proxy@std@@@std@@QEAA@AEBV?$allocator@U?$pair@PEBDV?$function@$$A6APEAVScene@1Application@@XZ@std@@@std@@@1@@Z
_TEXT	SEGMENT
this$ = 80
__formal$ = 88
??$?0U?$pair@PEBDV?$function@$$A6APEAVScene@1Application@@XZ@std@@@std@@@?$allocator@U_Container_proxy@std@@@std@@QEAA@AEBV?$allocator@U?$pair@PEBDV?$function@$$A6APEAVScene@1Application@@XZ@std@@@std@@@1@@Z PROC ; std::allocator<std::_Container_proxy>::allocator<std::_Container_proxy><std::pair<char const *,std::function<Application::Scene::Scene * __cdecl(void)> > >, COMDAT

; 1025 : 		{	// construct from a related allocator (do nothing)

$LN3:
	mov	QWORD PTR [rsp+16], rdx
	mov	QWORD PTR [rsp+8], rcx
	push	rbp
	sub	rsp, 64					; 00000040H
	mov	rbp, rsp

; 1026 : 		}

	mov	rax, QWORD PTR this$[rbp]
	lea	rsp, QWORD PTR [rbp+64]
	pop	rbp
	ret	0
??$?0U?$pair@PEBDV?$function@$$A6APEAVScene@1Application@@XZ@std@@@std@@@?$allocator@U_Container_proxy@std@@@std@@QEAA@AEBV?$allocator@U?$pair@PEBDV?$function@$$A6APEAVScene@1Application@@XZ@std@@@std@@@1@@Z ENDP ; std::allocator<std::_Container_proxy>::allocator<std::_Container_proxy><std::pair<char const *,std::function<Application::Scene::Scene * __cdecl(void)> > >
_TEXT	ENDS
; Function compile flags: /Odtp /RTCu /ZI
; File c:\program files (x86)\microsoft visual studio\2017\enterprise\vc\tools\msvc\14.14.26428\include\xmemory0
;	COMDAT ?allocate@?$allocator@U_Container_proxy@std@@@std@@QEAAPEAU_Container_proxy@2@_K@Z
_TEXT	SEGMENT
this$ = 80
_Count$ = 88
?allocate@?$allocator@U_Container_proxy@std@@@std@@QEAAPEAU_Container_proxy@2@_K@Z PROC ; std::allocator<std::_Container_proxy>::allocate, COMDAT

; 1035 : 		{	// allocate array of _Count elements

$LN3:
	mov	QWORD PTR [rsp+16], rdx
	mov	QWORD PTR [rsp+8], rcx
	push	rbp
	sub	rsp, 96					; 00000060H
	lea	rbp, QWORD PTR [rsp+32]

; 1036 : 		return (static_cast<_Ty *>(_Allocate<_New_alignof<_Ty>>(_Get_size_of_n<sizeof(_Ty)>(_Count))));

	mov	rcx, QWORD PTR _Count$[rbp]
	call	??$_Get_size_of_n@$0BA@@std@@YA_K_K@Z	; std::_Get_size_of_n<16>
	mov	rcx, rax
	call	??$_Allocate@$0BA@U_Default_allocate_traits@std@@$0A@@std@@YAPEAX_K@Z ; std::_Allocate<16,std::_Default_allocate_traits,0>

; 1037 : 		}

	lea	rsp, QWORD PTR [rbp+64]
	pop	rbp
	ret	0
?allocate@?$allocator@U_Container_proxy@std@@@std@@QEAAPEAU_Container_proxy@2@_K@Z ENDP ; std::allocator<std::_Container_proxy>::allocate
_TEXT	ENDS
; Function compile flags: /Odtp /RTCu /ZI
; File c:\program files (x86)\microsoft visual studio\2017\enterprise\vc\tools\msvc\14.14.26428\include\xmemory0
;	COMDAT ??$_Deallocate@$0BA@$0A@@std@@YAXPEAX_K@Z
_TEXT	SEGMENT
_Ptr$ = 80
_Bytes$ = 88
??$_Deallocate@$0BA@$0A@@std@@YAXPEAX_K@Z PROC		; std::_Deallocate<16,0>, COMDAT

; 210  : 	{	// deallocate storage allocated by _Allocate when !_HAS_ALIGNED_NEW || _Align <= __STDCPP_DEFAULT_NEW_ALIGNMENT__

$LN4:
	mov	QWORD PTR [rsp+16], rdx
	mov	QWORD PTR [rsp+8], rcx
	push	rbp
	sub	rsp, 96					; 00000060H
	lea	rbp, QWORD PTR [rsp+32]

; 211  :  #if defined(_M_IX86) || defined(_M_X64)
; 212  : 	if (_Bytes >= _Big_allocation_threshold)

	cmp	QWORD PTR _Bytes$[rbp], 4096		; 00001000H
	jb	SHORT $LN2@Deallocate

; 213  : 		{	// boost the alignment of big allocations to help autovectorization
; 214  : 		_Adjust_manually_vector_aligned(_Ptr, _Bytes);

	lea	rdx, QWORD PTR _Bytes$[rbp]
	lea	rcx, QWORD PTR _Ptr$[rbp]
	call	?_Adjust_manually_vector_aligned@std@@YAXAEAPEAXAEA_K@Z ; std::_Adjust_manually_vector_aligned
$LN2@Deallocate:

; 215  : 		}
; 216  :  #endif /* defined(_M_IX86) || defined(_M_X64) */
; 217  : 
; 218  : 	::operator delete(_Ptr, _Bytes);

	mov	rdx, QWORD PTR _Bytes$[rbp]
	mov	rcx, QWORD PTR _Ptr$[rbp]
	call	??3@YAXPEAX_K@Z				; operator delete

; 219  : 	}

	lea	rsp, QWORD PTR [rbp+64]
	pop	rbp
	ret	0
??$_Deallocate@$0BA@$0A@@std@@YAXPEAX_K@Z ENDP		; std::_Deallocate<16,0>
_TEXT	ENDS
; Function compile flags: /Odtp /RTCu /ZI
; File c:\program files (x86)\microsoft visual studio\2017\enterprise\vc\tools\msvc\14.14.26428\include\xmemory0
;	COMDAT ??$_Allocate@$0BA@U_Default_allocate_traits@std@@$0A@@std@@YAPEAX_K@Z
_TEXT	SEGMENT
_Bytes$ = 80
??$_Allocate@$0BA@U_Default_allocate_traits@std@@$0A@@std@@YAPEAX_K@Z PROC ; std::_Allocate<16,std::_Default_allocate_traits,0>, COMDAT

; 191  : 	{	// allocate _Bytes when !_HAS_ALIGNED_NEW || _Align <= __STDCPP_DEFAULT_NEW_ALIGNMENT__

$LN5:
	mov	QWORD PTR [rsp+8], rcx
	push	rbp
	sub	rsp, 96					; 00000060H
	lea	rbp, QWORD PTR [rsp+32]

; 192  :  #if defined(_M_IX86) || defined(_M_X64)
; 193  : 	if (_Bytes >= _Big_allocation_threshold)

	cmp	QWORD PTR _Bytes$[rbp], 4096		; 00001000H
	jb	SHORT $LN2@Allocate

; 194  : 		{	// boost the alignment of big allocations to help autovectorization
; 195  : 		return (_Allocate_manually_vector_aligned<_Traits>(_Bytes));

	mov	rcx, QWORD PTR _Bytes$[rbp]
	call	??$_Allocate_manually_vector_aligned@U_Default_allocate_traits@std@@@std@@YAPEAX_K@Z ; std::_Allocate_manually_vector_aligned<std::_Default_allocate_traits>
	jmp	SHORT $LN1@Allocate
$LN2@Allocate:

; 196  : 		}
; 197  :  #endif /* defined(_M_IX86) || defined(_M_X64) */
; 198  : 
; 199  : 	if (_Bytes != 0)

	cmp	QWORD PTR _Bytes$[rbp], 0
	je	SHORT $LN3@Allocate

; 200  : 		{
; 201  : 		return (_Traits::_Allocate(_Bytes));

	mov	rcx, QWORD PTR _Bytes$[rbp]
	call	?_Allocate@_Default_allocate_traits@std@@SAPEAX_K@Z ; std::_Default_allocate_traits::_Allocate
	jmp	SHORT $LN1@Allocate
$LN3@Allocate:

; 202  : 		}
; 203  : 
; 204  : 	return (nullptr);

	xor	eax, eax
$LN1@Allocate:

; 205  : 	}

	lea	rsp, QWORD PTR [rbp+64]
	pop	rbp
	ret	0
??$_Allocate@$0BA@U_Default_allocate_traits@std@@$0A@@std@@YAPEAX_K@Z ENDP ; std::_Allocate<16,std::_Default_allocate_traits,0>
_TEXT	ENDS
; Function compile flags: /Odtp /RTCu /ZI
; File c:\program files (x86)\microsoft visual studio\2017\enterprise\vc\tools\msvc\14.14.26428\include\xstddef
;	COMDAT ??$addressof@V?$_String_val@U?$_Simple_types@D@std@@@std@@@std@@YAPEAV?$_String_val@U?$_Simple_types@D@std@@@0@AEAV10@@Z
_TEXT	SEGMENT
_Val$ = 80
??$addressof@V?$_String_val@U?$_Simple_types@D@std@@@std@@@std@@YAPEAV?$_String_val@U?$_Simple_types@D@std@@@0@AEAV10@@Z PROC ; std::addressof<std::_String_val<std::_Simple_types<char> > >, COMDAT

; 372  : 	{	// return address of _Val

$LN3:
	mov	QWORD PTR [rsp+8], rcx
	push	rbp
	sub	rsp, 64					; 00000040H
	mov	rbp, rsp

; 373  : 	return (__builtin_addressof(_Val));

	mov	rax, QWORD PTR _Val$[rbp]

; 374  : 	}

	lea	rsp, QWORD PTR [rbp+64]
	pop	rbp
	ret	0
??$addressof@V?$_String_val@U?$_Simple_types@D@std@@@std@@@std@@YAPEAV?$_String_val@U?$_Simple_types@D@std@@@0@AEAV10@@Z ENDP ; std::addressof<std::_String_val<std::_Simple_types<char> > >
_TEXT	ENDS
; Function compile flags: /Odtp /RTCu /ZI
; File c:\program files (x86)\microsoft visual studio\2017\enterprise\vc\tools\msvc\14.14.26428\include\xmemory0
;	COMDAT ??$construct@PEADAEBQEAD@?$_Default_allocator_traits@V?$allocator@D@std@@@std@@SAXAEAV?$allocator@D@1@QEAPEADAEBQEAD@Z
_TEXT	SEGMENT
$T1 = 64
__formal$ = 96
_Ptr$ = 104
<_Args_0>$ = 112
??$construct@PEADAEBQEAD@?$_Default_allocator_traits@V?$allocator@D@std@@@std@@SAXAEAV?$allocator@D@1@QEAPEADAEBQEAD@Z PROC ; std::_Default_allocator_traits<std::allocator<char> >::construct<char *,char * const &>, COMDAT

; 918  : 		{	// construct _Objty(_Types...) at _Ptr

$LN3:
	mov	QWORD PTR [rsp+24], r8
	mov	QWORD PTR [rsp+16], rdx
	mov	QWORD PTR [rsp+8], rcx
	push	rbp
	sub	rsp, 112				; 00000070H
	lea	rbp, QWORD PTR [rsp+32]
	mov	rdx, QWORD PTR _Ptr$[rbp]
	mov	ecx, 8
	call	??2@YAPEAX_KPEAX@Z			; operator new
	mov	QWORD PTR $T1[rbp], rax
	mov	rcx, QWORD PTR <_Args_0>$[rbp]
	call	??$forward@AEBQEAD@std@@YAAEBQEADAEBQEAD@Z ; std::forward<char * const &>
	mov	rcx, QWORD PTR $T1[rbp]
	mov	rax, QWORD PTR [rax]
	mov	QWORD PTR [rcx], rax

; 919  : 		::new (const_cast<void *>(static_cast<const volatile void *>(_Ptr)))
; 920  : 			_Objty(_STD forward<_Types>(_Args)...);
; 921  : 		}

	lea	rsp, QWORD PTR [rbp+80]
	pop	rbp
	ret	0
??$construct@PEADAEBQEAD@?$_Default_allocator_traits@V?$allocator@D@std@@@std@@SAXAEAV?$allocator@D@1@QEAPEADAEBQEAD@Z ENDP ; std::_Default_allocator_traits<std::allocator<char> >::construct<char *,char * const &>
_TEXT	ENDS
; Function compile flags: /Odtp /RTCu /ZI
; File c:\program files (x86)\microsoft visual studio\2017\enterprise\vc\tools\msvc\14.14.26428\include\xstring
;	COMDAT ??$_Reallocate_for@V<lambda_66f57f934f28d61049862f64df852ff0>@@PEBD@?$basic_string@DU?$char_traits@D@std@@V?$allocator@D@2@@std@@QEAAAEAV01@_KV<lambda_66f57f934f28d61049862f64df852ff0>@@PEBD@Z
_TEXT	SEGMENT
_My_data$ = 0
_Old_capacity$ = 8
_New_capacity$ = 16
_Al$ = 24
_New_ptr$ = 32
__$ArrayPad$ = 104
this$ = 128
_New_size$ = 136
_Fn$ = 144
<_Args_0>$ = 152
??$_Reallocate_for@V<lambda_66f57f934f28d61049862f64df852ff0>@@PEBD@?$basic_string@DU?$char_traits@D@std@@V?$allocator@D@2@@std@@QEAAAEAV01@_KV<lambda_66f57f934f28d61049862f64df852ff0>@@PEBD@Z PROC ; std::basic_string<char,std::char_traits<char>,std::allocator<char> >::_Reallocate_for<<lambda_66f57f934f28d61049862f64df852ff0>,char const *>, COMDAT

; 3861 : 		{	// reallocate to store exactly _New_size elements, new buffer prepared by

	mov	QWORD PTR [rsp+32], r9
	mov	BYTE PTR [rsp+24], r8b
	mov	QWORD PTR [rsp+16], rdx
	mov	QWORD PTR [rsp+8], rcx
	push	rbp
	sub	rsp, 144				; 00000090H
	lea	rbp, QWORD PTR [rsp+32]
	mov	rax, QWORD PTR __security_cookie
	xor	rax, rbp
	mov	QWORD PTR __$ArrayPad$[rbp], rax

; 3862 : 			// _Fn(_New_ptr, _New_size, _Args...)
; 3863 : 		if (_New_size > max_size())

	mov	rcx, QWORD PTR this$[rbp]
	call	?max_size@?$basic_string@DU?$char_traits@D@std@@V?$allocator@D@2@@std@@QEBA_KXZ ; std::basic_string<char,std::char_traits<char>,std::allocator<char> >::max_size
	cmp	QWORD PTR _New_size$[rbp], rax
	jbe	SHORT $LN2@Reallocate

; 3864 : 			{
; 3865 : 			_Xlen();	// result too long

	call	?_Xlen@?$basic_string@DU?$char_traits@D@std@@V?$allocator@D@2@@std@@SAXXZ ; std::basic_string<char,std::char_traits<char>,std::allocator<char> >::_Xlen
$LN2@Reallocate:

; 3866 : 			}
; 3867 : 
; 3868 : 		auto& _My_data = this->_Get_data();

	mov	rcx, QWORD PTR this$[rbp]
	call	?_Get_data@?$_String_alloc@U?$_String_base_types@DV?$allocator@D@std@@@std@@@std@@QEAAAEAV?$_String_val@U?$_Simple_types@D@std@@@2@XZ ; std::_String_alloc<std::_String_base_types<char,std::allocator<char> > >::_Get_data
	mov	QWORD PTR _My_data$[rbp], rax

; 3869 : 		const size_type _Old_capacity = _My_data._Myres;

	mov	rax, QWORD PTR _My_data$[rbp]
	mov	rax, QWORD PTR [rax+32]
	mov	QWORD PTR _Old_capacity$[rbp], rax

; 3870 : 		const size_type _New_capacity = _Calculate_growth(_New_size);

	mov	rdx, QWORD PTR _New_size$[rbp]
	mov	rcx, QWORD PTR this$[rbp]
	call	?_Calculate_growth@?$basic_string@DU?$char_traits@D@std@@V?$allocator@D@2@@std@@QEBA_K_K@Z ; std::basic_string<char,std::char_traits<char>,std::allocator<char> >::_Calculate_growth
	mov	QWORD PTR _New_capacity$[rbp], rax

; 3871 : 		auto& _Al = this->_Getal();

	mov	rcx, QWORD PTR this$[rbp]
	call	?_Getal@?$_String_alloc@U?$_String_base_types@DV?$allocator@D@std@@@std@@@std@@QEAAAEAV?$allocator@D@2@XZ ; std::_String_alloc<std::_String_base_types<char,std::allocator<char> > >::_Getal
	mov	QWORD PTR _Al$[rbp], rax

; 3872 : 		const pointer _New_ptr = _Al.allocate(_New_capacity + 1); // throws

	mov	rax, QWORD PTR _New_capacity$[rbp]
	add	rax, 1
	mov	rcx, -1
	cmovb	rax, rcx
	mov	rdx, rax
	mov	rcx, QWORD PTR _Al$[rbp]
	call	?allocate@?$allocator@D@std@@QEAAPEAD_K@Z ; std::allocator<char>::allocate
	mov	QWORD PTR _New_ptr$[rbp], rax

; 3873 : 		_My_data._Orphan_all();

	mov	rcx, QWORD PTR _My_data$[rbp]
	call	?_Orphan_all@_Container_base12@std@@QEAAXXZ ; std::_Container_base12::_Orphan_all

; 3874 : 		_My_data._Mysize = _New_size;

	mov	rax, QWORD PTR _My_data$[rbp]
	mov	rcx, QWORD PTR _New_size$[rbp]
	mov	QWORD PTR [rax+24], rcx

; 3875 : 		_My_data._Myres = _New_capacity;

	mov	rax, QWORD PTR _My_data$[rbp]
	mov	rcx, QWORD PTR _New_capacity$[rbp]
	mov	QWORD PTR [rax+32], rcx

; 3876 : 		_Fn(_Unfancy(_New_ptr), _New_size, _Args...);

	mov	rcx, QWORD PTR _New_ptr$[rbp]
	call	??$_Unfancy@D@std@@YAPEADPEAD@Z		; std::_Unfancy<char>
	mov	r9, QWORD PTR <_Args_0>$[rbp]
	mov	r8, QWORD PTR _New_size$[rbp]
	mov	rdx, rax
	lea	rcx, QWORD PTR _Fn$[rbp]
	call	??R<lambda_66f57f934f28d61049862f64df852ff0>@@QEBAXQEAD_KQEBD@Z ; <lambda_66f57f934f28d61049862f64df852ff0>::operator()

; 3877 : 		if (this->_BUF_SIZE <= _Old_capacity)

	cmp	QWORD PTR _Old_capacity$[rbp], 16
	jb	SHORT $LN3@Reallocate

; 3878 : 			{
; 3879 : 			_Al.deallocate(_My_data._Bx._Ptr, _Old_capacity + 1);

	mov	rax, QWORD PTR _Old_capacity$[rbp]
	inc	rax
	mov	r8, rax
	mov	rax, QWORD PTR _My_data$[rbp]
	mov	rdx, QWORD PTR [rax+8]
	mov	rcx, QWORD PTR _Al$[rbp]
	call	?deallocate@?$allocator@D@std@@QEAAXQEAD_K@Z ; std::allocator<char>::deallocate

; 3880 : 			_My_data._Bx._Ptr = _New_ptr;

	mov	rax, QWORD PTR _My_data$[rbp]
	mov	rcx, QWORD PTR _New_ptr$[rbp]
	mov	QWORD PTR [rax+8], rcx

; 3881 : 			}
; 3882 : 		else

	jmp	SHORT $LN4@Reallocate
$LN3@Reallocate:

; 3883 : 			{
; 3884 : 			_Alty_traits::construct(_Al, _STD addressof(_My_data._Bx._Ptr), _New_ptr);

	mov	rax, QWORD PTR _My_data$[rbp]
	add	rax, 8
	mov	rcx, rax
	call	??$addressof@PEAD@std@@YAPEAPEADAEAPEAD@Z ; std::addressof<char *>
	lea	r8, QWORD PTR _New_ptr$[rbp]
	mov	rdx, rax
	mov	rcx, QWORD PTR _Al$[rbp]
	call	??$construct@PEADAEBQEAD@?$_Default_allocator_traits@V?$allocator@D@std@@@std@@SAXAEAV?$allocator@D@1@QEAPEADAEBQEAD@Z ; std::_Default_allocator_traits<std::allocator<char> >::construct<char *,char * const &>
$LN4@Reallocate:

; 3885 : 			}
; 3886 : 
; 3887 : 		return (*this);

	mov	rax, QWORD PTR this$[rbp]
$LN5@Reallocate:

; 3888 : 		}

	mov	rcx, QWORD PTR __$ArrayPad$[rbp]
	xor	rcx, rbp
	call	__security_check_cookie
	lea	rsp, QWORD PTR [rbp+112]
	pop	rbp
	ret	0
??$_Reallocate_for@V<lambda_66f57f934f28d61049862f64df852ff0>@@PEBD@?$basic_string@DU?$char_traits@D@std@@V?$allocator@D@2@@std@@QEAAAEAV01@_KV<lambda_66f57f934f28d61049862f64df852ff0>@@PEBD@Z ENDP ; std::basic_string<char,std::char_traits<char>,std::allocator<char> >::_Reallocate_for<<lambda_66f57f934f28d61049862f64df852ff0>,char const *>
_TEXT	ENDS
; Function compile flags: /Odtp /RTCu /ZI
; File c:\program files (x86)\microsoft visual studio\2017\enterprise\vc\tools\msvc\14.14.26428\include\xstring
;	COMDAT ??R<lambda_66f57f934f28d61049862f64df852ff0>@@QEBAXQEAD_KQEBD@Z
_TEXT	SEGMENT
$T1 = 64
this$ = 96
_New_ptr$ = 104
_Count$ = 112
_Ptr$ = 120
??R<lambda_66f57f934f28d61049862f64df852ff0>@@QEBAXQEAD_KQEBD@Z PROC ; <lambda_66f57f934f28d61049862f64df852ff0>::operator(), COMDAT

; 2650 : 		return (_Reallocate_for(_Count, [](_Elem * const _New_ptr, const size_type _Count, const _Elem * const _Ptr) {

	mov	QWORD PTR [rsp+32], r9
	mov	QWORD PTR [rsp+24], r8
	mov	QWORD PTR [rsp+16], rdx
	mov	QWORD PTR [rsp+8], rcx
	push	rbp
	sub	rsp, 112				; 00000070H
	lea	rbp, QWORD PTR [rsp+32]

; 2651 : 			_Traits::copy(_New_ptr, _Ptr, _Count);

	mov	r8, QWORD PTR _Count$[rbp]
	mov	rdx, QWORD PTR _Ptr$[rbp]
	mov	rcx, QWORD PTR _New_ptr$[rbp]
	call	?copy@?$char_traits@D@std@@SAPEADQEADQEBD_K@Z ; std::char_traits<char>::copy

; 2652 : 			_Traits::assign(_New_ptr[_Count], _Elem());

	mov	BYTE PTR $T1[rbp], 0
	mov	rax, QWORD PTR _Count$[rbp]
	mov	rcx, QWORD PTR _New_ptr$[rbp]
	add	rcx, rax
	mov	rax, rcx
	lea	rdx, QWORD PTR $T1[rbp]
	mov	rcx, rax
	call	?assign@?$char_traits@D@std@@SAXAEADAEBD@Z ; std::char_traits<char>::assign

; 2653 : 			}, _Ptr));

	lea	rsp, QWORD PTR [rbp+80]
	pop	rbp
	ret	0
??R<lambda_66f57f934f28d61049862f64df852ff0>@@QEBAXQEAD_KQEBD@Z ENDP ; <lambda_66f57f934f28d61049862f64df852ff0>::operator()
_TEXT	ENDS
; Function compile flags: /Odtp /RTCu /ZI
; File c:\program files (x86)\microsoft visual studio\2017\enterprise\vc\tools\msvc\14.14.26428\include\utility
;	COMDAT ??$_Max_value@_K@std@@YAAEB_KAEB_K0@Z
_TEXT	SEGMENT
$T1 = 64
tv65 = 72
_Left$ = 96
_Right$ = 104
??$_Max_value@_K@std@@YAAEB_KAEB_K0@Z PROC		; std::_Max_value<unsigned __int64>, COMDAT

; 32   : 	{	// return larger of _Left and _Right

$LN5:
	mov	QWORD PTR [rsp+16], rdx
	mov	QWORD PTR [rsp+8], rcx
	push	rbp
	sub	rsp, 80					; 00000050H
	mov	rbp, rsp

; 33   : 	return (_Left < _Right ? _Right : _Left);

	mov	rax, QWORD PTR _Left$[rbp]
	mov	rcx, QWORD PTR _Right$[rbp]
	mov	rcx, QWORD PTR [rcx]
	cmp	QWORD PTR [rax], rcx
	jae	SHORT $LN3@Max_value
	mov	rax, QWORD PTR _Right$[rbp]
	mov	QWORD PTR tv65[rbp], rax
	jmp	SHORT $LN4@Max_value
$LN3@Max_value:
	mov	rax, QWORD PTR _Left$[rbp]
	mov	QWORD PTR tv65[rbp], rax
$LN4@Max_value:
	mov	rax, QWORD PTR tv65[rbp]
	mov	QWORD PTR $T1[rbp], rax
	mov	rax, QWORD PTR $T1[rbp]

; 34   : 	}

	lea	rsp, QWORD PTR [rbp+80]
	pop	rbp
	ret	0
??$_Max_value@_K@std@@YAAEB_KAEB_K0@Z ENDP		; std::_Max_value<unsigned __int64>
_TEXT	ENDS
; Function compile flags: /Odtp /RTCu /ZI
; File c:\program files (x86)\microsoft visual studio\2017\enterprise\vc\tools\msvc\14.14.26428\include\xmemory0
;	COMDAT ??$destroy@PEAD@?$_Default_allocator_traits@V?$allocator@D@std@@@std@@SAXAEAV?$allocator@D@1@QEAPEAD@Z
_TEXT	SEGMENT
__formal$ = 80
_Ptr$ = 88
??$destroy@PEAD@?$_Default_allocator_traits@V?$allocator@D@std@@@std@@SAXAEAV?$allocator@D@1@QEAPEAD@Z PROC ; std::_Default_allocator_traits<std::allocator<char> >::destroy<char *>, COMDAT

; 925  : 		{	// destroy object at _Ptr

$LN3:
	mov	QWORD PTR [rsp+16], rdx
	mov	QWORD PTR [rsp+8], rcx
	push	rbp
	sub	rsp, 64					; 00000040H
	mov	rbp, rsp

; 926  : 		_Ptr->~_Uty();
; 927  : 		}

	lea	rsp, QWORD PTR [rbp+64]
	pop	rbp
	ret	0
??$destroy@PEAD@?$_Default_allocator_traits@V?$allocator@D@std@@@std@@SAXAEAV?$allocator@D@1@QEAPEAD@Z ENDP ; std::_Default_allocator_traits<std::allocator<char> >::destroy<char *>
_TEXT	ENDS
; Function compile flags: /Odtp /RTCu /ZI
; File c:\program files (x86)\microsoft visual studio\2017\enterprise\vc\tools\msvc\14.14.26428\include\xstddef
;	COMDAT ??$addressof@PEAD@std@@YAPEAPEADAEAPEAD@Z
_TEXT	SEGMENT
_Val$ = 80
??$addressof@PEAD@std@@YAPEAPEADAEAPEAD@Z PROC		; std::addressof<char *>, COMDAT

; 372  : 	{	// return address of _Val

$LN3:
	mov	QWORD PTR [rsp+8], rcx
	push	rbp
	sub	rsp, 64					; 00000040H
	mov	rbp, rsp

; 373  : 	return (__builtin_addressof(_Val));

	mov	rax, QWORD PTR _Val$[rbp]

; 374  : 	}

	lea	rsp, QWORD PTR [rbp+64]
	pop	rbp
	ret	0
??$addressof@PEAD@std@@YAPEAPEADAEAPEAD@Z ENDP		; std::addressof<char *>
_TEXT	ENDS
; Function compile flags: /Odtp /RTCu /ZI
; File c:\program files (x86)\microsoft visual studio\2017\enterprise\vc\tools\msvc\14.14.26428\include\xutility
;	COMDAT ??$?0$$V@?$_Compressed_pair@V?$allocator@D@std@@V?$_String_val@U?$_Simple_types@D@std@@@2@$00@std@@QEAA@U_Zero_then_variadic_args_t@1@@Z
_TEXT	SEGMENT
this$ = 80
__formal$ = 88
??$?0$$V@?$_Compressed_pair@V?$allocator@D@std@@V?$_String_val@U?$_Simple_types@D@std@@@2@$00@std@@QEAA@U_Zero_then_variadic_args_t@1@@Z PROC ; std::_Compressed_pair<std::allocator<char>,std::_String_val<std::_Simple_types<char> >,1>::_Compressed_pair<std::allocator<char>,std::_String_val<std::_Simple_types<char> >,1><>, COMDAT

; 314  : 		: _Ty1(), _Myval2(_STD forward<_Other2>(_Val2)...)

$LN4:
	mov	BYTE PTR [rsp+16], dl
	mov	QWORD PTR [rsp+8], rcx
	push	rbp
	sub	rsp, 96					; 00000060H
	lea	rbp, QWORD PTR [rsp+32]
	mov	rcx, QWORD PTR this$[rbp]
	call	??0?$allocator@D@std@@QEAA@XZ		; std::allocator<char>::allocator<char>
	mov	rax, QWORD PTR this$[rbp]
	mov	rcx, rax
	call	??0?$_String_val@U?$_Simple_types@D@std@@@std@@QEAA@XZ ; std::_String_val<std::_Simple_types<char> >::_String_val<std::_Simple_types<char> >

; 315  : 		{	// construct from forwarded values
; 316  : 		}

	mov	rax, QWORD PTR this$[rbp]
	lea	rsp, QWORD PTR [rbp+64]
	pop	rbp
	ret	0
??$?0$$V@?$_Compressed_pair@V?$allocator@D@std@@V?$_String_val@U?$_Simple_types@D@std@@@2@$00@std@@QEAA@U_Zero_then_variadic_args_t@1@@Z ENDP ; std::_Compressed_pair<std::allocator<char>,std::_String_val<std::_Simple_types<char> >,1>::_Compressed_pair<std::allocator<char>,std::_String_val<std::_Simple_types<char> >,1><>
_TEXT	ENDS
; Function compile flags: /Odtp /RTCu /ZI
; File c:\program files (x86)\microsoft visual studio\2017\enterprise\vc\tools\msvc\14.14.26428\include\xutility
;	COMDAT ??$?0$$V@?$_Compressed_pair@V?$allocator@UBufferElement@buffers@core@@@std@@V?$_Vector_val@U?$_Simple_types@UBufferElement@buffers@core@@@std@@@2@$00@std@@QEAA@U_Zero_then_variadic_args_t@1@@Z
_TEXT	SEGMENT
this$ = 80
__formal$ = 88
??$?0$$V@?$_Compressed_pair@V?$allocator@UBufferElement@buffers@core@@@std@@V?$_Vector_val@U?$_Simple_types@UBufferElement@buffers@core@@@std@@@2@$00@std@@QEAA@U_Zero_then_variadic_args_t@1@@Z PROC ; std::_Compressed_pair<std::allocator<core::buffers::BufferElement>,std::_Vector_val<std::_Simple_types<core::buffers::BufferElement> >,1>::_Compressed_pair<std::allocator<core::buffers::BufferElement>,std::_Vector_val<std::_Simple_types<core::buffers::BufferElement> >,1><>, COMDAT

; 314  : 		: _Ty1(), _Myval2(_STD forward<_Other2>(_Val2)...)

$LN3:
	mov	BYTE PTR [rsp+16], dl
	mov	QWORD PTR [rsp+8], rcx
	push	rbp
	sub	rsp, 96					; 00000060H
	lea	rbp, QWORD PTR [rsp+32]
	mov	rcx, QWORD PTR this$[rbp]
	call	??0?$allocator@UBufferElement@buffers@core@@@std@@QEAA@XZ ; std::allocator<core::buffers::BufferElement>::allocator<core::buffers::BufferElement>
	mov	rax, QWORD PTR this$[rbp]
	mov	rcx, rax
	call	??0?$_Vector_val@U?$_Simple_types@UBufferElement@buffers@core@@@std@@@std@@QEAA@XZ ; std::_Vector_val<std::_Simple_types<core::buffers::BufferElement> >::_Vector_val<std::_Simple_types<core::buffers::BufferElement> >

; 315  : 		{	// construct from forwarded values
; 316  : 		}

	mov	rax, QWORD PTR this$[rbp]
	lea	rsp, QWORD PTR [rbp+64]
	pop	rbp
	ret	0
??$?0$$V@?$_Compressed_pair@V?$allocator@UBufferElement@buffers@core@@@std@@V?$_Vector_val@U?$_Simple_types@UBufferElement@buffers@core@@@std@@@2@$00@std@@QEAA@U_Zero_then_variadic_args_t@1@@Z ENDP ; std::_Compressed_pair<std::allocator<core::buffers::BufferElement>,std::_Vector_val<std::_Simple_types<core::buffers::BufferElement> >,1>::_Compressed_pair<std::allocator<core::buffers::BufferElement>,std::_Vector_val<std::_Simple_types<core::buffers::BufferElement> >,1><>
_TEXT	ENDS
; Function compile flags: /Odtp /RTCu /ZI
; File c:\program files (x86)\microsoft visual studio\2017\enterprise\vc\tools\msvc\14.14.26428\include\xutility
;	COMDAT ??$?0$$V@?$_Compressed_pair@V?$allocator@U?$pair@PEBDV?$function@$$A6APEAVScene@1Application@@XZ@std@@@std@@@std@@V?$_Vector_val@U?$_Simple_types@U?$pair@PEBDV?$function@$$A6APEAVScene@1Application@@XZ@std@@@std@@@std@@@2@$00@std@@QEAA@U_Zero_then_variadic_args_t@1@@Z
_TEXT	SEGMENT
this$ = 80
__formal$ = 88
??$?0$$V@?$_Compressed_pair@V?$allocator@U?$pair@PEBDV?$function@$$A6APEAVScene@1Application@@XZ@std@@@std@@@std@@V?$_Vector_val@U?$_Simple_types@U?$pair@PEBDV?$function@$$A6APEAVScene@1Application@@XZ@std@@@std@@@std@@@2@$00@std@@QEAA@U_Zero_then_variadic_args_t@1@@Z PROC ; std::_Compressed_pair<std::allocator<std::pair<char const *,std::function<Application::Scene::Scene * __cdecl(void)> > >,std::_Vector_val<std::_Simple_types<std::pair<char const *,std::function<Application::Scene::Scene * __cdecl(void)> > > >,1>::_Compressed_pair<std::allocator<std::pair<char const *,std::function<Application::Scene::Scene * __cdecl(void)> > >,std::_Vector_val<std::_Simple_types<std::pair<char const *,std::function<Application::Scene::Scene * __cdecl(void)> > > >,1><>, COMDAT

; 314  : 		: _Ty1(), _Myval2(_STD forward<_Other2>(_Val2)...)

$LN3:
	mov	BYTE PTR [rsp+16], dl
	mov	QWORD PTR [rsp+8], rcx
	push	rbp
	sub	rsp, 96					; 00000060H
	lea	rbp, QWORD PTR [rsp+32]
	mov	rcx, QWORD PTR this$[rbp]
	call	??0?$allocator@U?$pair@PEBDV?$function@$$A6APEAVScene@1Application@@XZ@std@@@std@@@std@@QEAA@XZ ; std::allocator<std::pair<char const *,std::function<Application::Scene::Scene * __cdecl(void)> > >::allocator<std::pair<char const *,std::function<Application::Scene::Scene * __cdecl(void)> > >
	mov	rax, QWORD PTR this$[rbp]
	mov	rcx, rax
	call	??0?$_Vector_val@U?$_Simple_types@U?$pair@PEBDV?$function@$$A6APEAVScene@1Application@@XZ@std@@@std@@@std@@@std@@QEAA@XZ ; std::_Vector_val<std::_Simple_types<std::pair<char const *,std::function<Application::Scene::Scene * __cdecl(void)> > > >::_Vector_val<std::_Simple_types<std::pair<char const *,std::function<Application::Scene::Scene * __cdecl(void)> > > >

; 315  : 		{	// construct from forwarded values
; 316  : 		}

	mov	rax, QWORD PTR this$[rbp]
	lea	rsp, QWORD PTR [rbp+64]
	pop	rbp
	ret	0
??$?0$$V@?$_Compressed_pair@V?$allocator@U?$pair@PEBDV?$function@$$A6APEAVScene@1Application@@XZ@std@@@std@@@std@@V?$_Vector_val@U?$_Simple_types@U?$pair@PEBDV?$function@$$A6APEAVScene@1Application@@XZ@std@@@std@@@std@@@2@$00@std@@QEAA@U_Zero_then_variadic_args_t@1@@Z ENDP ; std::_Compressed_pair<std::allocator<std::pair<char const *,std::function<Application::Scene::Scene * __cdecl(void)> > >,std::_Vector_val<std::_Simple_types<std::pair<char const *,std::function<Application::Scene::Scene * __cdecl(void)> > > >,1>::_Compressed_pair<std::allocator<std::pair<char const *,std::function<Application::Scene::Scene * __cdecl(void)> > >,std::_Vector_val<std::_Simple_types<std::pair<char const *,std::function<Application::Scene::Scene * __cdecl(void)> > > >,1><>
_TEXT	ENDS
; Function compile flags: /Odtp /RTCu /ZI
; File c:\program files (x86)\microsoft visual studio\2017\enterprise\vc\tools\msvc\14.14.26428\include\xstddef
;	COMDAT ??$_Unfancy@D@std@@YAPEADPEAD@Z
_TEXT	SEGMENT
_Ptr$ = 80
??$_Unfancy@D@std@@YAPEADPEAD@Z PROC			; std::_Unfancy<char>, COMDAT

; 388  : 	{	// do nothing for plain pointers

$LN3:
	mov	QWORD PTR [rsp+8], rcx
	push	rbp
	sub	rsp, 64					; 00000040H
	mov	rbp, rsp

; 389  : 	return (_Ptr);

	mov	rax, QWORD PTR _Ptr$[rbp]

; 390  : 	}

	lea	rsp, QWORD PTR [rbp+64]
	pop	rbp
	ret	0
??$_Unfancy@D@std@@YAPEADPEAD@Z ENDP			; std::_Unfancy<char>
_TEXT	ENDS
; Function compile flags: /Odtp /RTCu /ZI
; File c:\program files (x86)\microsoft visual studio\2017\enterprise\vc\tools\msvc\14.14.26428\include\vector
;	COMDAT ??$_Emplace_reallocate@UBufferElement@buffers@core@@@?$vector@UBufferElement@buffers@core@@V?$allocator@UBufferElement@buffers@core@@@std@@@std@@QEAAPEAUBufferElement@buffers@core@@QEAU234@$$QEAU234@@Z
_TEXT	SEGMENT
_Whereoff$ = 0
_Al$ = 8
_Oldsize$ = 16
_Newsize$ = 24
_Newcapacity$ = 32
_Newvec$ = 40
_Constructed_last$ = 48
_Constructed_first$ = 56
$T1 = 128
tv206 = 136
tv203 = 136
tv176 = 136
tv153 = 136
this$ = 160
_Whereptr$ = 168
<_Val_0>$ = 176
??$_Emplace_reallocate@UBufferElement@buffers@core@@@?$vector@UBufferElement@buffers@core@@V?$allocator@UBufferElement@buffers@core@@@std@@@std@@QEAAPEAUBufferElement@buffers@core@@QEAU234@$$QEAU234@@Z PROC ; std::vector<core::buffers::BufferElement,std::allocator<core::buffers::BufferElement> >::_Emplace_reallocate<core::buffers::BufferElement>, COMDAT

; 991  : 		{	// reallocate and insert by perfectly forwarding _Val at _Whereptr

$LN13:
	mov	QWORD PTR [rsp+24], r8
	mov	QWORD PTR [rsp+16], rdx
	mov	QWORD PTR [rsp+8], rcx
	push	rbp
	sub	rsp, 176				; 000000b0H
	lea	rbp, QWORD PTR [rsp+32]
	mov	QWORD PTR $T1[rbp], -2

; 992  : 			// pre: !_Has_unused_capacity()
; 993  : 		const size_type _Whereoff = static_cast<size_type>(_Whereptr - this->_Myfirst());

	mov	rcx, QWORD PTR this$[rbp]
	call	?_Myfirst@?$_Vector_alloc@U?$_Vec_base_types@UBufferElement@buffers@core@@V?$allocator@UBufferElement@buffers@core@@@std@@@std@@@std@@QEAAAEAPEAUBufferElement@buffers@core@@XZ ; std::_Vector_alloc<std::_Vec_base_types<core::buffers::BufferElement,std::allocator<core::buffers::BufferElement> > >::_Myfirst
	mov	rax, QWORD PTR [rax]
	mov	rcx, QWORD PTR _Whereptr$[rbp]
	sub	rcx, rax
	mov	rax, rcx
	cdq
	mov	ecx, 12
	idiv	rcx
	mov	QWORD PTR _Whereoff$[rbp], rax

; 994  : 		_Alty& _Al = this->_Getal();

	mov	rcx, QWORD PTR this$[rbp]
	call	?_Getal@?$_Vector_alloc@U?$_Vec_base_types@UBufferElement@buffers@core@@V?$allocator@UBufferElement@buffers@core@@@std@@@std@@@std@@QEAAAEAV?$allocator@UBufferElement@buffers@core@@@2@XZ ; std::_Vector_alloc<std::_Vec_base_types<core::buffers::BufferElement,std::allocator<core::buffers::BufferElement> > >::_Getal
	mov	QWORD PTR _Al$[rbp], rax

; 995  : 		const size_type _Oldsize = size();

	mov	rcx, QWORD PTR this$[rbp]
	call	?size@?$vector@UBufferElement@buffers@core@@V?$allocator@UBufferElement@buffers@core@@@std@@@std@@QEBA_KXZ ; std::vector<core::buffers::BufferElement,std::allocator<core::buffers::BufferElement> >::size
	mov	QWORD PTR _Oldsize$[rbp], rax

; 996  : 
; 997  : 		if (_Oldsize == max_size())

	mov	rcx, QWORD PTR this$[rbp]
	call	?max_size@?$vector@UBufferElement@buffers@core@@V?$allocator@UBufferElement@buffers@core@@@std@@@std@@QEBA_KXZ ; std::vector<core::buffers::BufferElement,std::allocator<core::buffers::BufferElement> >::max_size
	cmp	QWORD PTR _Oldsize$[rbp], rax
	jne	SHORT $LN2@Emplace_re

; 998  : 			{
; 999  : 			_Xlength();

	call	?_Xlength@?$vector@UBufferElement@buffers@core@@V?$allocator@UBufferElement@buffers@core@@@std@@@std@@CAXXZ ; std::vector<core::buffers::BufferElement,std::allocator<core::buffers::BufferElement> >::_Xlength
$LN2@Emplace_re:

; 1000 : 			}
; 1001 : 
; 1002 : 		const size_type _Newsize = _Oldsize + 1;

	mov	rax, QWORD PTR _Oldsize$[rbp]
	inc	rax
	mov	QWORD PTR _Newsize$[rbp], rax

; 1003 : 		const size_type _Newcapacity = _Calculate_growth(_Newsize);

	mov	rdx, QWORD PTR _Newsize$[rbp]
	mov	rcx, QWORD PTR this$[rbp]
	call	?_Calculate_growth@?$vector@UBufferElement@buffers@core@@V?$allocator@UBufferElement@buffers@core@@@std@@@std@@AEBA_K_K@Z ; std::vector<core::buffers::BufferElement,std::allocator<core::buffers::BufferElement> >::_Calculate_growth
	mov	QWORD PTR _Newcapacity$[rbp], rax

; 1004 : 
; 1005 : 		const pointer _Newvec = _Al.allocate(_Newcapacity);

	mov	rdx, QWORD PTR _Newcapacity$[rbp]
	mov	rcx, QWORD PTR _Al$[rbp]
	call	?allocate@?$allocator@UBufferElement@buffers@core@@@std@@QEAAPEAUBufferElement@buffers@core@@_K@Z ; std::allocator<core::buffers::BufferElement>::allocate
	mov	QWORD PTR _Newvec$[rbp], rax

; 1006 : 		const pointer _Constructed_last = _Newvec + _Whereoff + 1;

	imul	rax, QWORD PTR _Whereoff$[rbp], 12
	mov	rcx, QWORD PTR _Newvec$[rbp]
	lea	rax, QWORD PTR [rcx+rax+12]
	mov	QWORD PTR _Constructed_last$[rbp], rax

; 1007 : 		pointer _Constructed_first = _Constructed_last;

	mov	rax, QWORD PTR _Constructed_last$[rbp]
	mov	QWORD PTR _Constructed_first$[rbp], rax

; 1008 : 
; 1009 : 		_TRY_BEGIN
; 1010 : 		_Alty_traits::construct(_Al, _Unfancy(_Newvec + _Whereoff), _STD forward<_Valty>(_Val)...);

	imul	rax, QWORD PTR _Whereoff$[rbp], 12
	mov	rcx, QWORD PTR _Newvec$[rbp]
	add	rcx, rax
	mov	rax, rcx
	mov	rcx, rax
	call	??$_Unfancy@UBufferElement@buffers@core@@@std@@YAPEAUBufferElement@buffers@core@@PEAU123@@Z ; std::_Unfancy<core::buffers::BufferElement>
	mov	QWORD PTR tv206[rbp], rax
	mov	rcx, QWORD PTR <_Val_0>$[rbp]
	call	??$forward@UBufferElement@buffers@core@@@std@@YA$$QEAUBufferElement@buffers@core@@AEAU123@@Z ; std::forward<core::buffers::BufferElement>
	mov	r8, rax
	mov	rdx, QWORD PTR tv206[rbp]
	mov	rcx, QWORD PTR _Al$[rbp]
	call	??$construct@UBufferElement@buffers@core@@U123@@?$_Default_allocator_traits@V?$allocator@UBufferElement@buffers@core@@@std@@@std@@SAXAEAV?$allocator@UBufferElement@buffers@core@@@1@QEAUBufferElement@buffers@core@@$$QEAU345@@Z ; std::_Default_allocator_traits<std::allocator<core::buffers::BufferElement> >::construct<core::buffers::BufferElement,core::buffers::BufferElement>

; 1011 : 		_Constructed_first = _Newvec + _Whereoff;

	imul	rax, QWORD PTR _Whereoff$[rbp], 12
	mov	rcx, QWORD PTR _Newvec$[rbp]
	add	rcx, rax
	mov	rax, rcx
	mov	QWORD PTR _Constructed_first$[rbp], rax

; 1012 : 
; 1013 : 		if (_Whereptr == this->_Mylast())

	mov	rcx, QWORD PTR this$[rbp]
	call	?_Mylast@?$_Vector_alloc@U?$_Vec_base_types@UBufferElement@buffers@core@@V?$allocator@UBufferElement@buffers@core@@@std@@@std@@@std@@QEAAAEAPEAUBufferElement@buffers@core@@XZ ; std::_Vector_alloc<std::_Vec_base_types<core::buffers::BufferElement,std::allocator<core::buffers::BufferElement> > >::_Mylast
	mov	rax, QWORD PTR [rax]
	cmp	QWORD PTR _Whereptr$[rbp], rax
	jne	SHORT $LN4@Emplace_re

; 1014 : 			{	// at back, provide strong guarantee
; 1015 : 			_Umove_if_noexcept(this->_Myfirst(), this->_Mylast(), _Newvec);

	mov	rcx, QWORD PTR this$[rbp]
	call	?_Mylast@?$_Vector_alloc@U?$_Vec_base_types@UBufferElement@buffers@core@@V?$allocator@UBufferElement@buffers@core@@@std@@@std@@@std@@QEAAAEAPEAUBufferElement@buffers@core@@XZ ; std::_Vector_alloc<std::_Vec_base_types<core::buffers::BufferElement,std::allocator<core::buffers::BufferElement> > >::_Mylast
	mov	QWORD PTR tv153[rbp], rax
	mov	rcx, QWORD PTR this$[rbp]
	call	?_Myfirst@?$_Vector_alloc@U?$_Vec_base_types@UBufferElement@buffers@core@@V?$allocator@UBufferElement@buffers@core@@@std@@@std@@@std@@QEAAAEAPEAUBufferElement@buffers@core@@XZ ; std::_Vector_alloc<std::_Vec_base_types<core::buffers::BufferElement,std::allocator<core::buffers::BufferElement> > >::_Myfirst
	mov	r9, QWORD PTR _Newvec$[rbp]
	mov	rcx, QWORD PTR tv153[rbp]
	mov	r8, QWORD PTR [rcx]
	mov	rdx, QWORD PTR [rax]
	mov	rcx, QWORD PTR this$[rbp]
	call	?_Umove_if_noexcept@?$vector@UBufferElement@buffers@core@@V?$allocator@UBufferElement@buffers@core@@@std@@@std@@AEAAXPEAUBufferElement@buffers@core@@00@Z ; std::vector<core::buffers::BufferElement,std::allocator<core::buffers::BufferElement> >::_Umove_if_noexcept

; 1016 : 			}
; 1017 : 		else

	jmp	SHORT $LN5@Emplace_re
$LN4@Emplace_re:

; 1018 : 			{	// provide basic guarantee
; 1019 : 			_Umove(this->_Myfirst(), _Whereptr, _Newvec);

	mov	rcx, QWORD PTR this$[rbp]
	call	?_Myfirst@?$_Vector_alloc@U?$_Vec_base_types@UBufferElement@buffers@core@@V?$allocator@UBufferElement@buffers@core@@@std@@@std@@@std@@QEAAAEAPEAUBufferElement@buffers@core@@XZ ; std::_Vector_alloc<std::_Vec_base_types<core::buffers::BufferElement,std::allocator<core::buffers::BufferElement> > >::_Myfirst
	mov	r9, QWORD PTR _Newvec$[rbp]
	mov	r8, QWORD PTR _Whereptr$[rbp]
	mov	rdx, QWORD PTR [rax]
	mov	rcx, QWORD PTR this$[rbp]
	call	?_Umove@?$vector@UBufferElement@buffers@core@@V?$allocator@UBufferElement@buffers@core@@@std@@@std@@AEAAPEAUBufferElement@buffers@core@@PEAU345@00@Z ; std::vector<core::buffers::BufferElement,std::allocator<core::buffers::BufferElement> >::_Umove

; 1020 : 			_Constructed_first = _Newvec;

	mov	rax, QWORD PTR _Newvec$[rbp]
	mov	QWORD PTR _Constructed_first$[rbp], rax

; 1021 : 			_Umove(_Whereptr, this->_Mylast(), _Newvec + _Whereoff + 1);

	imul	rax, QWORD PTR _Whereoff$[rbp], 12
	mov	rcx, QWORD PTR _Newvec$[rbp]
	lea	rax, QWORD PTR [rcx+rax+12]
	mov	QWORD PTR tv176[rbp], rax
	mov	rcx, QWORD PTR this$[rbp]
	call	?_Mylast@?$_Vector_alloc@U?$_Vec_base_types@UBufferElement@buffers@core@@V?$allocator@UBufferElement@buffers@core@@@std@@@std@@@std@@QEAAAEAPEAUBufferElement@buffers@core@@XZ ; std::_Vector_alloc<std::_Vec_base_types<core::buffers::BufferElement,std::allocator<core::buffers::BufferElement> > >::_Mylast
	mov	rcx, QWORD PTR tv176[rbp]
	mov	r9, rcx
	mov	r8, QWORD PTR [rax]
	mov	rdx, QWORD PTR _Whereptr$[rbp]
	mov	rcx, QWORD PTR this$[rbp]
	call	?_Umove@?$vector@UBufferElement@buffers@core@@V?$allocator@UBufferElement@buffers@core@@@std@@@std@@AEAAPEAUBufferElement@buffers@core@@PEAU345@00@Z ; std::vector<core::buffers::BufferElement,std::allocator<core::buffers::BufferElement> >::_Umove
	npad	1
$LN5@Emplace_re:
	jmp	SHORT $LN9@Emplace_re
$LN10@Emplace_re:
$LN9@Emplace_re:

; 1022 : 			}
; 1023 : 		_CATCH_ALL
; 1024 : 		_Destroy(_Constructed_first, _Constructed_last);
; 1025 : 		_Al.deallocate(_Newvec, _Newcapacity);
; 1026 : 		_RERAISE;
; 1027 : 		_CATCH_END
; 1028 : 
; 1029 : 		_Change_array(_Newvec, _Newsize, _Newcapacity);

	mov	r9, QWORD PTR _Newcapacity$[rbp]
	mov	r8, QWORD PTR _Newsize$[rbp]
	mov	rdx, QWORD PTR _Newvec$[rbp]
	mov	rcx, QWORD PTR this$[rbp]
	call	?_Change_array@?$vector@UBufferElement@buffers@core@@V?$allocator@UBufferElement@buffers@core@@@std@@@std@@AEAAXQEAUBufferElement@buffers@core@@_K1@Z ; std::vector<core::buffers::BufferElement,std::allocator<core::buffers::BufferElement> >::_Change_array

; 1030 : 		return (this->_Myfirst() + _Whereoff);

	imul	rax, QWORD PTR _Whereoff$[rbp], 12
	mov	QWORD PTR tv203[rbp], rax
	mov	rcx, QWORD PTR this$[rbp]
	call	?_Myfirst@?$_Vector_alloc@U?$_Vec_base_types@UBufferElement@buffers@core@@V?$allocator@UBufferElement@buffers@core@@@std@@@std@@@std@@QEAAAEAPEAUBufferElement@buffers@core@@XZ ; std::_Vector_alloc<std::_Vec_base_types<core::buffers::BufferElement,std::allocator<core::buffers::BufferElement> > >::_Myfirst
	mov	rcx, QWORD PTR tv203[rbp]
	add	rcx, QWORD PTR [rax]
	mov	rax, rcx

; 1031 : 		}

	lea	rsp, QWORD PTR [rbp+144]
	pop	rbp
	ret	0
$LN11@Emplace_re:
??$_Emplace_reallocate@UBufferElement@buffers@core@@@?$vector@UBufferElement@buffers@core@@V?$allocator@UBufferElement@buffers@core@@@std@@@std@@QEAAPEAUBufferElement@buffers@core@@QEAU234@$$QEAU234@@Z ENDP ; std::vector<core::buffers::BufferElement,std::allocator<core::buffers::BufferElement> >::_Emplace_reallocate<core::buffers::BufferElement>
_TEXT	ENDS
;	COMDAT text$x
text$x	SEGMENT
_Whereoff$ = 0
_Al$ = 8
_Oldsize$ = 16
_Newsize$ = 24
_Newcapacity$ = 32
_Newvec$ = 40
_Constructed_last$ = 48
_Constructed_first$ = 56
$T1 = 128
tv206 = 136
tv203 = 136
tv176 = 136
tv153 = 136
this$ = 160
_Whereptr$ = 168
<_Val_0>$ = 176
?catch$0@?0???$_Emplace_reallocate@UBufferElement@buffers@core@@@?$vector@UBufferElement@buffers@core@@V?$allocator@UBufferElement@buffers@core@@@std@@@std@@QEAAPEAUBufferElement@buffers@core@@QEAU234@$$QEAU234@@Z@4HA PROC ; `std::vector<core::buffers::BufferElement,std::allocator<core::buffers::BufferElement> >::_Emplace_reallocate<core::buffers::BufferElement>'::`1'::catch$0

; 1022 : 			}
; 1023 : 		_CATCH_ALL

	mov	QWORD PTR [rsp+16], rdx
	push	rbp
	sub	rsp, 32					; 00000020H
	lea	rbp, QWORD PTR [rdx+32]
__catch$??$_Emplace_reallocate@UBufferElement@buffers@core@@@?$vector@UBufferElement@buffers@core@@V?$allocator@UBufferElement@buffers@core@@@std@@@std@@QEAAPEAUBufferElement@buffers@core@@QEAU234@$$QEAU234@@Z$0:

; 1022 : 			}
; 1023 : 		_CATCH_ALL
; 1024 : 		_Destroy(_Constructed_first, _Constructed_last);

	mov	r8, QWORD PTR _Constructed_last$[rbp]
	mov	rdx, QWORD PTR _Constructed_first$[rbp]
	mov	rcx, QWORD PTR this$[rbp]
	call	?_Destroy@?$vector@UBufferElement@buffers@core@@V?$allocator@UBufferElement@buffers@core@@@std@@@std@@AEAAXPEAUBufferElement@buffers@core@@0@Z ; std::vector<core::buffers::BufferElement,std::allocator<core::buffers::BufferElement> >::_Destroy

; 1022 : 			}
; 1023 : 		_CATCH_ALL
; 1024 : 		_Destroy(_Constructed_first, _Constructed_last);
; 1025 : 		_Al.deallocate(_Newvec, _Newcapacity);

	mov	r8, QWORD PTR _Newcapacity$[rbp]
	mov	rdx, QWORD PTR _Newvec$[rbp]
	mov	rcx, QWORD PTR _Al$[rbp]
	call	?deallocate@?$allocator@UBufferElement@buffers@core@@@std@@QEAAXQEAUBufferElement@buffers@core@@_K@Z ; std::allocator<core::buffers::BufferElement>::deallocate

; 1022 : 			}
; 1023 : 		_CATCH_ALL
; 1024 : 		_Destroy(_Constructed_first, _Constructed_last);
; 1025 : 		_Al.deallocate(_Newvec, _Newcapacity);
; 1026 : 		_RERAISE;

	xor	edx, edx
	xor	ecx, ecx
	call	_CxxThrowException
	npad	1

; 1022 : 			}
; 1023 : 		_CATCH_ALL
; 1024 : 		_Destroy(_Constructed_first, _Constructed_last);
; 1025 : 		_Al.deallocate(_Newvec, _Newcapacity);
; 1026 : 		_RERAISE;
; 1027 : 		_CATCH_END

	lea	rax, $LN10@catch$0
	add	rsp, 32					; 00000020H
	pop	rbp
	ret	0
	int	3
?catch$0@?0???$_Emplace_reallocate@UBufferElement@buffers@core@@@?$vector@UBufferElement@buffers@core@@V?$allocator@UBufferElement@buffers@core@@@std@@@std@@QEAAPEAUBufferElement@buffers@core@@QEAU234@$$QEAU234@@Z@4HA ENDP ; `std::vector<core::buffers::BufferElement,std::allocator<core::buffers::BufferElement> >::_Emplace_reallocate<core::buffers::BufferElement>'::`1'::catch$0
text$x	ENDS
; Function compile flags: /Odtp /RTCu /ZI
;	COMDAT text$x
text$x	SEGMENT
_Whereoff$ = 0
_Al$ = 8
_Oldsize$ = 16
_Newsize$ = 24
_Newcapacity$ = 32
_Newvec$ = 40
_Constructed_last$ = 48
_Constructed_first$ = 56
$T1 = 128
tv206 = 136
tv203 = 136
tv176 = 136
tv153 = 136
this$ = 160
_Whereptr$ = 168
<_Val_0>$ = 176
?catch$0@?0???$_Emplace_reallocate@UBufferElement@buffers@core@@@?$vector@UBufferElement@buffers@core@@V?$allocator@UBufferElement@buffers@core@@@std@@@std@@QEAAPEAUBufferElement@buffers@core@@QEAU234@$$QEAU234@@Z@4HA PROC ; `std::vector<core::buffers::BufferElement,std::allocator<core::buffers::BufferElement> >::_Emplace_reallocate<core::buffers::BufferElement>'::`1'::catch$0

; 1023 : 		_CATCH_ALL

	mov	QWORD PTR [rsp+16], rdx
	push	rbp
	sub	rsp, 32					; 00000020H
	lea	rbp, QWORD PTR [rdx+32]
__catch$??$_Emplace_reallocate@UBufferElement@buffers@core@@@?$vector@UBufferElement@buffers@core@@V?$allocator@UBufferElement@buffers@core@@@std@@@std@@QEAAPEAUBufferElement@buffers@core@@QEAU234@$$QEAU234@@Z$0:

; 1024 : 		_Destroy(_Constructed_first, _Constructed_last);

	mov	r8, QWORD PTR _Constructed_last$[rbp]
	mov	rdx, QWORD PTR _Constructed_first$[rbp]
	mov	rcx, QWORD PTR this$[rbp]
	call	?_Destroy@?$vector@UBufferElement@buffers@core@@V?$allocator@UBufferElement@buffers@core@@@std@@@std@@AEAAXPEAUBufferElement@buffers@core@@0@Z ; std::vector<core::buffers::BufferElement,std::allocator<core::buffers::BufferElement> >::_Destroy

; 1025 : 		_Al.deallocate(_Newvec, _Newcapacity);

	mov	r8, QWORD PTR _Newcapacity$[rbp]
	mov	rdx, QWORD PTR _Newvec$[rbp]
	mov	rcx, QWORD PTR _Al$[rbp]
	call	?deallocate@?$allocator@UBufferElement@buffers@core@@@std@@QEAAXQEAUBufferElement@buffers@core@@_K@Z ; std::allocator<core::buffers::BufferElement>::deallocate

; 1026 : 		_RERAISE;

	xor	edx, edx
	xor	ecx, ecx
	call	_CxxThrowException
	npad	1

; 1027 : 		_CATCH_END

	lea	rax, $LN10@catch$0
	add	rsp, 32					; 00000020H
	pop	rbp
	ret	0
	int	3
?catch$0@?0???$_Emplace_reallocate@UBufferElement@buffers@core@@@?$vector@UBufferElement@buffers@core@@V?$allocator@UBufferElement@buffers@core@@@std@@@std@@QEAAPEAUBufferElement@buffers@core@@QEAU234@$$QEAU234@@Z@4HA ENDP ; `std::vector<core::buffers::BufferElement,std::allocator<core::buffers::BufferElement> >::_Emplace_reallocate<core::buffers::BufferElement>'::`1'::catch$0
text$x	ENDS
; Function compile flags: /Odtp /RTCu /ZI
; File c:\program files (x86)\microsoft visual studio\2017\enterprise\vc\tools\msvc\14.14.26428\include\xmemory0
;	COMDAT ??$construct@UBufferElement@buffers@core@@U123@@?$_Default_allocator_traits@V?$allocator@UBufferElement@buffers@core@@@std@@@std@@SAXAEAV?$allocator@UBufferElement@buffers@core@@@1@QEAUBufferElement@buffers@core@@$$QEAU345@@Z
_TEXT	SEGMENT
$T1 = 64
__formal$ = 112
_Ptr$ = 120
<_Args_0>$ = 128
??$construct@UBufferElement@buffers@core@@U123@@?$_Default_allocator_traits@V?$allocator@UBufferElement@buffers@core@@@std@@@std@@SAXAEAV?$allocator@UBufferElement@buffers@core@@@1@QEAUBufferElement@buffers@core@@$$QEAU345@@Z PROC ; std::_Default_allocator_traits<std::allocator<core::buffers::BufferElement> >::construct<core::buffers::BufferElement,core::buffers::BufferElement>, COMDAT

; 918  : 		{	// construct _Objty(_Types...) at _Ptr

$LN3:
	mov	QWORD PTR [rsp+24], r8
	mov	QWORD PTR [rsp+16], rdx
	mov	QWORD PTR [rsp+8], rcx
	push	rbp
	push	rsi
	push	rdi
	sub	rsp, 112				; 00000070H
	lea	rbp, QWORD PTR [rsp+32]
	mov	rdx, QWORD PTR _Ptr$[rbp]
	mov	ecx, 12
	call	??2@YAPEAX_KPEAX@Z			; operator new
	mov	QWORD PTR $T1[rbp], rax
	mov	rcx, QWORD PTR <_Args_0>$[rbp]
	call	??$forward@UBufferElement@buffers@core@@@std@@YA$$QEAUBufferElement@buffers@core@@AEAU123@@Z ; std::forward<core::buffers::BufferElement>
	mov	rdi, QWORD PTR $T1[rbp]
	mov	rsi, rax
	mov	ecx, 12
	rep movsb

; 919  : 		::new (const_cast<void *>(static_cast<const volatile void *>(_Ptr)))
; 920  : 			_Objty(_STD forward<_Types>(_Args)...);
; 921  : 		}

	lea	rsp, QWORD PTR [rbp+80]
	pop	rdi
	pop	rsi
	pop	rbp
	ret	0
??$construct@UBufferElement@buffers@core@@U123@@?$_Default_allocator_traits@V?$allocator@UBufferElement@buffers@core@@@std@@@std@@SAXAEAV?$allocator@UBufferElement@buffers@core@@@1@QEAUBufferElement@buffers@core@@$$QEAU345@@Z ENDP ; std::_Default_allocator_traits<std::allocator<core::buffers::BufferElement> >::construct<core::buffers::BufferElement,core::buffers::BufferElement>
_TEXT	ENDS
; Function compile flags: /Odtp /RTCu /ZI
; File c:\program files (x86)\microsoft visual studio\2017\enterprise\vc\tools\msvc\14.14.26428\include\xstddef
;	COMDAT ??$_Unfancy@UBufferElement@buffers@core@@@std@@YAPEAUBufferElement@buffers@core@@PEAU123@@Z
_TEXT	SEGMENT
_Ptr$ = 80
??$_Unfancy@UBufferElement@buffers@core@@@std@@YAPEAUBufferElement@buffers@core@@PEAU123@@Z PROC ; std::_Unfancy<core::buffers::BufferElement>, COMDAT

; 388  : 	{	// do nothing for plain pointers

$LN3:
	mov	QWORD PTR [rsp+8], rcx
	push	rbp
	sub	rsp, 64					; 00000040H
	mov	rbp, rsp

; 389  : 	return (_Ptr);

	mov	rax, QWORD PTR _Ptr$[rbp]

; 390  : 	}

	lea	rsp, QWORD PTR [rbp+64]
	pop	rbp
	ret	0
??$_Unfancy@UBufferElement@buffers@core@@@std@@YAPEAUBufferElement@buffers@core@@PEAU123@@Z ENDP ; std::_Unfancy<core::buffers::BufferElement>
_TEXT	ENDS
; Function compile flags: /Odtp /RTCu /ZI
; File c:\program files (x86)\microsoft visual studio\2017\enterprise\vc\tools\msvc\14.14.26428\include\vector
;	COMDAT ??$_Emplace_back_with_unused_capacity@UBufferElement@buffers@core@@@?$vector@UBufferElement@buffers@core@@V?$allocator@UBufferElement@buffers@core@@@std@@@std@@AEAA@$$QEAUBufferElement@buffers@core@@@Z
_TEXT	SEGMENT
_Result$ = 0
tv142 = 72
tv89 = 72
tv64 = 72
tv67 = 80
this$ = 112
<_Val_0>$ = 120
??$_Emplace_back_with_unused_capacity@UBufferElement@buffers@core@@@?$vector@UBufferElement@buffers@core@@V?$allocator@UBufferElement@buffers@core@@@std@@@std@@AEAA@$$QEAUBufferElement@buffers@core@@@Z PROC ; std::vector<core::buffers::BufferElement,std::allocator<core::buffers::BufferElement> >::_Emplace_back_with_unused_capacity<core::buffers::BufferElement>, COMDAT

; 949  : 		{	// insert by perfectly forwarding into element at end, provide strong guarantee

$LN3:
	mov	QWORD PTR [rsp+16], rdx
	mov	QWORD PTR [rsp+8], rcx
	push	rbp
	sub	rsp, 128				; 00000080H
	lea	rbp, QWORD PTR [rsp+32]

; 950  : 			// pre: _Has_unused_capacity()
; 951  : 		_Alty_traits::construct(this->_Getal(), _Unfancy(this->_Mylast()), _STD forward<_Valty>(_Val)...);

	mov	rcx, QWORD PTR <_Val_0>$[rbp]
	call	??$forward@UBufferElement@buffers@core@@@std@@YA$$QEAUBufferElement@buffers@core@@AEAU123@@Z ; std::forward<core::buffers::BufferElement>
	mov	QWORD PTR tv64[rbp], rax
	mov	rcx, QWORD PTR this$[rbp]
	call	?_Mylast@?$_Vector_alloc@U?$_Vec_base_types@UBufferElement@buffers@core@@V?$allocator@UBufferElement@buffers@core@@@std@@@std@@@std@@QEAAAEAPEAUBufferElement@buffers@core@@XZ ; std::_Vector_alloc<std::_Vec_base_types<core::buffers::BufferElement,std::allocator<core::buffers::BufferElement> > >::_Mylast
	mov	rcx, QWORD PTR [rax]
	call	??$_Unfancy@UBufferElement@buffers@core@@@std@@YAPEAUBufferElement@buffers@core@@PEAU123@@Z ; std::_Unfancy<core::buffers::BufferElement>
	mov	QWORD PTR tv67[rbp], rax
	mov	rcx, QWORD PTR this$[rbp]
	call	?_Getal@?$_Vector_alloc@U?$_Vec_base_types@UBufferElement@buffers@core@@V?$allocator@UBufferElement@buffers@core@@@std@@@std@@@std@@QEAAAEAV?$allocator@UBufferElement@buffers@core@@@2@XZ ; std::_Vector_alloc<std::_Vec_base_types<core::buffers::BufferElement,std::allocator<core::buffers::BufferElement> > >::_Getal
	mov	rcx, QWORD PTR tv64[rbp]
	mov	r8, rcx
	mov	rcx, QWORD PTR tv67[rbp]
	mov	rdx, rcx
	mov	rcx, rax
	call	??$construct@UBufferElement@buffers@core@@U123@@?$_Default_allocator_traits@V?$allocator@UBufferElement@buffers@core@@@std@@@std@@SAXAEAV?$allocator@UBufferElement@buffers@core@@@1@QEAUBufferElement@buffers@core@@$$QEAU345@@Z ; std::_Default_allocator_traits<std::allocator<core::buffers::BufferElement> >::construct<core::buffers::BufferElement,core::buffers::BufferElement>

; 952  : 		_Orphan_range(this->_Mylast(), this->_Mylast());

	mov	rcx, QWORD PTR this$[rbp]
	call	?_Mylast@?$_Vector_alloc@U?$_Vec_base_types@UBufferElement@buffers@core@@V?$allocator@UBufferElement@buffers@core@@@std@@@std@@@std@@QEAAAEAPEAUBufferElement@buffers@core@@XZ ; std::_Vector_alloc<std::_Vec_base_types<core::buffers::BufferElement,std::allocator<core::buffers::BufferElement> > >::_Mylast
	mov	QWORD PTR tv89[rbp], rax
	mov	rcx, QWORD PTR this$[rbp]
	call	?_Mylast@?$_Vector_alloc@U?$_Vec_base_types@UBufferElement@buffers@core@@V?$allocator@UBufferElement@buffers@core@@@std@@@std@@@std@@QEAAAEAPEAUBufferElement@buffers@core@@XZ ; std::_Vector_alloc<std::_Vec_base_types<core::buffers::BufferElement,std::allocator<core::buffers::BufferElement> > >::_Mylast
	mov	rcx, QWORD PTR tv89[rbp]
	mov	r8, QWORD PTR [rcx]
	mov	rdx, QWORD PTR [rax]
	mov	rcx, QWORD PTR this$[rbp]
	call	?_Orphan_range@?$vector@UBufferElement@buffers@core@@V?$allocator@UBufferElement@buffers@core@@@std@@@std@@AEBAXPEAUBufferElement@buffers@core@@0@Z ; std::vector<core::buffers::BufferElement,std::allocator<core::buffers::BufferElement> >::_Orphan_range

; 953  : 		_Ty& _Result = *this->_Mylast();

	mov	rcx, QWORD PTR this$[rbp]
	call	?_Mylast@?$_Vector_alloc@U?$_Vec_base_types@UBufferElement@buffers@core@@V?$allocator@UBufferElement@buffers@core@@@std@@@std@@@std@@QEAAAEAPEAUBufferElement@buffers@core@@XZ ; std::_Vector_alloc<std::_Vec_base_types<core::buffers::BufferElement,std::allocator<core::buffers::BufferElement> > >::_Mylast
	mov	rax, QWORD PTR [rax]
	mov	QWORD PTR _Result$[rbp], rax

; 954  : 		++this->_Mylast();

	mov	rcx, QWORD PTR this$[rbp]
	call	?_Mylast@?$_Vector_alloc@U?$_Vec_base_types@UBufferElement@buffers@core@@V?$allocator@UBufferElement@buffers@core@@@std@@@std@@@std@@QEAAAEAPEAUBufferElement@buffers@core@@XZ ; std::_Vector_alloc<std::_Vec_base_types<core::buffers::BufferElement,std::allocator<core::buffers::BufferElement> > >::_Mylast
	mov	QWORD PTR tv142[rbp], rax
	mov	rax, QWORD PTR tv142[rbp]
	mov	rax, QWORD PTR [rax]
	add	rax, 12
	mov	rcx, QWORD PTR tv142[rbp]
	mov	QWORD PTR [rcx], rax

; 955  : #if _HAS_CXX17
; 956  : 		return (_Result);
; 957  : #else /* ^^^ _HAS_CXX17 ^^^ // vvv !_HAS_CXX17 vvv */
; 958  : 		(void)_Result;
; 959  : #endif /* _HAS_CXX17 */
; 960  : 		}

	lea	rsp, QWORD PTR [rbp+96]
	pop	rbp
	ret	0
??$_Emplace_back_with_unused_capacity@UBufferElement@buffers@core@@@?$vector@UBufferElement@buffers@core@@V?$allocator@UBufferElement@buffers@core@@@std@@@std@@AEAA@$$QEAUBufferElement@buffers@core@@@Z ENDP ; std::vector<core::buffers::BufferElement,std::allocator<core::buffers::BufferElement> >::_Emplace_back_with_unused_capacity<core::buffers::BufferElement>
_TEXT	ENDS
; Function compile flags: /Odtp /RTCu /ZI
; File c:\program files (x86)\microsoft visual studio\2017\enterprise\vc\tools\msvc\14.14.26428\include\type_traits
;	COMDAT ??$forward@UBufferElement@buffers@core@@@std@@YA$$QEAUBufferElement@buffers@core@@AEAU123@@Z
_TEXT	SEGMENT
_Arg$ = 80
??$forward@UBufferElement@buffers@core@@@std@@YA$$QEAUBufferElement@buffers@core@@AEAU123@@Z PROC ; std::forward<core::buffers::BufferElement>, COMDAT

; 1540 : 	{	// forward an lvalue as either an lvalue or an rvalue

$LN3:
	mov	QWORD PTR [rsp+8], rcx
	push	rbp
	sub	rsp, 64					; 00000040H
	mov	rbp, rsp

; 1541 : 	return (static_cast<_Ty&&>(_Arg));

	mov	rax, QWORD PTR _Arg$[rbp]

; 1542 : 	}

	lea	rsp, QWORD PTR [rbp+64]
	pop	rbp
	ret	0
??$forward@UBufferElement@buffers@core@@@std@@YA$$QEAUBufferElement@buffers@core@@AEAU123@@Z ENDP ; std::forward<core::buffers::BufferElement>
_TEXT	ENDS
; Function compile flags: /Odtp /RTCu /ZI
; File c:\program files (x86)\microsoft visual studio\2017\enterprise\vc\tools\msvc\14.14.26428\include\vector
;	COMDAT ??$emplace_back@UBufferElement@buffers@core@@@?$vector@UBufferElement@buffers@core@@V?$allocator@UBufferElement@buffers@core@@@std@@@std@@QEAA@$$QEAUBufferElement@buffers@core@@@Z
_TEXT	SEGMENT
_Result$ = 0
tv74 = 72
this$ = 96
<_Val_0>$ = 104
??$emplace_back@UBufferElement@buffers@core@@@?$vector@UBufferElement@buffers@core@@V?$allocator@UBufferElement@buffers@core@@@std@@@std@@QEAA@$$QEAUBufferElement@buffers@core@@@Z PROC ; std::vector<core::buffers::BufferElement,std::allocator<core::buffers::BufferElement> >::emplace_back<core::buffers::BufferElement>, COMDAT

; 965  : 		{	// insert by perfectly forwarding into element at end, provide strong guarantee

$LN4:
	mov	QWORD PTR [rsp+16], rdx
	mov	QWORD PTR [rsp+8], rcx
	push	rbp
	sub	rsp, 112				; 00000070H
	lea	rbp, QWORD PTR [rsp+32]

; 966  : 		if (_Has_unused_capacity())

	mov	rcx, QWORD PTR this$[rbp]
	call	?_Has_unused_capacity@?$vector@UBufferElement@buffers@core@@V?$allocator@UBufferElement@buffers@core@@@std@@@std@@AEBA_NXZ ; std::vector<core::buffers::BufferElement,std::allocator<core::buffers::BufferElement> >::_Has_unused_capacity
	movzx	eax, al
	test	eax, eax
	je	SHORT $LN2@emplace_ba

; 967  : 			{
; 968  : 			return (_Emplace_back_with_unused_capacity(_STD forward<_Valty>(_Val)...));

	mov	rcx, QWORD PTR <_Val_0>$[rbp]
	call	??$forward@UBufferElement@buffers@core@@@std@@YA$$QEAUBufferElement@buffers@core@@AEAU123@@Z ; std::forward<core::buffers::BufferElement>
	mov	rdx, rax
	mov	rcx, QWORD PTR this$[rbp]
	call	??$_Emplace_back_with_unused_capacity@UBufferElement@buffers@core@@@?$vector@UBufferElement@buffers@core@@V?$allocator@UBufferElement@buffers@core@@@std@@@std@@AEAA@$$QEAUBufferElement@buffers@core@@@Z ; std::vector<core::buffers::BufferElement,std::allocator<core::buffers::BufferElement> >::_Emplace_back_with_unused_capacity<core::buffers::BufferElement>
	jmp	SHORT $LN1@emplace_ba
$LN2@emplace_ba:

; 969  : 			}
; 970  : 
; 971  : 		_Ty& _Result = *_Emplace_reallocate(this->_Mylast(), _STD forward<_Valty>(_Val)...);

	mov	rcx, QWORD PTR <_Val_0>$[rbp]
	call	??$forward@UBufferElement@buffers@core@@@std@@YA$$QEAUBufferElement@buffers@core@@AEAU123@@Z ; std::forward<core::buffers::BufferElement>
	mov	QWORD PTR tv74[rbp], rax
	mov	rcx, QWORD PTR this$[rbp]
	call	?_Mylast@?$_Vector_alloc@U?$_Vec_base_types@UBufferElement@buffers@core@@V?$allocator@UBufferElement@buffers@core@@@std@@@std@@@std@@QEAAAEAPEAUBufferElement@buffers@core@@XZ ; std::_Vector_alloc<std::_Vec_base_types<core::buffers::BufferElement,std::allocator<core::buffers::BufferElement> > >::_Mylast
	mov	rcx, QWORD PTR tv74[rbp]
	mov	r8, rcx
	mov	rdx, QWORD PTR [rax]
	mov	rcx, QWORD PTR this$[rbp]
	call	??$_Emplace_reallocate@UBufferElement@buffers@core@@@?$vector@UBufferElement@buffers@core@@V?$allocator@UBufferElement@buffers@core@@@std@@@std@@QEAAPEAUBufferElement@buffers@core@@QEAU234@$$QEAU234@@Z ; std::vector<core::buffers::BufferElement,std::allocator<core::buffers::BufferElement> >::_Emplace_reallocate<core::buffers::BufferElement>
	mov	QWORD PTR _Result$[rbp], rax
$LN1@emplace_ba:

; 972  : #if _HAS_CXX17
; 973  : 		return (_Result);
; 974  : #else /* ^^^ _HAS_CXX17 ^^^ // vvv !_HAS_CXX17 vvv */
; 975  : 		(void)_Result;
; 976  : #endif /* _HAS_CXX17 */
; 977  : 		}

	lea	rsp, QWORD PTR [rbp+80]
	pop	rbp
	ret	0
??$emplace_back@UBufferElement@buffers@core@@@?$vector@UBufferElement@buffers@core@@V?$allocator@UBufferElement@buffers@core@@@std@@@std@@QEAA@$$QEAUBufferElement@buffers@core@@@Z ENDP ; std::vector<core::buffers::BufferElement,std::allocator<core::buffers::BufferElement> >::emplace_back<core::buffers::BufferElement>
_TEXT	ENDS
; Function compile flags: /Odtp /RTCu /ZI
; File c:\program files (x86)\microsoft visual studio\2017\enterprise\vc\tools\msvc\14.14.26428\include\type_traits
;	COMDAT ??$move@AEAUBufferElement@buffers@core@@@std@@YA$$QEAUBufferElement@buffers@core@@AEAU123@@Z
_TEXT	SEGMENT
_Arg$ = 80
??$move@AEAUBufferElement@buffers@core@@@std@@YA$$QEAUBufferElement@buffers@core@@AEAU123@@Z PROC ; std::move<core::buffers::BufferElement &>, COMDAT

; 1555 : 	{	// forward _Arg as movable

$LN3:
	mov	QWORD PTR [rsp+8], rcx
	push	rbp
	sub	rsp, 64					; 00000040H
	mov	rbp, rsp

; 1556 : 	return (static_cast<remove_reference_t<_Ty>&&>(_Arg));

	mov	rax, QWORD PTR _Arg$[rbp]

; 1557 : 	}

	lea	rsp, QWORD PTR [rbp+64]
	pop	rbp
	ret	0
??$move@AEAUBufferElement@buffers@core@@@std@@YA$$QEAUBufferElement@buffers@core@@AEAU123@@Z ENDP ; std::move<core::buffers::BufferElement &>
_TEXT	ENDS
; Function compile flags: /Odtp /RTCu /ZI
;	COMDAT ??_G?$pair@PEBDV?$function@$$A6APEAVScene@1Application@@XZ@std@@@std@@QEAAPEAXI@Z
_TEXT	SEGMENT
this$ = 80
__flags$ = 88
??_G?$pair@PEBDV?$function@$$A6APEAVScene@1Application@@XZ@std@@@std@@QEAAPEAXI@Z PROC ; std::pair<char const *,std::function<Application::Scene::Scene * __cdecl(void)> >::`scalar deleting destructor', COMDAT
$LN4:
	mov	DWORD PTR [rsp+16], edx
	mov	QWORD PTR [rsp+8], rcx
	push	rbp
	sub	rsp, 96					; 00000060H
	lea	rbp, QWORD PTR [rsp+32]
	mov	rcx, QWORD PTR this$[rbp]
	call	??1?$pair@PEBDV?$function@$$A6APEAVScene@1Application@@XZ@std@@@std@@QEAA@XZ
	mov	eax, DWORD PTR __flags$[rbp]
	and	eax, 1
	test	eax, eax
	je	SHORT $LN2@scalar
	mov	edx, 72					; 00000048H
	mov	rcx, QWORD PTR this$[rbp]
	call	??3@YAXPEAX_K@Z				; operator delete
$LN2@scalar:
	mov	rax, QWORD PTR this$[rbp]
	lea	rsp, QWORD PTR [rbp+64]
	pop	rbp
	ret	0
??_G?$pair@PEBDV?$function@$$A6APEAVScene@1Application@@XZ@std@@@std@@QEAAPEAXI@Z ENDP ; std::pair<char const *,std::function<Application::Scene::Scene * __cdecl(void)> >::`scalar deleting destructor'
_TEXT	ENDS
; Function compile flags: /Odtp /RTCu /ZI
;	COMDAT ??1?$pair@PEBDV?$function@$$A6APEAVScene@1Application@@XZ@std@@@std@@QEAA@XZ
_TEXT	SEGMENT
this$ = 80
??1?$pair@PEBDV?$function@$$A6APEAVScene@1Application@@XZ@std@@@std@@QEAA@XZ PROC ; std::pair<char const *,std::function<Application::Scene::Scene * __cdecl(void)> >::~pair<char const *,std::function<Application::Scene::Scene * __cdecl(void)> >, COMDAT
$LN3:
	mov	QWORD PTR [rsp+8], rcx
	push	rbp
	sub	rsp, 96					; 00000060H
	lea	rbp, QWORD PTR [rsp+32]
	mov	rax, QWORD PTR this$[rbp]
	add	rax, 8
	mov	rcx, rax
	call	??1?$function@$$A6APEAVScene@1Application@@XZ@std@@QEAA@XZ
	lea	rsp, QWORD PTR [rbp+64]
	pop	rbp
	ret	0
??1?$pair@PEBDV?$function@$$A6APEAVScene@1Application@@XZ@std@@@std@@QEAA@XZ ENDP ; std::pair<char const *,std::function<Application::Scene::Scene * __cdecl(void)> >::~pair<char const *,std::function<Application::Scene::Scene * __cdecl(void)> >
_TEXT	ENDS
; Function compile flags: /Odtp /RTCu /ZI
;	COMDAT ??1?$function@$$A6APEAVScene@1Application@@XZ@std@@QEAA@XZ
_TEXT	SEGMENT
this$ = 80
??1?$function@$$A6APEAVScene@1Application@@XZ@std@@QEAA@XZ PROC ; std::function<Application::Scene::Scene * __cdecl(void)>::~function<Application::Scene::Scene * __cdecl(void)>, COMDAT
$LN3:
	mov	QWORD PTR [rsp+8], rcx
	push	rbp
	sub	rsp, 96					; 00000060H
	lea	rbp, QWORD PTR [rsp+32]
	mov	rcx, QWORD PTR this$[rbp]
	call	??1?$_Func_class@PEAVScene@1Application@@$$V@std@@QEAA@XZ ; std::_Func_class<Application::Scene::Scene *>::~_Func_class<Application::Scene::Scene *>
	lea	rsp, QWORD PTR [rbp+64]
	pop	rbp
	ret	0
??1?$function@$$A6APEAVScene@1Application@@XZ@std@@QEAA@XZ ENDP ; std::function<Application::Scene::Scene * __cdecl(void)>::~function<Application::Scene::Scene * __cdecl(void)>
_TEXT	ENDS
; Function compile flags: /Odtp /RTCu /ZI
; File c:\program files (x86)\microsoft visual studio\2017\enterprise\vc\tools\msvc\14.14.26428\include\functional
;	COMDAT ?_Getspace@?$_Func_class@PEAVScene@1Application@@$$V@std@@AEBAPEBXXZ
_TEXT	SEGMENT
this$ = 80
?_Getspace@?$_Func_class@PEAVScene@1Application@@$$V@std@@AEBAPEBXXZ PROC ; std::_Func_class<Application::Scene::Scene *>::_Getspace, COMDAT

; 1455 : 		{	// get pointer to storage space

$LN3:
	mov	QWORD PTR [rsp+8], rcx
	push	rbp
	sub	rsp, 64					; 00000040H
	mov	rbp, rsp

; 1456 : 		return (&_Mystorage);

	mov	rax, QWORD PTR this$[rbp]

; 1457 : 		}

	lea	rsp, QWORD PTR [rbp+64]
	pop	rbp
	ret	0
?_Getspace@?$_Func_class@PEAVScene@1Application@@$$V@std@@AEBAPEBXXZ ENDP ; std::_Func_class<Application::Scene::Scene *>::_Getspace
_TEXT	ENDS
; Function compile flags: /Odtp /RTCu /ZI
; File c:\program files (x86)\microsoft visual studio\2017\enterprise\vc\tools\msvc\14.14.26428\include\functional
;	COMDAT ?_Set@?$_Func_class@PEAVScene@1Application@@$$V@std@@AEAAXPEAV?$_Func_base@PEAVScene@1Application@@$$V@2@@Z
_TEXT	SEGMENT
this$ = 80
_Ptr$ = 88
?_Set@?$_Func_class@PEAVScene@1Application@@$$V@std@@AEAAXPEAV?$_Func_base@PEAVScene@1Application@@$$V@2@@Z PROC ; std::_Func_class<Application::Scene::Scene *>::_Set, COMDAT

; 1445 : 		{	// store pointer to object

$LN3:
	mov	QWORD PTR [rsp+16], rdx
	mov	QWORD PTR [rsp+8], rcx
	push	rbp
	sub	rsp, 64					; 00000040H
	mov	rbp, rsp

; 1446 : 		_Mystorage._Ptrs[_Small_object_num_ptrs - 1] = _Ptr;

	mov	eax, 8
	imul	rax, rax, 7
	mov	rcx, QWORD PTR this$[rbp]
	mov	rdx, QWORD PTR _Ptr$[rbp]
	mov	QWORD PTR [rcx+rax], rdx

; 1447 : 		}

	lea	rsp, QWORD PTR [rbp+64]
	pop	rbp
	ret	0
?_Set@?$_Func_class@PEAVScene@1Application@@$$V@std@@AEAAXPEAV?$_Func_base@PEAVScene@1Application@@$$V@2@@Z ENDP ; std::_Func_class<Application::Scene::Scene *>::_Set
_TEXT	ENDS
; Function compile flags: /Odtp /RTCu /ZI
; File c:\program files (x86)\microsoft visual studio\2017\enterprise\vc\tools\msvc\14.14.26428\include\functional
;	COMDAT ?_Getimpl@?$_Func_class@PEAVScene@1Application@@$$V@std@@AEBAPEAV?$_Func_base@PEAVScene@1Application@@$$V@2@XZ
_TEXT	SEGMENT
this$ = 80
?_Getimpl@?$_Func_class@PEAVScene@1Application@@$$V@std@@AEBAPEAV?$_Func_base@PEAVScene@1Application@@$$V@2@XZ PROC ; std::_Func_class<Application::Scene::Scene *>::_Getimpl, COMDAT

; 1440 : 		{	// get pointer to object

$LN3:
	mov	QWORD PTR [rsp+8], rcx
	push	rbp
	sub	rsp, 64					; 00000040H
	mov	rbp, rsp

; 1441 : 		return (_Mystorage._Ptrs[_Small_object_num_ptrs - 1]);

	mov	eax, 8
	imul	rax, rax, 7
	mov	rcx, QWORD PTR this$[rbp]
	mov	rax, QWORD PTR [rcx+rax]

; 1442 : 		}

	lea	rsp, QWORD PTR [rbp+64]
	pop	rbp
	ret	0
?_Getimpl@?$_Func_class@PEAVScene@1Application@@$$V@std@@AEBAPEAV?$_Func_base@PEAVScene@1Application@@$$V@2@XZ ENDP ; std::_Func_class<Application::Scene::Scene *>::_Getimpl
_TEXT	ENDS
; Function compile flags: /Odtp /RTCu /ZI
; File c:\program files (x86)\microsoft visual studio\2017\enterprise\vc\tools\msvc\14.14.26428\include\functional
;	COMDAT ?_Local@?$_Func_class@PEAVScene@1Application@@$$V@std@@AEBA_NXZ
_TEXT	SEGMENT
tv65 = 64
tv69 = 72
this$ = 96
?_Local@?$_Func_class@PEAVScene@1Application@@$$V@std@@AEBA_NXZ PROC ; std::_Func_class<Application::Scene::Scene *>::_Local, COMDAT

; 1426 : 		{	// test for locally stored copy of object

$LN5:
	mov	QWORD PTR [rsp+8], rcx
	push	rbp
	sub	rsp, 112				; 00000070H
	lea	rbp, QWORD PTR [rsp+32]

; 1427 : 		return (_Getimpl() == _Getspace());

	mov	rcx, QWORD PTR this$[rbp]
	call	?_Getimpl@?$_Func_class@PEAVScene@1Application@@$$V@std@@AEBAPEAV?$_Func_base@PEAVScene@1Application@@$$V@2@XZ ; std::_Func_class<Application::Scene::Scene *>::_Getimpl
	mov	QWORD PTR tv65[rbp], rax
	mov	rcx, QWORD PTR this$[rbp]
	call	?_Getspace@?$_Func_class@PEAVScene@1Application@@$$V@std@@AEBAPEBXXZ ; std::_Func_class<Application::Scene::Scene *>::_Getspace
	mov	rcx, QWORD PTR tv65[rbp]
	cmp	rcx, rax
	jne	SHORT $LN3@Local
	mov	DWORD PTR tv69[rbp], 1
	jmp	SHORT $LN4@Local
$LN3@Local:
	mov	DWORD PTR tv69[rbp], 0
$LN4@Local:
	movzx	eax, BYTE PTR tv69[rbp]

; 1428 : 		}

	lea	rsp, QWORD PTR [rbp+80]
	pop	rbp
	ret	0
?_Local@?$_Func_class@PEAVScene@1Application@@$$V@std@@AEBA_NXZ ENDP ; std::_Func_class<Application::Scene::Scene *>::_Local
_TEXT	ENDS
; Function compile flags: /Odtp /RTCu /ZI
; File c:\program files (x86)\microsoft visual studio\2017\enterprise\vc\tools\msvc\14.14.26428\include\functional
;	COMDAT ?_Tidy@?$_Func_class@PEAVScene@1Application@@$$V@std@@IEAAXXZ
_TEXT	SEGMENT
tv78 = 64
tv71 = 72
this$ = 96
?_Tidy@?$_Func_class@PEAVScene@1Application@@$$V@std@@IEAAXXZ PROC ; std::_Func_class<Application::Scene::Scene *>::_Tidy, COMDAT

; 1387 : 		{	// clean up

$LN6:
	mov	QWORD PTR [rsp+8], rcx
	push	rbp
	sub	rsp, 112				; 00000070H
	lea	rbp, QWORD PTR [rsp+32]

; 1388 : 		if (!_Empty())

	mov	rcx, QWORD PTR this$[rbp]
	call	?_Empty@?$_Func_class@PEAVScene@1Application@@$$V@std@@IEBA_NXZ ; std::_Func_class<Application::Scene::Scene *>::_Empty
	movzx	eax, al
	test	eax, eax
	jne	SHORT $LN2@Tidy

; 1389 : 			{	// destroy callable object and maybe delete it
; 1390 : 			_Getimpl()->_Delete_this(!_Local());

	mov	rcx, QWORD PTR this$[rbp]
	call	?_Local@?$_Func_class@PEAVScene@1Application@@$$V@std@@AEBA_NXZ ; std::_Func_class<Application::Scene::Scene *>::_Local
	movzx	eax, al
	test	eax, eax
	jne	SHORT $LN4@Tidy
	mov	BYTE PTR tv78[rbp], 1
	jmp	SHORT $LN5@Tidy
$LN4@Tidy:
	mov	BYTE PTR tv78[rbp], 0
$LN5@Tidy:
	mov	rcx, QWORD PTR this$[rbp]
	call	?_Getimpl@?$_Func_class@PEAVScene@1Application@@$$V@std@@AEBAPEAV?$_Func_base@PEAVScene@1Application@@$$V@2@XZ ; std::_Func_class<Application::Scene::Scene *>::_Getimpl
	mov	QWORD PTR tv71[rbp], rax
	mov	rax, QWORD PTR tv71[rbp]
	mov	rax, QWORD PTR [rax]
	movzx	edx, BYTE PTR tv78[rbp]
	mov	rcx, QWORD PTR tv71[rbp]
	call	QWORD PTR [rax+32]

; 1391 : 			_Set(0);

	xor	edx, edx
	mov	rcx, QWORD PTR this$[rbp]
	call	?_Set@?$_Func_class@PEAVScene@1Application@@$$V@std@@AEAAXPEAV?$_Func_base@PEAVScene@1Application@@$$V@2@@Z ; std::_Func_class<Application::Scene::Scene *>::_Set
$LN2@Tidy:

; 1392 : 			}
; 1393 : 		}

	lea	rsp, QWORD PTR [rbp+80]
	pop	rbp
	ret	0
?_Tidy@?$_Func_class@PEAVScene@1Application@@$$V@std@@IEAAXXZ ENDP ; std::_Func_class<Application::Scene::Scene *>::_Tidy
_TEXT	ENDS
; Function compile flags: /Odtp /RTCu /ZI
; File c:\program files (x86)\microsoft visual studio\2017\enterprise\vc\tools\msvc\14.14.26428\include\functional
;	COMDAT ?_Empty@?$_Func_class@PEAVScene@1Application@@$$V@std@@IEBA_NXZ
_TEXT	SEGMENT
tv67 = 64
this$ = 96
?_Empty@?$_Func_class@PEAVScene@1Application@@$$V@std@@IEBA_NXZ PROC ; std::_Func_class<Application::Scene::Scene *>::_Empty, COMDAT

; 1282 : 		{	// return true if no stored object

$LN5:
	mov	QWORD PTR [rsp+8], rcx
	push	rbp
	sub	rsp, 112				; 00000070H
	lea	rbp, QWORD PTR [rsp+32]

; 1283 : 		return (_Getimpl() == 0);

	mov	rcx, QWORD PTR this$[rbp]
	call	?_Getimpl@?$_Func_class@PEAVScene@1Application@@$$V@std@@AEBAPEAV?$_Func_base@PEAVScene@1Application@@$$V@2@XZ ; std::_Func_class<Application::Scene::Scene *>::_Getimpl
	test	rax, rax
	jne	SHORT $LN3@Empty
	mov	DWORD PTR tv67[rbp], 1
	jmp	SHORT $LN4@Empty
$LN3@Empty:
	mov	DWORD PTR tv67[rbp], 0
$LN4@Empty:
	movzx	eax, BYTE PTR tv67[rbp]

; 1284 : 		}

	lea	rsp, QWORD PTR [rbp+80]
	pop	rbp
	ret	0
?_Empty@?$_Func_class@PEAVScene@1Application@@$$V@std@@IEBA_NXZ ENDP ; std::_Func_class<Application::Scene::Scene *>::_Empty
_TEXT	ENDS
; Function compile flags: /Odtp /RTCu /ZI
; File c:\program files (x86)\microsoft visual studio\2017\enterprise\vc\tools\msvc\14.14.26428\include\functional
;	COMDAT ??1?$_Func_class@PEAVScene@1Application@@$$V@std@@QEAA@XZ
_TEXT	SEGMENT
this$ = 80
??1?$_Func_class@PEAVScene@1Application@@$$V@std@@QEAA@XZ PROC ; std::_Func_class<Application::Scene::Scene *>::~_Func_class<Application::Scene::Scene *>, COMDAT

; 1270 : 		{	// destroy the object

$LN3:
	mov	QWORD PTR [rsp+8], rcx
	push	rbp
	sub	rsp, 96					; 00000060H
	lea	rbp, QWORD PTR [rsp+32]

; 1271 : 		_Tidy();

	mov	rcx, QWORD PTR this$[rbp]
	call	?_Tidy@?$_Func_class@PEAVScene@1Application@@$$V@std@@IEAAXXZ ; std::_Func_class<Application::Scene::Scene *>::_Tidy

; 1272 : 		}

	lea	rsp, QWORD PTR [rbp+64]
	pop	rbp
	ret	0
??1?$_Func_class@PEAVScene@1Application@@$$V@std@@QEAA@XZ ENDP ; std::_Func_class<Application::Scene::Scene *>::~_Func_class<Application::Scene::Scene *>
_TEXT	ENDS
; Function compile flags: /Odtp /RTCu /ZI
;	COMDAT ??R?$_Func_class@PEAVScene@1Application@@$$V@std@@QEBAPEAVScene@2Application@@XZ
_TEXT	SEGMENT
_Impl$ = 0
this$ = 96
??R?$_Func_class@PEAVScene@1Application@@$$V@std@@QEBAPEAVScene@2Application@@XZ PROC ; std::_Func_class<Application::Scene::Scene *>::operator(), COMDAT
; File c:\program files (x86)\microsoft visual studio\2017\enterprise\vc\tools\msvc\14.14.26428\include\functional
$LN4:
	mov	QWORD PTR [rsp+8], rcx
	push	rbp
	sub	rsp, 112				; 00000070H
	lea	rbp, QWORD PTR [rsp+32]
	mov	rcx, QWORD PTR this$[rbp]
	call	?_Empty@?$_Func_class@PEAVScene@1Application@@$$V@std@@IEBA_NXZ ; std::_Func_class<Application::Scene::Scene *>::_Empty
	movzx	eax, al
	test	eax, eax
	je	SHORT $LN2@operator
	call	?_Xbad_function_call@std@@YAXXZ		; std::_Xbad_function_call
$LN2@operator:
	mov	rcx, QWORD PTR this$[rbp]
	call	?_Getimpl@?$_Func_class@PEAVScene@1Application@@$$V@std@@AEBAPEAV?$_Func_base@PEAVScene@1Application@@$$V@2@XZ ; std::_Func_class<Application::Scene::Scene *>::_Getimpl
	mov	QWORD PTR _Impl$[rbp], rax
	mov	rax, QWORD PTR _Impl$[rbp]
	mov	rax, QWORD PTR [rax]
	mov	rcx, QWORD PTR _Impl$[rbp]
	call	QWORD PTR [rax+16]
$LN3@operator:
	lea	rsp, QWORD PTR [rbp+80]
	pop	rbp
	ret	0
??R?$_Func_class@PEAVScene@1Application@@$$V@std@@QEBAPEAVScene@2Application@@XZ ENDP ; std::_Func_class<Application::Scene::Scene *>::operator()
_TEXT	ENDS
; Function compile flags: /Odtp /RTCu /ZI
; File l:\dev\featherfallengine\depends\install\include\glm\gtc\matrix_transform.inl
;	COMDAT ??$ortho@M@glm@@YA?AU?$tmat4x4@M$0A@@0@MMMMMM@Z
_TEXT	SEGMENT
__$ReturnUdt$ = 80
left$ = 88
right$ = 96
bottom$ = 104
top$ = 112
zNear$ = 120
zFar$ = 128
??$ortho@M@glm@@YA?AU?$tmat4x4@M$0A@@0@MMMMMM@Z PROC	; glm::ortho<float>, COMDAT

; 106  : 	{

$LN3:
	movss	DWORD PTR [rsp+32], xmm3
	movss	DWORD PTR [rsp+24], xmm2
	movss	DWORD PTR [rsp+16], xmm1
	mov	QWORD PTR [rsp+8], rcx
	push	rbp
	sub	rsp, 128				; 00000080H
	lea	rbp, QWORD PTR [rsp+64]

; 107  : #		if GLM_COORDINATE_SYSTEM == GLM_LEFT_HANDED
; 108  : 			return orthoLH(left, right, bottom, top, zNear, zFar);
; 109  : #		else
; 110  : 			return orthoRH(left, right, bottom, top, zNear, zFar);

	movss	xmm0, DWORD PTR zFar$[rbp]
	movss	DWORD PTR [rsp+48], xmm0
	movss	xmm0, DWORD PTR zNear$[rbp]
	movss	DWORD PTR [rsp+40], xmm0
	movss	xmm0, DWORD PTR top$[rbp]
	movss	DWORD PTR [rsp+32], xmm0
	movss	xmm3, DWORD PTR bottom$[rbp]
	movss	xmm2, DWORD PTR right$[rbp]
	movss	xmm1, DWORD PTR left$[rbp]
	mov	rcx, QWORD PTR __$ReturnUdt$[rbp]
	call	??$orthoRH@M@glm@@YA?AU?$tmat4x4@M$0A@@0@MMMMMM@Z ; glm::orthoRH<float>
	mov	rax, QWORD PTR __$ReturnUdt$[rbp]

; 111  : #		endif
; 112  : 	}

	lea	rsp, QWORD PTR [rbp+64]
	pop	rbp
	ret	0
??$ortho@M@glm@@YA?AU?$tmat4x4@M$0A@@0@MMMMMM@Z ENDP	; glm::ortho<float>
_TEXT	ENDS
; Function compile flags: /Odtp /RTCu /ZI
; File l:\dev\featherfallengine\depends\install\include\glm\detail\type_mat4x4.inl
;	COMDAT ??A?$tmat4x4@M$0A@@glm@@QEAAAEAU?$tvec4@M$0A@@1@H@Z
_TEXT	SEGMENT
this$ = 80
i$ = 88
??A?$tmat4x4@M$0A@@glm@@QEAAAEAU?$tvec4@M$0A@@1@H@Z PROC ; glm::tmat4x4<float,0>::operator[], COMDAT

; 241  : 	{

$LN4:
	mov	DWORD PTR [rsp+16], edx
	mov	QWORD PTR [rsp+8], rcx
	push	rbp
	sub	rsp, 96					; 00000060H
	lea	rbp, QWORD PTR [rsp+32]

; 242  : 		assert(i < this->length());

	call	?length@?$tmat4x4@M$0A@@glm@@SAHXZ	; glm::tmat4x4<float,0>::length
	cmp	DWORD PTR i$[rbp], eax
	jl	SHORT $LN3@operator
	mov	r8d, 242				; 000000f2H
	lea	rdx, OFFSET FLAT:??_C@_1JI@BDACPION@?$AAl?$AA?3?$AA?2?$AAd?$AAe?$AAv?$AA?2?$AAf?$AAe?$AAa?$AAt?$AAh?$AAe?$AAr?$AAf?$AAa?$AAl?$AAl?$AAe?$AAn?$AAg?$AAi?$AAn?$AAe?$AA?2?$AAd?$AAe?$AAp?$AAe?$AAn?$AAd?$AAs@
	lea	rcx, OFFSET FLAT:??_C@_1CG@KOFHLCJL@?$AAi?$AA?5?$AA?$DM?$AA?5?$AAt?$AAh?$AAi?$AAs?$AA?9?$AA?$DO?$AAl?$AAe?$AAn?$AAg?$AAt?$AAh?$AA?$CI?$AA?$CJ?$AA?$AA@
	call	QWORD PTR __imp__wassert
	xor	eax, eax
$LN3@operator:

; 243  : 		return this->value[i];

	movsxd	rax, DWORD PTR i$[rbp]
	imul	rax, rax, 16
	mov	rcx, QWORD PTR this$[rbp]
	add	rcx, rax
	mov	rax, rcx

; 244  : 	}

	lea	rsp, QWORD PTR [rbp+64]
	pop	rbp
	ret	0
??A?$tmat4x4@M$0A@@glm@@QEAAAEAU?$tvec4@M$0A@@1@H@Z ENDP ; glm::tmat4x4<float,0>::operator[]
_TEXT	ENDS
; Function compile flags: /Odtp /RTCu /ZI
; File l:\dev\featherfallengine\depends\install\include\glm\detail\type_mat4x4.hpp
;	COMDAT ?length@?$tmat4x4@M$0A@@glm@@SAHXZ
_TEXT	SEGMENT
?length@?$tmat4x4@M$0A@@glm@@SAHXZ PROC			; glm::tmat4x4<float,0>::length, COMDAT

; 84   : 		GLM_FUNC_DECL static length_type length(){return 4;}

$LN3:
	push	rbp
	sub	rsp, 64					; 00000040H
	mov	rbp, rsp
	mov	eax, 4
	lea	rsp, QWORD PTR [rbp+64]
	pop	rbp
	ret	0
?length@?$tmat4x4@M$0A@@glm@@SAHXZ ENDP			; glm::tmat4x4<float,0>::length
_TEXT	ENDS
; Function compile flags: /Odtp /RTCu /ZI
; File l:\dev\featherfallengine\depends\install\include\glm\detail\type_mat4x4.inl
;	COMDAT ??0?$tmat4x4@M$0A@@glm@@QEAA@AEBM@Z
_TEXT	SEGMENT
$T1 = 64
$T2 = 80
$T3 = 96
$T4 = 112
this$ = 160
s$ = 168
??0?$tmat4x4@M$0A@@glm@@QEAA@AEBM@Z PROC		; glm::tmat4x4<float,0>::tmat4x4<float,0>, COMDAT

; 50   : 	{

$LN3:
	mov	QWORD PTR [rsp+16], rdx
	mov	QWORD PTR [rsp+8], rcx
	push	rbp
	push	rsi
	push	rdi
	sub	rsp, 176				; 000000b0H
	lea	rbp, QWORD PTR [rsp+48]
	lea	r9, OFFSET FLAT:??0?$tvec4@M$0A@@glm@@QEAA@XZ ; glm::tvec4<float,0>::tvec4<float,0>
	mov	r8d, 4
	mov	edx, 16
	mov	rcx, QWORD PTR this$[rbp]
	call	??_H@YAXPEAX_K1P6APEAX0@Z@Z

; 51   : 		this->value[0] = col_type(s, 0, 0, 0);

	mov	DWORD PTR [rsp+32], 0
	xor	r9d, r9d
	xor	r8d, r8d
	mov	rax, QWORD PTR s$[rbp]
	movss	xmm1, DWORD PTR [rax]
	lea	rcx, QWORD PTR $T1[rbp]
	call	??$?0MHHH@?$tvec4@M$0A@@glm@@QEAA@MHHH@Z ; glm::tvec4<float,0>::tvec4<float,0><float,int,int,int>
	mov	ecx, 16
	imul	rcx, rcx, 0
	mov	rdx, QWORD PTR this$[rbp]
	lea	rdi, QWORD PTR [rdx+rcx]
	mov	rsi, rax
	mov	ecx, 16
	rep movsb

; 52   : 		this->value[1] = col_type(0, s, 0, 0);

	mov	DWORD PTR [rsp+32], 0
	xor	r9d, r9d
	mov	rax, QWORD PTR s$[rbp]
	movss	xmm2, DWORD PTR [rax]
	xor	edx, edx
	lea	rcx, QWORD PTR $T2[rbp]
	call	??$?0HMHH@?$tvec4@M$0A@@glm@@QEAA@HMHH@Z ; glm::tvec4<float,0>::tvec4<float,0><int,float,int,int>
	mov	ecx, 16
	imul	rcx, rcx, 1
	mov	rdx, QWORD PTR this$[rbp]
	lea	rdi, QWORD PTR [rdx+rcx]
	mov	rsi, rax
	mov	ecx, 16
	rep movsb

; 53   : 		this->value[2] = col_type(0, 0, s, 0);

	mov	DWORD PTR [rsp+32], 0
	mov	rax, QWORD PTR s$[rbp]
	movss	xmm3, DWORD PTR [rax]
	xor	r8d, r8d
	xor	edx, edx
	lea	rcx, QWORD PTR $T3[rbp]
	call	??$?0HHMH@?$tvec4@M$0A@@glm@@QEAA@HHMH@Z ; glm::tvec4<float,0>::tvec4<float,0><int,int,float,int>
	mov	ecx, 16
	imul	rcx, rcx, 2
	mov	rdx, QWORD PTR this$[rbp]
	lea	rdi, QWORD PTR [rdx+rcx]
	mov	rsi, rax
	mov	ecx, 16
	rep movsb

; 54   : 		this->value[3] = col_type(0, 0, 0, s);

	mov	rax, QWORD PTR s$[rbp]
	movss	xmm0, DWORD PTR [rax]
	movss	DWORD PTR [rsp+32], xmm0
	xor	r9d, r9d
	xor	r8d, r8d
	xor	edx, edx
	lea	rcx, QWORD PTR $T4[rbp]
	call	??$?0HHHM@?$tvec4@M$0A@@glm@@QEAA@HHHM@Z ; glm::tvec4<float,0>::tvec4<float,0><int,int,int,float>
	mov	ecx, 16
	imul	rcx, rcx, 3
	mov	rdx, QWORD PTR this$[rbp]
	lea	rdi, QWORD PTR [rdx+rcx]
	mov	rsi, rax
	mov	ecx, 16
	rep movsb

; 55   : 	}

	mov	rax, QWORD PTR this$[rbp]
	lea	rsp, QWORD PTR [rbp+128]
	pop	rdi
	pop	rsi
	pop	rbp
	ret	0
??0?$tmat4x4@M$0A@@glm@@QEAA@AEBM@Z ENDP		; glm::tmat4x4<float,0>::tmat4x4<float,0>
_TEXT	ENDS
; Function compile flags: /Odtp /RTCu /ZI
; File l:\dev\featherfallengine\depends\install\include\glm\detail\type_vec4.inl
;	COMDAT ??0?$tvec4@M$0A@@glm@@QEAA@XZ
_TEXT	SEGMENT
this$ = 80
??0?$tvec4@M$0A@@glm@@QEAA@XZ PROC			; glm::tvec4<float,0>::tvec4<float,0>, COMDAT

; 163  : 		{}

$LN3:
	mov	QWORD PTR [rsp+8], rcx
	push	rbp
	sub	rsp, 64					; 00000040H
	mov	rbp, rsp

; 161  : 				: x(0), y(0), z(0), w(0)

	mov	rax, QWORD PTR this$[rbp]
	xorps	xmm0, xmm0
	movss	DWORD PTR [rax], xmm0
	mov	rax, QWORD PTR this$[rbp]
	xorps	xmm0, xmm0
	movss	DWORD PTR [rax+4], xmm0
	mov	rax, QWORD PTR this$[rbp]
	xorps	xmm0, xmm0
	movss	DWORD PTR [rax+8], xmm0
	mov	rax, QWORD PTR this$[rbp]
	xorps	xmm0, xmm0
	movss	DWORD PTR [rax+12], xmm0

; 163  : 		{}

	mov	rax, QWORD PTR this$[rbp]
	lea	rsp, QWORD PTR [rbp+64]
	pop	rbp
	ret	0
??0?$tvec4@M$0A@@glm@@QEAA@XZ ENDP			; glm::tvec4<float,0>::tvec4<float,0>
_TEXT	ENDS
; Function compile flags: /Odtp /RTCu /ZI
; File l:\dev\featherfallengine\depends\install\include\glm\detail\type_vec4.inl
;	COMDAT ??A?$tvec4@M$0A@@glm@@QEAAAEAMH@Z
_TEXT	SEGMENT
this$ = 80
i$ = 88
??A?$tvec4@M$0A@@glm@@QEAAAEAMH@Z PROC			; glm::tvec4<float,0>::operator[], COMDAT

; 329  : 	{

$LN5:
	mov	DWORD PTR [rsp+16], edx
	mov	QWORD PTR [rsp+8], rcx
	push	rbp
	sub	rsp, 96					; 00000060H
	lea	rbp, QWORD PTR [rsp+32]

; 330  : 		assert(i >= 0 && i < this->length());

	cmp	DWORD PTR i$[rbp], 0
	jl	SHORT $LN3@operator
	call	?length@?$tvec4@M$0A@@glm@@SAHXZ	; glm::tvec4<float,0>::length
	cmp	DWORD PTR i$[rbp], eax
	jl	SHORT $LN4@operator
$LN3@operator:
	mov	r8d, 330				; 0000014aH
	lea	rdx, OFFSET FLAT:??_C@_1JE@JLGGFMIE@?$AAl?$AA?3?$AA?2?$AAd?$AAe?$AAv?$AA?2?$AAf?$AAe?$AAa?$AAt?$AAh?$AAe?$AAr?$AAf?$AAa?$AAl?$AAl?$AAe?$AAn?$AAg?$AAi?$AAn?$AAe?$AA?2?$AAd?$AAe?$AAp?$AAe?$AAn?$AAd?$AAs@
	lea	rcx, OFFSET FLAT:??_C@_1DK@BGNCJAPL@?$AAi?$AA?5?$AA?$DO?$AA?$DN?$AA?5?$AA0?$AA?5?$AA?$CG?$AA?$CG?$AA?5?$AAi?$AA?5?$AA?$DM?$AA?5?$AAt?$AAh?$AAi?$AAs?$AA?9?$AA?$DO?$AAl?$AAe?$AAn?$AAg?$AAt?$AAh?$AA?$CI?$AA?$CJ?$AA?$AA@
	call	QWORD PTR __imp__wassert
	xor	eax, eax
$LN4@operator:

; 331  : 		return (&x)[i];

	movsxd	rax, DWORD PTR i$[rbp]
	mov	rcx, QWORD PTR this$[rbp]
	lea	rax, QWORD PTR [rcx+rax*4]

; 332  : 	}

	lea	rsp, QWORD PTR [rbp+64]
	pop	rbp
	ret	0
??A?$tvec4@M$0A@@glm@@QEAAAEAMH@Z ENDP			; glm::tvec4<float,0>::operator[]
_TEXT	ENDS
; Function compile flags: /Odtp /RTCu /ZI
; File l:\dev\featherfallengine\depends\install\include\glm\detail\type_vec4.hpp
;	COMDAT ?length@?$tvec4@M$0A@@glm@@SAHXZ
_TEXT	SEGMENT
?length@?$tvec4@M$0A@@glm@@SAHXZ PROC			; glm::tvec4<float,0>::length, COMDAT

; 85   : 		GLM_FUNC_DECL static length_type length(){return 4;}

$LN3:
	push	rbp
	sub	rsp, 64					; 00000040H
	mov	rbp, rsp
	mov	eax, 4
	lea	rsp, QWORD PTR [rbp+64]
	pop	rbp
	ret	0
?length@?$tvec4@M$0A@@glm@@SAHXZ ENDP			; glm::tvec4<float,0>::length
_TEXT	ENDS
; Function compile flags: /Odtp /RTCu /ZI
; File l:\dev\featherfallengine\depends\install\include\imgui\imgui.h
;	COMDAT ??0ImVec2@@QEAA@MM@Z
_TEXT	SEGMENT
this$ = 80
_x$ = 88
_y$ = 96
??0ImVec2@@QEAA@MM@Z PROC				; ImVec2::ImVec2, COMDAT

; 118  :     ImVec2(float _x, float _y) { x = _x; y = _y; }

$LN3:
	movss	DWORD PTR [rsp+24], xmm2
	movss	DWORD PTR [rsp+16], xmm1
	mov	QWORD PTR [rsp+8], rcx
	push	rbp
	sub	rsp, 64					; 00000040H
	mov	rbp, rsp
	mov	rax, QWORD PTR this$[rbp]
	movss	xmm0, DWORD PTR _x$[rbp]
	movss	DWORD PTR [rax], xmm0
	mov	rax, QWORD PTR this$[rbp]
	movss	xmm0, DWORD PTR _y$[rbp]
	movss	DWORD PTR [rax+4], xmm0
	mov	rax, QWORD PTR this$[rbp]
	lea	rsp, QWORD PTR [rbp+64]
	pop	rbp
	ret	0
??0ImVec2@@QEAA@MM@Z ENDP				; ImVec2::ImVec2
_TEXT	ENDS
; Function compile flags: /Odtp /RTCu /ZI
;	COMDAT ??_GMainMenuScene@Scene@Application@@UEAAPEAXI@Z
_TEXT	SEGMENT
this$ = 80
__flags$ = 88
??_GMainMenuScene@Scene@Application@@UEAAPEAXI@Z PROC	; Application::Scene::MainMenuScene::`scalar deleting destructor', COMDAT
$LN4:
	mov	DWORD PTR [rsp+16], edx
	mov	QWORD PTR [rsp+8], rcx
	push	rbp
	sub	rsp, 96					; 00000060H
	lea	rbp, QWORD PTR [rsp+32]
	mov	rcx, QWORD PTR this$[rbp]
	call	??1MainMenuScene@Scene@Application@@UEAA@XZ ; Application::Scene::MainMenuScene::~MainMenuScene
	mov	eax, DWORD PTR __flags$[rbp]
	and	eax, 1
	test	eax, eax
	je	SHORT $LN2@scalar
	mov	edx, 144				; 00000090H
	mov	rcx, QWORD PTR this$[rbp]
	call	??3@YAXPEAX_K@Z				; operator delete
$LN2@scalar:
	mov	rax, QWORD PTR this$[rbp]
	lea	rsp, QWORD PTR [rbp+64]
	pop	rbp
	ret	0
??_GMainMenuScene@Scene@Application@@UEAAPEAXI@Z ENDP	; Application::Scene::MainMenuScene::`scalar deleting destructor'
_TEXT	ENDS
; Function compile flags: /Odtp /RTCu /ZI
; File l:\dev\featherfallengine\featherfall-examples\src\scene\mainmenuscene.cpp
;	COMDAT ?OnReloadScene@MainMenuScene@Scene@Application@@QEAAXXZ
_TEXT	SEGMENT
this$ = 80
?OnReloadScene@MainMenuScene@Scene@Application@@QEAAXXZ PROC ; Application::Scene::MainMenuScene::OnReloadScene, COMDAT

; 90   : 	void MainMenuScene::OnReloadScene() {

$LN4:
	mov	QWORD PTR [rsp+8], rcx
	push	rbp
	sub	rsp, 96					; 00000060H
	lea	rbp, QWORD PTR [rsp+32]

; 91   : 
; 92   : 		GLCall(glClearColor(0.0f, 0.0f, 0.0f, 1.0f));

	call	?GLClearError@@YAXXZ			; GLClearError
	movss	xmm3, DWORD PTR __real@3f800000
	xorps	xmm2, xmm2
	xorps	xmm1, xmm1
	xorps	xmm0, xmm0
	call	QWORD PTR __imp_glClearColor
	mov	eax, DWORD PTR ?__LINE__Var@?0??OnReloadScene@MainMenuScene@Scene@Application@@QEAAXXZ@4JA
	add	eax, 2
	mov	r8d, eax
	lea	rdx, OFFSET FLAT:??_C@_0EK@EOGGOJAF@l?3?2dev?2featherfallengine?2feather@
	lea	rcx, OFFSET FLAT:??_C@_0CF@BDFDNJP@glClearColor?$CI0?40f?0?50?40f?0?50?40f?0?51@
	call	?GLLogError@@YA_NPEBD0H@Z		; GLLogError
	movzx	eax, al
	test	eax, eax
	jne	SHORT $LN2@OnReloadSc
	int	3
$LN2@OnReloadSc:

; 93   : 
; 94   : 		ffTex->bind(0);

	xor	edx, edx
	mov	rax, QWORD PTR this$[rbp]
	mov	rcx, QWORD PTR [rax+80]
	call	?bind@Texture@graphics@core@@QEBAXI@Z	; core::graphics::Texture::bind

; 95   : 		iconTex->bind(1);

	mov	edx, 1
	mov	rax, QWORD PTR this$[rbp]
	mov	rcx, QWORD PTR [rax+88]
	call	?bind@Texture@graphics@core@@QEBAXI@Z	; core::graphics::Texture::bind

; 96   : 
; 97   : 		shader->bind();

	mov	rax, QWORD PTR this$[rbp]
	mov	rcx, QWORD PTR [rax+96]
	call	?bind@Shader@graphics@core@@QEBAXXZ	; core::graphics::Shader::bind

; 98   : 		shader->setUniformMat4("prMatrix", *ortho);

	mov	rax, QWORD PTR this$[rbp]
	mov	r8, QWORD PTR [rax+104]
	lea	rdx, OFFSET FLAT:??_C@_08IMNAFLGG@prMatrix?$AA@
	mov	rax, QWORD PTR this$[rbp]
	mov	rcx, QWORD PTR [rax+96]
	call	?setUniformMat4@Shader@graphics@core@@QEAAXPEBDAEBU?$tmat4x4@M$0A@@glm@@@Z ; core::graphics::Shader::setUniformMat4

; 99   : 		shader->setUniform1i("ffTex", 0);

	xor	r8d, r8d
	lea	rdx, OFFSET FLAT:??_C@_05GLHHFCDG@ffTex?$AA@
	mov	rax, QWORD PTR this$[rbp]
	mov	rcx, QWORD PTR [rax+96]
	call	?setUniform1i@Shader@graphics@core@@QEAAXPEBDH@Z ; core::graphics::Shader::setUniform1i

; 100  : 		shader->setUniform1i("iconTex", 1);

	mov	r8d, 1
	lea	rdx, OFFSET FLAT:??_C@_07NNBCNLBN@iconTex?$AA@
	mov	rax, QWORD PTR this$[rbp]
	mov	rcx, QWORD PTR [rax+96]
	call	?setUniform1i@Shader@graphics@core@@QEAAXPEBDH@Z ; core::graphics::Shader::setUniform1i

; 101  : 
; 102  : 		vao->bind();

	mov	rax, QWORD PTR this$[rbp]
	mov	rcx, QWORD PTR [rax+48]
	call	?bind@VAO@buffers@core@@QEBAXXZ		; core::buffers::VAO::bind

; 103  : 		ibo->bind();

	mov	rax, QWORD PTR this$[rbp]
	mov	rcx, QWORD PTR [rax+64]
	call	?bind@IBO@buffers@core@@QEBAXXZ		; core::buffers::IBO::bind

; 104  : 
; 105  : 	}

	lea	rsp, QWORD PTR [rbp+64]
	pop	rbp
	ret	0
?OnReloadScene@MainMenuScene@Scene@Application@@QEAAXXZ ENDP ; Application::Scene::MainMenuScene::OnReloadScene
_TEXT	ENDS
; Function compile flags: /Odtp /RTCu /ZI
; File l:\dev\featherfallengine\featherfall-examples\src\scene\mainmenuscene.cpp
;	COMDAT ?OnImGuiRender@MainMenuScene@Scene@Application@@UEAAXXZ
_TEXT	SEGMENT
<range>$L0$1 = 0
<begin>$L0$2 = 8
<end>$L0$3 = 16
scene$4 = 24
$T5 = 96
this$ = 128
?OnImGuiRender@MainMenuScene@Scene@Application@@UEAAXXZ PROC ; Application::Scene::MainMenuScene::OnImGuiRender, COMDAT

; 74   : 	void MainMenuScene::OnImGuiRender() {

$LN7:
	mov	QWORD PTR [rsp+8], rcx
	push	rbp
	sub	rsp, 160				; 000000a0H
	lea	rbp, QWORD PTR [rsp+48]

; 75   : 
; 76   : 		ImGui::Text("Select a Scene to load: ");

	lea	rcx, OFFSET FLAT:??_C@_0BJ@IDPKMNNF@Select?5a?5Scene?5to?5load?3?5?$AA@
	call	?Text@ImGui@@YAXPEBDZZ			; ImGui::Text

; 77   : 		for (auto& scene : scenes) {

	mov	rax, QWORD PTR this$[rbp]
	add	rax, 16
	mov	QWORD PTR <range>$L0$1[rbp], rax
	mov	rcx, QWORD PTR <range>$L0$1[rbp]
	call	?_Unchecked_begin@?$vector@U?$pair@PEBDV?$function@$$A6APEAVScene@1Application@@XZ@std@@@std@@V?$allocator@U?$pair@PEBDV?$function@$$A6APEAVScene@1Application@@XZ@std@@@std@@@2@@std@@QEAAPEAU?$pair@PEBDV?$function@$$A6APEAVScene@1Application@@XZ@std@@@2@XZ ; std::vector<std::pair<char const *,std::function<Application::Scene::Scene * __cdecl(void)> >,std::allocator<std::pair<char const *,std::function<Application::Scene::Scene * __cdecl(void)> > > >::_Unchecked_begin
	mov	QWORD PTR <begin>$L0$2[rbp], rax
	mov	rcx, QWORD PTR <range>$L0$1[rbp]
	call	?_Unchecked_end@?$vector@U?$pair@PEBDV?$function@$$A6APEAVScene@1Application@@XZ@std@@@std@@V?$allocator@U?$pair@PEBDV?$function@$$A6APEAVScene@1Application@@XZ@std@@@std@@@2@@std@@QEAAPEAU?$pair@PEBDV?$function@$$A6APEAVScene@1Application@@XZ@std@@@2@XZ ; std::vector<std::pair<char const *,std::function<Application::Scene::Scene * __cdecl(void)> >,std::allocator<std::pair<char const *,std::function<Application::Scene::Scene * __cdecl(void)> > > >::_Unchecked_end
	mov	QWORD PTR <end>$L0$3[rbp], rax
	jmp	SHORT $LN4@OnImGuiRen
$LN2@OnImGuiRen:
	mov	rax, QWORD PTR <begin>$L0$2[rbp]
	add	rax, 72					; 00000048H
	mov	QWORD PTR <begin>$L0$2[rbp], rax
$LN4@OnImGuiRen:
	mov	rax, QWORD PTR <end>$L0$3[rbp]
	cmp	QWORD PTR <begin>$L0$2[rbp], rax
	je	SHORT $LN3@OnImGuiRen
	mov	rax, QWORD PTR <begin>$L0$2[rbp]
	mov	QWORD PTR scene$4[rbp], rax

; 78   : 			if (ImGui::Button(scene.first)) {

	xorps	xmm2, xmm2
	xorps	xmm1, xmm1
	lea	rcx, QWORD PTR $T5[rbp]
	call	??0ImVec2@@QEAA@MM@Z			; ImVec2::ImVec2
	mov	rdx, rax
	mov	rax, QWORD PTR scene$4[rbp]
	mov	rcx, QWORD PTR [rax]
	call	?Button@ImGui@@YA_NPEBDAEBUImVec2@@@Z	; ImGui::Button
	movzx	eax, al
	test	eax, eax
	je	SHORT $LN5@OnImGuiRen

; 79   : 				currentScene = scene.second();

	mov	rax, QWORD PTR scene$4[rbp]
	add	rax, 8
	mov	rcx, rax
	call	??R?$_Func_class@PEAVScene@1Application@@$$V@std@@QEBAPEAVScene@2Application@@XZ ; std::_Func_class<Application::Scene::Scene *>::operator()
	mov	rcx, QWORD PTR this$[rbp]
	mov	rcx, QWORD PTR [rcx+8]
	mov	QWORD PTR [rcx], rax
$LN5@OnImGuiRen:

; 80   : 			}
; 81   : 		}

	jmp	SHORT $LN2@OnImGuiRen
$LN3@OnImGuiRen:

; 82   : 
; 83   : 		ImGui::Begin("BG Texture Control");

	xor	r8d, r8d
	xor	edx, edx
	lea	rcx, OFFSET FLAT:??_C@_0BD@KHMMBBJK@BG?5Texture?5Control?$AA@
	call	?Begin@ImGui@@YA_NPEBDPEA_NH@Z		; ImGui::Begin

; 84   : 		ImGui::SliderFloat("Texture Control", &texMix, 0.0f, 1.0f);

	mov	rax, QWORD PTR this$[rbp]
	add	rax, 112				; 00000070H
	movss	xmm0, DWORD PTR __real@3f800000
	movss	DWORD PTR [rsp+40], xmm0
	lea	rcx, OFFSET FLAT:??_C@_04GFJLOHHD@?$CF?43f?$AA@
	mov	QWORD PTR [rsp+32], rcx
	movss	xmm3, DWORD PTR __real@3f800000
	xorps	xmm2, xmm2
	mov	rdx, rax
	lea	rcx, OFFSET FLAT:??_C@_0BA@NNMDDBIH@Texture?5Control?$AA@
	call	?SliderFloat@ImGui@@YA_NPEBDPEAMMM0M@Z	; ImGui::SliderFloat

; 85   : 		ImGui::Text("TODO: Make Gradient BG!");

	lea	rcx, OFFSET FLAT:??_C@_0BI@LDGJAANB@TODO?3?5Make?5Gradient?5BG?$CB?$AA@
	call	?Text@ImGui@@YAXPEBDZZ			; ImGui::Text

; 86   : 		ImGui::End();

	call	?End@ImGui@@YAXXZ			; ImGui::End

; 87   : 
; 88   : 	}

	lea	rsp, QWORD PTR [rbp+112]
	pop	rbp
	ret	0
?OnImGuiRender@MainMenuScene@Scene@Application@@UEAAXXZ ENDP ; Application::Scene::MainMenuScene::OnImGuiRender
_TEXT	ENDS
; Function compile flags: /Odtp /RTCu /ZI
; File l:\dev\featherfallengine\featherfall-examples\src\scene\mainmenuscene.cpp
;	COMDAT ?OnRender@MainMenuScene@Scene@Application@@UEAAXXZ
_TEXT	SEGMENT
this$ = 80
?OnRender@MainMenuScene@Scene@Application@@UEAAXXZ PROC	; Application::Scene::MainMenuScene::OnRender, COMDAT

; 67   : 	void MainMenuScene::OnRender() {

$LN4:
	mov	QWORD PTR [rsp+8], rcx
	push	rbp
	sub	rsp, 96					; 00000060H
	lea	rbp, QWORD PTR [rsp+32]

; 68   : 		
; 69   : 		shader->setUniform1f("percentage", texMix);

	mov	rax, QWORD PTR this$[rbp]
	movss	xmm2, DWORD PTR [rax+112]
	lea	rdx, OFFSET FLAT:??_C@_0L@OMAPAGJJ@percentage?$AA@
	mov	rax, QWORD PTR this$[rbp]
	mov	rcx, QWORD PTR [rax+96]
	call	?setUniform1f@Shader@graphics@core@@QEAAXPEBDM@Z ; core::graphics::Shader::setUniform1f

; 70   : 		GLCall(glDrawElements(GL_TRIANGLES, ibo->getCount(), GL_UNSIGNED_INT, nullptr));

	call	?GLClearError@@YAXXZ			; GLClearError
	mov	rax, QWORD PTR this$[rbp]
	mov	rcx, QWORD PTR [rax+64]
	call	?getCount@IBO@buffers@core@@QEBAHXZ	; core::buffers::IBO::getCount
	xor	r9d, r9d
	mov	r8d, 5125				; 00001405H
	mov	edx, eax
	mov	ecx, 4
	call	QWORD PTR __imp_glDrawElements
	mov	eax, DWORD PTR ?__LINE__Var@?0??OnRender@MainMenuScene@Scene@Application@@UEAAXXZ@4JA
	add	eax, 3
	mov	r8d, eax
	lea	rdx, OFFSET FLAT:??_C@_0EK@EOGGOJAF@l?3?2dev?2featherfallengine?2feather@
	lea	rcx, OFFSET FLAT:??_C@_0EI@LIJNNICP@glDrawElements?$CIGL_TRIANGLES?0?5ibo@
	call	?GLLogError@@YA_NPEBD0H@Z		; GLLogError
	movzx	eax, al
	test	eax, eax
	jne	SHORT $LN2@OnRender
	int	3
$LN2@OnRender:

; 71   : 
; 72   : 	}

	lea	rsp, QWORD PTR [rbp+64]
	pop	rbp
	ret	0
?OnRender@MainMenuScene@Scene@Application@@UEAAXXZ ENDP	; Application::Scene::MainMenuScene::OnRender
_TEXT	ENDS
; Function compile flags: /Odtp /RTCu /ZI
; File l:\dev\featherfallengine\featherfall-examples\src\scene\mainmenuscene.cpp
;	COMDAT ?OnUpdate@MainMenuScene@Scene@Application@@UEAAXM@Z
_TEXT	SEGMENT
this$ = 80
deltaTime$ = 88
?OnUpdate@MainMenuScene@Scene@Application@@UEAAXM@Z PROC ; Application::Scene::MainMenuScene::OnUpdate, COMDAT

; 63   : 	void MainMenuScene::OnUpdate(float deltaTime) {

$LN3:
	movss	DWORD PTR [rsp+16], xmm1
	mov	QWORD PTR [rsp+8], rcx
	push	rbp
	sub	rsp, 64					; 00000040H
	mov	rbp, rsp

; 64   : 
; 65   : 	}

	lea	rsp, QWORD PTR [rbp+64]
	pop	rbp
	ret	0
?OnUpdate@MainMenuScene@Scene@Application@@UEAAXM@Z ENDP ; Application::Scene::MainMenuScene::OnUpdate
_TEXT	ENDS
; Function compile flags: /Odtp /RTCu /ZI
; File l:\dev\featherfallengine\featherfall-examples\src\scene\mainmenuscene.cpp
;	COMDAT ??1MainMenuScene@Scene@Application@@UEAA@XZ
_TEXT	SEGMENT
$T1 = 64
$T2 = 72
$T3 = 80
$T4 = 88
$T5 = 96
$T6 = 104
$T7 = 112
$T8 = 120
$T9 = 128
$T10 = 136
$T11 = 144
$T12 = 152
$T13 = 160
tv143 = 168
tv137 = 168
tv131 = 168
tv93 = 168
tv87 = 168
tv81 = 168
this$ = 192
??1MainMenuScene@Scene@Application@@UEAA@XZ PROC	; Application::Scene::MainMenuScene::~MainMenuScene, COMDAT

; 49   : 	MainMenuScene::~MainMenuScene() {

$LN15:
	mov	QWORD PTR [rsp+8], rcx
	push	rbp
	sub	rsp, 208				; 000000d0H
	lea	rbp, QWORD PTR [rsp+32]
	mov	rax, QWORD PTR this$[rbp]
	lea	rcx, OFFSET FLAT:??_7MainMenuScene@Scene@Application@@6B@
	mov	QWORD PTR [rax], rcx

; 50   : 
; 51   : 		delete vao;

	mov	rax, QWORD PTR this$[rbp]
	mov	rax, QWORD PTR [rax+48]
	mov	QWORD PTR $T2[rbp], rax
	mov	rax, QWORD PTR $T2[rbp]
	mov	QWORD PTR $T1[rbp], rax
	cmp	QWORD PTR $T1[rbp], 0
	je	SHORT $LN3@MainMenuSc
	mov	edx, 1
	mov	rcx, QWORD PTR $T1[rbp]
	call	??_GVAO@buffers@core@@QEAAPEAXI@Z
	mov	QWORD PTR tv81[rbp], rax
	jmp	SHORT $LN4@MainMenuSc
$LN3@MainMenuSc:
	mov	QWORD PTR tv81[rbp], 0
$LN4@MainMenuSc:

; 52   : 		delete vbo;

	mov	rax, QWORD PTR this$[rbp]
	mov	rax, QWORD PTR [rax+56]
	mov	QWORD PTR $T4[rbp], rax
	mov	rax, QWORD PTR $T4[rbp]
	mov	QWORD PTR $T3[rbp], rax
	cmp	QWORD PTR $T3[rbp], 0
	je	SHORT $LN5@MainMenuSc
	mov	edx, 1
	mov	rcx, QWORD PTR $T3[rbp]
	call	??_GVBO@buffers@core@@QEAAPEAXI@Z
	mov	QWORD PTR tv87[rbp], rax
	jmp	SHORT $LN6@MainMenuSc
$LN5@MainMenuSc:
	mov	QWORD PTR tv87[rbp], 0
$LN6@MainMenuSc:

; 53   : 		delete ibo;

	mov	rax, QWORD PTR this$[rbp]
	mov	rax, QWORD PTR [rax+64]
	mov	QWORD PTR $T6[rbp], rax
	mov	rax, QWORD PTR $T6[rbp]
	mov	QWORD PTR $T5[rbp], rax
	cmp	QWORD PTR $T5[rbp], 0
	je	SHORT $LN7@MainMenuSc
	mov	edx, 1
	mov	rcx, QWORD PTR $T5[rbp]
	call	??_GIBO@buffers@core@@QEAAPEAXI@Z
	mov	QWORD PTR tv93[rbp], rax
	jmp	SHORT $LN8@MainMenuSc
$LN7@MainMenuSc:
	mov	QWORD PTR tv93[rbp], 0
$LN8@MainMenuSc:

; 54   : 		delete layout;

	mov	rax, QWORD PTR this$[rbp]
	mov	rax, QWORD PTR [rax+72]
	mov	QWORD PTR $T8[rbp], rax
	mov	rax, QWORD PTR $T8[rbp]
	mov	QWORD PTR $T7[rbp], rax
	cmp	QWORD PTR $T7[rbp], 0
	je	SHORT $LN9@MainMenuSc
	mov	edx, 1
	mov	rcx, QWORD PTR $T7[rbp]
	call	??_GBufferLayout@buffers@core@@QEAAPEAXI@Z
	mov	QWORD PTR tv131[rbp], rax
	jmp	SHORT $LN10@MainMenuSc
$LN9@MainMenuSc:
	mov	QWORD PTR tv131[rbp], 0
$LN10@MainMenuSc:

; 55   : 
; 56   : 		delete ffTex;

	mov	rax, QWORD PTR this$[rbp]
	mov	rax, QWORD PTR [rax+80]
	mov	QWORD PTR $T10[rbp], rax
	mov	rax, QWORD PTR $T10[rbp]
	mov	QWORD PTR $T9[rbp], rax
	cmp	QWORD PTR $T9[rbp], 0
	je	SHORT $LN11@MainMenuSc
	mov	edx, 1
	mov	rcx, QWORD PTR $T9[rbp]
	call	??_GTexture@graphics@core@@QEAAPEAXI@Z
	mov	QWORD PTR tv137[rbp], rax
	jmp	SHORT $LN12@MainMenuSc
$LN11@MainMenuSc:
	mov	QWORD PTR tv137[rbp], 0
$LN12@MainMenuSc:

; 57   : 		delete shader;

	mov	rax, QWORD PTR this$[rbp]
	mov	rax, QWORD PTR [rax+96]
	mov	QWORD PTR $T12[rbp], rax
	mov	rax, QWORD PTR $T12[rbp]
	mov	QWORD PTR $T11[rbp], rax
	cmp	QWORD PTR $T11[rbp], 0
	je	SHORT $LN13@MainMenuSc
	mov	edx, 1
	mov	rcx, QWORD PTR $T11[rbp]
	call	??_GShader@graphics@core@@QEAAPEAXI@Z
	mov	QWORD PTR tv143[rbp], rax
	jmp	SHORT $LN14@MainMenuSc
$LN13@MainMenuSc:
	mov	QWORD PTR tv143[rbp], 0
$LN14@MainMenuSc:

; 58   : 
; 59   : 		delete ortho;

	mov	rax, QWORD PTR this$[rbp]
	mov	rax, QWORD PTR [rax+104]
	mov	QWORD PTR $T13[rbp], rax
	mov	edx, 64					; 00000040H
	mov	rcx, QWORD PTR $T13[rbp]
	call	??3@YAXPEAX_K@Z				; operator delete

; 60   : 
; 61   : 	}

	mov	rax, QWORD PTR this$[rbp]
	add	rax, 16
	mov	rcx, rax
	call	??1?$vector@U?$pair@PEBDV?$function@$$A6APEAVScene@1Application@@XZ@std@@@std@@V?$allocator@U?$pair@PEBDV?$function@$$A6APEAVScene@1Application@@XZ@std@@@std@@@2@@std@@QEAA@XZ ; std::vector<std::pair<char const *,std::function<Application::Scene::Scene * __cdecl(void)> >,std::allocator<std::pair<char const *,std::function<Application::Scene::Scene * __cdecl(void)> > > >::~vector<std::pair<char const *,std::function<Application::Scene::Scene * __cdecl(void)> >,std::allocator<std::pair<char const *,std::function<Application::Scene::Scene * __cdecl(void)> > > >
	mov	rcx, QWORD PTR this$[rbp]
	call	??1Scene@0Application@@UEAA@XZ		; Application::Scene::Scene::~Scene
	lea	rsp, QWORD PTR [rbp+176]
	pop	rbp
	ret	0
??1MainMenuScene@Scene@Application@@UEAA@XZ ENDP	; Application::Scene::MainMenuScene::~MainMenuScene
_TEXT	ENDS
; Function compile flags: /Odtp /RTCu /ZI
; File l:\dev\featherfallengine\featherfall-examples\src\scene\mainmenuscene.cpp
; File l:\dev\featherfallengine\featherfall-examples\src\scene\mainmenuscene.h
; File l:\dev\featherfallengine\featherfall-examples\src\scene\mainmenuscene.cpp
;	COMDAT ??0MainMenuScene@Scene@Application@@QEAA@AEAPEAV112@@Z
_TEXT	SEGMENT
vertexData$ = 0
indices$ = 80
$T1 = 168
$T2 = 176
$T3 = 184
$T4 = 192
$T5 = 200
$T6 = 208
$T7 = 216
$T8 = 224
$T9 = 232
$T10 = 240
$T11 = 248
$T12 = 288
$T13 = 296
$T14 = 304
$T15 = 344
$T16 = 352
$T17 = 360
$T18 = 368
$T19 = 408
$T20 = 416
$T21 = 424
$T22 = 432
$T23 = 440
tv365 = 448
tv361 = 448
tv338 = 448
tv272 = 448
tv211 = 448
tv197 = 448
tv150 = 448
tv135 = 448
tv322 = 456
tv298 = 456
__$ArrayPad$ = 464
this$ = 496
pcurrentScene$ = 504
??0MainMenuScene@Scene@Application@@QEAA@AEAPEAV112@@Z PROC ; Application::Scene::MainMenuScene::MainMenuScene, COMDAT

; 11   : 	{

$LN34:
	mov	QWORD PTR [rsp+16], rdx
	mov	QWORD PTR [rsp+8], rcx
	push	rbp
	sub	rsp, 544				; 00000220H
	lea	rbp, QWORD PTR [rsp+64]
	mov	QWORD PTR $T23[rbp], -2
	mov	rax, QWORD PTR __security_cookie
	xor	rax, rbp
	mov	QWORD PTR __$ArrayPad$[rbp], rax
	mov	DWORD PTR $T22[rbp], 0
	mov	rcx, QWORD PTR this$[rbp]
	call	??0Scene@0Application@@QEAA@XZ		; Application::Scene::Scene::Scene
	npad	1
	mov	rax, QWORD PTR this$[rbp]
	lea	rcx, OFFSET FLAT:??_7MainMenuScene@Scene@Application@@6B@
	mov	QWORD PTR [rax], rcx

; 10   : 		: currentScene(pcurrentScene)

	mov	rax, QWORD PTR this$[rbp]
	mov	rcx, QWORD PTR pcurrentScene$[rbp]
	mov	QWORD PTR [rax+8], rcx

; 11   : 	{

	mov	rax, QWORD PTR this$[rbp]
	add	rax, 16
	mov	rcx, rax
	call	??0?$vector@U?$pair@PEBDV?$function@$$A6APEAVScene@1Application@@XZ@std@@@std@@V?$allocator@U?$pair@PEBDV?$function@$$A6APEAVScene@1Application@@XZ@std@@@std@@@2@@std@@QEAA@XZ ; std::vector<std::pair<char const *,std::function<Application::Scene::Scene * __cdecl(void)> >,std::allocator<std::pair<char const *,std::function<Application::Scene::Scene * __cdecl(void)> > > >::vector<std::pair<char const *,std::function<Application::Scene::Scene * __cdecl(void)> >,std::allocator<std::pair<char const *,std::function<Application::Scene::Scene * __cdecl(void)> > > >
	npad	1
; File l:\dev\featherfallengine\featherfall-examples\src\scene\mainmenuscene.h

; 33   : 		float texMix = 0.0f;

	mov	rax, QWORD PTR this$[rbp]
	xorps	xmm0, xmm0
	movss	DWORD PTR [rax+112], xmm0

; 34   : 		double direction = 0.01;

	mov	rax, QWORD PTR this$[rbp]
	movsd	xmm0, QWORD PTR __real@3f847ae147ae147b
	movsd	QWORD PTR [rax+120], xmm0

; 35   : 		float frames = 0.0f;

	mov	rax, QWORD PTR this$[rbp]
	xorps	xmm0, xmm0
	movss	DWORD PTR [rax+128], xmm0

; 36   : 		int stage = 0;

	mov	rax, QWORD PTR this$[rbp]
	mov	DWORD PTR [rax+132], 0

; 37   : 		double framed = 0.0;

	mov	rax, QWORD PTR this$[rbp]
	xorps	xmm0, xmm0
	movsd	QWORD PTR [rax+136], xmm0
; File l:\dev\featherfallengine\featherfall-examples\src\scene\mainmenuscene.cpp

; 16   : 		vao = new buffers::VAO();

	mov	ecx, 4
	call	??2@YAPEAX_K@Z				; operator new
	mov	QWORD PTR $T2[rbp], rax
	cmp	QWORD PTR $T2[rbp], 0
	je	SHORT $LN3@MainMenuSc
	mov	rcx, QWORD PTR $T2[rbp]
	call	??0VAO@buffers@core@@QEAA@XZ		; core::buffers::VAO::VAO
	mov	QWORD PTR tv135[rbp], rax
	jmp	SHORT $LN4@MainMenuSc
$LN3@MainMenuSc:
	mov	QWORD PTR tv135[rbp], 0
$LN4@MainMenuSc:
	mov	rax, QWORD PTR tv135[rbp]
	mov	QWORD PTR $T1[rbp], rax
	mov	rax, QWORD PTR this$[rbp]
	mov	rcx, QWORD PTR $T1[rbp]
	mov	QWORD PTR [rax+48], rcx

; 17   : 
; 18   : 		float vertexData[] = {
; 19   : //            X      Y      Z      U      V
; 20   : 			-4.0f, -4.0f,  0.0f,  0.0f,  0.0f, //0

	movss	xmm0, DWORD PTR __real@c0800000
	movss	DWORD PTR vertexData$[rbp], xmm0
	movss	xmm0, DWORD PTR __real@c0800000
	movss	DWORD PTR vertexData$[rbp+4], xmm0
	xorps	xmm0, xmm0
	movss	DWORD PTR vertexData$[rbp+8], xmm0
	xorps	xmm0, xmm0
	movss	DWORD PTR vertexData$[rbp+12], xmm0
	xorps	xmm0, xmm0
	movss	DWORD PTR vertexData$[rbp+16], xmm0

; 21   : 			 4.0f, -4.0f,  0.0f,  1.0f,  0.0f, //1

	movss	xmm0, DWORD PTR __real@40800000
	movss	DWORD PTR vertexData$[rbp+20], xmm0
	movss	xmm0, DWORD PTR __real@c0800000
	movss	DWORD PTR vertexData$[rbp+24], xmm0
	xorps	xmm0, xmm0
	movss	DWORD PTR vertexData$[rbp+28], xmm0
	movss	xmm0, DWORD PTR __real@3f800000
	movss	DWORD PTR vertexData$[rbp+32], xmm0
	xorps	xmm0, xmm0
	movss	DWORD PTR vertexData$[rbp+36], xmm0

; 22   : 			 4.0f,  4.0f,  0.0f,  1.0f,  1.0f, //2

	movss	xmm0, DWORD PTR __real@40800000
	movss	DWORD PTR vertexData$[rbp+40], xmm0
	movss	xmm0, DWORD PTR __real@40800000
	movss	DWORD PTR vertexData$[rbp+44], xmm0
	xorps	xmm0, xmm0
	movss	DWORD PTR vertexData$[rbp+48], xmm0
	movss	xmm0, DWORD PTR __real@3f800000
	movss	DWORD PTR vertexData$[rbp+52], xmm0
	movss	xmm0, DWORD PTR __real@3f800000
	movss	DWORD PTR vertexData$[rbp+56], xmm0

; 23   : 			-4.0f,  4.0f,  0.0f,  0.0f,  1.0f  //3

	movss	xmm0, DWORD PTR __real@c0800000
	movss	DWORD PTR vertexData$[rbp+60], xmm0
	movss	xmm0, DWORD PTR __real@40800000
	movss	DWORD PTR vertexData$[rbp+64], xmm0
	xorps	xmm0, xmm0
	movss	DWORD PTR vertexData$[rbp+68], xmm0
	xorps	xmm0, xmm0
	movss	DWORD PTR vertexData$[rbp+72], xmm0
	movss	xmm0, DWORD PTR __real@3f800000
	movss	DWORD PTR vertexData$[rbp+76], xmm0

; 24   : 		};
; 25   : 		vbo = new buffers::VBO((const void*)vertexData, 4 * 9 * sizeof(float));

	mov	ecx, 4
	call	??2@YAPEAX_K@Z				; operator new
	mov	QWORD PTR $T4[rbp], rax
	cmp	QWORD PTR $T4[rbp], 0
	je	SHORT $LN5@MainMenuSc
	mov	r9b, 1
	mov	r8d, 144				; 00000090H
	lea	rdx, QWORD PTR vertexData$[rbp]
	mov	rcx, QWORD PTR $T4[rbp]
	call	??0VBO@buffers@core@@QEAA@PEBXI_N@Z	; core::buffers::VBO::VBO
	mov	QWORD PTR tv150[rbp], rax
	jmp	SHORT $LN6@MainMenuSc
$LN5@MainMenuSc:
	mov	QWORD PTR tv150[rbp], 0
$LN6@MainMenuSc:
	mov	rax, QWORD PTR tv150[rbp]
	mov	QWORD PTR $T3[rbp], rax
	mov	rax, QWORD PTR this$[rbp]
	mov	rcx, QWORD PTR $T3[rbp]
	mov	QWORD PTR [rax+56], rcx

; 26   : 
; 27   : 		unsigned int indices[] = { 
; 28   : 			0, 1, 2, 2, 3, 0 //FF Textured Quad

	mov	DWORD PTR indices$[rbp], 0
	mov	DWORD PTR indices$[rbp+4], 1
	mov	DWORD PTR indices$[rbp+8], 2
	mov	DWORD PTR indices$[rbp+12], 2
	mov	DWORD PTR indices$[rbp+16], 3
	mov	DWORD PTR indices$[rbp+20], 0

; 29   : 		};
; 30   : 		ibo = new buffers::IBO(indices, 6);

	mov	ecx, 8
	call	??2@YAPEAX_K@Z				; operator new
	mov	QWORD PTR $T6[rbp], rax
	cmp	QWORD PTR $T6[rbp], 0
	je	SHORT $LN7@MainMenuSc
	mov	r9b, 1
	mov	r8d, 6
	lea	rdx, QWORD PTR indices$[rbp]
	mov	rcx, QWORD PTR $T6[rbp]
	call	??0IBO@buffers@core@@QEAA@PEBII_N@Z	; core::buffers::IBO::IBO
	mov	QWORD PTR tv197[rbp], rax
	jmp	SHORT $LN8@MainMenuSc
$LN7@MainMenuSc:
	mov	QWORD PTR tv197[rbp], 0
$LN8@MainMenuSc:
	mov	rax, QWORD PTR tv197[rbp]
	mov	QWORD PTR $T5[rbp], rax
	mov	rax, QWORD PTR this$[rbp]
	mov	rcx, QWORD PTR $T5[rbp]
	mov	QWORD PTR [rax+64], rcx

; 31   : 
; 32   : 		layout = new buffers::BufferLayout();

	mov	ecx, 40					; 00000028H
	call	??2@YAPEAX_K@Z				; operator new
	mov	QWORD PTR $T8[rbp], rax
	cmp	QWORD PTR $T8[rbp], 0
	je	SHORT $LN9@MainMenuSc
	mov	edx, 40					; 00000028H
	mov	rcx, QWORD PTR $T8[rbp]
	call	?__autoclassinit2@BufferLayout@buffers@core@@QEAAX_K@Z
	mov	rcx, QWORD PTR $T8[rbp]
	call	??0BufferLayout@buffers@core@@QEAA@XZ	; core::buffers::BufferLayout::BufferLayout
	mov	QWORD PTR tv211[rbp], rax
	jmp	SHORT $LN10@MainMenuSc
$LN9@MainMenuSc:
	mov	QWORD PTR tv211[rbp], 0
$LN10@MainMenuSc:
	mov	rax, QWORD PTR tv211[rbp]
	mov	QWORD PTR $T7[rbp], rax
	mov	rax, QWORD PTR this$[rbp]
	mov	rcx, QWORD PTR $T7[rbp]
	mov	QWORD PTR [rax+72], rcx

; 33   : 		layout->push<float>(3); //add position data

	mov	edx, 3
	mov	rax, QWORD PTR this$[rbp]
	mov	rcx, QWORD PTR [rax+72]
	call	??$push@M@BufferLayout@buffers@core@@QEAAXI@Z ; core::buffers::BufferLayout::push<float>

; 34   : 		layout->push<float>(2); //add texture coord data

	mov	edx, 2
	mov	rax, QWORD PTR this$[rbp]
	mov	rcx, QWORD PTR [rax+72]
	call	??$push@M@BufferLayout@buffers@core@@QEAAXI@Z ; core::buffers::BufferLayout::push<float>

; 35   : 
; 36   : 		vao->addBuffer(*vbo, *layout);

	mov	rax, QWORD PTR this$[rbp]
	mov	r8, QWORD PTR [rax+72]
	mov	rax, QWORD PTR this$[rbp]
	mov	rdx, QWORD PTR [rax+56]
	mov	rax, QWORD PTR this$[rbp]
	mov	rcx, QWORD PTR [rax+48]
	call	?addBuffer@VAO@buffers@core@@QEAAXAEBVVBO@23@AEBVBufferLayout@23@@Z ; core::buffers::VAO::addBuffer

; 37   : 
; 38   : 		shader = new graphics::Shader("res/shaders/MainMenu.shader");

	mov	ecx, 4
	call	??2@YAPEAX_K@Z				; operator new
	mov	QWORD PTR $T10[rbp], rax
	cmp	QWORD PTR $T10[rbp], 0
	je	SHORT $LN11@MainMenuSc
	lea	rdx, OFFSET FLAT:??_C@_0BM@BFJKNBFF@res?1shaders?1MainMenu?4shader?$AA@
	lea	rcx, QWORD PTR $T11[rbp]
	call	??0?$basic_string@DU?$char_traits@D@std@@V?$allocator@D@2@@std@@QEAA@QEBD@Z ; std::basic_string<char,std::char_traits<char>,std::allocator<char> >::basic_string<char,std::char_traits<char>,std::allocator<char> >
	npad	1
	mov	eax, DWORD PTR $T22[rbp]
	or	eax, 1
	mov	DWORD PTR $T22[rbp], eax
	lea	rdx, QWORD PTR $T11[rbp]
	mov	rcx, QWORD PTR $T10[rbp]
	call	??0Shader@graphics@core@@QEAA@AEBV?$basic_string@DU?$char_traits@D@std@@V?$allocator@D@2@@std@@@Z ; core::graphics::Shader::Shader
	mov	QWORD PTR tv272[rbp], rax
	jmp	SHORT $LN12@MainMenuSc
$LN11@MainMenuSc:
	mov	QWORD PTR tv272[rbp], 0
$LN12@MainMenuSc:
	mov	rax, QWORD PTR tv272[rbp]
	mov	QWORD PTR $T9[rbp], rax
	mov	rax, QWORD PTR this$[rbp]
	mov	rcx, QWORD PTR $T9[rbp]
	mov	QWORD PTR [rax+96], rcx
	mov	eax, DWORD PTR $T22[rbp]
	and	eax, 1
	test	eax, eax
	je	SHORT $LN28@MainMenuSc
	and	DWORD PTR $T22[rbp], -2
	lea	rcx, QWORD PTR $T11[rbp]
	call	??1?$basic_string@DU?$char_traits@D@std@@V?$allocator@D@2@@std@@QEAA@XZ ; std::basic_string<char,std::char_traits<char>,std::allocator<char> >::~basic_string<char,std::char_traits<char>,std::allocator<char> >
$LN28@MainMenuSc:

; 39   : 
; 40   : 		ffTex = new graphics::Texture("res/textures/FeatherFall-MainMenu.png");

	mov	ecx, 72					; 00000048H
	call	??2@YAPEAX_K@Z				; operator new
	mov	QWORD PTR $T13[rbp], rax
	cmp	QWORD PTR $T13[rbp], 0
	je	SHORT $LN13@MainMenuSc
	mov	edx, 72					; 00000048H
	mov	rcx, QWORD PTR $T13[rbp]
	call	?__autoclassinit2@Texture@graphics@core@@QEAAX_K@Z
	lea	rax, QWORD PTR $T14[rbp]
	mov	QWORD PTR $T15[rbp], rax
	lea	rdx, OFFSET FLAT:??_C@_0CG@DAJJAFE@res?1textures?1FeatherFall?9MainMen@
	mov	rcx, QWORD PTR $T15[rbp]
	call	??0?$basic_string@DU?$char_traits@D@std@@V?$allocator@D@2@@std@@QEAA@QEBD@Z ; std::basic_string<char,std::char_traits<char>,std::allocator<char> >::basic_string<char,std::char_traits<char>,std::allocator<char> >
	mov	QWORD PTR tv361[rbp], rax
	mov	rdx, QWORD PTR tv361[rbp]
	mov	rcx, QWORD PTR $T13[rbp]
	call	??0Texture@graphics@core@@QEAA@V?$basic_string@DU?$char_traits@D@std@@V?$allocator@D@2@@std@@@Z ; core::graphics::Texture::Texture
	mov	QWORD PTR tv298[rbp], rax
	jmp	SHORT $LN14@MainMenuSc
$LN13@MainMenuSc:
	mov	QWORD PTR tv298[rbp], 0
$LN14@MainMenuSc:
	mov	rax, QWORD PTR tv298[rbp]
	mov	QWORD PTR $T12[rbp], rax
	mov	rax, QWORD PTR this$[rbp]
	mov	rcx, QWORD PTR $T12[rbp]
	mov	QWORD PTR [rax+80], rcx

; 41   : 		iconTex = new Texture("res/textures/FeatherFall-Owl.png");

	mov	ecx, 72					; 00000048H
	call	??2@YAPEAX_K@Z				; operator new
	mov	QWORD PTR $T17[rbp], rax
	cmp	QWORD PTR $T17[rbp], 0
	je	SHORT $LN15@MainMenuSc
	mov	edx, 72					; 00000048H
	mov	rcx, QWORD PTR $T17[rbp]
	call	?__autoclassinit2@Texture@graphics@core@@QEAAX_K@Z
	lea	rax, QWORD PTR $T18[rbp]
	mov	QWORD PTR $T19[rbp], rax
	lea	rdx, OFFSET FLAT:??_C@_0CB@MPFGBK@res?1textures?1FeatherFall?9Owl?4png@
	mov	rcx, QWORD PTR $T19[rbp]
	call	??0?$basic_string@DU?$char_traits@D@std@@V?$allocator@D@2@@std@@QEAA@QEBD@Z ; std::basic_string<char,std::char_traits<char>,std::allocator<char> >::basic_string<char,std::char_traits<char>,std::allocator<char> >
	mov	QWORD PTR tv365[rbp], rax
	mov	rdx, QWORD PTR tv365[rbp]
	mov	rcx, QWORD PTR $T17[rbp]
	call	??0Texture@graphics@core@@QEAA@V?$basic_string@DU?$char_traits@D@std@@V?$allocator@D@2@@std@@@Z ; core::graphics::Texture::Texture
	mov	QWORD PTR tv322[rbp], rax
	jmp	SHORT $LN16@MainMenuSc
$LN15@MainMenuSc:
	mov	QWORD PTR tv322[rbp], 0
$LN16@MainMenuSc:
	mov	rax, QWORD PTR tv322[rbp]
	mov	QWORD PTR $T16[rbp], rax
	mov	rax, QWORD PTR this$[rbp]
	mov	rcx, QWORD PTR $T16[rbp]
	mov	QWORD PTR [rax+88], rcx

; 42   : 
; 43   : 		ortho = new glm::mat4(glm::ortho(-8.0f, 8.0f, -4.5f, 4.5f, -1.0f, 1.0f));

	mov	ecx, 64					; 00000040H
	call	??2@YAPEAX_K@Z				; operator new
	mov	QWORD PTR $T21[rbp], rax
	cmp	QWORD PTR $T21[rbp], 0
	je	SHORT $LN17@MainMenuSc
	movss	xmm0, DWORD PTR __real@3f800000
	movss	DWORD PTR [rsp+48], xmm0
	movss	xmm0, DWORD PTR __real@bf800000
	movss	DWORD PTR [rsp+40], xmm0
	movss	xmm0, DWORD PTR __real@40900000
	movss	DWORD PTR [rsp+32], xmm0
	movss	xmm3, DWORD PTR __real@c0900000
	movss	xmm2, DWORD PTR __real@41000000
	movss	xmm1, DWORD PTR __real@c1000000
	mov	rcx, QWORD PTR $T21[rbp]
	call	??$ortho@M@glm@@YA?AU?$tmat4x4@M$0A@@0@MMMMMM@Z ; glm::ortho<float>
	mov	QWORD PTR tv338[rbp], rax
	jmp	SHORT $LN18@MainMenuSc
$LN17@MainMenuSc:
	mov	QWORD PTR tv338[rbp], 0
$LN18@MainMenuSc:
	mov	rax, QWORD PTR tv338[rbp]
	mov	QWORD PTR $T20[rbp], rax
	mov	rax, QWORD PTR this$[rbp]
	mov	rcx, QWORD PTR $T20[rbp]
	mov	QWORD PTR [rax+104], rcx

; 44   : 
; 45   : 		OnReloadScene(); //load Scene for first time

	mov	rcx, QWORD PTR this$[rbp]
	call	?OnReloadScene@MainMenuScene@Scene@Application@@QEAAXXZ ; Application::Scene::MainMenuScene::OnReloadScene
	npad	1

; 46   : 
; 47   : 	}

	mov	rax, QWORD PTR this$[rbp]
	mov	rcx, QWORD PTR __$ArrayPad$[rbp]
	xor	rcx, rbp
	call	__security_check_cookie
	lea	rsp, QWORD PTR [rbp+480]
	pop	rbp
	ret	0
??0MainMenuScene@Scene@Application@@QEAA@AEAPEAV112@@Z ENDP ; Application::Scene::MainMenuScene::MainMenuScene
_TEXT	ENDS
;	COMDAT text$x
text$x	SEGMENT
vertexData$ = 0
indices$ = 80
$T1 = 168
$T2 = 176
$T3 = 184
$T4 = 192
$T5 = 200
$T6 = 208
$T7 = 216
$T8 = 224
$T9 = 232
$T10 = 240
$T11 = 248
$T12 = 288
$T13 = 296
$T14 = 304
$T15 = 344
$T16 = 352
$T17 = 360
$T18 = 368
$T19 = 408
$T20 = 416
$T21 = 424
$T22 = 432
$T23 = 440
tv365 = 448
tv361 = 448
tv338 = 448
tv272 = 448
tv211 = 448
tv197 = 448
tv150 = 448
tv135 = 448
tv322 = 456
tv298 = 456
__$ArrayPad$ = 464
this$ = 496
pcurrentScene$ = 504
?dtor$0@?0???0MainMenuScene@Scene@Application@@QEAA@AEAPEAV112@@Z@4HA PROC ; `Application::Scene::MainMenuScene::MainMenuScene'::`1'::dtor$0
	push	rbp
	sub	rsp, 32					; 00000020H
	lea	rbp, QWORD PTR [rdx+64]
	mov	rcx, QWORD PTR this$[rbp]
	call	??1Scene@0Application@@UEAA@XZ		; Application::Scene::Scene::~Scene
	add	rsp, 32					; 00000020H
	pop	rbp
	ret	0
?dtor$0@?0???0MainMenuScene@Scene@Application@@QEAA@AEAPEAV112@@Z@4HA ENDP ; `Application::Scene::MainMenuScene::MainMenuScene'::`1'::dtor$0
text$x	ENDS
;	COMDAT text$x
text$x	SEGMENT
vertexData$ = 0
indices$ = 80
$T1 = 168
$T2 = 176
$T3 = 184
$T4 = 192
$T5 = 200
$T6 = 208
$T7 = 216
$T8 = 224
$T9 = 232
$T10 = 240
$T11 = 248
$T12 = 288
$T13 = 296
$T14 = 304
$T15 = 344
$T16 = 352
$T17 = 360
$T18 = 368
$T19 = 408
$T20 = 416
$T21 = 424
$T22 = 432
$T23 = 440
tv365 = 448
tv361 = 448
tv338 = 448
tv272 = 448
tv211 = 448
tv197 = 448
tv150 = 448
tv135 = 448
tv322 = 456
tv298 = 456
__$ArrayPad$ = 464
this$ = 496
pcurrentScene$ = 504
?dtor$1@?0???0MainMenuScene@Scene@Application@@QEAA@AEAPEAV112@@Z@4HA PROC ; `Application::Scene::MainMenuScene::MainMenuScene'::`1'::dtor$1
	push	rbp
	sub	rsp, 32					; 00000020H
	lea	rbp, QWORD PTR [rdx+64]
	mov	rcx, QWORD PTR this$[rbp]
	add	rcx, 16
	call	??1?$vector@U?$pair@PEBDV?$function@$$A6APEAVScene@1Application@@XZ@std@@@std@@V?$allocator@U?$pair@PEBDV?$function@$$A6APEAVScene@1Application@@XZ@std@@@std@@@2@@std@@QEAA@XZ ; std::vector<std::pair<char const *,std::function<Application::Scene::Scene * __cdecl(void)> >,std::allocator<std::pair<char const *,std::function<Application::Scene::Scene * __cdecl(void)> > > >::~vector<std::pair<char const *,std::function<Application::Scene::Scene * __cdecl(void)> >,std::allocator<std::pair<char const *,std::function<Application::Scene::Scene * __cdecl(void)> > > >
	add	rsp, 32					; 00000020H
	pop	rbp
	ret	0
?dtor$1@?0???0MainMenuScene@Scene@Application@@QEAA@AEAPEAV112@@Z@4HA ENDP ; `Application::Scene::MainMenuScene::MainMenuScene'::`1'::dtor$1
text$x	ENDS
;	COMDAT text$x
text$x	SEGMENT
vertexData$ = 0
indices$ = 80
$T1 = 168
$T2 = 176
$T3 = 184
$T4 = 192
$T5 = 200
$T6 = 208
$T7 = 216
$T8 = 224
$T9 = 232
$T10 = 240
$T11 = 248
$T12 = 288
$T13 = 296
$T14 = 304
$T15 = 344
$T16 = 352
$T17 = 360
$T18 = 368
$T19 = 408
$T20 = 416
$T21 = 424
$T22 = 432
$T23 = 440
tv365 = 448
tv361 = 448
tv338 = 448
tv272 = 448
tv211 = 448
tv197 = 448
tv150 = 448
tv135 = 448
tv322 = 456
tv298 = 456
__$ArrayPad$ = 464
this$ = 496
pcurrentScene$ = 504
?dtor$2@?0???0MainMenuScene@Scene@Application@@QEAA@AEAPEAV112@@Z@4HA PROC ; `Application::Scene::MainMenuScene::MainMenuScene'::`1'::dtor$2
	push	rbp
	sub	rsp, 32					; 00000020H
	lea	rbp, QWORD PTR [rdx+64]
	mov	edx, 4
	mov	rcx, QWORD PTR $T2[rbp]
	call	??3@YAXPEAX_K@Z				; operator delete
	add	rsp, 32					; 00000020H
	pop	rbp
	ret	0
?dtor$2@?0???0MainMenuScene@Scene@Application@@QEAA@AEAPEAV112@@Z@4HA ENDP ; `Application::Scene::MainMenuScene::MainMenuScene'::`1'::dtor$2
text$x	ENDS
;	COMDAT text$x
text$x	SEGMENT
vertexData$ = 0
indices$ = 80
$T1 = 168
$T2 = 176
$T3 = 184
$T4 = 192
$T5 = 200
$T6 = 208
$T7 = 216
$T8 = 224
$T9 = 232
$T10 = 240
$T11 = 248
$T12 = 288
$T13 = 296
$T14 = 304
$T15 = 344
$T16 = 352
$T17 = 360
$T18 = 368
$T19 = 408
$T20 = 416
$T21 = 424
$T22 = 432
$T23 = 440
tv365 = 448
tv361 = 448
tv338 = 448
tv272 = 448
tv211 = 448
tv197 = 448
tv150 = 448
tv135 = 448
tv322 = 456
tv298 = 456
__$ArrayPad$ = 464
this$ = 496
pcurrentScene$ = 504
?dtor$3@?0???0MainMenuScene@Scene@Application@@QEAA@AEAPEAV112@@Z@4HA PROC ; `Application::Scene::MainMenuScene::MainMenuScene'::`1'::dtor$3
	push	rbp
	sub	rsp, 32					; 00000020H
	lea	rbp, QWORD PTR [rdx+64]
	mov	edx, 4
	mov	rcx, QWORD PTR $T4[rbp]
	call	??3@YAXPEAX_K@Z				; operator delete
	add	rsp, 32					; 00000020H
	pop	rbp
	ret	0
?dtor$3@?0???0MainMenuScene@Scene@Application@@QEAA@AEAPEAV112@@Z@4HA ENDP ; `Application::Scene::MainMenuScene::MainMenuScene'::`1'::dtor$3
text$x	ENDS
;	COMDAT text$x
text$x	SEGMENT
vertexData$ = 0
indices$ = 80
$T1 = 168
$T2 = 176
$T3 = 184
$T4 = 192
$T5 = 200
$T6 = 208
$T7 = 216
$T8 = 224
$T9 = 232
$T10 = 240
$T11 = 248
$T12 = 288
$T13 = 296
$T14 = 304
$T15 = 344
$T16 = 352
$T17 = 360
$T18 = 368
$T19 = 408
$T20 = 416
$T21 = 424
$T22 = 432
$T23 = 440
tv365 = 448
tv361 = 448
tv338 = 448
tv272 = 448
tv211 = 448
tv197 = 448
tv150 = 448
tv135 = 448
tv322 = 456
tv298 = 456
__$ArrayPad$ = 464
this$ = 496
pcurrentScene$ = 504
?dtor$4@?0???0MainMenuScene@Scene@Application@@QEAA@AEAPEAV112@@Z@4HA PROC ; `Application::Scene::MainMenuScene::MainMenuScene'::`1'::dtor$4
	push	rbp
	sub	rsp, 32					; 00000020H
	lea	rbp, QWORD PTR [rdx+64]
	mov	edx, 8
	mov	rcx, QWORD PTR $T6[rbp]
	call	??3@YAXPEAX_K@Z				; operator delete
	add	rsp, 32					; 00000020H
	pop	rbp
	ret	0
?dtor$4@?0???0MainMenuScene@Scene@Application@@QEAA@AEAPEAV112@@Z@4HA ENDP ; `Application::Scene::MainMenuScene::MainMenuScene'::`1'::dtor$4
text$x	ENDS
;	COMDAT text$x
text$x	SEGMENT
vertexData$ = 0
indices$ = 80
$T1 = 168
$T2 = 176
$T3 = 184
$T4 = 192
$T5 = 200
$T6 = 208
$T7 = 216
$T8 = 224
$T9 = 232
$T10 = 240
$T11 = 248
$T12 = 288
$T13 = 296
$T14 = 304
$T15 = 344
$T16 = 352
$T17 = 360
$T18 = 368
$T19 = 408
$T20 = 416
$T21 = 424
$T22 = 432
$T23 = 440
tv365 = 448
tv361 = 448
tv338 = 448
tv272 = 448
tv211 = 448
tv197 = 448
tv150 = 448
tv135 = 448
tv322 = 456
tv298 = 456
__$ArrayPad$ = 464
this$ = 496
pcurrentScene$ = 504
?dtor$5@?0???0MainMenuScene@Scene@Application@@QEAA@AEAPEAV112@@Z@4HA PROC ; `Application::Scene::MainMenuScene::MainMenuScene'::`1'::dtor$5
	push	rbp
	sub	rsp, 32					; 00000020H
	lea	rbp, QWORD PTR [rdx+64]
	mov	edx, 40					; 00000028H
	mov	rcx, QWORD PTR $T8[rbp]
	call	??3@YAXPEAX_K@Z				; operator delete
	add	rsp, 32					; 00000020H
	pop	rbp
	ret	0
?dtor$5@?0???0MainMenuScene@Scene@Application@@QEAA@AEAPEAV112@@Z@4HA ENDP ; `Application::Scene::MainMenuScene::MainMenuScene'::`1'::dtor$5
text$x	ENDS
;	COMDAT text$x
text$x	SEGMENT
vertexData$ = 0
indices$ = 80
$T1 = 168
$T2 = 176
$T3 = 184
$T4 = 192
$T5 = 200
$T6 = 208
$T7 = 216
$T8 = 224
$T9 = 232
$T10 = 240
$T11 = 248
$T12 = 288
$T13 = 296
$T14 = 304
$T15 = 344
$T16 = 352
$T17 = 360
$T18 = 368
$T19 = 408
$T20 = 416
$T21 = 424
$T22 = 432
$T23 = 440
tv365 = 448
tv361 = 448
tv338 = 448
tv272 = 448
tv211 = 448
tv197 = 448
tv150 = 448
tv135 = 448
tv322 = 456
tv298 = 456
__$ArrayPad$ = 464
this$ = 496
pcurrentScene$ = 504
?dtor$6@?0???0MainMenuScene@Scene@Application@@QEAA@AEAPEAV112@@Z@4HA PROC ; `Application::Scene::MainMenuScene::MainMenuScene'::`1'::dtor$6
	push	rbp
	sub	rsp, 32					; 00000020H
	lea	rbp, QWORD PTR [rdx+64]
	mov	edx, 4
	mov	rcx, QWORD PTR $T10[rbp]
	call	??3@YAXPEAX_K@Z				; operator delete
	add	rsp, 32					; 00000020H
	pop	rbp
	ret	0
?dtor$6@?0???0MainMenuScene@Scene@Application@@QEAA@AEAPEAV112@@Z@4HA ENDP ; `Application::Scene::MainMenuScene::MainMenuScene'::`1'::dtor$6
text$x	ENDS
;	COMDAT text$x
text$x	SEGMENT
vertexData$ = 0
indices$ = 80
$T1 = 168
$T2 = 176
$T3 = 184
$T4 = 192
$T5 = 200
$T6 = 208
$T7 = 216
$T8 = 224
$T9 = 232
$T10 = 240
$T11 = 248
$T12 = 288
$T13 = 296
$T14 = 304
$T15 = 344
$T16 = 352
$T17 = 360
$T18 = 368
$T19 = 408
$T20 = 416
$T21 = 424
$T22 = 432
$T23 = 440
tv365 = 448
tv361 = 448
tv338 = 448
tv272 = 448
tv211 = 448
tv197 = 448
tv150 = 448
tv135 = 448
tv322 = 456
tv298 = 456
__$ArrayPad$ = 464
this$ = 496
pcurrentScene$ = 504
?dtor$7@?0???0MainMenuScene@Scene@Application@@QEAA@AEAPEAV112@@Z@4HA PROC ; `Application::Scene::MainMenuScene::MainMenuScene'::`1'::dtor$7
	push	rbp
	sub	rsp, 32					; 00000020H
	lea	rbp, QWORD PTR [rdx+64]
	mov	eax, DWORD PTR $T22[rbp]
	and	eax, 1
	test	eax, eax
	je	SHORT $LN27@dtor$7
	and	DWORD PTR $T22[rbp], -2
	lea	rcx, QWORD PTR $T11[rbp]
	call	??1?$basic_string@DU?$char_traits@D@std@@V?$allocator@D@2@@std@@QEAA@XZ ; std::basic_string<char,std::char_traits<char>,std::allocator<char> >::~basic_string<char,std::char_traits<char>,std::allocator<char> >
$LN27@dtor$7:
	add	rsp, 32					; 00000020H
	pop	rbp
	ret	0
?dtor$7@?0???0MainMenuScene@Scene@Application@@QEAA@AEAPEAV112@@Z@4HA ENDP ; `Application::Scene::MainMenuScene::MainMenuScene'::`1'::dtor$7
text$x	ENDS
;	COMDAT text$x
text$x	SEGMENT
vertexData$ = 0
indices$ = 80
$T1 = 168
$T2 = 176
$T3 = 184
$T4 = 192
$T5 = 200
$T6 = 208
$T7 = 216
$T8 = 224
$T9 = 232
$T10 = 240
$T11 = 248
$T12 = 288
$T13 = 296
$T14 = 304
$T15 = 344
$T16 = 352
$T17 = 360
$T18 = 368
$T19 = 408
$T20 = 416
$T21 = 424
$T22 = 432
$T23 = 440
tv365 = 448
tv361 = 448
tv338 = 448
tv272 = 448
tv211 = 448
tv197 = 448
tv150 = 448
tv135 = 448
tv322 = 456
tv298 = 456
__$ArrayPad$ = 464
this$ = 496
pcurrentScene$ = 504
?dtor$8@?0???0MainMenuScene@Scene@Application@@QEAA@AEAPEAV112@@Z@4HA PROC ; `Application::Scene::MainMenuScene::MainMenuScene'::`1'::dtor$8
	push	rbp
	sub	rsp, 32					; 00000020H
	lea	rbp, QWORD PTR [rdx+64]
	mov	edx, 72					; 00000048H
	mov	rcx, QWORD PTR $T13[rbp]
	call	??3@YAXPEAX_K@Z				; operator delete
	add	rsp, 32					; 00000020H
	pop	rbp
	ret	0
?dtor$8@?0???0MainMenuScene@Scene@Application@@QEAA@AEAPEAV112@@Z@4HA ENDP ; `Application::Scene::MainMenuScene::MainMenuScene'::`1'::dtor$8
text$x	ENDS
;	COMDAT text$x
text$x	SEGMENT
vertexData$ = 0
indices$ = 80
$T1 = 168
$T2 = 176
$T3 = 184
$T4 = 192
$T5 = 200
$T6 = 208
$T7 = 216
$T8 = 224
$T9 = 232
$T10 = 240
$T11 = 248
$T12 = 288
$T13 = 296
$T14 = 304
$T15 = 344
$T16 = 352
$T17 = 360
$T18 = 368
$T19 = 408
$T20 = 416
$T21 = 424
$T22 = 432
$T23 = 440
tv365 = 448
tv361 = 448
tv338 = 448
tv272 = 448
tv211 = 448
tv197 = 448
tv150 = 448
tv135 = 448
tv322 = 456
tv298 = 456
__$ArrayPad$ = 464
this$ = 496
pcurrentScene$ = 504
?dtor$10@?0???0MainMenuScene@Scene@Application@@QEAA@AEAPEAV112@@Z@4HA PROC ; `Application::Scene::MainMenuScene::MainMenuScene'::`1'::dtor$10
	push	rbp
	sub	rsp, 32					; 00000020H
	lea	rbp, QWORD PTR [rdx+64]
	mov	edx, 72					; 00000048H
	mov	rcx, QWORD PTR $T17[rbp]
	call	??3@YAXPEAX_K@Z				; operator delete
	add	rsp, 32					; 00000020H
	pop	rbp
	ret	0
?dtor$10@?0???0MainMenuScene@Scene@Application@@QEAA@AEAPEAV112@@Z@4HA ENDP ; `Application::Scene::MainMenuScene::MainMenuScene'::`1'::dtor$10
text$x	ENDS
;	COMDAT text$x
text$x	SEGMENT
vertexData$ = 0
indices$ = 80
$T1 = 168
$T2 = 176
$T3 = 184
$T4 = 192
$T5 = 200
$T6 = 208
$T7 = 216
$T8 = 224
$T9 = 232
$T10 = 240
$T11 = 248
$T12 = 288
$T13 = 296
$T14 = 304
$T15 = 344
$T16 = 352
$T17 = 360
$T18 = 368
$T19 = 408
$T20 = 416
$T21 = 424
$T22 = 432
$T23 = 440
tv365 = 448
tv361 = 448
tv338 = 448
tv272 = 448
tv211 = 448
tv197 = 448
tv150 = 448
tv135 = 448
tv322 = 456
tv298 = 456
__$ArrayPad$ = 464
this$ = 496
pcurrentScene$ = 504
?dtor$12@?0???0MainMenuScene@Scene@Application@@QEAA@AEAPEAV112@@Z@4HA PROC ; `Application::Scene::MainMenuScene::MainMenuScene'::`1'::dtor$12
	push	rbp
	sub	rsp, 32					; 00000020H
	lea	rbp, QWORD PTR [rdx+64]
	mov	edx, 64					; 00000040H
	mov	rcx, QWORD PTR $T21[rbp]
	call	??3@YAXPEAX_K@Z				; operator delete
	add	rsp, 32					; 00000020H
	pop	rbp
	ret	0
?dtor$12@?0???0MainMenuScene@Scene@Application@@QEAA@AEAPEAV112@@Z@4HA ENDP ; `Application::Scene::MainMenuScene::MainMenuScene'::`1'::dtor$12
text$x	ENDS
; Function compile flags: /Odtp /RTCu /ZI
;	COMDAT text$x
text$x	SEGMENT
vertexData$ = 0
indices$ = 80
$T1 = 168
$T2 = 176
$T3 = 184
$T4 = 192
$T5 = 200
$T6 = 208
$T7 = 216
$T8 = 224
$T9 = 232
$T10 = 240
$T11 = 248
$T12 = 288
$T13 = 296
$T14 = 304
$T15 = 344
$T16 = 352
$T17 = 360
$T18 = 368
$T19 = 408
$T20 = 416
$T21 = 424
$T22 = 432
$T23 = 440
tv365 = 448
tv361 = 448
tv338 = 448
tv272 = 448
tv211 = 448
tv197 = 448
tv150 = 448
tv135 = 448
tv322 = 456
tv298 = 456
__$ArrayPad$ = 464
this$ = 496
pcurrentScene$ = 504
?dtor$0@?0???0MainMenuScene@Scene@Application@@QEAA@AEAPEAV112@@Z@4HA PROC ; `Application::Scene::MainMenuScene::MainMenuScene'::`1'::dtor$0
	push	rbp
	sub	rsp, 32					; 00000020H
	lea	rbp, QWORD PTR [rdx+64]
	mov	rcx, QWORD PTR this$[rbp]
	call	??1Scene@0Application@@UEAA@XZ		; Application::Scene::Scene::~Scene
	add	rsp, 32					; 00000020H
	pop	rbp
	ret	0
?dtor$0@?0???0MainMenuScene@Scene@Application@@QEAA@AEAPEAV112@@Z@4HA ENDP ; `Application::Scene::MainMenuScene::MainMenuScene'::`1'::dtor$0
text$x	ENDS
; Function compile flags: /Odtp /RTCu /ZI
;	COMDAT text$x
text$x	SEGMENT
vertexData$ = 0
indices$ = 80
$T1 = 168
$T2 = 176
$T3 = 184
$T4 = 192
$T5 = 200
$T6 = 208
$T7 = 216
$T8 = 224
$T9 = 232
$T10 = 240
$T11 = 248
$T12 = 288
$T13 = 296
$T14 = 304
$T15 = 344
$T16 = 352
$T17 = 360
$T18 = 368
$T19 = 408
$T20 = 416
$T21 = 424
$T22 = 432
$T23 = 440
tv365 = 448
tv361 = 448
tv338 = 448
tv272 = 448
tv211 = 448
tv197 = 448
tv150 = 448
tv135 = 448
tv322 = 456
tv298 = 456
__$ArrayPad$ = 464
this$ = 496
pcurrentScene$ = 504
?dtor$1@?0???0MainMenuScene@Scene@Application@@QEAA@AEAPEAV112@@Z@4HA PROC ; `Application::Scene::MainMenuScene::MainMenuScene'::`1'::dtor$1
	push	rbp
	sub	rsp, 32					; 00000020H
	lea	rbp, QWORD PTR [rdx+64]
	mov	rcx, QWORD PTR this$[rbp]
	add	rcx, 16
	call	??1?$vector@U?$pair@PEBDV?$function@$$A6APEAVScene@1Application@@XZ@std@@@std@@V?$allocator@U?$pair@PEBDV?$function@$$A6APEAVScene@1Application@@XZ@std@@@std@@@2@@std@@QEAA@XZ ; std::vector<std::pair<char const *,std::function<Application::Scene::Scene * __cdecl(void)> >,std::allocator<std::pair<char const *,std::function<Application::Scene::Scene * __cdecl(void)> > > >::~vector<std::pair<char const *,std::function<Application::Scene::Scene * __cdecl(void)> >,std::allocator<std::pair<char const *,std::function<Application::Scene::Scene * __cdecl(void)> > > >
	add	rsp, 32					; 00000020H
	pop	rbp
	ret	0
?dtor$1@?0???0MainMenuScene@Scene@Application@@QEAA@AEAPEAV112@@Z@4HA ENDP ; `Application::Scene::MainMenuScene::MainMenuScene'::`1'::dtor$1
text$x	ENDS
; Function compile flags: /Odtp /RTCu /ZI
;	COMDAT text$x
text$x	SEGMENT
vertexData$ = 0
indices$ = 80
$T1 = 168
$T2 = 176
$T3 = 184
$T4 = 192
$T5 = 200
$T6 = 208
$T7 = 216
$T8 = 224
$T9 = 232
$T10 = 240
$T11 = 248
$T12 = 288
$T13 = 296
$T14 = 304
$T15 = 344
$T16 = 352
$T17 = 360
$T18 = 368
$T19 = 408
$T20 = 416
$T21 = 424
$T22 = 432
$T23 = 440
tv365 = 448
tv361 = 448
tv338 = 448
tv272 = 448
tv211 = 448
tv197 = 448
tv150 = 448
tv135 = 448
tv322 = 456
tv298 = 456
__$ArrayPad$ = 464
this$ = 496
pcurrentScene$ = 504
?dtor$2@?0???0MainMenuScene@Scene@Application@@QEAA@AEAPEAV112@@Z@4HA PROC ; `Application::Scene::MainMenuScene::MainMenuScene'::`1'::dtor$2
	push	rbp
	sub	rsp, 32					; 00000020H
	lea	rbp, QWORD PTR [rdx+64]
	mov	edx, 4
	mov	rcx, QWORD PTR $T2[rbp]
	call	??3@YAXPEAX_K@Z				; operator delete
	add	rsp, 32					; 00000020H
	pop	rbp
	ret	0
?dtor$2@?0???0MainMenuScene@Scene@Application@@QEAA@AEAPEAV112@@Z@4HA ENDP ; `Application::Scene::MainMenuScene::MainMenuScene'::`1'::dtor$2
text$x	ENDS
; Function compile flags: /Odtp /RTCu /ZI
;	COMDAT text$x
text$x	SEGMENT
vertexData$ = 0
indices$ = 80
$T1 = 168
$T2 = 176
$T3 = 184
$T4 = 192
$T5 = 200
$T6 = 208
$T7 = 216
$T8 = 224
$T9 = 232
$T10 = 240
$T11 = 248
$T12 = 288
$T13 = 296
$T14 = 304
$T15 = 344
$T16 = 352
$T17 = 360
$T18 = 368
$T19 = 408
$T20 = 416
$T21 = 424
$T22 = 432
$T23 = 440
tv365 = 448
tv361 = 448
tv338 = 448
tv272 = 448
tv211 = 448
tv197 = 448
tv150 = 448
tv135 = 448
tv322 = 456
tv298 = 456
__$ArrayPad$ = 464
this$ = 496
pcurrentScene$ = 504
?dtor$3@?0???0MainMenuScene@Scene@Application@@QEAA@AEAPEAV112@@Z@4HA PROC ; `Application::Scene::MainMenuScene::MainMenuScene'::`1'::dtor$3
	push	rbp
	sub	rsp, 32					; 00000020H
	lea	rbp, QWORD PTR [rdx+64]
	mov	edx, 4
	mov	rcx, QWORD PTR $T4[rbp]
	call	??3@YAXPEAX_K@Z				; operator delete
	add	rsp, 32					; 00000020H
	pop	rbp
	ret	0
?dtor$3@?0???0MainMenuScene@Scene@Application@@QEAA@AEAPEAV112@@Z@4HA ENDP ; `Application::Scene::MainMenuScene::MainMenuScene'::`1'::dtor$3
text$x	ENDS
; Function compile flags: /Odtp /RTCu /ZI
;	COMDAT text$x
text$x	SEGMENT
vertexData$ = 0
indices$ = 80
$T1 = 168
$T2 = 176
$T3 = 184
$T4 = 192
$T5 = 200
$T6 = 208
$T7 = 216
$T8 = 224
$T9 = 232
$T10 = 240
$T11 = 248
$T12 = 288
$T13 = 296
$T14 = 304
$T15 = 344
$T16 = 352
$T17 = 360
$T18 = 368
$T19 = 408
$T20 = 416
$T21 = 424
$T22 = 432
$T23 = 440
tv365 = 448
tv361 = 448
tv338 = 448
tv272 = 448
tv211 = 448
tv197 = 448
tv150 = 448
tv135 = 448
tv322 = 456
tv298 = 456
__$ArrayPad$ = 464
this$ = 496
pcurrentScene$ = 504
?dtor$4@?0???0MainMenuScene@Scene@Application@@QEAA@AEAPEAV112@@Z@4HA PROC ; `Application::Scene::MainMenuScene::MainMenuScene'::`1'::dtor$4
	push	rbp
	sub	rsp, 32					; 00000020H
	lea	rbp, QWORD PTR [rdx+64]
	mov	edx, 8
	mov	rcx, QWORD PTR $T6[rbp]
	call	??3@YAXPEAX_K@Z				; operator delete
	add	rsp, 32					; 00000020H
	pop	rbp
	ret	0
?dtor$4@?0???0MainMenuScene@Scene@Application@@QEAA@AEAPEAV112@@Z@4HA ENDP ; `Application::Scene::MainMenuScene::MainMenuScene'::`1'::dtor$4
text$x	ENDS
; Function compile flags: /Odtp /RTCu /ZI
;	COMDAT text$x
text$x	SEGMENT
vertexData$ = 0
indices$ = 80
$T1 = 168
$T2 = 176
$T3 = 184
$T4 = 192
$T5 = 200
$T6 = 208
$T7 = 216
$T8 = 224
$T9 = 232
$T10 = 240
$T11 = 248
$T12 = 288
$T13 = 296
$T14 = 304
$T15 = 344
$T16 = 352
$T17 = 360
$T18 = 368
$T19 = 408
$T20 = 416
$T21 = 424
$T22 = 432
$T23 = 440
tv365 = 448
tv361 = 448
tv338 = 448
tv272 = 448
tv211 = 448
tv197 = 448
tv150 = 448
tv135 = 448
tv322 = 456
tv298 = 456
__$ArrayPad$ = 464
this$ = 496
pcurrentScene$ = 504
?dtor$5@?0???0MainMenuScene@Scene@Application@@QEAA@AEAPEAV112@@Z@4HA PROC ; `Application::Scene::MainMenuScene::MainMenuScene'::`1'::dtor$5
	push	rbp
	sub	rsp, 32					; 00000020H
	lea	rbp, QWORD PTR [rdx+64]
	mov	edx, 40					; 00000028H
	mov	rcx, QWORD PTR $T8[rbp]
	call	??3@YAXPEAX_K@Z				; operator delete
	add	rsp, 32					; 00000020H
	pop	rbp
	ret	0
?dtor$5@?0???0MainMenuScene@Scene@Application@@QEAA@AEAPEAV112@@Z@4HA ENDP ; `Application::Scene::MainMenuScene::MainMenuScene'::`1'::dtor$5
text$x	ENDS
; Function compile flags: /Odtp /RTCu /ZI
;	COMDAT text$x
text$x	SEGMENT
vertexData$ = 0
indices$ = 80
$T1 = 168
$T2 = 176
$T3 = 184
$T4 = 192
$T5 = 200
$T6 = 208
$T7 = 216
$T8 = 224
$T9 = 232
$T10 = 240
$T11 = 248
$T12 = 288
$T13 = 296
$T14 = 304
$T15 = 344
$T16 = 352
$T17 = 360
$T18 = 368
$T19 = 408
$T20 = 416
$T21 = 424
$T22 = 432
$T23 = 440
tv365 = 448
tv361 = 448
tv338 = 448
tv272 = 448
tv211 = 448
tv197 = 448
tv150 = 448
tv135 = 448
tv322 = 456
tv298 = 456
__$ArrayPad$ = 464
this$ = 496
pcurrentScene$ = 504
?dtor$6@?0???0MainMenuScene@Scene@Application@@QEAA@AEAPEAV112@@Z@4HA PROC ; `Application::Scene::MainMenuScene::MainMenuScene'::`1'::dtor$6
	push	rbp
	sub	rsp, 32					; 00000020H
	lea	rbp, QWORD PTR [rdx+64]
	mov	edx, 4
	mov	rcx, QWORD PTR $T10[rbp]
	call	??3@YAXPEAX_K@Z				; operator delete
	add	rsp, 32					; 00000020H
	pop	rbp
	ret	0
?dtor$6@?0???0MainMenuScene@Scene@Application@@QEAA@AEAPEAV112@@Z@4HA ENDP ; `Application::Scene::MainMenuScene::MainMenuScene'::`1'::dtor$6
text$x	ENDS
; Function compile flags: /Odtp /RTCu /ZI
;	COMDAT text$x
text$x	SEGMENT
vertexData$ = 0
indices$ = 80
$T1 = 168
$T2 = 176
$T3 = 184
$T4 = 192
$T5 = 200
$T6 = 208
$T7 = 216
$T8 = 224
$T9 = 232
$T10 = 240
$T11 = 248
$T12 = 288
$T13 = 296
$T14 = 304
$T15 = 344
$T16 = 352
$T17 = 360
$T18 = 368
$T19 = 408
$T20 = 416
$T21 = 424
$T22 = 432
$T23 = 440
tv365 = 448
tv361 = 448
tv338 = 448
tv272 = 448
tv211 = 448
tv197 = 448
tv150 = 448
tv135 = 448
tv322 = 456
tv298 = 456
__$ArrayPad$ = 464
this$ = 496
pcurrentScene$ = 504
?dtor$7@?0???0MainMenuScene@Scene@Application@@QEAA@AEAPEAV112@@Z@4HA PROC ; `Application::Scene::MainMenuScene::MainMenuScene'::`1'::dtor$7
	push	rbp
	sub	rsp, 32					; 00000020H
	lea	rbp, QWORD PTR [rdx+64]
	mov	eax, DWORD PTR $T22[rbp]
	and	eax, 1
	test	eax, eax
	je	SHORT $LN27@dtor$7
	and	DWORD PTR $T22[rbp], -2
	lea	rcx, QWORD PTR $T11[rbp]
	call	??1?$basic_string@DU?$char_traits@D@std@@V?$allocator@D@2@@std@@QEAA@XZ ; std::basic_string<char,std::char_traits<char>,std::allocator<char> >::~basic_string<char,std::char_traits<char>,std::allocator<char> >
$LN27@dtor$7:
	add	rsp, 32					; 00000020H
	pop	rbp
	ret	0
?dtor$7@?0???0MainMenuScene@Scene@Application@@QEAA@AEAPEAV112@@Z@4HA ENDP ; `Application::Scene::MainMenuScene::MainMenuScene'::`1'::dtor$7
text$x	ENDS
; Function compile flags: /Odtp /RTCu /ZI
;	COMDAT text$x
text$x	SEGMENT
vertexData$ = 0
indices$ = 80
$T1 = 168
$T2 = 176
$T3 = 184
$T4 = 192
$T5 = 200
$T6 = 208
$T7 = 216
$T8 = 224
$T9 = 232
$T10 = 240
$T11 = 248
$T12 = 288
$T13 = 296
$T14 = 304
$T15 = 344
$T16 = 352
$T17 = 360
$T18 = 368
$T19 = 408
$T20 = 416
$T21 = 424
$T22 = 432
$T23 = 440
tv365 = 448
tv361 = 448
tv338 = 448
tv272 = 448
tv211 = 448
tv197 = 448
tv150 = 448
tv135 = 448
tv322 = 456
tv298 = 456
__$ArrayPad$ = 464
this$ = 496
pcurrentScene$ = 504
?dtor$8@?0???0MainMenuScene@Scene@Application@@QEAA@AEAPEAV112@@Z@4HA PROC ; `Application::Scene::MainMenuScene::MainMenuScene'::`1'::dtor$8
	push	rbp
	sub	rsp, 32					; 00000020H
	lea	rbp, QWORD PTR [rdx+64]
	mov	edx, 72					; 00000048H
	mov	rcx, QWORD PTR $T13[rbp]
	call	??3@YAXPEAX_K@Z				; operator delete
	add	rsp, 32					; 00000020H
	pop	rbp
	ret	0
?dtor$8@?0???0MainMenuScene@Scene@Application@@QEAA@AEAPEAV112@@Z@4HA ENDP ; `Application::Scene::MainMenuScene::MainMenuScene'::`1'::dtor$8
text$x	ENDS
; Function compile flags: /Odtp /RTCu /ZI
;	COMDAT text$x
text$x	SEGMENT
vertexData$ = 0
indices$ = 80
$T1 = 168
$T2 = 176
$T3 = 184
$T4 = 192
$T5 = 200
$T6 = 208
$T7 = 216
$T8 = 224
$T9 = 232
$T10 = 240
$T11 = 248
$T12 = 288
$T13 = 296
$T14 = 304
$T15 = 344
$T16 = 352
$T17 = 360
$T18 = 368
$T19 = 408
$T20 = 416
$T21 = 424
$T22 = 432
$T23 = 440
tv365 = 448
tv361 = 448
tv338 = 448
tv272 = 448
tv211 = 448
tv197 = 448
tv150 = 448
tv135 = 448
tv322 = 456
tv298 = 456
__$ArrayPad$ = 464
this$ = 496
pcurrentScene$ = 504
?dtor$10@?0???0MainMenuScene@Scene@Application@@QEAA@AEAPEAV112@@Z@4HA PROC ; `Application::Scene::MainMenuScene::MainMenuScene'::`1'::dtor$10
	push	rbp
	sub	rsp, 32					; 00000020H
	lea	rbp, QWORD PTR [rdx+64]
	mov	edx, 72					; 00000048H
	mov	rcx, QWORD PTR $T17[rbp]
	call	??3@YAXPEAX_K@Z				; operator delete
	add	rsp, 32					; 00000020H
	pop	rbp
	ret	0
?dtor$10@?0???0MainMenuScene@Scene@Application@@QEAA@AEAPEAV112@@Z@4HA ENDP ; `Application::Scene::MainMenuScene::MainMenuScene'::`1'::dtor$10
text$x	ENDS
; Function compile flags: /Odtp /RTCu /ZI
;	COMDAT text$x
text$x	SEGMENT
vertexData$ = 0
indices$ = 80
$T1 = 168
$T2 = 176
$T3 = 184
$T4 = 192
$T5 = 200
$T6 = 208
$T7 = 216
$T8 = 224
$T9 = 232
$T10 = 240
$T11 = 248
$T12 = 288
$T13 = 296
$T14 = 304
$T15 = 344
$T16 = 352
$T17 = 360
$T18 = 368
$T19 = 408
$T20 = 416
$T21 = 424
$T22 = 432
$T23 = 440
tv365 = 448
tv361 = 448
tv338 = 448
tv272 = 448
tv211 = 448
tv197 = 448
tv150 = 448
tv135 = 448
tv322 = 456
tv298 = 456
__$ArrayPad$ = 464
this$ = 496
pcurrentScene$ = 504
?dtor$12@?0???0MainMenuScene@Scene@Application@@QEAA@AEAPEAV112@@Z@4HA PROC ; `Application::Scene::MainMenuScene::MainMenuScene'::`1'::dtor$12
	push	rbp
	sub	rsp, 32					; 00000020H
	lea	rbp, QWORD PTR [rdx+64]
	mov	edx, 64					; 00000040H
	mov	rcx, QWORD PTR $T21[rbp]
	call	??3@YAXPEAX_K@Z				; operator delete
	add	rsp, 32					; 00000020H
	pop	rbp
	ret	0
?dtor$12@?0???0MainMenuScene@Scene@Application@@QEAA@AEAPEAV112@@Z@4HA ENDP ; `Application::Scene::MainMenuScene::MainMenuScene'::`1'::dtor$12
text$x	ENDS
; Function compile flags: /Odtp /RTCu /ZI
; File c:\program files (x86)\microsoft visual studio\2017\enterprise\vc\tools\msvc\14.14.26428\include\vector
;	COMDAT ?_Tidy@?$vector@U?$pair@PEBDV?$function@$$A6APEAVScene@1Application@@XZ@std@@@std@@V?$allocator@U?$pair@PEBDV?$function@$$A6APEAVScene@1Application@@XZ@std@@@std@@@2@@std@@AEAAXXZ
_TEXT	SEGMENT
tv131 = 64
tv82 = 64
tv138 = 72
this$ = 96
?_Tidy@?$vector@U?$pair@PEBDV?$function@$$A6APEAVScene@1Application@@XZ@std@@@std@@V?$allocator@U?$pair@PEBDV?$function@$$A6APEAVScene@1Application@@XZ@std@@@std@@@2@@std@@AEAAXXZ PROC ; std::vector<std::pair<char const *,std::function<Application::Scene::Scene * __cdecl(void)> >,std::allocator<std::pair<char const *,std::function<Application::Scene::Scene * __cdecl(void)> > > >::_Tidy, COMDAT

; 2009 : 		{	// free all storage

$LN4:
	mov	QWORD PTR [rsp+8], rcx
	push	rbp
	sub	rsp, 112				; 00000070H
	lea	rbp, QWORD PTR [rsp+32]

; 2010 : 		this->_Orphan_all();

	mov	rcx, QWORD PTR this$[rbp]
	call	?_Orphan_all@?$_Vector_alloc@U?$_Vec_base_types@U?$pair@PEBDV?$function@$$A6APEAVScene@1Application@@XZ@std@@@std@@V?$allocator@U?$pair@PEBDV?$function@$$A6APEAVScene@1Application@@XZ@std@@@std@@@2@@std@@@std@@QEAAXXZ ; std::_Vector_alloc<std::_Vec_base_types<std::pair<char const *,std::function<Application::Scene::Scene * __cdecl(void)> >,std::allocator<std::pair<char const *,std::function<Application::Scene::Scene * __cdecl(void)> > > > >::_Orphan_all

; 2011 : 
; 2012 : 		if (this->_Myfirst() != pointer())

	mov	rcx, QWORD PTR this$[rbp]
	call	?_Myfirst@?$_Vector_alloc@U?$_Vec_base_types@U?$pair@PEBDV?$function@$$A6APEAVScene@1Application@@XZ@std@@@std@@V?$allocator@U?$pair@PEBDV?$function@$$A6APEAVScene@1Application@@XZ@std@@@std@@@2@@std@@@std@@QEAAAEAPEAU?$pair@PEBDV?$function@$$A6APEAVScene@1Application@@XZ@std@@@2@XZ ; std::_Vector_alloc<std::_Vec_base_types<std::pair<char const *,std::function<Application::Scene::Scene * __cdecl(void)> >,std::allocator<std::pair<char const *,std::function<Application::Scene::Scene * __cdecl(void)> > > > >::_Myfirst
	cmp	QWORD PTR [rax], 0
	je	$LN2@Tidy

; 2013 : 			{	// destroy and deallocate old array
; 2014 : 			_Destroy(this->_Myfirst(), this->_Mylast());

	mov	rcx, QWORD PTR this$[rbp]
	call	?_Mylast@?$_Vector_alloc@U?$_Vec_base_types@U?$pair@PEBDV?$function@$$A6APEAVScene@1Application@@XZ@std@@@std@@V?$allocator@U?$pair@PEBDV?$function@$$A6APEAVScene@1Application@@XZ@std@@@std@@@2@@std@@@std@@QEAAAEAPEAU?$pair@PEBDV?$function@$$A6APEAVScene@1Application@@XZ@std@@@2@XZ ; std::_Vector_alloc<std::_Vec_base_types<std::pair<char const *,std::function<Application::Scene::Scene * __cdecl(void)> >,std::allocator<std::pair<char const *,std::function<Application::Scene::Scene * __cdecl(void)> > > > >::_Mylast
	mov	QWORD PTR tv82[rbp], rax
	mov	rcx, QWORD PTR this$[rbp]
	call	?_Myfirst@?$_Vector_alloc@U?$_Vec_base_types@U?$pair@PEBDV?$function@$$A6APEAVScene@1Application@@XZ@std@@@std@@V?$allocator@U?$pair@PEBDV?$function@$$A6APEAVScene@1Application@@XZ@std@@@std@@@2@@std@@@std@@QEAAAEAPEAU?$pair@PEBDV?$function@$$A6APEAVScene@1Application@@XZ@std@@@2@XZ ; std::_Vector_alloc<std::_Vec_base_types<std::pair<char const *,std::function<Application::Scene::Scene * __cdecl(void)> >,std::allocator<std::pair<char const *,std::function<Application::Scene::Scene * __cdecl(void)> > > > >::_Myfirst
	mov	rcx, QWORD PTR tv82[rbp]
	mov	r8, QWORD PTR [rcx]
	mov	rdx, QWORD PTR [rax]
	mov	rcx, QWORD PTR this$[rbp]
	call	?_Destroy@?$vector@U?$pair@PEBDV?$function@$$A6APEAVScene@1Application@@XZ@std@@@std@@V?$allocator@U?$pair@PEBDV?$function@$$A6APEAVScene@1Application@@XZ@std@@@std@@@2@@std@@AEAAXPEAU?$pair@PEBDV?$function@$$A6APEAVScene@1Application@@XZ@std@@@2@0@Z ; std::vector<std::pair<char const *,std::function<Application::Scene::Scene * __cdecl(void)> >,std::allocator<std::pair<char const *,std::function<Application::Scene::Scene * __cdecl(void)> > > >::_Destroy

; 2015 : 			this->_Getal().deallocate(this->_Myfirst(), capacity());

	mov	rcx, QWORD PTR this$[rbp]
	call	?capacity@?$vector@U?$pair@PEBDV?$function@$$A6APEAVScene@1Application@@XZ@std@@@std@@V?$allocator@U?$pair@PEBDV?$function@$$A6APEAVScene@1Application@@XZ@std@@@std@@@2@@std@@QEBA_KXZ ; std::vector<std::pair<char const *,std::function<Application::Scene::Scene * __cdecl(void)> >,std::allocator<std::pair<char const *,std::function<Application::Scene::Scene * __cdecl(void)> > > >::capacity
	mov	QWORD PTR tv131[rbp], rax
	mov	rcx, QWORD PTR this$[rbp]
	call	?_Myfirst@?$_Vector_alloc@U?$_Vec_base_types@U?$pair@PEBDV?$function@$$A6APEAVScene@1Application@@XZ@std@@@std@@V?$allocator@U?$pair@PEBDV?$function@$$A6APEAVScene@1Application@@XZ@std@@@std@@@2@@std@@@std@@QEAAAEAPEAU?$pair@PEBDV?$function@$$A6APEAVScene@1Application@@XZ@std@@@2@XZ ; std::_Vector_alloc<std::_Vec_base_types<std::pair<char const *,std::function<Application::Scene::Scene * __cdecl(void)> >,std::allocator<std::pair<char const *,std::function<Application::Scene::Scene * __cdecl(void)> > > > >::_Myfirst
	mov	QWORD PTR tv138[rbp], rax
	mov	rcx, QWORD PTR this$[rbp]
	call	?_Getal@?$_Vector_alloc@U?$_Vec_base_types@U?$pair@PEBDV?$function@$$A6APEAVScene@1Application@@XZ@std@@@std@@V?$allocator@U?$pair@PEBDV?$function@$$A6APEAVScene@1Application@@XZ@std@@@std@@@2@@std@@@std@@QEAAAEAV?$allocator@U?$pair@PEBDV?$function@$$A6APEAVScene@1Application@@XZ@std@@@std@@@2@XZ ; std::_Vector_alloc<std::_Vec_base_types<std::pair<char const *,std::function<Application::Scene::Scene * __cdecl(void)> >,std::allocator<std::pair<char const *,std::function<Application::Scene::Scene * __cdecl(void)> > > > >::_Getal
	mov	rcx, QWORD PTR tv131[rbp]
	mov	r8, rcx
	mov	rcx, QWORD PTR tv138[rbp]
	mov	rdx, QWORD PTR [rcx]
	mov	rcx, rax
	call	?deallocate@?$allocator@U?$pair@PEBDV?$function@$$A6APEAVScene@1Application@@XZ@std@@@std@@@std@@QEAAXQEAU?$pair@PEBDV?$function@$$A6APEAVScene@1Application@@XZ@std@@@2@_K@Z ; std::allocator<std::pair<char const *,std::function<Application::Scene::Scene * __cdecl(void)> > >::deallocate

; 2016 : 
; 2017 : 			this->_Myfirst() = pointer();

	mov	rcx, QWORD PTR this$[rbp]
	call	?_Myfirst@?$_Vector_alloc@U?$_Vec_base_types@U?$pair@PEBDV?$function@$$A6APEAVScene@1Application@@XZ@std@@@std@@V?$allocator@U?$pair@PEBDV?$function@$$A6APEAVScene@1Application@@XZ@std@@@std@@@2@@std@@@std@@QEAAAEAPEAU?$pair@PEBDV?$function@$$A6APEAVScene@1Application@@XZ@std@@@2@XZ ; std::_Vector_alloc<std::_Vec_base_types<std::pair<char const *,std::function<Application::Scene::Scene * __cdecl(void)> >,std::allocator<std::pair<char const *,std::function<Application::Scene::Scene * __cdecl(void)> > > > >::_Myfirst
	mov	QWORD PTR [rax], 0

; 2018 : 			this->_Mylast() = pointer();

	mov	rcx, QWORD PTR this$[rbp]
	call	?_Mylast@?$_Vector_alloc@U?$_Vec_base_types@U?$pair@PEBDV?$function@$$A6APEAVScene@1Application@@XZ@std@@@std@@V?$allocator@U?$pair@PEBDV?$function@$$A6APEAVScene@1Application@@XZ@std@@@std@@@2@@std@@@std@@QEAAAEAPEAU?$pair@PEBDV?$function@$$A6APEAVScene@1Application@@XZ@std@@@2@XZ ; std::_Vector_alloc<std::_Vec_base_types<std::pair<char const *,std::function<Application::Scene::Scene * __cdecl(void)> >,std::allocator<std::pair<char const *,std::function<Application::Scene::Scene * __cdecl(void)> > > > >::_Mylast
	mov	QWORD PTR [rax], 0

; 2019 : 			this->_Myend() = pointer();

	mov	rcx, QWORD PTR this$[rbp]
	call	?_Myend@?$_Vector_alloc@U?$_Vec_base_types@U?$pair@PEBDV?$function@$$A6APEAVScene@1Application@@XZ@std@@@std@@V?$allocator@U?$pair@PEBDV?$function@$$A6APEAVScene@1Application@@XZ@std@@@std@@@2@@std@@@std@@QEAAAEAPEAU?$pair@PEBDV?$function@$$A6APEAVScene@1Application@@XZ@std@@@2@XZ ; std::_Vector_alloc<std::_Vec_base_types<std::pair<char const *,std::function<Application::Scene::Scene * __cdecl(void)> >,std::allocator<std::pair<char const *,std::function<Application::Scene::Scene * __cdecl(void)> > > > >::_Myend
	mov	QWORD PTR [rax], 0
$LN2@Tidy:

; 2020 : 			}
; 2021 : 		}

	lea	rsp, QWORD PTR [rbp+80]
	pop	rbp
	ret	0
?_Tidy@?$vector@U?$pair@PEBDV?$function@$$A6APEAVScene@1Application@@XZ@std@@@std@@V?$allocator@U?$pair@PEBDV?$function@$$A6APEAVScene@1Application@@XZ@std@@@std@@@2@@std@@AEAAXXZ ENDP ; std::vector<std::pair<char const *,std::function<Application::Scene::Scene * __cdecl(void)> >,std::allocator<std::pair<char const *,std::function<Application::Scene::Scene * __cdecl(void)> > > >::_Tidy
_TEXT	ENDS
; Function compile flags: /Odtp /RTCu /ZI
; File c:\program files (x86)\microsoft visual studio\2017\enterprise\vc\tools\msvc\14.14.26428\include\vector
;	COMDAT ?_Destroy@?$vector@U?$pair@PEBDV?$function@$$A6APEAVScene@1Application@@XZ@std@@@std@@V?$allocator@U?$pair@PEBDV?$function@$$A6APEAVScene@1Application@@XZ@std@@@std@@@2@@std@@AEAAXPEAU?$pair@PEBDV?$function@$$A6APEAVScene@1Application@@XZ@std@@@2@0@Z
_TEXT	SEGMENT
this$ = 80
_First$ = 88
_Last$ = 96
?_Destroy@?$vector@U?$pair@PEBDV?$function@$$A6APEAVScene@1Application@@XZ@std@@@std@@V?$allocator@U?$pair@PEBDV?$function@$$A6APEAVScene@1Application@@XZ@std@@@std@@@2@@std@@AEAAXPEAU?$pair@PEBDV?$function@$$A6APEAVScene@1Application@@XZ@std@@@2@0@Z PROC ; std::vector<std::pair<char const *,std::function<Application::Scene::Scene * __cdecl(void)> >,std::allocator<std::pair<char const *,std::function<Application::Scene::Scene * __cdecl(void)> > > >::_Destroy, COMDAT

; 1947 : 		{	// destroy [_First, _Last) using allocator

$LN3:
	mov	QWORD PTR [rsp+24], r8
	mov	QWORD PTR [rsp+16], rdx
	mov	QWORD PTR [rsp+8], rcx
	push	rbp
	sub	rsp, 96					; 00000060H
	lea	rbp, QWORD PTR [rsp+32]

; 1948 : 		_Destroy_range(_First, _Last, this->_Getal());

	mov	rcx, QWORD PTR this$[rbp]
	call	?_Getal@?$_Vector_alloc@U?$_Vec_base_types@U?$pair@PEBDV?$function@$$A6APEAVScene@1Application@@XZ@std@@@std@@V?$allocator@U?$pair@PEBDV?$function@$$A6APEAVScene@1Application@@XZ@std@@@std@@@2@@std@@@std@@QEAAAEAV?$allocator@U?$pair@PEBDV?$function@$$A6APEAVScene@1Application@@XZ@std@@@std@@@2@XZ ; std::_Vector_alloc<std::_Vec_base_types<std::pair<char const *,std::function<Application::Scene::Scene * __cdecl(void)> >,std::allocator<std::pair<char const *,std::function<Application::Scene::Scene * __cdecl(void)> > > > >::_Getal
	mov	r8, rax
	mov	rdx, QWORD PTR _Last$[rbp]
	mov	rcx, QWORD PTR _First$[rbp]
	call	??$_Destroy_range@V?$allocator@U?$pair@PEBDV?$function@$$A6APEAVScene@1Application@@XZ@std@@@std@@@std@@@std@@YAXPEAU?$pair@PEBDV?$function@$$A6APEAVScene@1Application@@XZ@std@@@0@0AEAV?$allocator@U?$pair@PEBDV?$function@$$A6APEAVScene@1Application@@XZ@std@@@std@@@0@@Z ; std::_Destroy_range<std::allocator<std::pair<char const *,std::function<Application::Scene::Scene * __cdecl(void)> > > >

; 1949 : 		}

	lea	rsp, QWORD PTR [rbp+64]
	pop	rbp
	ret	0
?_Destroy@?$vector@U?$pair@PEBDV?$function@$$A6APEAVScene@1Application@@XZ@std@@@std@@V?$allocator@U?$pair@PEBDV?$function@$$A6APEAVScene@1Application@@XZ@std@@@std@@@2@@std@@AEAAXPEAU?$pair@PEBDV?$function@$$A6APEAVScene@1Application@@XZ@std@@@2@0@Z ENDP ; std::vector<std::pair<char const *,std::function<Application::Scene::Scene * __cdecl(void)> >,std::allocator<std::pair<char const *,std::function<Application::Scene::Scene * __cdecl(void)> > > >::_Destroy
_TEXT	ENDS
; Function compile flags: /Odtp /RTCu /ZI
; File c:\program files (x86)\microsoft visual studio\2017\enterprise\vc\tools\msvc\14.14.26428\include\vector
;	COMDAT ?capacity@?$vector@U?$pair@PEBDV?$function@$$A6APEAVScene@1Application@@XZ@std@@@std@@V?$allocator@U?$pair@PEBDV?$function@$$A6APEAVScene@1Application@@XZ@std@@@std@@@2@@std@@QEBA_KXZ
_TEXT	SEGMENT
tv69 = 64
this$ = 96
?capacity@?$vector@U?$pair@PEBDV?$function@$$A6APEAVScene@1Application@@XZ@std@@@std@@V?$allocator@U?$pair@PEBDV?$function@$$A6APEAVScene@1Application@@XZ@std@@@std@@@2@@std@@QEBA_KXZ PROC ; std::vector<std::pair<char const *,std::function<Application::Scene::Scene * __cdecl(void)> >,std::allocator<std::pair<char const *,std::function<Application::Scene::Scene * __cdecl(void)> > > >::capacity, COMDAT

; 1783 : 		{	// return current length of allocated storage

$LN3:
	mov	QWORD PTR [rsp+8], rcx
	push	rbp
	sub	rsp, 112				; 00000070H
	lea	rbp, QWORD PTR [rsp+32]

; 1784 : 		return (static_cast<size_type>(this->_Myend() - this->_Myfirst()));

	mov	rcx, QWORD PTR this$[rbp]
	call	?_Myend@?$_Vector_alloc@U?$_Vec_base_types@U?$pair@PEBDV?$function@$$A6APEAVScene@1Application@@XZ@std@@@std@@V?$allocator@U?$pair@PEBDV?$function@$$A6APEAVScene@1Application@@XZ@std@@@std@@@2@@std@@@std@@QEBAAEBQEAU?$pair@PEBDV?$function@$$A6APEAVScene@1Application@@XZ@std@@@2@XZ ; std::_Vector_alloc<std::_Vec_base_types<std::pair<char const *,std::function<Application::Scene::Scene * __cdecl(void)> >,std::allocator<std::pair<char const *,std::function<Application::Scene::Scene * __cdecl(void)> > > > >::_Myend
	mov	QWORD PTR tv69[rbp], rax
	mov	rcx, QWORD PTR this$[rbp]
	call	?_Myfirst@?$_Vector_alloc@U?$_Vec_base_types@U?$pair@PEBDV?$function@$$A6APEAVScene@1Application@@XZ@std@@@std@@V?$allocator@U?$pair@PEBDV?$function@$$A6APEAVScene@1Application@@XZ@std@@@std@@@2@@std@@@std@@QEBAAEBQEAU?$pair@PEBDV?$function@$$A6APEAVScene@1Application@@XZ@std@@@2@XZ ; std::_Vector_alloc<std::_Vec_base_types<std::pair<char const *,std::function<Application::Scene::Scene * __cdecl(void)> >,std::allocator<std::pair<char const *,std::function<Application::Scene::Scene * __cdecl(void)> > > > >::_Myfirst
	mov	rax, QWORD PTR [rax]
	mov	rcx, QWORD PTR tv69[rbp]
	mov	rcx, QWORD PTR [rcx]
	sub	rcx, rax
	mov	rax, rcx
	cdq
	mov	ecx, 72					; 00000048H
	idiv	rcx

; 1785 : 		}

	lea	rsp, QWORD PTR [rbp+80]
	pop	rbp
	ret	0
?capacity@?$vector@U?$pair@PEBDV?$function@$$A6APEAVScene@1Application@@XZ@std@@@std@@V?$allocator@U?$pair@PEBDV?$function@$$A6APEAVScene@1Application@@XZ@std@@@std@@@2@@std@@QEBA_KXZ ENDP ; std::vector<std::pair<char const *,std::function<Application::Scene::Scene * __cdecl(void)> >,std::allocator<std::pair<char const *,std::function<Application::Scene::Scene * __cdecl(void)> > > >::capacity
_TEXT	ENDS
; Function compile flags: /Odtp /RTCu /ZI
; File c:\program files (x86)\microsoft visual studio\2017\enterprise\vc\tools\msvc\14.14.26428\include\vector
;	COMDAT ?_Unchecked_end@?$vector@U?$pair@PEBDV?$function@$$A6APEAVScene@1Application@@XZ@std@@@std@@V?$allocator@U?$pair@PEBDV?$function@$$A6APEAVScene@1Application@@XZ@std@@@std@@@2@@std@@QEAAPEAU?$pair@PEBDV?$function@$$A6APEAVScene@1Application@@XZ@std@@@2@XZ
_TEXT	SEGMENT
this$ = 80
?_Unchecked_end@?$vector@U?$pair@PEBDV?$function@$$A6APEAVScene@1Application@@XZ@std@@@std@@V?$allocator@U?$pair@PEBDV?$function@$$A6APEAVScene@1Application@@XZ@std@@@std@@@2@@std@@QEAAPEAU?$pair@PEBDV?$function@$$A6APEAVScene@1Application@@XZ@std@@@2@XZ PROC ; std::vector<std::pair<char const *,std::function<Application::Scene::Scene * __cdecl(void)> >,std::allocator<std::pair<char const *,std::function<Application::Scene::Scene * __cdecl(void)> > > >::_Unchecked_end, COMDAT

; 1757 : 		{	// return pointer for end of mutable sequence

$LN3:
	mov	QWORD PTR [rsp+8], rcx
	push	rbp
	sub	rsp, 96					; 00000060H
	lea	rbp, QWORD PTR [rsp+32]

; 1758 : 		return (this->_Mylast());

	mov	rcx, QWORD PTR this$[rbp]
	call	?_Mylast@?$_Vector_alloc@U?$_Vec_base_types@U?$pair@PEBDV?$function@$$A6APEAVScene@1Application@@XZ@std@@@std@@V?$allocator@U?$pair@PEBDV?$function@$$A6APEAVScene@1Application@@XZ@std@@@std@@@2@@std@@@std@@QEAAAEAPEAU?$pair@PEBDV?$function@$$A6APEAVScene@1Application@@XZ@std@@@2@XZ ; std::_Vector_alloc<std::_Vec_base_types<std::pair<char const *,std::function<Application::Scene::Scene * __cdecl(void)> >,std::allocator<std::pair<char const *,std::function<Application::Scene::Scene * __cdecl(void)> > > > >::_Mylast
	mov	rax, QWORD PTR [rax]

; 1759 : 		}

	lea	rsp, QWORD PTR [rbp+64]
	pop	rbp
	ret	0
?_Unchecked_end@?$vector@U?$pair@PEBDV?$function@$$A6APEAVScene@1Application@@XZ@std@@@std@@V?$allocator@U?$pair@PEBDV?$function@$$A6APEAVScene@1Application@@XZ@std@@@std@@@2@@std@@QEAAPEAU?$pair@PEBDV?$function@$$A6APEAVScene@1Application@@XZ@std@@@2@XZ ENDP ; std::vector<std::pair<char const *,std::function<Application::Scene::Scene * __cdecl(void)> >,std::allocator<std::pair<char const *,std::function<Application::Scene::Scene * __cdecl(void)> > > >::_Unchecked_end
_TEXT	ENDS
; Function compile flags: /Odtp /RTCu /ZI
; File c:\program files (x86)\microsoft visual studio\2017\enterprise\vc\tools\msvc\14.14.26428\include\vector
;	COMDAT ?_Unchecked_begin@?$vector@U?$pair@PEBDV?$function@$$A6APEAVScene@1Application@@XZ@std@@@std@@V?$allocator@U?$pair@PEBDV?$function@$$A6APEAVScene@1Application@@XZ@std@@@std@@@2@@std@@QEAAPEAU?$pair@PEBDV?$function@$$A6APEAVScene@1Application@@XZ@std@@@2@XZ
_TEXT	SEGMENT
this$ = 80
?_Unchecked_begin@?$vector@U?$pair@PEBDV?$function@$$A6APEAVScene@1Application@@XZ@std@@@std@@V?$allocator@U?$pair@PEBDV?$function@$$A6APEAVScene@1Application@@XZ@std@@@std@@@2@@std@@QEAAPEAU?$pair@PEBDV?$function@$$A6APEAVScene@1Application@@XZ@std@@@2@XZ PROC ; std::vector<std::pair<char const *,std::function<Application::Scene::Scene * __cdecl(void)> >,std::allocator<std::pair<char const *,std::function<Application::Scene::Scene * __cdecl(void)> > > >::_Unchecked_begin, COMDAT

; 1747 : 		{	// return pointer for beginning of mutable sequence

$LN3:
	mov	QWORD PTR [rsp+8], rcx
	push	rbp
	sub	rsp, 96					; 00000060H
	lea	rbp, QWORD PTR [rsp+32]

; 1748 : 		return (this->_Myfirst());

	mov	rcx, QWORD PTR this$[rbp]
	call	?_Myfirst@?$_Vector_alloc@U?$_Vec_base_types@U?$pair@PEBDV?$function@$$A6APEAVScene@1Application@@XZ@std@@@std@@V?$allocator@U?$pair@PEBDV?$function@$$A6APEAVScene@1Application@@XZ@std@@@std@@@2@@std@@@std@@QEAAAEAPEAU?$pair@PEBDV?$function@$$A6APEAVScene@1Application@@XZ@std@@@2@XZ ; std::_Vector_alloc<std::_Vec_base_types<std::pair<char const *,std::function<Application::Scene::Scene * __cdecl(void)> >,std::allocator<std::pair<char const *,std::function<Application::Scene::Scene * __cdecl(void)> > > > >::_Myfirst
	mov	rax, QWORD PTR [rax]

; 1749 : 		}

	lea	rsp, QWORD PTR [rbp+64]
	pop	rbp
	ret	0
?_Unchecked_begin@?$vector@U?$pair@PEBDV?$function@$$A6APEAVScene@1Application@@XZ@std@@@std@@V?$allocator@U?$pair@PEBDV?$function@$$A6APEAVScene@1Application@@XZ@std@@@std@@@2@@std@@QEAAPEAU?$pair@PEBDV?$function@$$A6APEAVScene@1Application@@XZ@std@@@2@XZ ENDP ; std::vector<std::pair<char const *,std::function<Application::Scene::Scene * __cdecl(void)> >,std::allocator<std::pair<char const *,std::function<Application::Scene::Scene * __cdecl(void)> > > >::_Unchecked_begin
_TEXT	ENDS
; Function compile flags: /Odtp /RTCu /ZI
; File c:\program files (x86)\microsoft visual studio\2017\enterprise\vc\tools\msvc\14.14.26428\include\vector
;	COMDAT ??1?$vector@U?$pair@PEBDV?$function@$$A6APEAVScene@1Application@@XZ@std@@@std@@V?$allocator@U?$pair@PEBDV?$function@$$A6APEAVScene@1Application@@XZ@std@@@std@@@2@@std@@QEAA@XZ
_TEXT	SEGMENT
$T1 = 64
this$ = 96
??1?$vector@U?$pair@PEBDV?$function@$$A6APEAVScene@1Application@@XZ@std@@@std@@V?$allocator@U?$pair@PEBDV?$function@$$A6APEAVScene@1Application@@XZ@std@@@std@@@2@@std@@QEAA@XZ PROC ; std::vector<std::pair<char const *,std::function<Application::Scene::Scene * __cdecl(void)> >,std::allocator<std::pair<char const *,std::function<Application::Scene::Scene * __cdecl(void)> > > >::~vector<std::pair<char const *,std::function<Application::Scene::Scene * __cdecl(void)> >,std::allocator<std::pair<char const *,std::function<Application::Scene::Scene * __cdecl(void)> > > >, COMDAT

; 942  : 		{	// destroy the object

$LN3:
	mov	QWORD PTR [rsp+8], rcx
	push	rbp
	sub	rsp, 112				; 00000070H
	lea	rbp, QWORD PTR [rsp+32]
	mov	QWORD PTR $T1[rbp], -2

; 943  : 		_Tidy();

	mov	rcx, QWORD PTR this$[rbp]
	call	?_Tidy@?$vector@U?$pair@PEBDV?$function@$$A6APEAVScene@1Application@@XZ@std@@@std@@V?$allocator@U?$pair@PEBDV?$function@$$A6APEAVScene@1Application@@XZ@std@@@std@@@2@@std@@AEAAXXZ ; std::vector<std::pair<char const *,std::function<Application::Scene::Scene * __cdecl(void)> >,std::allocator<std::pair<char const *,std::function<Application::Scene::Scene * __cdecl(void)> > > >::_Tidy
	npad	1

; 944  : 		}

	mov	rcx, QWORD PTR this$[rbp]
	call	??1?$_Vector_alloc@U?$_Vec_base_types@U?$pair@PEBDV?$function@$$A6APEAVScene@1Application@@XZ@std@@@std@@V?$allocator@U?$pair@PEBDV?$function@$$A6APEAVScene@1Application@@XZ@std@@@std@@@2@@std@@@std@@QEAA@XZ ; std::_Vector_alloc<std::_Vec_base_types<std::pair<char const *,std::function<Application::Scene::Scene * __cdecl(void)> >,std::allocator<std::pair<char const *,std::function<Application::Scene::Scene * __cdecl(void)> > > > >::~_Vector_alloc<std::_Vec_base_types<std::pair<char const *,std::function<Application::Scene::Scene * __cdecl(void)> >,std::allocator<std::pair<char const *,std::function<Application::Scene::Scene * __cdecl(void)> > > > >
	npad	1
	lea	rsp, QWORD PTR [rbp+80]
	pop	rbp
	ret	0
??1?$vector@U?$pair@PEBDV?$function@$$A6APEAVScene@1Application@@XZ@std@@@std@@V?$allocator@U?$pair@PEBDV?$function@$$A6APEAVScene@1Application@@XZ@std@@@std@@@2@@std@@QEAA@XZ ENDP ; std::vector<std::pair<char const *,std::function<Application::Scene::Scene * __cdecl(void)> >,std::allocator<std::pair<char const *,std::function<Application::Scene::Scene * __cdecl(void)> > > >::~vector<std::pair<char const *,std::function<Application::Scene::Scene * __cdecl(void)> >,std::allocator<std::pair<char const *,std::function<Application::Scene::Scene * __cdecl(void)> > > >
_TEXT	ENDS
; Function compile flags: /Odtp /RTCu /ZI
; File c:\program files (x86)\microsoft visual studio\2017\enterprise\vc\tools\msvc\14.14.26428\include\vector
;	COMDAT ??0?$vector@U?$pair@PEBDV?$function@$$A6APEAVScene@1Application@@XZ@std@@@std@@V?$allocator@U?$pair@PEBDV?$function@$$A6APEAVScene@1Application@@XZ@std@@@std@@@2@@std@@QEAA@XZ
_TEXT	SEGMENT
$T1 = 64
this$ = 96
??0?$vector@U?$pair@PEBDV?$function@$$A6APEAVScene@1Application@@XZ@std@@@std@@V?$allocator@U?$pair@PEBDV?$function@$$A6APEAVScene@1Application@@XZ@std@@@std@@@2@@std@@QEAA@XZ PROC ; std::vector<std::pair<char const *,std::function<Application::Scene::Scene * __cdecl(void)> >,std::allocator<std::pair<char const *,std::function<Application::Scene::Scene * __cdecl(void)> > > >::vector<std::pair<char const *,std::function<Application::Scene::Scene * __cdecl(void)> >,std::allocator<std::pair<char const *,std::function<Application::Scene::Scene * __cdecl(void)> > > >, COMDAT

; 700  : 		{	// construct empty vector

$LN3:
	mov	QWORD PTR [rsp+8], rcx
	push	rbp
	sub	rsp, 112				; 00000070H
	lea	rbp, QWORD PTR [rsp+32]
	mov	QWORD PTR $T1[rbp], -2

; 699  : 		: _Mybase()

	mov	rcx, QWORD PTR this$[rbp]
	call	??0?$_Vector_alloc@U?$_Vec_base_types@U?$pair@PEBDV?$function@$$A6APEAVScene@1Application@@XZ@std@@@std@@V?$allocator@U?$pair@PEBDV?$function@$$A6APEAVScene@1Application@@XZ@std@@@std@@@2@@std@@@std@@QEAA@XZ ; std::_Vector_alloc<std::_Vec_base_types<std::pair<char const *,std::function<Application::Scene::Scene * __cdecl(void)> >,std::allocator<std::pair<char const *,std::function<Application::Scene::Scene * __cdecl(void)> > > > >::_Vector_alloc<std::_Vec_base_types<std::pair<char const *,std::function<Application::Scene::Scene * __cdecl(void)> >,std::allocator<std::pair<char const *,std::function<Application::Scene::Scene * __cdecl(void)> > > > >
	npad	1

; 701  : 		}

	mov	rax, QWORD PTR this$[rbp]
	lea	rsp, QWORD PTR [rbp+80]
	pop	rbp
	ret	0
??0?$vector@U?$pair@PEBDV?$function@$$A6APEAVScene@1Application@@XZ@std@@@std@@V?$allocator@U?$pair@PEBDV?$function@$$A6APEAVScene@1Application@@XZ@std@@@std@@@2@@std@@QEAA@XZ ENDP ; std::vector<std::pair<char const *,std::function<Application::Scene::Scene * __cdecl(void)> >,std::allocator<std::pair<char const *,std::function<Application::Scene::Scene * __cdecl(void)> > > >::vector<std::pair<char const *,std::function<Application::Scene::Scene * __cdecl(void)> >,std::allocator<std::pair<char const *,std::function<Application::Scene::Scene * __cdecl(void)> > > >
_TEXT	ENDS
; Function compile flags: /Odtp /RTCu /ZI
; File c:\program files (x86)\microsoft visual studio\2017\enterprise\vc\tools\msvc\14.14.26428\include\xutility
;	COMDAT ?_Get_second@?$_Compressed_pair@V?$allocator@U?$pair@PEBDV?$function@$$A6APEAVScene@1Application@@XZ@std@@@std@@@std@@V?$_Vector_val@U?$_Simple_types@U?$pair@PEBDV?$function@$$A6APEAVScene@1Application@@XZ@std@@@std@@@std@@@2@$00@std@@QEBAAEBV?$_Vector_val@U?$_Simple_types@U?$pair@PEBDV?$function@$$A6APEAVScene@1Application@@XZ@std@@@std@@@std@@@2@XZ
_TEXT	SEGMENT
this$ = 80
?_Get_second@?$_Compressed_pair@V?$allocator@U?$pair@PEBDV?$function@$$A6APEAVScene@1Application@@XZ@std@@@std@@@std@@V?$_Vector_val@U?$_Simple_types@U?$pair@PEBDV?$function@$$A6APEAVScene@1Application@@XZ@std@@@std@@@std@@@2@$00@std@@QEBAAEBV?$_Vector_val@U?$_Simple_types@U?$pair@PEBDV?$function@$$A6APEAVScene@1Application@@XZ@std@@@std@@@std@@@2@XZ PROC ; std::_Compressed_pair<std::allocator<std::pair<char const *,std::function<Application::Scene::Scene * __cdecl(void)> > >,std::_Vector_val<std::_Simple_types<std::pair<char const *,std::function<Application::Scene::Scene * __cdecl(void)> > > >,1>::_Get_second, COMDAT

; 354  : 		{	// return const reference to second

$LN3:
	mov	QWORD PTR [rsp+8], rcx
	push	rbp
	sub	rsp, 64					; 00000040H
	mov	rbp, rsp

; 355  : 		return (_Myval2);

	mov	rax, QWORD PTR this$[rbp]

; 356  : 		}

	lea	rsp, QWORD PTR [rbp+64]
	pop	rbp
	ret	0
?_Get_second@?$_Compressed_pair@V?$allocator@U?$pair@PEBDV?$function@$$A6APEAVScene@1Application@@XZ@std@@@std@@@std@@V?$_Vector_val@U?$_Simple_types@U?$pair@PEBDV?$function@$$A6APEAVScene@1Application@@XZ@std@@@std@@@std@@@2@$00@std@@QEBAAEBV?$_Vector_val@U?$_Simple_types@U?$pair@PEBDV?$function@$$A6APEAVScene@1Application@@XZ@std@@@std@@@std@@@2@XZ ENDP ; std::_Compressed_pair<std::allocator<std::pair<char const *,std::function<Application::Scene::Scene * __cdecl(void)> > >,std::_Vector_val<std::_Simple_types<std::pair<char const *,std::function<Application::Scene::Scene * __cdecl(void)> > > >,1>::_Get_second
_TEXT	ENDS
; Function compile flags: /Odtp /RTCu /ZI
; File c:\program files (x86)\microsoft visual studio\2017\enterprise\vc\tools\msvc\14.14.26428\include\xutility
;	COMDAT ?_Get_second@?$_Compressed_pair@V?$allocator@U?$pair@PEBDV?$function@$$A6APEAVScene@1Application@@XZ@std@@@std@@@std@@V?$_Vector_val@U?$_Simple_types@U?$pair@PEBDV?$function@$$A6APEAVScene@1Application@@XZ@std@@@std@@@std@@@2@$00@std@@QEAAAEAV?$_Vector_val@U?$_Simple_types@U?$pair@PEBDV?$function@$$A6APEAVScene@1Application@@XZ@std@@@std@@@std@@@2@XZ
_TEXT	SEGMENT
this$ = 80
?_Get_second@?$_Compressed_pair@V?$allocator@U?$pair@PEBDV?$function@$$A6APEAVScene@1Application@@XZ@std@@@std@@@std@@V?$_Vector_val@U?$_Simple_types@U?$pair@PEBDV?$function@$$A6APEAVScene@1Application@@XZ@std@@@std@@@std@@@2@$00@std@@QEAAAEAV?$_Vector_val@U?$_Simple_types@U?$pair@PEBDV?$function@$$A6APEAVScene@1Application@@XZ@std@@@std@@@std@@@2@XZ PROC ; std::_Compressed_pair<std::allocator<std::pair<char const *,std::function<Application::Scene::Scene * __cdecl(void)> > >,std::_Vector_val<std::_Simple_types<std::pair<char const *,std::function<Application::Scene::Scene * __cdecl(void)> > > >,1>::_Get_second, COMDAT

; 349  : 		{	// return reference to second

$LN3:
	mov	QWORD PTR [rsp+8], rcx
	push	rbp
	sub	rsp, 64					; 00000040H
	mov	rbp, rsp

; 350  : 		return (_Myval2);

	mov	rax, QWORD PTR this$[rbp]

; 351  : 		}

	lea	rsp, QWORD PTR [rbp+64]
	pop	rbp
	ret	0
?_Get_second@?$_Compressed_pair@V?$allocator@U?$pair@PEBDV?$function@$$A6APEAVScene@1Application@@XZ@std@@@std@@@std@@V?$_Vector_val@U?$_Simple_types@U?$pair@PEBDV?$function@$$A6APEAVScene@1Application@@XZ@std@@@std@@@std@@@2@$00@std@@QEAAAEAV?$_Vector_val@U?$_Simple_types@U?$pair@PEBDV?$function@$$A6APEAVScene@1Application@@XZ@std@@@std@@@std@@@2@XZ ENDP ; std::_Compressed_pair<std::allocator<std::pair<char const *,std::function<Application::Scene::Scene * __cdecl(void)> > >,std::_Vector_val<std::_Simple_types<std::pair<char const *,std::function<Application::Scene::Scene * __cdecl(void)> > > >,1>::_Get_second
_TEXT	ENDS
; Function compile flags: /Odtp /RTCu /ZI
; File c:\program files (x86)\microsoft visual studio\2017\enterprise\vc\tools\msvc\14.14.26428\include\xutility
;	COMDAT ?_Get_first@?$_Compressed_pair@V?$allocator@U?$pair@PEBDV?$function@$$A6APEAVScene@1Application@@XZ@std@@@std@@@std@@V?$_Vector_val@U?$_Simple_types@U?$pair@PEBDV?$function@$$A6APEAVScene@1Application@@XZ@std@@@std@@@std@@@2@$00@std@@QEAAAEAV?$allocator@U?$pair@PEBDV?$function@$$A6APEAVScene@1Application@@XZ@std@@@std@@@2@XZ
_TEXT	SEGMENT
this$ = 80
?_Get_first@?$_Compressed_pair@V?$allocator@U?$pair@PEBDV?$function@$$A6APEAVScene@1Application@@XZ@std@@@std@@@std@@V?$_Vector_val@U?$_Simple_types@U?$pair@PEBDV?$function@$$A6APEAVScene@1Application@@XZ@std@@@std@@@std@@@2@$00@std@@QEAAAEAV?$allocator@U?$pair@PEBDV?$function@$$A6APEAVScene@1Application@@XZ@std@@@std@@@2@XZ PROC ; std::_Compressed_pair<std::allocator<std::pair<char const *,std::function<Application::Scene::Scene * __cdecl(void)> > >,std::_Vector_val<std::_Simple_types<std::pair<char const *,std::function<Application::Scene::Scene * __cdecl(void)> > > >,1>::_Get_first, COMDAT

; 329  : 		{	// return reference to first

$LN3:
	mov	QWORD PTR [rsp+8], rcx
	push	rbp
	sub	rsp, 64					; 00000040H
	mov	rbp, rsp

; 330  : 		return (*this);

	mov	rax, QWORD PTR this$[rbp]

; 331  : 		}

	lea	rsp, QWORD PTR [rbp+64]
	pop	rbp
	ret	0
?_Get_first@?$_Compressed_pair@V?$allocator@U?$pair@PEBDV?$function@$$A6APEAVScene@1Application@@XZ@std@@@std@@@std@@V?$_Vector_val@U?$_Simple_types@U?$pair@PEBDV?$function@$$A6APEAVScene@1Application@@XZ@std@@@std@@@std@@@2@$00@std@@QEAAAEAV?$allocator@U?$pair@PEBDV?$function@$$A6APEAVScene@1Application@@XZ@std@@@std@@@2@XZ ENDP ; std::_Compressed_pair<std::allocator<std::pair<char const *,std::function<Application::Scene::Scene * __cdecl(void)> > >,std::_Vector_val<std::_Simple_types<std::pair<char const *,std::function<Application::Scene::Scene * __cdecl(void)> > > >,1>::_Get_first
_TEXT	ENDS
; Function compile flags: /Odtp /RTCu /ZI
; File c:\program files (x86)\microsoft visual studio\2017\enterprise\vc\tools\msvc\14.14.26428\include\vector
;	COMDAT ??0?$_Vector_val@U?$_Simple_types@U?$pair@PEBDV?$function@$$A6APEAVScene@1Application@@XZ@std@@@std@@@std@@@std@@QEAA@XZ
_TEXT	SEGMENT
this$ = 80
??0?$_Vector_val@U?$_Simple_types@U?$pair@PEBDV?$function@$$A6APEAVScene@1Application@@XZ@std@@@std@@@std@@@std@@QEAA@XZ PROC ; std::_Vector_val<std::_Simple_types<std::pair<char const *,std::function<Application::Scene::Scene * __cdecl(void)> > > >::_Vector_val<std::_Simple_types<std::pair<char const *,std::function<Application::Scene::Scene * __cdecl(void)> > > >, COMDAT

; 441  : 		{	// initialize values

$LN3:
	mov	QWORD PTR [rsp+8], rcx
	push	rbp
	sub	rsp, 96					; 00000060H
	lea	rbp, QWORD PTR [rsp+32]
	mov	rcx, QWORD PTR this$[rbp]
	call	??0_Container_base12@std@@QEAA@XZ	; std::_Container_base12::_Container_base12

; 438  : 		: _Myfirst(),

	mov	rax, QWORD PTR this$[rbp]
	mov	QWORD PTR [rax+8], 0

; 439  : 		_Mylast(),

	mov	rax, QWORD PTR this$[rbp]
	mov	QWORD PTR [rax+16], 0

; 440  : 		_Myend()

	mov	rax, QWORD PTR this$[rbp]
	mov	QWORD PTR [rax+24], 0

; 442  : 		}

	mov	rax, QWORD PTR this$[rbp]
	lea	rsp, QWORD PTR [rbp+64]
	pop	rbp
	ret	0
??0?$_Vector_val@U?$_Simple_types@U?$pair@PEBDV?$function@$$A6APEAVScene@1Application@@XZ@std@@@std@@@std@@@std@@QEAA@XZ ENDP ; std::_Vector_val<std::_Simple_types<std::pair<char const *,std::function<Application::Scene::Scene * __cdecl(void)> > > >::_Vector_val<std::_Simple_types<std::pair<char const *,std::function<Application::Scene::Scene * __cdecl(void)> > > >
_TEXT	ENDS
; Function compile flags: /Odtp /RTCu /ZI
; File c:\program files (x86)\microsoft visual studio\2017\enterprise\vc\tools\msvc\14.14.26428\include\vector
;	COMDAT ?_Myend@?$_Vector_alloc@U?$_Vec_base_types@U?$pair@PEBDV?$function@$$A6APEAVScene@1Application@@XZ@std@@@std@@V?$allocator@U?$pair@PEBDV?$function@$$A6APEAVScene@1Application@@XZ@std@@@std@@@2@@std@@@std@@QEBAAEBQEAU?$pair@PEBDV?$function@$$A6APEAVScene@1Application@@XZ@std@@@2@XZ
_TEXT	SEGMENT
this$ = 80
?_Myend@?$_Vector_alloc@U?$_Vec_base_types@U?$pair@PEBDV?$function@$$A6APEAVScene@1Application@@XZ@std@@@std@@V?$allocator@U?$pair@PEBDV?$function@$$A6APEAVScene@1Application@@XZ@std@@@std@@@2@@std@@@std@@QEBAAEBQEAU?$pair@PEBDV?$function@$$A6APEAVScene@1Application@@XZ@std@@@2@XZ PROC ; std::_Vector_alloc<std::_Vec_base_types<std::pair<char const *,std::function<Application::Scene::Scene * __cdecl(void)> >,std::allocator<std::pair<char const *,std::function<Application::Scene::Scene * __cdecl(void)> > > > >::_Myend, COMDAT

; 649  : 		{	// return const reference to _Myend

$LN3:
	mov	QWORD PTR [rsp+8], rcx
	push	rbp
	sub	rsp, 96					; 00000060H
	lea	rbp, QWORD PTR [rsp+32]

; 650  : 		return (_Get_data()._Myend);

	mov	rcx, QWORD PTR this$[rbp]
	call	?_Get_data@?$_Vector_alloc@U?$_Vec_base_types@U?$pair@PEBDV?$function@$$A6APEAVScene@1Application@@XZ@std@@@std@@V?$allocator@U?$pair@PEBDV?$function@$$A6APEAVScene@1Application@@XZ@std@@@std@@@2@@std@@@std@@QEBAAEBV?$_Vector_val@U?$_Simple_types@U?$pair@PEBDV?$function@$$A6APEAVScene@1Application@@XZ@std@@@std@@@std@@@2@XZ ; std::_Vector_alloc<std::_Vec_base_types<std::pair<char const *,std::function<Application::Scene::Scene * __cdecl(void)> >,std::allocator<std::pair<char const *,std::function<Application::Scene::Scene * __cdecl(void)> > > > >::_Get_data
	add	rax, 24

; 651  : 		}

	lea	rsp, QWORD PTR [rbp+64]
	pop	rbp
	ret	0
?_Myend@?$_Vector_alloc@U?$_Vec_base_types@U?$pair@PEBDV?$function@$$A6APEAVScene@1Application@@XZ@std@@@std@@V?$allocator@U?$pair@PEBDV?$function@$$A6APEAVScene@1Application@@XZ@std@@@std@@@2@@std@@@std@@QEBAAEBQEAU?$pair@PEBDV?$function@$$A6APEAVScene@1Application@@XZ@std@@@2@XZ ENDP ; std::_Vector_alloc<std::_Vec_base_types<std::pair<char const *,std::function<Application::Scene::Scene * __cdecl(void)> >,std::allocator<std::pair<char const *,std::function<Application::Scene::Scene * __cdecl(void)> > > > >::_Myend
_TEXT	ENDS
; Function compile flags: /Odtp /RTCu /ZI
; File c:\program files (x86)\microsoft visual studio\2017\enterprise\vc\tools\msvc\14.14.26428\include\vector
;	COMDAT ?_Myend@?$_Vector_alloc@U?$_Vec_base_types@U?$pair@PEBDV?$function@$$A6APEAVScene@1Application@@XZ@std@@@std@@V?$allocator@U?$pair@PEBDV?$function@$$A6APEAVScene@1Application@@XZ@std@@@std@@@2@@std@@@std@@QEAAAEAPEAU?$pair@PEBDV?$function@$$A6APEAVScene@1Application@@XZ@std@@@2@XZ
_TEXT	SEGMENT
this$ = 80
?_Myend@?$_Vector_alloc@U?$_Vec_base_types@U?$pair@PEBDV?$function@$$A6APEAVScene@1Application@@XZ@std@@@std@@V?$allocator@U?$pair@PEBDV?$function@$$A6APEAVScene@1Application@@XZ@std@@@std@@@2@@std@@@std@@QEAAAEAPEAU?$pair@PEBDV?$function@$$A6APEAVScene@1Application@@XZ@std@@@2@XZ PROC ; std::_Vector_alloc<std::_Vec_base_types<std::pair<char const *,std::function<Application::Scene::Scene * __cdecl(void)> >,std::allocator<std::pair<char const *,std::function<Application::Scene::Scene * __cdecl(void)> > > > >::_Myend, COMDAT

; 644  : 		{	// return reference to _Myend

$LN3:
	mov	QWORD PTR [rsp+8], rcx
	push	rbp
	sub	rsp, 96					; 00000060H
	lea	rbp, QWORD PTR [rsp+32]

; 645  : 		return (_Get_data()._Myend);

	mov	rcx, QWORD PTR this$[rbp]
	call	?_Get_data@?$_Vector_alloc@U?$_Vec_base_types@U?$pair@PEBDV?$function@$$A6APEAVScene@1Application@@XZ@std@@@std@@V?$allocator@U?$pair@PEBDV?$function@$$A6APEAVScene@1Application@@XZ@std@@@std@@@2@@std@@@std@@QEAAAEAV?$_Vector_val@U?$_Simple_types@U?$pair@PEBDV?$function@$$A6APEAVScene@1Application@@XZ@std@@@std@@@std@@@2@XZ ; std::_Vector_alloc<std::_Vec_base_types<std::pair<char const *,std::function<Application::Scene::Scene * __cdecl(void)> >,std::allocator<std::pair<char const *,std::function<Application::Scene::Scene * __cdecl(void)> > > > >::_Get_data
	add	rax, 24

; 646  : 		}

	lea	rsp, QWORD PTR [rbp+64]
	pop	rbp
	ret	0
?_Myend@?$_Vector_alloc@U?$_Vec_base_types@U?$pair@PEBDV?$function@$$A6APEAVScene@1Application@@XZ@std@@@std@@V?$allocator@U?$pair@PEBDV?$function@$$A6APEAVScene@1Application@@XZ@std@@@std@@@2@@std@@@std@@QEAAAEAPEAU?$pair@PEBDV?$function@$$A6APEAVScene@1Application@@XZ@std@@@2@XZ ENDP ; std::_Vector_alloc<std::_Vec_base_types<std::pair<char const *,std::function<Application::Scene::Scene * __cdecl(void)> >,std::allocator<std::pair<char const *,std::function<Application::Scene::Scene * __cdecl(void)> > > > >::_Myend
_TEXT	ENDS
; Function compile flags: /Odtp /RTCu /ZI
; File c:\program files (x86)\microsoft visual studio\2017\enterprise\vc\tools\msvc\14.14.26428\include\vector
;	COMDAT ?_Mylast@?$_Vector_alloc@U?$_Vec_base_types@U?$pair@PEBDV?$function@$$A6APEAVScene@1Application@@XZ@std@@@std@@V?$allocator@U?$pair@PEBDV?$function@$$A6APEAVScene@1Application@@XZ@std@@@std@@@2@@std@@@std@@QEAAAEAPEAU?$pair@PEBDV?$function@$$A6APEAVScene@1Application@@XZ@std@@@2@XZ
_TEXT	SEGMENT
this$ = 80
?_Mylast@?$_Vector_alloc@U?$_Vec_base_types@U?$pair@PEBDV?$function@$$A6APEAVScene@1Application@@XZ@std@@@std@@V?$allocator@U?$pair@PEBDV?$function@$$A6APEAVScene@1Application@@XZ@std@@@std@@@2@@std@@@std@@QEAAAEAPEAU?$pair@PEBDV?$function@$$A6APEAVScene@1Application@@XZ@std@@@2@XZ PROC ; std::_Vector_alloc<std::_Vec_base_types<std::pair<char const *,std::function<Application::Scene::Scene * __cdecl(void)> >,std::allocator<std::pair<char const *,std::function<Application::Scene::Scene * __cdecl(void)> > > > >::_Mylast, COMDAT

; 634  : 		{	// return reference to _Mylast

$LN3:
	mov	QWORD PTR [rsp+8], rcx
	push	rbp
	sub	rsp, 96					; 00000060H
	lea	rbp, QWORD PTR [rsp+32]

; 635  : 		return (_Get_data()._Mylast);

	mov	rcx, QWORD PTR this$[rbp]
	call	?_Get_data@?$_Vector_alloc@U?$_Vec_base_types@U?$pair@PEBDV?$function@$$A6APEAVScene@1Application@@XZ@std@@@std@@V?$allocator@U?$pair@PEBDV?$function@$$A6APEAVScene@1Application@@XZ@std@@@std@@@2@@std@@@std@@QEAAAEAV?$_Vector_val@U?$_Simple_types@U?$pair@PEBDV?$function@$$A6APEAVScene@1Application@@XZ@std@@@std@@@std@@@2@XZ ; std::_Vector_alloc<std::_Vec_base_types<std::pair<char const *,std::function<Application::Scene::Scene * __cdecl(void)> >,std::allocator<std::pair<char const *,std::function<Application::Scene::Scene * __cdecl(void)> > > > >::_Get_data
	add	rax, 16

; 636  : 		}

	lea	rsp, QWORD PTR [rbp+64]
	pop	rbp
	ret	0
?_Mylast@?$_Vector_alloc@U?$_Vec_base_types@U?$pair@PEBDV?$function@$$A6APEAVScene@1Application@@XZ@std@@@std@@V?$allocator@U?$pair@PEBDV?$function@$$A6APEAVScene@1Application@@XZ@std@@@std@@@2@@std@@@std@@QEAAAEAPEAU?$pair@PEBDV?$function@$$A6APEAVScene@1Application@@XZ@std@@@2@XZ ENDP ; std::_Vector_alloc<std::_Vec_base_types<std::pair<char const *,std::function<Application::Scene::Scene * __cdecl(void)> >,std::allocator<std::pair<char const *,std::function<Application::Scene::Scene * __cdecl(void)> > > > >::_Mylast
_TEXT	ENDS
; Function compile flags: /Odtp /RTCu /ZI
; File c:\program files (x86)\microsoft visual studio\2017\enterprise\vc\tools\msvc\14.14.26428\include\vector
;	COMDAT ?_Myfirst@?$_Vector_alloc@U?$_Vec_base_types@U?$pair@PEBDV?$function@$$A6APEAVScene@1Application@@XZ@std@@@std@@V?$allocator@U?$pair@PEBDV?$function@$$A6APEAVScene@1Application@@XZ@std@@@std@@@2@@std@@@std@@QEBAAEBQEAU?$pair@PEBDV?$function@$$A6APEAVScene@1Application@@XZ@std@@@2@XZ
_TEXT	SEGMENT
this$ = 80
?_Myfirst@?$_Vector_alloc@U?$_Vec_base_types@U?$pair@PEBDV?$function@$$A6APEAVScene@1Application@@XZ@std@@@std@@V?$allocator@U?$pair@PEBDV?$function@$$A6APEAVScene@1Application@@XZ@std@@@std@@@2@@std@@@std@@QEBAAEBQEAU?$pair@PEBDV?$function@$$A6APEAVScene@1Application@@XZ@std@@@2@XZ PROC ; std::_Vector_alloc<std::_Vec_base_types<std::pair<char const *,std::function<Application::Scene::Scene * __cdecl(void)> >,std::allocator<std::pair<char const *,std::function<Application::Scene::Scene * __cdecl(void)> > > > >::_Myfirst, COMDAT

; 629  : 		{	// return const reference to _Myfirst

$LN3:
	mov	QWORD PTR [rsp+8], rcx
	push	rbp
	sub	rsp, 96					; 00000060H
	lea	rbp, QWORD PTR [rsp+32]

; 630  : 		return (_Get_data()._Myfirst);

	mov	rcx, QWORD PTR this$[rbp]
	call	?_Get_data@?$_Vector_alloc@U?$_Vec_base_types@U?$pair@PEBDV?$function@$$A6APEAVScene@1Application@@XZ@std@@@std@@V?$allocator@U?$pair@PEBDV?$function@$$A6APEAVScene@1Application@@XZ@std@@@std@@@2@@std@@@std@@QEBAAEBV?$_Vector_val@U?$_Simple_types@U?$pair@PEBDV?$function@$$A6APEAVScene@1Application@@XZ@std@@@std@@@std@@@2@XZ ; std::_Vector_alloc<std::_Vec_base_types<std::pair<char const *,std::function<Application::Scene::Scene * __cdecl(void)> >,std::allocator<std::pair<char const *,std::function<Application::Scene::Scene * __cdecl(void)> > > > >::_Get_data
	add	rax, 8

; 631  : 		}

	lea	rsp, QWORD PTR [rbp+64]
	pop	rbp
	ret	0
?_Myfirst@?$_Vector_alloc@U?$_Vec_base_types@U?$pair@PEBDV?$function@$$A6APEAVScene@1Application@@XZ@std@@@std@@V?$allocator@U?$pair@PEBDV?$function@$$A6APEAVScene@1Application@@XZ@std@@@std@@@2@@std@@@std@@QEBAAEBQEAU?$pair@PEBDV?$function@$$A6APEAVScene@1Application@@XZ@std@@@2@XZ ENDP ; std::_Vector_alloc<std::_Vec_base_types<std::pair<char const *,std::function<Application::Scene::Scene * __cdecl(void)> >,std::allocator<std::pair<char const *,std::function<Application::Scene::Scene * __cdecl(void)> > > > >::_Myfirst
_TEXT	ENDS
; Function compile flags: /Odtp /RTCu /ZI
; File c:\program files (x86)\microsoft visual studio\2017\enterprise\vc\tools\msvc\14.14.26428\include\vector
;	COMDAT ?_Myfirst@?$_Vector_alloc@U?$_Vec_base_types@U?$pair@PEBDV?$function@$$A6APEAVScene@1Application@@XZ@std@@@std@@V?$allocator@U?$pair@PEBDV?$function@$$A6APEAVScene@1Application@@XZ@std@@@std@@@2@@std@@@std@@QEAAAEAPEAU?$pair@PEBDV?$function@$$A6APEAVScene@1Application@@XZ@std@@@2@XZ
_TEXT	SEGMENT
this$ = 80
?_Myfirst@?$_Vector_alloc@U?$_Vec_base_types@U?$pair@PEBDV?$function@$$A6APEAVScene@1Application@@XZ@std@@@std@@V?$allocator@U?$pair@PEBDV?$function@$$A6APEAVScene@1Application@@XZ@std@@@std@@@2@@std@@@std@@QEAAAEAPEAU?$pair@PEBDV?$function@$$A6APEAVScene@1Application@@XZ@std@@@2@XZ PROC ; std::_Vector_alloc<std::_Vec_base_types<std::pair<char const *,std::function<Application::Scene::Scene * __cdecl(void)> >,std::allocator<std::pair<char const *,std::function<Application::Scene::Scene * __cdecl(void)> > > > >::_Myfirst, COMDAT

; 624  : 		{	// return reference to _Myfirst

$LN3:
	mov	QWORD PTR [rsp+8], rcx
	push	rbp
	sub	rsp, 96					; 00000060H
	lea	rbp, QWORD PTR [rsp+32]

; 625  : 		return (_Get_data()._Myfirst);

	mov	rcx, QWORD PTR this$[rbp]
	call	?_Get_data@?$_Vector_alloc@U?$_Vec_base_types@U?$pair@PEBDV?$function@$$A6APEAVScene@1Application@@XZ@std@@@std@@V?$allocator@U?$pair@PEBDV?$function@$$A6APEAVScene@1Application@@XZ@std@@@std@@@2@@std@@@std@@QEAAAEAV?$_Vector_val@U?$_Simple_types@U?$pair@PEBDV?$function@$$A6APEAVScene@1Application@@XZ@std@@@std@@@std@@@2@XZ ; std::_Vector_alloc<std::_Vec_base_types<std::pair<char const *,std::function<Application::Scene::Scene * __cdecl(void)> >,std::allocator<std::pair<char const *,std::function<Application::Scene::Scene * __cdecl(void)> > > > >::_Get_data
	add	rax, 8

; 626  : 		}

	lea	rsp, QWORD PTR [rbp+64]
	pop	rbp
	ret	0
?_Myfirst@?$_Vector_alloc@U?$_Vec_base_types@U?$pair@PEBDV?$function@$$A6APEAVScene@1Application@@XZ@std@@@std@@V?$allocator@U?$pair@PEBDV?$function@$$A6APEAVScene@1Application@@XZ@std@@@std@@@2@@std@@@std@@QEAAAEAPEAU?$pair@PEBDV?$function@$$A6APEAVScene@1Application@@XZ@std@@@2@XZ ENDP ; std::_Vector_alloc<std::_Vec_base_types<std::pair<char const *,std::function<Application::Scene::Scene * __cdecl(void)> >,std::allocator<std::pair<char const *,std::function<Application::Scene::Scene * __cdecl(void)> > > > >::_Myfirst
_TEXT	ENDS
; Function compile flags: /Odtp /RTCu /ZI
; File c:\program files (x86)\microsoft visual studio\2017\enterprise\vc\tools\msvc\14.14.26428\include\vector
;	COMDAT ?_Get_data@?$_Vector_alloc@U?$_Vec_base_types@U?$pair@PEBDV?$function@$$A6APEAVScene@1Application@@XZ@std@@@std@@V?$allocator@U?$pair@PEBDV?$function@$$A6APEAVScene@1Application@@XZ@std@@@std@@@2@@std@@@std@@QEBAAEBV?$_Vector_val@U?$_Simple_types@U?$pair@PEBDV?$function@$$A6APEAVScene@1Application@@XZ@std@@@std@@@std@@@2@XZ
_TEXT	SEGMENT
this$ = 80
?_Get_data@?$_Vector_alloc@U?$_Vec_base_types@U?$pair@PEBDV?$function@$$A6APEAVScene@1Application@@XZ@std@@@std@@V?$allocator@U?$pair@PEBDV?$function@$$A6APEAVScene@1Application@@XZ@std@@@std@@@2@@std@@@std@@QEBAAEBV?$_Vector_val@U?$_Simple_types@U?$pair@PEBDV?$function@$$A6APEAVScene@1Application@@XZ@std@@@std@@@std@@@2@XZ PROC ; std::_Vector_alloc<std::_Vec_base_types<std::pair<char const *,std::function<Application::Scene::Scene * __cdecl(void)> >,std::allocator<std::pair<char const *,std::function<Application::Scene::Scene * __cdecl(void)> > > > >::_Get_data, COMDAT

; 608  : 		{	// return const reference to _Vector_val

$LN3:
	mov	QWORD PTR [rsp+8], rcx
	push	rbp
	sub	rsp, 96					; 00000060H
	lea	rbp, QWORD PTR [rsp+32]

; 609  : 		return (_Mypair._Get_second());

	mov	rax, QWORD PTR this$[rbp]
	mov	rcx, rax
	call	?_Get_second@?$_Compressed_pair@V?$allocator@U?$pair@PEBDV?$function@$$A6APEAVScene@1Application@@XZ@std@@@std@@@std@@V?$_Vector_val@U?$_Simple_types@U?$pair@PEBDV?$function@$$A6APEAVScene@1Application@@XZ@std@@@std@@@std@@@2@$00@std@@QEBAAEBV?$_Vector_val@U?$_Simple_types@U?$pair@PEBDV?$function@$$A6APEAVScene@1Application@@XZ@std@@@std@@@std@@@2@XZ ; std::_Compressed_pair<std::allocator<std::pair<char const *,std::function<Application::Scene::Scene * __cdecl(void)> > >,std::_Vector_val<std::_Simple_types<std::pair<char const *,std::function<Application::Scene::Scene * __cdecl(void)> > > >,1>::_Get_second

; 610  : 		}

	lea	rsp, QWORD PTR [rbp+64]
	pop	rbp
	ret	0
?_Get_data@?$_Vector_alloc@U?$_Vec_base_types@U?$pair@PEBDV?$function@$$A6APEAVScene@1Application@@XZ@std@@@std@@V?$allocator@U?$pair@PEBDV?$function@$$A6APEAVScene@1Application@@XZ@std@@@std@@@2@@std@@@std@@QEBAAEBV?$_Vector_val@U?$_Simple_types@U?$pair@PEBDV?$function@$$A6APEAVScene@1Application@@XZ@std@@@std@@@std@@@2@XZ ENDP ; std::_Vector_alloc<std::_Vec_base_types<std::pair<char const *,std::function<Application::Scene::Scene * __cdecl(void)> >,std::allocator<std::pair<char const *,std::function<Application::Scene::Scene * __cdecl(void)> > > > >::_Get_data
_TEXT	ENDS
; Function compile flags: /Odtp /RTCu /ZI
; File c:\program files (x86)\microsoft visual studio\2017\enterprise\vc\tools\msvc\14.14.26428\include\vector
;	COMDAT ?_Get_data@?$_Vector_alloc@U?$_Vec_base_types@U?$pair@PEBDV?$function@$$A6APEAVScene@1Application@@XZ@std@@@std@@V?$allocator@U?$pair@PEBDV?$function@$$A6APEAVScene@1Application@@XZ@std@@@std@@@2@@std@@@std@@QEAAAEAV?$_Vector_val@U?$_Simple_types@U?$pair@PEBDV?$function@$$A6APEAVScene@1Application@@XZ@std@@@std@@@std@@@2@XZ
_TEXT	SEGMENT
this$ = 80
?_Get_data@?$_Vector_alloc@U?$_Vec_base_types@U?$pair@PEBDV?$function@$$A6APEAVScene@1Application@@XZ@std@@@std@@V?$allocator@U?$pair@PEBDV?$function@$$A6APEAVScene@1Application@@XZ@std@@@std@@@2@@std@@@std@@QEAAAEAV?$_Vector_val@U?$_Simple_types@U?$pair@PEBDV?$function@$$A6APEAVScene@1Application@@XZ@std@@@std@@@std@@@2@XZ PROC ; std::_Vector_alloc<std::_Vec_base_types<std::pair<char const *,std::function<Application::Scene::Scene * __cdecl(void)> >,std::allocator<std::pair<char const *,std::function<Application::Scene::Scene * __cdecl(void)> > > > >::_Get_data, COMDAT

; 603  : 		{	// return reference to _Vector_val

$LN3:
	mov	QWORD PTR [rsp+8], rcx
	push	rbp
	sub	rsp, 96					; 00000060H
	lea	rbp, QWORD PTR [rsp+32]

; 604  : 		return (_Mypair._Get_second());

	mov	rax, QWORD PTR this$[rbp]
	mov	rcx, rax
	call	?_Get_second@?$_Compressed_pair@V?$allocator@U?$pair@PEBDV?$function@$$A6APEAVScene@1Application@@XZ@std@@@std@@@std@@V?$_Vector_val@U?$_Simple_types@U?$pair@PEBDV?$function@$$A6APEAVScene@1Application@@XZ@std@@@std@@@std@@@2@$00@std@@QEAAAEAV?$_Vector_val@U?$_Simple_types@U?$pair@PEBDV?$function@$$A6APEAVScene@1Application@@XZ@std@@@std@@@std@@@2@XZ ; std::_Compressed_pair<std::allocator<std::pair<char const *,std::function<Application::Scene::Scene * __cdecl(void)> > >,std::_Vector_val<std::_Simple_types<std::pair<char const *,std::function<Application::Scene::Scene * __cdecl(void)> > > >,1>::_Get_second

; 605  : 		}

	lea	rsp, QWORD PTR [rbp+64]
	pop	rbp
	ret	0
?_Get_data@?$_Vector_alloc@U?$_Vec_base_types@U?$pair@PEBDV?$function@$$A6APEAVScene@1Application@@XZ@std@@@std@@V?$allocator@U?$pair@PEBDV?$function@$$A6APEAVScene@1Application@@XZ@std@@@std@@@2@@std@@@std@@QEAAAEAV?$_Vector_val@U?$_Simple_types@U?$pair@PEBDV?$function@$$A6APEAVScene@1Application@@XZ@std@@@std@@@std@@@2@XZ ENDP ; std::_Vector_alloc<std::_Vec_base_types<std::pair<char const *,std::function<Application::Scene::Scene * __cdecl(void)> >,std::allocator<std::pair<char const *,std::function<Application::Scene::Scene * __cdecl(void)> > > > >::_Get_data
_TEXT	ENDS
; Function compile flags: /Odtp /RTCu /ZI
; File c:\program files (x86)\microsoft visual studio\2017\enterprise\vc\tools\msvc\14.14.26428\include\vector
;	COMDAT ?_Getal@?$_Vector_alloc@U?$_Vec_base_types@U?$pair@PEBDV?$function@$$A6APEAVScene@1Application@@XZ@std@@@std@@V?$allocator@U?$pair@PEBDV?$function@$$A6APEAVScene@1Application@@XZ@std@@@std@@@2@@std@@@std@@QEAAAEAV?$allocator@U?$pair@PEBDV?$function@$$A6APEAVScene@1Application@@XZ@std@@@std@@@2@XZ
_TEXT	SEGMENT
this$ = 80
?_Getal@?$_Vector_alloc@U?$_Vec_base_types@U?$pair@PEBDV?$function@$$A6APEAVScene@1Application@@XZ@std@@@std@@V?$allocator@U?$pair@PEBDV?$function@$$A6APEAVScene@1Application@@XZ@std@@@std@@@2@@std@@@std@@QEAAAEAV?$allocator@U?$pair@PEBDV?$function@$$A6APEAVScene@1Application@@XZ@std@@@std@@@2@XZ PROC ; std::_Vector_alloc<std::_Vec_base_types<std::pair<char const *,std::function<Application::Scene::Scene * __cdecl(void)> >,std::allocator<std::pair<char const *,std::function<Application::Scene::Scene * __cdecl(void)> > > > >::_Getal, COMDAT

; 593  : 		{	// return reference to allocator

$LN3:
	mov	QWORD PTR [rsp+8], rcx
	push	rbp
	sub	rsp, 96					; 00000060H
	lea	rbp, QWORD PTR [rsp+32]

; 594  : 		return (_Mypair._Get_first());

	mov	rax, QWORD PTR this$[rbp]
	mov	rcx, rax
	call	?_Get_first@?$_Compressed_pair@V?$allocator@U?$pair@PEBDV?$function@$$A6APEAVScene@1Application@@XZ@std@@@std@@@std@@V?$_Vector_val@U?$_Simple_types@U?$pair@PEBDV?$function@$$A6APEAVScene@1Application@@XZ@std@@@std@@@std@@@2@$00@std@@QEAAAEAV?$allocator@U?$pair@PEBDV?$function@$$A6APEAVScene@1Application@@XZ@std@@@std@@@2@XZ ; std::_Compressed_pair<std::allocator<std::pair<char const *,std::function<Application::Scene::Scene * __cdecl(void)> > >,std::_Vector_val<std::_Simple_types<std::pair<char const *,std::function<Application::Scene::Scene * __cdecl(void)> > > >,1>::_Get_first

; 595  : 		}

	lea	rsp, QWORD PTR [rbp+64]
	pop	rbp
	ret	0
?_Getal@?$_Vector_alloc@U?$_Vec_base_types@U?$pair@PEBDV?$function@$$A6APEAVScene@1Application@@XZ@std@@@std@@V?$allocator@U?$pair@PEBDV?$function@$$A6APEAVScene@1Application@@XZ@std@@@std@@@2@@std@@@std@@QEAAAEAV?$allocator@U?$pair@PEBDV?$function@$$A6APEAVScene@1Application@@XZ@std@@@std@@@2@XZ ENDP ; std::_Vector_alloc<std::_Vec_base_types<std::pair<char const *,std::function<Application::Scene::Scene * __cdecl(void)> >,std::allocator<std::pair<char const *,std::function<Application::Scene::Scene * __cdecl(void)> > > > >::_Getal
_TEXT	ENDS
; Function compile flags: /Odtp /RTCu /ZI
; File c:\program files (x86)\microsoft visual studio\2017\enterprise\vc\tools\msvc\14.14.26428\include\vector
;	COMDAT ?_Orphan_all@?$_Vector_alloc@U?$_Vec_base_types@U?$pair@PEBDV?$function@$$A6APEAVScene@1Application@@XZ@std@@@std@@V?$allocator@U?$pair@PEBDV?$function@$$A6APEAVScene@1Application@@XZ@std@@@std@@@2@@std@@@std@@QEAAXXZ
_TEXT	SEGMENT
this$ = 80
?_Orphan_all@?$_Vector_alloc@U?$_Vec_base_types@U?$pair@PEBDV?$function@$$A6APEAVScene@1Application@@XZ@std@@@std@@V?$allocator@U?$pair@PEBDV?$function@$$A6APEAVScene@1Application@@XZ@std@@@std@@@2@@std@@@std@@QEAAXXZ PROC ; std::_Vector_alloc<std::_Vec_base_types<std::pair<char const *,std::function<Application::Scene::Scene * __cdecl(void)> >,std::allocator<std::pair<char const *,std::function<Application::Scene::Scene * __cdecl(void)> > > > >::_Orphan_all, COMDAT

; 583  : 		{	// orphan all iterators

$LN3:
	mov	QWORD PTR [rsp+8], rcx
	push	rbp
	sub	rsp, 96					; 00000060H
	lea	rbp, QWORD PTR [rsp+32]

; 584  : 		_Get_data()._Orphan_all();

	mov	rcx, QWORD PTR this$[rbp]
	call	?_Get_data@?$_Vector_alloc@U?$_Vec_base_types@U?$pair@PEBDV?$function@$$A6APEAVScene@1Application@@XZ@std@@@std@@V?$allocator@U?$pair@PEBDV?$function@$$A6APEAVScene@1Application@@XZ@std@@@std@@@2@@std@@@std@@QEAAAEAV?$_Vector_val@U?$_Simple_types@U?$pair@PEBDV?$function@$$A6APEAVScene@1Application@@XZ@std@@@std@@@std@@@2@XZ ; std::_Vector_alloc<std::_Vec_base_types<std::pair<char const *,std::function<Application::Scene::Scene * __cdecl(void)> >,std::allocator<std::pair<char const *,std::function<Application::Scene::Scene * __cdecl(void)> > > > >::_Get_data
	mov	rcx, rax
	call	?_Orphan_all@_Container_base12@std@@QEAAXXZ ; std::_Container_base12::_Orphan_all

; 585  : 		}

	lea	rsp, QWORD PTR [rbp+64]
	pop	rbp
	ret	0
?_Orphan_all@?$_Vector_alloc@U?$_Vec_base_types@U?$pair@PEBDV?$function@$$A6APEAVScene@1Application@@XZ@std@@@std@@V?$allocator@U?$pair@PEBDV?$function@$$A6APEAVScene@1Application@@XZ@std@@@std@@@2@@std@@@std@@QEAAXXZ ENDP ; std::_Vector_alloc<std::_Vec_base_types<std::pair<char const *,std::function<Application::Scene::Scene * __cdecl(void)> >,std::allocator<std::pair<char const *,std::function<Application::Scene::Scene * __cdecl(void)> > > > >::_Orphan_all
_TEXT	ENDS
; Function compile flags: /Odtp /RTCu /ZI
; File c:\program files (x86)\microsoft visual studio\2017\enterprise\vc\tools\msvc\14.14.26428\include\vector
;	COMDAT ?_Myproxy@?$_Vector_alloc@U?$_Vec_base_types@U?$pair@PEBDV?$function@$$A6APEAVScene@1Application@@XZ@std@@@std@@V?$allocator@U?$pair@PEBDV?$function@$$A6APEAVScene@1Application@@XZ@std@@@std@@@2@@std@@@std@@QEAAAEAPEAU_Container_proxy@2@XZ
_TEXT	SEGMENT
this$ = 80
?_Myproxy@?$_Vector_alloc@U?$_Vec_base_types@U?$pair@PEBDV?$function@$$A6APEAVScene@1Application@@XZ@std@@@std@@V?$allocator@U?$pair@PEBDV?$function@$$A6APEAVScene@1Application@@XZ@std@@@std@@@2@@std@@@std@@QEAAAEAPEAU_Container_proxy@2@XZ PROC ; std::_Vector_alloc<std::_Vec_base_types<std::pair<char const *,std::function<Application::Scene::Scene * __cdecl(void)> >,std::allocator<std::pair<char const *,std::function<Application::Scene::Scene * __cdecl(void)> > > > >::_Myproxy, COMDAT

; 572  : 		{	// return reference to _Myproxy

$LN3:
	mov	QWORD PTR [rsp+8], rcx
	push	rbp
	sub	rsp, 96					; 00000060H
	lea	rbp, QWORD PTR [rsp+32]

; 573  : 		return (_Get_data()._Myproxy);

	mov	rcx, QWORD PTR this$[rbp]
	call	?_Get_data@?$_Vector_alloc@U?$_Vec_base_types@U?$pair@PEBDV?$function@$$A6APEAVScene@1Application@@XZ@std@@@std@@V?$allocator@U?$pair@PEBDV?$function@$$A6APEAVScene@1Application@@XZ@std@@@std@@@2@@std@@@std@@QEAAAEAV?$_Vector_val@U?$_Simple_types@U?$pair@PEBDV?$function@$$A6APEAVScene@1Application@@XZ@std@@@std@@@std@@@2@XZ ; std::_Vector_alloc<std::_Vec_base_types<std::pair<char const *,std::function<Application::Scene::Scene * __cdecl(void)> >,std::allocator<std::pair<char const *,std::function<Application::Scene::Scene * __cdecl(void)> > > > >::_Get_data

; 574  : 		}

	lea	rsp, QWORD PTR [rbp+64]
	pop	rbp
	ret	0
?_Myproxy@?$_Vector_alloc@U?$_Vec_base_types@U?$pair@PEBDV?$function@$$A6APEAVScene@1Application@@XZ@std@@@std@@V?$allocator@U?$pair@PEBDV?$function@$$A6APEAVScene@1Application@@XZ@std@@@std@@@2@@std@@@std@@QEAAAEAPEAU_Container_proxy@2@XZ ENDP ; std::_Vector_alloc<std::_Vec_base_types<std::pair<char const *,std::function<Application::Scene::Scene * __cdecl(void)> >,std::allocator<std::pair<char const *,std::function<Application::Scene::Scene * __cdecl(void)> > > > >::_Myproxy
_TEXT	ENDS
; Function compile flags: /Odtp /RTCu /ZI
; File c:\program files (x86)\microsoft visual studio\2017\enterprise\vc\tools\msvc\14.14.26428\include\vector
;	COMDAT ?_Free_proxy@?$_Vector_alloc@U?$_Vec_base_types@U?$pair@PEBDV?$function@$$A6APEAVScene@1Application@@XZ@std@@@std@@V?$allocator@U?$pair@PEBDV?$function@$$A6APEAVScene@1Application@@XZ@std@@@std@@@2@@std@@@std@@QEAAXXZ
_TEXT	SEGMENT
_Proxy_allocator$ = 0
__$ArrayPad$ = 72
this$ = 96
?_Free_proxy@?$_Vector_alloc@U?$_Vec_base_types@U?$pair@PEBDV?$function@$$A6APEAVScene@1Application@@XZ@std@@@std@@V?$allocator@U?$pair@PEBDV?$function@$$A6APEAVScene@1Application@@XZ@std@@@std@@@2@@std@@@std@@QEAAXXZ PROC ; std::_Vector_alloc<std::_Vec_base_types<std::pair<char const *,std::function<Application::Scene::Scene * __cdecl(void)> >,std::allocator<std::pair<char const *,std::function<Application::Scene::Scene * __cdecl(void)> > > > >::_Free_proxy, COMDAT

; 558  : 		{	// destroy proxy

$LN3:
	mov	QWORD PTR [rsp+8], rcx
	push	rbp
	sub	rsp, 112				; 00000070H
	lea	rbp, QWORD PTR [rsp+32]
	mov	rax, QWORD PTR __security_cookie
	xor	rax, rbp
	mov	QWORD PTR __$ArrayPad$[rbp], rax

; 559  : 		_Alproxy _Proxy_allocator(_Getal());

	mov	rcx, QWORD PTR this$[rbp]
	call	?_Getal@?$_Vector_alloc@U?$_Vec_base_types@U?$pair@PEBDV?$function@$$A6APEAVScene@1Application@@XZ@std@@@std@@V?$allocator@U?$pair@PEBDV?$function@$$A6APEAVScene@1Application@@XZ@std@@@std@@@2@@std@@@std@@QEAAAEAV?$allocator@U?$pair@PEBDV?$function@$$A6APEAVScene@1Application@@XZ@std@@@std@@@2@XZ ; std::_Vector_alloc<std::_Vec_base_types<std::pair<char const *,std::function<Application::Scene::Scene * __cdecl(void)> >,std::allocator<std::pair<char const *,std::function<Application::Scene::Scene * __cdecl(void)> > > > >::_Getal
	mov	rdx, rax
	lea	rcx, QWORD PTR _Proxy_allocator$[rbp]
	call	??$?0U?$pair@PEBDV?$function@$$A6APEAVScene@1Application@@XZ@std@@@std@@@?$allocator@U_Container_proxy@std@@@std@@QEAA@AEBV?$allocator@U?$pair@PEBDV?$function@$$A6APEAVScene@1Application@@XZ@std@@@std@@@1@@Z ; std::allocator<std::_Container_proxy>::allocator<std::_Container_proxy><std::pair<char const *,std::function<Application::Scene::Scene * __cdecl(void)> > >

; 560  : 		_Orphan_all();

	mov	rcx, QWORD PTR this$[rbp]
	call	?_Orphan_all@?$_Vector_alloc@U?$_Vec_base_types@U?$pair@PEBDV?$function@$$A6APEAVScene@1Application@@XZ@std@@@std@@V?$allocator@U?$pair@PEBDV?$function@$$A6APEAVScene@1Application@@XZ@std@@@std@@@2@@std@@@std@@QEAAXXZ ; std::_Vector_alloc<std::_Vec_base_types<std::pair<char const *,std::function<Application::Scene::Scene * __cdecl(void)> >,std::allocator<std::pair<char const *,std::function<Application::Scene::Scene * __cdecl(void)> > > > >::_Orphan_all

; 561  : 		_Alproxy_traits::destroy(_Proxy_allocator, _Myproxy());

	mov	rcx, QWORD PTR this$[rbp]
	call	?_Myproxy@?$_Vector_alloc@U?$_Vec_base_types@U?$pair@PEBDV?$function@$$A6APEAVScene@1Application@@XZ@std@@@std@@V?$allocator@U?$pair@PEBDV?$function@$$A6APEAVScene@1Application@@XZ@std@@@std@@@2@@std@@@std@@QEAAAEAPEAU_Container_proxy@2@XZ ; std::_Vector_alloc<std::_Vec_base_types<std::pair<char const *,std::function<Application::Scene::Scene * __cdecl(void)> >,std::allocator<std::pair<char const *,std::function<Application::Scene::Scene * __cdecl(void)> > > > >::_Myproxy
	mov	rdx, QWORD PTR [rax]
	lea	rcx, QWORD PTR _Proxy_allocator$[rbp]
	call	??$destroy@U_Container_proxy@std@@@?$_Default_allocator_traits@V?$allocator@U_Container_proxy@std@@@std@@@std@@SAXAEAV?$allocator@U_Container_proxy@std@@@1@QEAU_Container_proxy@1@@Z ; std::_Default_allocator_traits<std::allocator<std::_Container_proxy> >::destroy<std::_Container_proxy>

; 562  : 		_Deallocate_plain(_Proxy_allocator, _Myproxy());

	mov	rcx, QWORD PTR this$[rbp]
	call	?_Myproxy@?$_Vector_alloc@U?$_Vec_base_types@U?$pair@PEBDV?$function@$$A6APEAVScene@1Application@@XZ@std@@@std@@V?$allocator@U?$pair@PEBDV?$function@$$A6APEAVScene@1Application@@XZ@std@@@std@@@2@@std@@@std@@QEAAAEAPEAU_Container_proxy@2@XZ ; std::_Vector_alloc<std::_Vec_base_types<std::pair<char const *,std::function<Application::Scene::Scene * __cdecl(void)> >,std::allocator<std::pair<char const *,std::function<Application::Scene::Scene * __cdecl(void)> > > > >::_Myproxy
	mov	rdx, QWORD PTR [rax]
	lea	rcx, QWORD PTR _Proxy_allocator$[rbp]
	call	??$_Deallocate_plain@V?$allocator@U_Container_proxy@std@@@std@@$0A@@std@@YAXAEAV?$allocator@U_Container_proxy@std@@@0@QEAU_Container_proxy@0@@Z ; std::_Deallocate_plain<std::allocator<std::_Container_proxy>,0>

; 563  : 		_Myproxy() = 0;

	mov	rcx, QWORD PTR this$[rbp]
	call	?_Myproxy@?$_Vector_alloc@U?$_Vec_base_types@U?$pair@PEBDV?$function@$$A6APEAVScene@1Application@@XZ@std@@@std@@V?$allocator@U?$pair@PEBDV?$function@$$A6APEAVScene@1Application@@XZ@std@@@std@@@2@@std@@@std@@QEAAAEAPEAU_Container_proxy@2@XZ ; std::_Vector_alloc<std::_Vec_base_types<std::pair<char const *,std::function<Application::Scene::Scene * __cdecl(void)> >,std::allocator<std::pair<char const *,std::function<Application::Scene::Scene * __cdecl(void)> > > > >::_Myproxy
	mov	QWORD PTR [rax], 0

; 564  : 		}

	mov	rcx, QWORD PTR __$ArrayPad$[rbp]
	xor	rcx, rbp
	call	__security_check_cookie
	lea	rsp, QWORD PTR [rbp+80]
	pop	rbp
	ret	0
?_Free_proxy@?$_Vector_alloc@U?$_Vec_base_types@U?$pair@PEBDV?$function@$$A6APEAVScene@1Application@@XZ@std@@@std@@V?$allocator@U?$pair@PEBDV?$function@$$A6APEAVScene@1Application@@XZ@std@@@std@@@2@@std@@@std@@QEAAXXZ ENDP ; std::_Vector_alloc<std::_Vec_base_types<std::pair<char const *,std::function<Application::Scene::Scene * __cdecl(void)> >,std::allocator<std::pair<char const *,std::function<Application::Scene::Scene * __cdecl(void)> > > > >::_Free_proxy
_TEXT	ENDS
; Function compile flags: /Odtp /RTCu /ZI
; File c:\program files (x86)\microsoft visual studio\2017\enterprise\vc\tools\msvc\14.14.26428\include\vector
;	COMDAT ?_Alloc_proxy@?$_Vector_alloc@U?$_Vec_base_types@U?$pair@PEBDV?$function@$$A6APEAVScene@1Application@@XZ@std@@@std@@V?$allocator@U?$pair@PEBDV?$function@$$A6APEAVScene@1Application@@XZ@std@@@std@@@2@@std@@@std@@QEAAXXZ
_TEXT	SEGMENT
_Proxy_allocator$ = 0
$T1 = 72
tv91 = 88
tv79 = 88
tv70 = 88
__$ArrayPad$ = 96
this$ = 128
?_Alloc_proxy@?$_Vector_alloc@U?$_Vec_base_types@U?$pair@PEBDV?$function@$$A6APEAVScene@1Application@@XZ@std@@@std@@V?$allocator@U?$pair@PEBDV?$function@$$A6APEAVScene@1Application@@XZ@std@@@std@@@2@@std@@@std@@QEAAXXZ PROC ; std::_Vector_alloc<std::_Vec_base_types<std::pair<char const *,std::function<Application::Scene::Scene * __cdecl(void)> >,std::allocator<std::pair<char const *,std::function<Application::Scene::Scene * __cdecl(void)> > > > >::_Alloc_proxy, COMDAT

; 550  : 		{	// construct proxy

$LN3:
	mov	QWORD PTR [rsp+8], rcx
	push	rbp
	sub	rsp, 144				; 00000090H
	lea	rbp, QWORD PTR [rsp+32]
	mov	rax, QWORD PTR __security_cookie
	xor	rax, rbp
	mov	QWORD PTR __$ArrayPad$[rbp], rax

; 551  : 		_Alproxy _Proxy_allocator(_Getal());

	mov	rcx, QWORD PTR this$[rbp]
	call	?_Getal@?$_Vector_alloc@U?$_Vec_base_types@U?$pair@PEBDV?$function@$$A6APEAVScene@1Application@@XZ@std@@@std@@V?$allocator@U?$pair@PEBDV?$function@$$A6APEAVScene@1Application@@XZ@std@@@std@@@2@@std@@@std@@QEAAAEAV?$allocator@U?$pair@PEBDV?$function@$$A6APEAVScene@1Application@@XZ@std@@@std@@@2@XZ ; std::_Vector_alloc<std::_Vec_base_types<std::pair<char const *,std::function<Application::Scene::Scene * __cdecl(void)> >,std::allocator<std::pair<char const *,std::function<Application::Scene::Scene * __cdecl(void)> > > > >::_Getal
	mov	rdx, rax
	lea	rcx, QWORD PTR _Proxy_allocator$[rbp]
	call	??$?0U?$pair@PEBDV?$function@$$A6APEAVScene@1Application@@XZ@std@@@std@@@?$allocator@U_Container_proxy@std@@@std@@QEAA@AEBV?$allocator@U?$pair@PEBDV?$function@$$A6APEAVScene@1Application@@XZ@std@@@std@@@1@@Z ; std::allocator<std::_Container_proxy>::allocator<std::_Container_proxy><std::pair<char const *,std::function<Application::Scene::Scene * __cdecl(void)> > >

; 552  : 		_Myproxy() = _Unfancy(_Proxy_allocator.allocate(1));

	mov	edx, 1
	lea	rcx, QWORD PTR _Proxy_allocator$[rbp]
	call	?allocate@?$allocator@U_Container_proxy@std@@@std@@QEAAPEAU_Container_proxy@2@_K@Z ; std::allocator<std::_Container_proxy>::allocate
	mov	rcx, rax
	call	??$_Unfancy@U_Container_proxy@std@@@std@@YAPEAU_Container_proxy@0@PEAU10@@Z ; std::_Unfancy<std::_Container_proxy>
	mov	QWORD PTR tv70[rbp], rax
	mov	rcx, QWORD PTR this$[rbp]
	call	?_Myproxy@?$_Vector_alloc@U?$_Vec_base_types@U?$pair@PEBDV?$function@$$A6APEAVScene@1Application@@XZ@std@@@std@@V?$allocator@U?$pair@PEBDV?$function@$$A6APEAVScene@1Application@@XZ@std@@@std@@@2@@std@@@std@@QEAAAEAPEAU_Container_proxy@2@XZ ; std::_Vector_alloc<std::_Vec_base_types<std::pair<char const *,std::function<Application::Scene::Scene * __cdecl(void)> >,std::allocator<std::pair<char const *,std::function<Application::Scene::Scene * __cdecl(void)> > > > >::_Myproxy
	mov	rcx, QWORD PTR tv70[rbp]
	mov	QWORD PTR [rax], rcx

; 553  : 		_Alproxy_traits::construct(_Proxy_allocator, _Myproxy(), _Container_proxy());

	lea	rcx, QWORD PTR $T1[rbp]
	call	??0_Container_proxy@std@@QEAA@XZ	; std::_Container_proxy::_Container_proxy
	mov	QWORD PTR tv79[rbp], rax
	mov	rcx, QWORD PTR this$[rbp]
	call	?_Myproxy@?$_Vector_alloc@U?$_Vec_base_types@U?$pair@PEBDV?$function@$$A6APEAVScene@1Application@@XZ@std@@@std@@V?$allocator@U?$pair@PEBDV?$function@$$A6APEAVScene@1Application@@XZ@std@@@std@@@2@@std@@@std@@QEAAAEAPEAU_Container_proxy@2@XZ ; std::_Vector_alloc<std::_Vec_base_types<std::pair<char const *,std::function<Application::Scene::Scene * __cdecl(void)> >,std::allocator<std::pair<char const *,std::function<Application::Scene::Scene * __cdecl(void)> > > > >::_Myproxy
	mov	rcx, QWORD PTR tv79[rbp]
	mov	r8, rcx
	mov	rdx, QWORD PTR [rax]
	lea	rcx, QWORD PTR _Proxy_allocator$[rbp]
	call	??$construct@U_Container_proxy@std@@U12@@?$_Default_allocator_traits@V?$allocator@U_Container_proxy@std@@@std@@@std@@SAXAEAV?$allocator@U_Container_proxy@std@@@1@QEAU_Container_proxy@1@$$QEAU31@@Z ; std::_Default_allocator_traits<std::allocator<std::_Container_proxy> >::construct<std::_Container_proxy,std::_Container_proxy>

; 554  : 		_Myproxy()->_Mycont = _STD addressof(_Get_data());

	mov	rcx, QWORD PTR this$[rbp]
	call	?_Get_data@?$_Vector_alloc@U?$_Vec_base_types@U?$pair@PEBDV?$function@$$A6APEAVScene@1Application@@XZ@std@@@std@@V?$allocator@U?$pair@PEBDV?$function@$$A6APEAVScene@1Application@@XZ@std@@@std@@@2@@std@@@std@@QEAAAEAV?$_Vector_val@U?$_Simple_types@U?$pair@PEBDV?$function@$$A6APEAVScene@1Application@@XZ@std@@@std@@@std@@@2@XZ ; std::_Vector_alloc<std::_Vec_base_types<std::pair<char const *,std::function<Application::Scene::Scene * __cdecl(void)> >,std::allocator<std::pair<char const *,std::function<Application::Scene::Scene * __cdecl(void)> > > > >::_Get_data
	mov	rcx, rax
	call	??$addressof@V?$_Vector_val@U?$_Simple_types@U?$pair@PEBDV?$function@$$A6APEAVScene@1Application@@XZ@std@@@std@@@std@@@std@@@std@@YAPEAV?$_Vector_val@U?$_Simple_types@U?$pair@PEBDV?$function@$$A6APEAVScene@1Application@@XZ@std@@@std@@@std@@@0@AEAV10@@Z ; std::addressof<std::_Vector_val<std::_Simple_types<std::pair<char const *,std::function<Application::Scene::Scene * __cdecl(void)> > > > >
	mov	QWORD PTR tv91[rbp], rax
	mov	rcx, QWORD PTR this$[rbp]
	call	?_Myproxy@?$_Vector_alloc@U?$_Vec_base_types@U?$pair@PEBDV?$function@$$A6APEAVScene@1Application@@XZ@std@@@std@@V?$allocator@U?$pair@PEBDV?$function@$$A6APEAVScene@1Application@@XZ@std@@@std@@@2@@std@@@std@@QEAAAEAPEAU_Container_proxy@2@XZ ; std::_Vector_alloc<std::_Vec_base_types<std::pair<char const *,std::function<Application::Scene::Scene * __cdecl(void)> >,std::allocator<std::pair<char const *,std::function<Application::Scene::Scene * __cdecl(void)> > > > >::_Myproxy
	mov	rax, QWORD PTR [rax]
	mov	rcx, QWORD PTR tv91[rbp]
	mov	QWORD PTR [rax], rcx

; 555  : 		}

	mov	rcx, QWORD PTR __$ArrayPad$[rbp]
	xor	rcx, rbp
	call	__security_check_cookie
	lea	rsp, QWORD PTR [rbp+112]
	pop	rbp
	ret	0
?_Alloc_proxy@?$_Vector_alloc@U?$_Vec_base_types@U?$pair@PEBDV?$function@$$A6APEAVScene@1Application@@XZ@std@@@std@@V?$allocator@U?$pair@PEBDV?$function@$$A6APEAVScene@1Application@@XZ@std@@@std@@@2@@std@@@std@@QEAAXXZ ENDP ; std::_Vector_alloc<std::_Vec_base_types<std::pair<char const *,std::function<Application::Scene::Scene * __cdecl(void)> >,std::allocator<std::pair<char const *,std::function<Application::Scene::Scene * __cdecl(void)> > > > >::_Alloc_proxy
_TEXT	ENDS
; Function compile flags: /Odtp /RTCu /ZI
; File c:\program files (x86)\microsoft visual studio\2017\enterprise\vc\tools\msvc\14.14.26428\include\vector
;	COMDAT ??1?$_Vector_alloc@U?$_Vec_base_types@U?$pair@PEBDV?$function@$$A6APEAVScene@1Application@@XZ@std@@@std@@V?$allocator@U?$pair@PEBDV?$function@$$A6APEAVScene@1Application@@XZ@std@@@std@@@2@@std@@@std@@QEAA@XZ
_TEXT	SEGMENT
$T1 = 64
this$ = 96
??1?$_Vector_alloc@U?$_Vec_base_types@U?$pair@PEBDV?$function@$$A6APEAVScene@1Application@@XZ@std@@@std@@V?$allocator@U?$pair@PEBDV?$function@$$A6APEAVScene@1Application@@XZ@std@@@std@@@2@@std@@@std@@QEAA@XZ PROC ; std::_Vector_alloc<std::_Vec_base_types<std::pair<char const *,std::function<Application::Scene::Scene * __cdecl(void)> >,std::allocator<std::pair<char const *,std::function<Application::Scene::Scene * __cdecl(void)> > > > >::~_Vector_alloc<std::_Vec_base_types<std::pair<char const *,std::function<Application::Scene::Scene * __cdecl(void)> >,std::allocator<std::pair<char const *,std::function<Application::Scene::Scene * __cdecl(void)> > > > >, COMDAT

; 509  : 		{	// destroy proxy

$LN3:
	mov	QWORD PTR [rsp+8], rcx
	push	rbp
	sub	rsp, 112				; 00000070H
	lea	rbp, QWORD PTR [rsp+32]
	mov	QWORD PTR $T1[rbp], -2

; 510  : 		_Free_proxy();

	mov	rcx, QWORD PTR this$[rbp]
	call	?_Free_proxy@?$_Vector_alloc@U?$_Vec_base_types@U?$pair@PEBDV?$function@$$A6APEAVScene@1Application@@XZ@std@@@std@@V?$allocator@U?$pair@PEBDV?$function@$$A6APEAVScene@1Application@@XZ@std@@@std@@@2@@std@@@std@@QEAAXXZ ; std::_Vector_alloc<std::_Vec_base_types<std::pair<char const *,std::function<Application::Scene::Scene * __cdecl(void)> >,std::allocator<std::pair<char const *,std::function<Application::Scene::Scene * __cdecl(void)> > > > >::_Free_proxy
	npad	1

; 511  : 		}

	lea	rsp, QWORD PTR [rbp+80]
	pop	rbp
	ret	0
??1?$_Vector_alloc@U?$_Vec_base_types@U?$pair@PEBDV?$function@$$A6APEAVScene@1Application@@XZ@std@@@std@@V?$allocator@U?$pair@PEBDV?$function@$$A6APEAVScene@1Application@@XZ@std@@@std@@@2@@std@@@std@@QEAA@XZ ENDP ; std::_Vector_alloc<std::_Vec_base_types<std::pair<char const *,std::function<Application::Scene::Scene * __cdecl(void)> >,std::allocator<std::pair<char const *,std::function<Application::Scene::Scene * __cdecl(void)> > > > >::~_Vector_alloc<std::_Vec_base_types<std::pair<char const *,std::function<Application::Scene::Scene * __cdecl(void)> >,std::allocator<std::pair<char const *,std::function<Application::Scene::Scene * __cdecl(void)> > > > >
_TEXT	ENDS
; Function compile flags: /Odtp /RTCu /ZI
; File c:\program files (x86)\microsoft visual studio\2017\enterprise\vc\tools\msvc\14.14.26428\include\vector
;	COMDAT ??0?$_Vector_alloc@U?$_Vec_base_types@U?$pair@PEBDV?$function@$$A6APEAVScene@1Application@@XZ@std@@@std@@V?$allocator@U?$pair@PEBDV?$function@$$A6APEAVScene@1Application@@XZ@std@@@std@@@2@@std@@@std@@QEAA@XZ
_TEXT	SEGMENT
$T1 = 64
this$ = 96
??0?$_Vector_alloc@U?$_Vec_base_types@U?$pair@PEBDV?$function@$$A6APEAVScene@1Application@@XZ@std@@@std@@V?$allocator@U?$pair@PEBDV?$function@$$A6APEAVScene@1Application@@XZ@std@@@std@@@2@@std@@@std@@QEAA@XZ PROC ; std::_Vector_alloc<std::_Vec_base_types<std::pair<char const *,std::function<Application::Scene::Scene * __cdecl(void)> >,std::allocator<std::pair<char const *,std::function<Application::Scene::Scene * __cdecl(void)> > > > >::_Vector_alloc<std::_Vec_base_types<std::pair<char const *,std::function<Application::Scene::Scene * __cdecl(void)> >,std::allocator<std::pair<char const *,std::function<Application::Scene::Scene * __cdecl(void)> > > > >, COMDAT

; 495  : 		{	// default construct allocator

$LN3:
	mov	QWORD PTR [rsp+8], rcx
	push	rbp
	sub	rsp, 112				; 00000070H
	lea	rbp, QWORD PTR [rsp+32]

; 494  : 		: _Mypair(_Zero_then_variadic_args_t())

	mov	rax, QWORD PTR this$[rbp]
	movzx	edx, BYTE PTR $T1[rbp]
	mov	rcx, rax
	call	??$?0$$V@?$_Compressed_pair@V?$allocator@U?$pair@PEBDV?$function@$$A6APEAVScene@1Application@@XZ@std@@@std@@@std@@V?$_Vector_val@U?$_Simple_types@U?$pair@PEBDV?$function@$$A6APEAVScene@1Application@@XZ@std@@@std@@@std@@@2@$00@std@@QEAA@U_Zero_then_variadic_args_t@1@@Z ; std::_Compressed_pair<std::allocator<std::pair<char const *,std::function<Application::Scene::Scene * __cdecl(void)> > >,std::_Vector_val<std::_Simple_types<std::pair<char const *,std::function<Application::Scene::Scene * __cdecl(void)> > > >,1>::_Compressed_pair<std::allocator<std::pair<char const *,std::function<Application::Scene::Scene * __cdecl(void)> > >,std::_Vector_val<std::_Simple_types<std::pair<char const *,std::function<Application::Scene::Scene * __cdecl(void)> > > >,1><>

; 496  : 		_Alloc_proxy();

	mov	rcx, QWORD PTR this$[rbp]
	call	?_Alloc_proxy@?$_Vector_alloc@U?$_Vec_base_types@U?$pair@PEBDV?$function@$$A6APEAVScene@1Application@@XZ@std@@@std@@V?$allocator@U?$pair@PEBDV?$function@$$A6APEAVScene@1Application@@XZ@std@@@std@@@2@@std@@@std@@QEAAXXZ ; std::_Vector_alloc<std::_Vec_base_types<std::pair<char const *,std::function<Application::Scene::Scene * __cdecl(void)> >,std::allocator<std::pair<char const *,std::function<Application::Scene::Scene * __cdecl(void)> > > > >::_Alloc_proxy

; 497  : 		}

	mov	rax, QWORD PTR this$[rbp]
	lea	rsp, QWORD PTR [rbp+80]
	pop	rbp
	ret	0
??0?$_Vector_alloc@U?$_Vec_base_types@U?$pair@PEBDV?$function@$$A6APEAVScene@1Application@@XZ@std@@@std@@V?$allocator@U?$pair@PEBDV?$function@$$A6APEAVScene@1Application@@XZ@std@@@std@@@2@@std@@@std@@QEAA@XZ ENDP ; std::_Vector_alloc<std::_Vec_base_types<std::pair<char const *,std::function<Application::Scene::Scene * __cdecl(void)> >,std::allocator<std::pair<char const *,std::function<Application::Scene::Scene * __cdecl(void)> > > > >::_Vector_alloc<std::_Vec_base_types<std::pair<char const *,std::function<Application::Scene::Scene * __cdecl(void)> >,std::allocator<std::pair<char const *,std::function<Application::Scene::Scene * __cdecl(void)> > > > >
_TEXT	ENDS
; Function compile flags: /Odtp /RTCu /ZI
; File c:\program files (x86)\microsoft visual studio\2017\enterprise\vc\tools\msvc\14.14.26428\include\xmemory0
;	COMDAT ?deallocate@?$allocator@U?$pair@PEBDV?$function@$$A6APEAVScene@1Application@@XZ@std@@@std@@@std@@QEAAXQEAU?$pair@PEBDV?$function@$$A6APEAVScene@1Application@@XZ@std@@@2@_K@Z
_TEXT	SEGMENT
this$ = 80
_Ptr$ = 88
_Count$ = 96
?deallocate@?$allocator@U?$pair@PEBDV?$function@$$A6APEAVScene@1Application@@XZ@std@@@std@@@std@@QEAAXQEAU?$pair@PEBDV?$function@$$A6APEAVScene@1Application@@XZ@std@@@2@_K@Z PROC ; std::allocator<std::pair<char const *,std::function<Application::Scene::Scene * __cdecl(void)> > >::deallocate, COMDAT

; 1029 : 		{	// deallocate object at _Ptr

$LN3:
	mov	QWORD PTR [rsp+24], r8
	mov	QWORD PTR [rsp+16], rdx
	mov	QWORD PTR [rsp+8], rcx
	push	rbp
	sub	rsp, 96					; 00000060H
	lea	rbp, QWORD PTR [rsp+32]

; 1030 : 		// no overflow check on the following multiply; we assume _Allocate did that check
; 1031 : 		_Deallocate<_New_alignof<_Ty>>(_Ptr, sizeof(_Ty) * _Count);

	imul	rax, QWORD PTR _Count$[rbp], 72		; 00000048H
	mov	rdx, rax
	mov	rcx, QWORD PTR _Ptr$[rbp]
	call	??$_Deallocate@$0BA@$0A@@std@@YAXPEAX_K@Z ; std::_Deallocate<16,0>

; 1032 : 		}

	lea	rsp, QWORD PTR [rbp+64]
	pop	rbp
	ret	0
?deallocate@?$allocator@U?$pair@PEBDV?$function@$$A6APEAVScene@1Application@@XZ@std@@@std@@@std@@QEAAXQEAU?$pair@PEBDV?$function@$$A6APEAVScene@1Application@@XZ@std@@@2@_K@Z ENDP ; std::allocator<std::pair<char const *,std::function<Application::Scene::Scene * __cdecl(void)> > >::deallocate
_TEXT	ENDS
; Function compile flags: /Odtp /RTCu /ZI
; File c:\program files (x86)\microsoft visual studio\2017\enterprise\vc\tools\msvc\14.14.26428\include\xmemory0
;	COMDAT ??0?$allocator@U?$pair@PEBDV?$function@$$A6APEAVScene@1Application@@XZ@std@@@std@@@std@@QEAA@XZ
_TEXT	SEGMENT
this$ = 80
??0?$allocator@U?$pair@PEBDV?$function@$$A6APEAVScene@1Application@@XZ@std@@@std@@@std@@QEAA@XZ PROC ; std::allocator<std::pair<char const *,std::function<Application::Scene::Scene * __cdecl(void)> > >::allocator<std::pair<char const *,std::function<Application::Scene::Scene * __cdecl(void)> > >, COMDAT

; 1018 : 	allocator() _NOEXCEPT

$LN3:
	mov	QWORD PTR [rsp+8], rcx
	push	rbp
	sub	rsp, 64					; 00000040H
	mov	rbp, rsp

; 1019 : 		{	// construct default allocator (do nothing)
; 1020 : 		}

	mov	rax, QWORD PTR this$[rbp]
	lea	rsp, QWORD PTR [rbp+64]
	pop	rbp
	ret	0
??0?$allocator@U?$pair@PEBDV?$function@$$A6APEAVScene@1Application@@XZ@std@@@std@@@std@@QEAA@XZ ENDP ; std::allocator<std::pair<char const *,std::function<Application::Scene::Scene * __cdecl(void)> > >::allocator<std::pair<char const *,std::function<Application::Scene::Scene * __cdecl(void)> > >
_TEXT	ENDS
; Function compile flags: /Odtp /RTCu /ZI
;	COMDAT ??_GIBO@buffers@core@@QEAAPEAXI@Z
_TEXT	SEGMENT
this$ = 80
__flags$ = 88
??_GIBO@buffers@core@@QEAAPEAXI@Z PROC			; core::buffers::IBO::`scalar deleting destructor', COMDAT
$LN4:
	mov	DWORD PTR [rsp+16], edx
	mov	QWORD PTR [rsp+8], rcx
	push	rbp
	sub	rsp, 96					; 00000060H
	lea	rbp, QWORD PTR [rsp+32]
	mov	rcx, QWORD PTR this$[rbp]
	call	??1IBO@buffers@core@@QEAA@XZ		; core::buffers::IBO::~IBO
	mov	eax, DWORD PTR __flags$[rbp]
	and	eax, 1
	test	eax, eax
	je	SHORT $LN2@scalar
	mov	edx, 8
	mov	rcx, QWORD PTR this$[rbp]
	call	??3@YAXPEAX_K@Z				; operator delete
$LN2@scalar:
	mov	rax, QWORD PTR this$[rbp]
	lea	rsp, QWORD PTR [rbp+64]
	pop	rbp
	ret	0
??_GIBO@buffers@core@@QEAAPEAXI@Z ENDP			; core::buffers::IBO::`scalar deleting destructor'
_TEXT	ENDS
; Function compile flags: /Odtp /RTCu /ZI
; File l:\dev\featherfallengine\featherfall_engine-core\src\buffers\ibo.h
;	COMDAT ?getCount@IBO@buffers@core@@QEBAHXZ
_TEXT	SEGMENT
this$ = 80
?getCount@IBO@buffers@core@@QEBAHXZ PROC		; core::buffers::IBO::getCount, COMDAT

; 22   : 		inline int getCount() const { return count; }

$LN3:
	mov	QWORD PTR [rsp+8], rcx
	push	rbp
	sub	rsp, 64					; 00000040H
	mov	rbp, rsp
	mov	rax, QWORD PTR this$[rbp]
	mov	eax, DWORD PTR [rax+4]
	lea	rsp, QWORD PTR [rbp+64]
	pop	rbp
	ret	0
?getCount@IBO@buffers@core@@QEBAHXZ ENDP		; core::buffers::IBO::getCount
_TEXT	ENDS
; Function compile flags: /Odtp /RTCu /ZI
;	COMDAT ??_GVAO@buffers@core@@QEAAPEAXI@Z
_TEXT	SEGMENT
this$ = 80
__flags$ = 88
??_GVAO@buffers@core@@QEAAPEAXI@Z PROC			; core::buffers::VAO::`scalar deleting destructor', COMDAT
$LN4:
	mov	DWORD PTR [rsp+16], edx
	mov	QWORD PTR [rsp+8], rcx
	push	rbp
	sub	rsp, 96					; 00000060H
	lea	rbp, QWORD PTR [rsp+32]
	mov	rcx, QWORD PTR this$[rbp]
	call	??1VAO@buffers@core@@QEAA@XZ		; core::buffers::VAO::~VAO
	mov	eax, DWORD PTR __flags$[rbp]
	and	eax, 1
	test	eax, eax
	je	SHORT $LN2@scalar
	mov	edx, 4
	mov	rcx, QWORD PTR this$[rbp]
	call	??3@YAXPEAX_K@Z				; operator delete
$LN2@scalar:
	mov	rax, QWORD PTR this$[rbp]
	lea	rsp, QWORD PTR [rbp+64]
	pop	rbp
	ret	0
??_GVAO@buffers@core@@QEAAPEAXI@Z ENDP			; core::buffers::VAO::`scalar deleting destructor'
_TEXT	ENDS
; Function compile flags: /Odtp /RTCu /ZI
;	COMDAT ??_GBufferLayout@buffers@core@@QEAAPEAXI@Z
_TEXT	SEGMENT
this$ = 80
__flags$ = 88
??_GBufferLayout@buffers@core@@QEAAPEAXI@Z PROC		; core::buffers::BufferLayout::`scalar deleting destructor', COMDAT
$LN4:
	mov	DWORD PTR [rsp+16], edx
	mov	QWORD PTR [rsp+8], rcx
	push	rbp
	sub	rsp, 96					; 00000060H
	lea	rbp, QWORD PTR [rsp+32]
	mov	rcx, QWORD PTR this$[rbp]
	call	??1BufferLayout@buffers@core@@QEAA@XZ
	mov	eax, DWORD PTR __flags$[rbp]
	and	eax, 1
	test	eax, eax
	je	SHORT $LN2@scalar
	mov	edx, 40					; 00000028H
	mov	rcx, QWORD PTR this$[rbp]
	call	??3@YAXPEAX_K@Z				; operator delete
$LN2@scalar:
	mov	rax, QWORD PTR this$[rbp]
	lea	rsp, QWORD PTR [rbp+64]
	pop	rbp
	ret	0
??_GBufferLayout@buffers@core@@QEAAPEAXI@Z ENDP		; core::buffers::BufferLayout::`scalar deleting destructor'
_TEXT	ENDS
; Function compile flags: /Odtp /RTCu /ZI
;	COMDAT ?__autoclassinit2@BufferLayout@buffers@core@@QEAAX_K@Z
_TEXT	SEGMENT
this$ = 96
classSize$ = 104
?__autoclassinit2@BufferLayout@buffers@core@@QEAAX_K@Z PROC ; core::buffers::BufferLayout::__autoclassinit2, COMDAT
$LN3:
	mov	QWORD PTR [rsp+16], rdx
	mov	QWORD PTR [rsp+8], rcx
	push	rbp
	push	rdi
	sub	rsp, 72					; 00000048H
	mov	rbp, rsp
	mov	rdi, QWORD PTR this$[rbp]
	xor	eax, eax
	mov	rcx, QWORD PTR classSize$[rbp]
	rep stosb
	lea	rsp, QWORD PTR [rbp+72]
	pop	rdi
	pop	rbp
	ret	0
?__autoclassinit2@BufferLayout@buffers@core@@QEAAX_K@Z ENDP ; core::buffers::BufferLayout::__autoclassinit2
_TEXT	ENDS
; Function compile flags: /Odtp /RTCu /ZI
;	COMDAT ??1BufferLayout@buffers@core@@QEAA@XZ
_TEXT	SEGMENT
this$ = 80
??1BufferLayout@buffers@core@@QEAA@XZ PROC		; core::buffers::BufferLayout::~BufferLayout, COMDAT
$LN3:
	mov	QWORD PTR [rsp+8], rcx
	push	rbp
	sub	rsp, 96					; 00000060H
	lea	rbp, QWORD PTR [rsp+32]
	mov	rax, QWORD PTR this$[rbp]
	mov	rcx, rax
	call	??1?$vector@UBufferElement@buffers@core@@V?$allocator@UBufferElement@buffers@core@@@std@@@std@@QEAA@XZ ; std::vector<core::buffers::BufferElement,std::allocator<core::buffers::BufferElement> >::~vector<core::buffers::BufferElement,std::allocator<core::buffers::BufferElement> >
	lea	rsp, QWORD PTR [rbp+64]
	pop	rbp
	ret	0
??1BufferLayout@buffers@core@@QEAA@XZ ENDP		; core::buffers::BufferLayout::~BufferLayout
_TEXT	ENDS
; Function compile flags: /Odtp /RTCu /ZI
; File l:\dev\featherfallengine\featherfall_engine-core\src\buffers\bufferlayout.h
;	COMDAT ??$push@M@BufferLayout@buffers@core@@QEAAXI@Z
_TEXT	SEGMENT
$T1 = 64
this$ = 96
count$ = 104
??$push@M@BufferLayout@buffers@core@@QEAAXI@Z PROC	; core::buffers::BufferLayout::push<float>, COMDAT

; 59   : 		{

$LN3:
	mov	DWORD PTR [rsp+16], edx
	mov	QWORD PTR [rsp+8], rcx
	push	rbp
	sub	rsp, 112				; 00000070H
	lea	rbp, QWORD PTR [rsp+32]

; 60   : 			elements.push_back({ GL_FLOAT, count, GL_FALSE });

	mov	DWORD PTR $T1[rbp], 5126		; 00001406H
	mov	eax, DWORD PTR count$[rbp]
	mov	DWORD PTR $T1[rbp+4], eax
	mov	DWORD PTR $T1[rbp+8], 0
	mov	rax, QWORD PTR this$[rbp]
	lea	rdx, QWORD PTR $T1[rbp]
	mov	rcx, rax
	call	?push_back@?$vector@UBufferElement@buffers@core@@V?$allocator@UBufferElement@buffers@core@@@std@@@std@@QEAAX$$QEAUBufferElement@buffers@core@@@Z ; std::vector<core::buffers::BufferElement,std::allocator<core::buffers::BufferElement> >::push_back

; 61   : 			stride += count * GLsizeof(GL_FLOAT);

	mov	ecx, 5126				; 00001406H
	call	?SizeOfType@BufferElement@buffers@core@@SAII@Z ; core::buffers::BufferElement::SizeOfType
	mov	ecx, DWORD PTR count$[rbp]
	imul	ecx, eax
	mov	eax, ecx
	mov	rcx, QWORD PTR this$[rbp]
	add	eax, DWORD PTR [rcx+32]
	mov	rcx, QWORD PTR this$[rbp]
	mov	DWORD PTR [rcx+32], eax

; 62   : 		}

	lea	rsp, QWORD PTR [rbp+80]
	pop	rbp
	ret	0
??$push@M@BufferLayout@buffers@core@@QEAAXI@Z ENDP	; core::buffers::BufferLayout::push<float>
_TEXT	ENDS
; Function compile flags: /Odtp /RTCu /ZI
; File l:\dev\featherfallengine\featherfall_engine-core\src\buffers\bufferlayout.h
;	COMDAT ??0BufferLayout@buffers@core@@QEAA@XZ
_TEXT	SEGMENT
this$ = 80
??0BufferLayout@buffers@core@@QEAA@XZ PROC		; core::buffers::BufferLayout::BufferLayout, COMDAT

; 45   : 		{

$LN4:
	mov	QWORD PTR [rsp+8], rcx
	push	rbp
	sub	rsp, 96					; 00000060H
	lea	rbp, QWORD PTR [rsp+32]
	mov	rax, QWORD PTR this$[rbp]
	mov	rcx, rax
	call	??0?$vector@UBufferElement@buffers@core@@V?$allocator@UBufferElement@buffers@core@@@std@@@std@@QEAA@XZ ; std::vector<core::buffers::BufferElement,std::allocator<core::buffers::BufferElement> >::vector<core::buffers::BufferElement,std::allocator<core::buffers::BufferElement> >

; 44   : 			: stride(0)

	mov	rax, QWORD PTR this$[rbp]
	mov	DWORD PTR [rax+32], 0

; 46   : 		}

	mov	rax, QWORD PTR this$[rbp]
	lea	rsp, QWORD PTR [rbp+64]
	pop	rbp
	ret	0
??0BufferLayout@buffers@core@@QEAA@XZ ENDP		; core::buffers::BufferLayout::BufferLayout
_TEXT	ENDS
; Function compile flags: /Odtp /RTCu /ZI
; File c:\program files (x86)\microsoft visual studio\2017\enterprise\vc\tools\msvc\14.14.26428\include\vector
;	COMDAT ?_Orphan_range@?$vector@UBufferElement@buffers@core@@V?$allocator@UBufferElement@buffers@core@@@std@@@std@@AEBAXPEAUBufferElement@buffers@core@@0@Z
_TEXT	SEGMENT
_Lock$ = 0
_Pnext$ = 8
$T1 = 80
__$ArrayPad$ = 88
this$ = 112
_First$ = 120
_Last$ = 128
?_Orphan_range@?$vector@UBufferElement@buffers@core@@V?$allocator@UBufferElement@buffers@core@@@std@@@std@@AEBAXPEAUBufferElement@buffers@core@@0@Z PROC ; std::vector<core::buffers::BufferElement,std::allocator<core::buffers::BufferElement> >::_Orphan_range, COMDAT

; 2035 : 		{	// orphan iterators within specified (inclusive) range

$LN10:
	mov	QWORD PTR [rsp+24], r8
	mov	QWORD PTR [rsp+16], rdx
	mov	QWORD PTR [rsp+8], rcx
	push	rbp
	sub	rsp, 128				; 00000080H
	lea	rbp, QWORD PTR [rsp+32]
	mov	QWORD PTR $T1[rbp], -2
	mov	rax, QWORD PTR __security_cookie
	xor	rax, rbp
	mov	QWORD PTR __$ArrayPad$[rbp], rax

; 2036 : 		_Lockit _Lock(_LOCK_DEBUG);

	mov	edx, 3
	lea	rcx, QWORD PTR _Lock$[rbp]
	call	QWORD PTR __imp_??0_Lockit@std@@QEAA@H@Z
	npad	1

; 2037 : 
; 2038 : 		const_iterator ** _Pnext = reinterpret_cast<const_iterator **>(this->_Getpfirst());

	mov	rcx, QWORD PTR this$[rbp]
	call	?_Getpfirst@?$_Vector_alloc@U?$_Vec_base_types@UBufferElement@buffers@core@@V?$allocator@UBufferElement@buffers@core@@@std@@@std@@@std@@QEBAPEAPEAU_Iterator_base12@2@XZ ; std::_Vector_alloc<std::_Vec_base_types<core::buffers::BufferElement,std::allocator<core::buffers::BufferElement> > >::_Getpfirst
	mov	QWORD PTR _Pnext$[rbp], rax

; 2039 : 
; 2040 : 		if (_Pnext)

	cmp	QWORD PTR _Pnext$[rbp], 0
	je	SHORT $LN4@Orphan_ran
$LN2@Orphan_ran:

; 2041 : 			{
; 2042 : 			while (*_Pnext)

	mov	rax, QWORD PTR _Pnext$[rbp]
	cmp	QWORD PTR [rax], 0
	je	SHORT $LN4@Orphan_ran

; 2043 : 				{
; 2044 : 				if ((*_Pnext)->_Ptr < _First || _Last < (*_Pnext)->_Ptr)

	mov	rax, QWORD PTR _Pnext$[rbp]
	mov	rax, QWORD PTR [rax]
	mov	rcx, QWORD PTR _First$[rbp]
	cmp	QWORD PTR [rax+16], rcx
	jb	SHORT $LN7@Orphan_ran
	mov	rax, QWORD PTR _Pnext$[rbp]
	mov	rax, QWORD PTR [rax]
	mov	rax, QWORD PTR [rax+16]
	cmp	QWORD PTR _Last$[rbp], rax
	jae	SHORT $LN5@Orphan_ran
$LN7@Orphan_ran:

; 2045 : 					{	// skip the iterator
; 2046 : 					_Pnext = reinterpret_cast<const_iterator **>((*_Pnext)->_Getpnext());

	mov	rax, QWORD PTR _Pnext$[rbp]
	mov	rcx, QWORD PTR [rax]
	call	?_Getpnext@_Iterator_base12@std@@QEAAPEAPEAU12@XZ ; std::_Iterator_base12::_Getpnext
	mov	QWORD PTR _Pnext$[rbp], rax

; 2047 : 					}
; 2048 : 				else

	jmp	SHORT $LN6@Orphan_ran
$LN5@Orphan_ran:

; 2049 : 					{	// orphan the iterator
; 2050 : 					(*_Pnext)->_Clrcont();

	mov	rax, QWORD PTR _Pnext$[rbp]
	mov	rcx, QWORD PTR [rax]
	call	?_Clrcont@_Iterator_base12@std@@QEAAXXZ	; std::_Iterator_base12::_Clrcont

; 2051 : 					*_Pnext = *reinterpret_cast<const_iterator **>((*_Pnext)->_Getpnext());

	mov	rax, QWORD PTR _Pnext$[rbp]
	mov	rcx, QWORD PTR [rax]
	call	?_Getpnext@_Iterator_base12@std@@QEAAPEAPEAU12@XZ ; std::_Iterator_base12::_Getpnext
	mov	rcx, QWORD PTR _Pnext$[rbp]
	mov	rax, QWORD PTR [rax]
	mov	QWORD PTR [rcx], rax
$LN6@Orphan_ran:

; 2052 : 					}
; 2053 : 				}

	jmp	SHORT $LN2@Orphan_ran
$LN4@Orphan_ran:

; 2054 : 			}
; 2055 : 		}

	lea	rcx, QWORD PTR _Lock$[rbp]
	call	QWORD PTR __imp_??1_Lockit@std@@QEAA@XZ
	mov	rcx, QWORD PTR __$ArrayPad$[rbp]
	xor	rcx, rbp
	call	__security_check_cookie
	lea	rsp, QWORD PTR [rbp+96]
	pop	rbp
	ret	0
?_Orphan_range@?$vector@UBufferElement@buffers@core@@V?$allocator@UBufferElement@buffers@core@@@std@@@std@@AEBAXPEAUBufferElement@buffers@core@@0@Z ENDP ; std::vector<core::buffers::BufferElement,std::allocator<core::buffers::BufferElement> >::_Orphan_range
_TEXT	ENDS
;	COMDAT text$x
text$x	SEGMENT
_Lock$ = 0
_Pnext$ = 8
$T1 = 80
__$ArrayPad$ = 88
this$ = 112
_First$ = 120
_Last$ = 128
?dtor$0@?0??_Orphan_range@?$vector@UBufferElement@buffers@core@@V?$allocator@UBufferElement@buffers@core@@@std@@@std@@AEBAXPEAUBufferElement@buffers@core@@0@Z@4HA PROC ; `std::vector<core::buffers::BufferElement,std::allocator<core::buffers::BufferElement> >::_Orphan_range'::`1'::dtor$0
	push	rbp
	sub	rsp, 32					; 00000020H
	lea	rbp, QWORD PTR [rdx+32]
	lea	rcx, QWORD PTR _Lock$[rbp]
	call	QWORD PTR __imp_??1_Lockit@std@@QEAA@XZ
	add	rsp, 32					; 00000020H
	pop	rbp
	ret	0
?dtor$0@?0??_Orphan_range@?$vector@UBufferElement@buffers@core@@V?$allocator@UBufferElement@buffers@core@@@std@@@std@@AEBAXPEAUBufferElement@buffers@core@@0@Z@4HA ENDP ; `std::vector<core::buffers::BufferElement,std::allocator<core::buffers::BufferElement> >::_Orphan_range'::`1'::dtor$0
text$x	ENDS
; Function compile flags: /Odtp /RTCu /ZI
;	COMDAT text$x
text$x	SEGMENT
_Lock$ = 0
_Pnext$ = 8
$T1 = 80
__$ArrayPad$ = 88
this$ = 112
_First$ = 120
_Last$ = 128
?dtor$0@?0??_Orphan_range@?$vector@UBufferElement@buffers@core@@V?$allocator@UBufferElement@buffers@core@@@std@@@std@@AEBAXPEAUBufferElement@buffers@core@@0@Z@4HA PROC ; `std::vector<core::buffers::BufferElement,std::allocator<core::buffers::BufferElement> >::_Orphan_range'::`1'::dtor$0
	push	rbp
	sub	rsp, 32					; 00000020H
	lea	rbp, QWORD PTR [rdx+32]
	lea	rcx, QWORD PTR _Lock$[rbp]
	call	QWORD PTR __imp_??1_Lockit@std@@QEAA@XZ
	add	rsp, 32					; 00000020H
	pop	rbp
	ret	0
?dtor$0@?0??_Orphan_range@?$vector@UBufferElement@buffers@core@@V?$allocator@UBufferElement@buffers@core@@@std@@@std@@AEBAXPEAUBufferElement@buffers@core@@0@Z@4HA ENDP ; `std::vector<core::buffers::BufferElement,std::allocator<core::buffers::BufferElement> >::_Orphan_range'::`1'::dtor$0
text$x	ENDS
; Function compile flags: /Odtp /RTCu /ZI
; File c:\program files (x86)\microsoft visual studio\2017\enterprise\vc\tools\msvc\14.14.26428\include\vector
;	COMDAT ?_Xlength@?$vector@UBufferElement@buffers@core@@V?$allocator@UBufferElement@buffers@core@@@std@@@std@@CAXXZ
_TEXT	SEGMENT
?_Xlength@?$vector@UBufferElement@buffers@core@@V?$allocator@UBufferElement@buffers@core@@@std@@@std@@CAXXZ PROC ; std::vector<core::buffers::BufferElement,std::allocator<core::buffers::BufferElement> >::_Xlength, COMDAT

; 2024 : 		{	// report a length_error

$LN3:
	push	rbp
	sub	rsp, 96					; 00000060H
	lea	rbp, QWORD PTR [rsp+32]

; 2025 : 		_Xlength_error("vector<T> too long");

	lea	rcx, OFFSET FLAT:??_C@_0BD@OLBABOEK@vector?$DMT?$DO?5too?5long?$AA@
	call	?_Xlength_error@std@@YAXPEBD@Z		; std::_Xlength_error
$LN2@Xlength:

; 2026 : 		}

	lea	rsp, QWORD PTR [rbp+64]
	pop	rbp
	ret	0
?_Xlength@?$vector@UBufferElement@buffers@core@@V?$allocator@UBufferElement@buffers@core@@@std@@@std@@CAXXZ ENDP ; std::vector<core::buffers::BufferElement,std::allocator<core::buffers::BufferElement> >::_Xlength
_TEXT	ENDS
; Function compile flags: /Odtp /RTCu /ZI
; File c:\program files (x86)\microsoft visual studio\2017\enterprise\vc\tools\msvc\14.14.26428\include\vector
;	COMDAT ?_Tidy@?$vector@UBufferElement@buffers@core@@V?$allocator@UBufferElement@buffers@core@@@std@@@std@@AEAAXXZ
_TEXT	SEGMENT
tv131 = 64
tv82 = 64
tv138 = 72
this$ = 96
?_Tidy@?$vector@UBufferElement@buffers@core@@V?$allocator@UBufferElement@buffers@core@@@std@@@std@@AEAAXXZ PROC ; std::vector<core::buffers::BufferElement,std::allocator<core::buffers::BufferElement> >::_Tidy, COMDAT

; 2009 : 		{	// free all storage

$LN4:
	mov	QWORD PTR [rsp+8], rcx
	push	rbp
	sub	rsp, 112				; 00000070H
	lea	rbp, QWORD PTR [rsp+32]

; 2010 : 		this->_Orphan_all();

	mov	rcx, QWORD PTR this$[rbp]
	call	?_Orphan_all@?$_Vector_alloc@U?$_Vec_base_types@UBufferElement@buffers@core@@V?$allocator@UBufferElement@buffers@core@@@std@@@std@@@std@@QEAAXXZ ; std::_Vector_alloc<std::_Vec_base_types<core::buffers::BufferElement,std::allocator<core::buffers::BufferElement> > >::_Orphan_all

; 2011 : 
; 2012 : 		if (this->_Myfirst() != pointer())

	mov	rcx, QWORD PTR this$[rbp]
	call	?_Myfirst@?$_Vector_alloc@U?$_Vec_base_types@UBufferElement@buffers@core@@V?$allocator@UBufferElement@buffers@core@@@std@@@std@@@std@@QEAAAEAPEAUBufferElement@buffers@core@@XZ ; std::_Vector_alloc<std::_Vec_base_types<core::buffers::BufferElement,std::allocator<core::buffers::BufferElement> > >::_Myfirst
	cmp	QWORD PTR [rax], 0
	je	$LN2@Tidy

; 2013 : 			{	// destroy and deallocate old array
; 2014 : 			_Destroy(this->_Myfirst(), this->_Mylast());

	mov	rcx, QWORD PTR this$[rbp]
	call	?_Mylast@?$_Vector_alloc@U?$_Vec_base_types@UBufferElement@buffers@core@@V?$allocator@UBufferElement@buffers@core@@@std@@@std@@@std@@QEAAAEAPEAUBufferElement@buffers@core@@XZ ; std::_Vector_alloc<std::_Vec_base_types<core::buffers::BufferElement,std::allocator<core::buffers::BufferElement> > >::_Mylast
	mov	QWORD PTR tv82[rbp], rax
	mov	rcx, QWORD PTR this$[rbp]
	call	?_Myfirst@?$_Vector_alloc@U?$_Vec_base_types@UBufferElement@buffers@core@@V?$allocator@UBufferElement@buffers@core@@@std@@@std@@@std@@QEAAAEAPEAUBufferElement@buffers@core@@XZ ; std::_Vector_alloc<std::_Vec_base_types<core::buffers::BufferElement,std::allocator<core::buffers::BufferElement> > >::_Myfirst
	mov	rcx, QWORD PTR tv82[rbp]
	mov	r8, QWORD PTR [rcx]
	mov	rdx, QWORD PTR [rax]
	mov	rcx, QWORD PTR this$[rbp]
	call	?_Destroy@?$vector@UBufferElement@buffers@core@@V?$allocator@UBufferElement@buffers@core@@@std@@@std@@AEAAXPEAUBufferElement@buffers@core@@0@Z ; std::vector<core::buffers::BufferElement,std::allocator<core::buffers::BufferElement> >::_Destroy

; 2015 : 			this->_Getal().deallocate(this->_Myfirst(), capacity());

	mov	rcx, QWORD PTR this$[rbp]
	call	?capacity@?$vector@UBufferElement@buffers@core@@V?$allocator@UBufferElement@buffers@core@@@std@@@std@@QEBA_KXZ ; std::vector<core::buffers::BufferElement,std::allocator<core::buffers::BufferElement> >::capacity
	mov	QWORD PTR tv131[rbp], rax
	mov	rcx, QWORD PTR this$[rbp]
	call	?_Myfirst@?$_Vector_alloc@U?$_Vec_base_types@UBufferElement@buffers@core@@V?$allocator@UBufferElement@buffers@core@@@std@@@std@@@std@@QEAAAEAPEAUBufferElement@buffers@core@@XZ ; std::_Vector_alloc<std::_Vec_base_types<core::buffers::BufferElement,std::allocator<core::buffers::BufferElement> > >::_Myfirst
	mov	QWORD PTR tv138[rbp], rax
	mov	rcx, QWORD PTR this$[rbp]
	call	?_Getal@?$_Vector_alloc@U?$_Vec_base_types@UBufferElement@buffers@core@@V?$allocator@UBufferElement@buffers@core@@@std@@@std@@@std@@QEAAAEAV?$allocator@UBufferElement@buffers@core@@@2@XZ ; std::_Vector_alloc<std::_Vec_base_types<core::buffers::BufferElement,std::allocator<core::buffers::BufferElement> > >::_Getal
	mov	rcx, QWORD PTR tv131[rbp]
	mov	r8, rcx
	mov	rcx, QWORD PTR tv138[rbp]
	mov	rdx, QWORD PTR [rcx]
	mov	rcx, rax
	call	?deallocate@?$allocator@UBufferElement@buffers@core@@@std@@QEAAXQEAUBufferElement@buffers@core@@_K@Z ; std::allocator<core::buffers::BufferElement>::deallocate

; 2016 : 
; 2017 : 			this->_Myfirst() = pointer();

	mov	rcx, QWORD PTR this$[rbp]
	call	?_Myfirst@?$_Vector_alloc@U?$_Vec_base_types@UBufferElement@buffers@core@@V?$allocator@UBufferElement@buffers@core@@@std@@@std@@@std@@QEAAAEAPEAUBufferElement@buffers@core@@XZ ; std::_Vector_alloc<std::_Vec_base_types<core::buffers::BufferElement,std::allocator<core::buffers::BufferElement> > >::_Myfirst
	mov	QWORD PTR [rax], 0

; 2018 : 			this->_Mylast() = pointer();

	mov	rcx, QWORD PTR this$[rbp]
	call	?_Mylast@?$_Vector_alloc@U?$_Vec_base_types@UBufferElement@buffers@core@@V?$allocator@UBufferElement@buffers@core@@@std@@@std@@@std@@QEAAAEAPEAUBufferElement@buffers@core@@XZ ; std::_Vector_alloc<std::_Vec_base_types<core::buffers::BufferElement,std::allocator<core::buffers::BufferElement> > >::_Mylast
	mov	QWORD PTR [rax], 0

; 2019 : 			this->_Myend() = pointer();

	mov	rcx, QWORD PTR this$[rbp]
	call	?_Myend@?$_Vector_alloc@U?$_Vec_base_types@UBufferElement@buffers@core@@V?$allocator@UBufferElement@buffers@core@@@std@@@std@@@std@@QEAAAEAPEAUBufferElement@buffers@core@@XZ ; std::_Vector_alloc<std::_Vec_base_types<core::buffers::BufferElement,std::allocator<core::buffers::BufferElement> > >::_Myend
	mov	QWORD PTR [rax], 0
$LN2@Tidy:

; 2020 : 			}
; 2021 : 		}

	lea	rsp, QWORD PTR [rbp+80]
	pop	rbp
	ret	0
?_Tidy@?$vector@UBufferElement@buffers@core@@V?$allocator@UBufferElement@buffers@core@@@std@@@std@@AEAAXXZ ENDP ; std::vector<core::buffers::BufferElement,std::allocator<core::buffers::BufferElement> >::_Tidy
_TEXT	ENDS
; Function compile flags: /Odtp /RTCu /ZI
; File c:\program files (x86)\microsoft visual studio\2017\enterprise\vc\tools\msvc\14.14.26428\include\vector
;	COMDAT ?_Change_array@?$vector@UBufferElement@buffers@core@@V?$allocator@UBufferElement@buffers@core@@@std@@@std@@AEAAXQEAUBufferElement@buffers@core@@_K1@Z
_TEXT	SEGMENT
tv161 = 64
tv153 = 64
tv131 = 64
tv82 = 64
tv138 = 72
this$ = 96
_Newvec$ = 104
_Newsize$ = 112
_Newcapacity$ = 120
?_Change_array@?$vector@UBufferElement@buffers@core@@V?$allocator@UBufferElement@buffers@core@@@std@@@std@@AEAAXQEAUBufferElement@buffers@core@@_K1@Z PROC ; std::vector<core::buffers::BufferElement,std::allocator<core::buffers::BufferElement> >::_Change_array, COMDAT

; 1994 : 		{	// orphan all iterators, discard old array, acquire new array

$LN4:
	mov	QWORD PTR [rsp+32], r9
	mov	QWORD PTR [rsp+24], r8
	mov	QWORD PTR [rsp+16], rdx
	mov	QWORD PTR [rsp+8], rcx
	push	rbp
	sub	rsp, 112				; 00000070H
	lea	rbp, QWORD PTR [rsp+32]

; 1995 : 		this->_Orphan_all();

	mov	rcx, QWORD PTR this$[rbp]
	call	?_Orphan_all@?$_Vector_alloc@U?$_Vec_base_types@UBufferElement@buffers@core@@V?$allocator@UBufferElement@buffers@core@@@std@@@std@@@std@@QEAAXXZ ; std::_Vector_alloc<std::_Vec_base_types<core::buffers::BufferElement,std::allocator<core::buffers::BufferElement> > >::_Orphan_all

; 1996 : 
; 1997 : 		if (this->_Myfirst() != pointer())

	mov	rcx, QWORD PTR this$[rbp]
	call	?_Myfirst@?$_Vector_alloc@U?$_Vec_base_types@UBufferElement@buffers@core@@V?$allocator@UBufferElement@buffers@core@@@std@@@std@@@std@@QEAAAEAPEAUBufferElement@buffers@core@@XZ ; std::_Vector_alloc<std::_Vec_base_types<core::buffers::BufferElement,std::allocator<core::buffers::BufferElement> > >::_Myfirst
	cmp	QWORD PTR [rax], 0
	je	SHORT $LN2@Change_arr

; 1998 : 			{	// destroy and deallocate old array
; 1999 : 			_Destroy(this->_Myfirst(), this->_Mylast());

	mov	rcx, QWORD PTR this$[rbp]
	call	?_Mylast@?$_Vector_alloc@U?$_Vec_base_types@UBufferElement@buffers@core@@V?$allocator@UBufferElement@buffers@core@@@std@@@std@@@std@@QEAAAEAPEAUBufferElement@buffers@core@@XZ ; std::_Vector_alloc<std::_Vec_base_types<core::buffers::BufferElement,std::allocator<core::buffers::BufferElement> > >::_Mylast
	mov	QWORD PTR tv82[rbp], rax
	mov	rcx, QWORD PTR this$[rbp]
	call	?_Myfirst@?$_Vector_alloc@U?$_Vec_base_types@UBufferElement@buffers@core@@V?$allocator@UBufferElement@buffers@core@@@std@@@std@@@std@@QEAAAEAPEAUBufferElement@buffers@core@@XZ ; std::_Vector_alloc<std::_Vec_base_types<core::buffers::BufferElement,std::allocator<core::buffers::BufferElement> > >::_Myfirst
	mov	rcx, QWORD PTR tv82[rbp]
	mov	r8, QWORD PTR [rcx]
	mov	rdx, QWORD PTR [rax]
	mov	rcx, QWORD PTR this$[rbp]
	call	?_Destroy@?$vector@UBufferElement@buffers@core@@V?$allocator@UBufferElement@buffers@core@@@std@@@std@@AEAAXPEAUBufferElement@buffers@core@@0@Z ; std::vector<core::buffers::BufferElement,std::allocator<core::buffers::BufferElement> >::_Destroy

; 2000 : 			this->_Getal().deallocate(this->_Myfirst(), capacity());

	mov	rcx, QWORD PTR this$[rbp]
	call	?capacity@?$vector@UBufferElement@buffers@core@@V?$allocator@UBufferElement@buffers@core@@@std@@@std@@QEBA_KXZ ; std::vector<core::buffers::BufferElement,std::allocator<core::buffers::BufferElement> >::capacity
	mov	QWORD PTR tv131[rbp], rax
	mov	rcx, QWORD PTR this$[rbp]
	call	?_Myfirst@?$_Vector_alloc@U?$_Vec_base_types@UBufferElement@buffers@core@@V?$allocator@UBufferElement@buffers@core@@@std@@@std@@@std@@QEAAAEAPEAUBufferElement@buffers@core@@XZ ; std::_Vector_alloc<std::_Vec_base_types<core::buffers::BufferElement,std::allocator<core::buffers::BufferElement> > >::_Myfirst
	mov	QWORD PTR tv138[rbp], rax
	mov	rcx, QWORD PTR this$[rbp]
	call	?_Getal@?$_Vector_alloc@U?$_Vec_base_types@UBufferElement@buffers@core@@V?$allocator@UBufferElement@buffers@core@@@std@@@std@@@std@@QEAAAEAV?$allocator@UBufferElement@buffers@core@@@2@XZ ; std::_Vector_alloc<std::_Vec_base_types<core::buffers::BufferElement,std::allocator<core::buffers::BufferElement> > >::_Getal
	mov	rcx, QWORD PTR tv131[rbp]
	mov	r8, rcx
	mov	rcx, QWORD PTR tv138[rbp]
	mov	rdx, QWORD PTR [rcx]
	mov	rcx, rax
	call	?deallocate@?$allocator@UBufferElement@buffers@core@@@std@@QEAAXQEAUBufferElement@buffers@core@@_K@Z ; std::allocator<core::buffers::BufferElement>::deallocate
$LN2@Change_arr:

; 2001 : 			}
; 2002 : 
; 2003 : 		this->_Myfirst() = _Newvec;

	mov	rcx, QWORD PTR this$[rbp]
	call	?_Myfirst@?$_Vector_alloc@U?$_Vec_base_types@UBufferElement@buffers@core@@V?$allocator@UBufferElement@buffers@core@@@std@@@std@@@std@@QEAAAEAPEAUBufferElement@buffers@core@@XZ ; std::_Vector_alloc<std::_Vec_base_types<core::buffers::BufferElement,std::allocator<core::buffers::BufferElement> > >::_Myfirst
	mov	rcx, QWORD PTR _Newvec$[rbp]
	mov	QWORD PTR [rax], rcx

; 2004 : 		this->_Mylast() = _Newvec + _Newsize;

	imul	rax, QWORD PTR _Newsize$[rbp], 12
	mov	rcx, QWORD PTR _Newvec$[rbp]
	add	rcx, rax
	mov	rax, rcx
	mov	QWORD PTR tv153[rbp], rax
	mov	rcx, QWORD PTR this$[rbp]
	call	?_Mylast@?$_Vector_alloc@U?$_Vec_base_types@UBufferElement@buffers@core@@V?$allocator@UBufferElement@buffers@core@@@std@@@std@@@std@@QEAAAEAPEAUBufferElement@buffers@core@@XZ ; std::_Vector_alloc<std::_Vec_base_types<core::buffers::BufferElement,std::allocator<core::buffers::BufferElement> > >::_Mylast
	mov	rcx, QWORD PTR tv153[rbp]
	mov	QWORD PTR [rax], rcx

; 2005 : 		this->_Myend() = _Newvec + _Newcapacity;

	imul	rax, QWORD PTR _Newcapacity$[rbp], 12
	mov	rcx, QWORD PTR _Newvec$[rbp]
	add	rcx, rax
	mov	rax, rcx
	mov	QWORD PTR tv161[rbp], rax
	mov	rcx, QWORD PTR this$[rbp]
	call	?_Myend@?$_Vector_alloc@U?$_Vec_base_types@UBufferElement@buffers@core@@V?$allocator@UBufferElement@buffers@core@@@std@@@std@@@std@@QEAAAEAPEAUBufferElement@buffers@core@@XZ ; std::_Vector_alloc<std::_Vec_base_types<core::buffers::BufferElement,std::allocator<core::buffers::BufferElement> > >::_Myend
	mov	rcx, QWORD PTR tv161[rbp]
	mov	QWORD PTR [rax], rcx

; 2006 : 		}

	lea	rsp, QWORD PTR [rbp+80]
	pop	rbp
	ret	0
?_Change_array@?$vector@UBufferElement@buffers@core@@V?$allocator@UBufferElement@buffers@core@@@std@@@std@@AEAAXQEAUBufferElement@buffers@core@@_K1@Z ENDP ; std::vector<core::buffers::BufferElement,std::allocator<core::buffers::BufferElement> >::_Change_array
_TEXT	ENDS
; Function compile flags: /Odtp /RTCu /ZI
; File c:\program files (x86)\microsoft visual studio\2017\enterprise\vc\tools\msvc\14.14.26428\include\vector
;	COMDAT ?_Calculate_growth@?$vector@UBufferElement@buffers@core@@V?$allocator@UBufferElement@buffers@core@@@std@@@std@@AEBA_K_K@Z
_TEXT	SEGMENT
_Oldcapacity$ = 0
_Geometric$ = 8
tv67 = 80
this$ = 112
_Newsize$ = 120
?_Calculate_growth@?$vector@UBufferElement@buffers@core@@V?$allocator@UBufferElement@buffers@core@@@std@@@std@@AEBA_K_K@Z PROC ; std::vector<core::buffers::BufferElement,std::allocator<core::buffers::BufferElement> >::_Calculate_growth, COMDAT

; 1952 : 		{	// given _Oldcapacity and _Newsize, calculate geometric growth

$LN5:
	mov	QWORD PTR [rsp+16], rdx
	mov	QWORD PTR [rsp+8], rcx
	push	rbp
	sub	rsp, 128				; 00000080H
	lea	rbp, QWORD PTR [rsp+32]

; 1953 : 		const size_type _Oldcapacity = capacity();

	mov	rcx, QWORD PTR this$[rbp]
	call	?capacity@?$vector@UBufferElement@buffers@core@@V?$allocator@UBufferElement@buffers@core@@@std@@@std@@QEBA_KXZ ; std::vector<core::buffers::BufferElement,std::allocator<core::buffers::BufferElement> >::capacity
	mov	QWORD PTR _Oldcapacity$[rbp], rax

; 1954 : 
; 1955 : 		if (_Oldcapacity > max_size() - _Oldcapacity / 2)

	mov	rcx, QWORD PTR this$[rbp]
	call	?max_size@?$vector@UBufferElement@buffers@core@@V?$allocator@UBufferElement@buffers@core@@@std@@@std@@QEBA_KXZ ; std::vector<core::buffers::BufferElement,std::allocator<core::buffers::BufferElement> >::max_size
	mov	QWORD PTR tv67[rbp], rax
	xor	edx, edx
	mov	rax, QWORD PTR _Oldcapacity$[rbp]
	mov	ecx, 2
	div	rcx
	mov	rcx, QWORD PTR tv67[rbp]
	sub	rcx, rax
	mov	rax, rcx
	cmp	QWORD PTR _Oldcapacity$[rbp], rax
	jbe	SHORT $LN2@Calculate_

; 1956 : 			{
; 1957 : 			return (_Newsize);	// geometric growth would overflow

	mov	rax, QWORD PTR _Newsize$[rbp]
	jmp	SHORT $LN1@Calculate_
$LN2@Calculate_:

; 1958 : 			}
; 1959 : 
; 1960 : 		const size_type _Geometric = _Oldcapacity + _Oldcapacity / 2;

	xor	edx, edx
	mov	rax, QWORD PTR _Oldcapacity$[rbp]
	mov	ecx, 2
	div	rcx
	mov	rcx, QWORD PTR _Oldcapacity$[rbp]
	add	rcx, rax
	mov	rax, rcx
	mov	QWORD PTR _Geometric$[rbp], rax

; 1961 : 
; 1962 : 		if (_Geometric < _Newsize)

	mov	rax, QWORD PTR _Newsize$[rbp]
	cmp	QWORD PTR _Geometric$[rbp], rax
	jae	SHORT $LN3@Calculate_

; 1963 : 			{
; 1964 : 			return (_Newsize);	// geometric growth would be insufficient

	mov	rax, QWORD PTR _Newsize$[rbp]
	jmp	SHORT $LN1@Calculate_
$LN3@Calculate_:

; 1965 : 			}
; 1966 : 
; 1967 : 		return (_Geometric);	// geometric growth is sufficient

	mov	rax, QWORD PTR _Geometric$[rbp]
$LN1@Calculate_:

; 1968 : 		}

	lea	rsp, QWORD PTR [rbp+96]
	pop	rbp
	ret	0
?_Calculate_growth@?$vector@UBufferElement@buffers@core@@V?$allocator@UBufferElement@buffers@core@@@std@@@std@@AEBA_K_K@Z ENDP ; std::vector<core::buffers::BufferElement,std::allocator<core::buffers::BufferElement> >::_Calculate_growth
_TEXT	ENDS
; Function compile flags: /Odtp /RTCu /ZI
; File c:\program files (x86)\microsoft visual studio\2017\enterprise\vc\tools\msvc\14.14.26428\include\vector
;	COMDAT ?_Destroy@?$vector@UBufferElement@buffers@core@@V?$allocator@UBufferElement@buffers@core@@@std@@@std@@AEAAXPEAUBufferElement@buffers@core@@0@Z
_TEXT	SEGMENT
this$ = 80
_First$ = 88
_Last$ = 96
?_Destroy@?$vector@UBufferElement@buffers@core@@V?$allocator@UBufferElement@buffers@core@@@std@@@std@@AEAAXPEAUBufferElement@buffers@core@@0@Z PROC ; std::vector<core::buffers::BufferElement,std::allocator<core::buffers::BufferElement> >::_Destroy, COMDAT

; 1947 : 		{	// destroy [_First, _Last) using allocator

$LN3:
	mov	QWORD PTR [rsp+24], r8
	mov	QWORD PTR [rsp+16], rdx
	mov	QWORD PTR [rsp+8], rcx
	push	rbp
	sub	rsp, 96					; 00000060H
	lea	rbp, QWORD PTR [rsp+32]

; 1948 : 		_Destroy_range(_First, _Last, this->_Getal());

	mov	rcx, QWORD PTR this$[rbp]
	call	?_Getal@?$_Vector_alloc@U?$_Vec_base_types@UBufferElement@buffers@core@@V?$allocator@UBufferElement@buffers@core@@@std@@@std@@@std@@QEAAAEAV?$allocator@UBufferElement@buffers@core@@@2@XZ ; std::_Vector_alloc<std::_Vec_base_types<core::buffers::BufferElement,std::allocator<core::buffers::BufferElement> > >::_Getal
	mov	r8, rax
	mov	rdx, QWORD PTR _Last$[rbp]
	mov	rcx, QWORD PTR _First$[rbp]
	call	??$_Destroy_range@V?$allocator@UBufferElement@buffers@core@@@std@@@std@@YAXPEAUBufferElement@buffers@core@@0AEAV?$allocator@UBufferElement@buffers@core@@@0@@Z ; std::_Destroy_range<std::allocator<core::buffers::BufferElement> >

; 1949 : 		}

	lea	rsp, QWORD PTR [rbp+64]
	pop	rbp
	ret	0
?_Destroy@?$vector@UBufferElement@buffers@core@@V?$allocator@UBufferElement@buffers@core@@@std@@@std@@AEAAXPEAUBufferElement@buffers@core@@0@Z ENDP ; std::vector<core::buffers::BufferElement,std::allocator<core::buffers::BufferElement> >::_Destroy
_TEXT	ENDS
; Function compile flags: /Odtp /RTCu /ZI
; File c:\program files (x86)\microsoft visual studio\2017\enterprise\vc\tools\msvc\14.14.26428\include\vector
;	COMDAT ?_Umove_if_noexcept@?$vector@UBufferElement@buffers@core@@V?$allocator@UBufferElement@buffers@core@@@std@@@std@@AEAAXPEAUBufferElement@buffers@core@@00@Z
_TEXT	SEGMENT
$T1 = 64
this$ = 112
_First$ = 120
_Last$ = 128
_Dest$ = 136
?_Umove_if_noexcept@?$vector@UBufferElement@buffers@core@@V?$allocator@UBufferElement@buffers@core@@@std@@@std@@AEAAXPEAUBufferElement@buffers@core@@00@Z PROC ; std::vector<core::buffers::BufferElement,std::allocator<core::buffers::BufferElement> >::_Umove_if_noexcept, COMDAT

; 1941 : 		{	// move_if_noexcept [_First, _Last) to raw _Dest, using allocator

$LN3:
	mov	QWORD PTR [rsp+32], r9
	mov	QWORD PTR [rsp+24], r8
	mov	QWORD PTR [rsp+16], rdx
	mov	QWORD PTR [rsp+8], rcx
	push	rbp
	push	rdi
	sub	rsp, 136				; 00000088H
	lea	rbp, QWORD PTR [rsp+48]

; 1942 : 		_Umove_if_noexcept1(_First, _Last, _Dest,

	lea	rax, QWORD PTR $T1[rbp]
	mov	rdi, rax
	xor	eax, eax
	mov	ecx, 1
	rep stosb
	movzx	eax, BYTE PTR $T1[rbp]
	mov	BYTE PTR [rsp+32], al
	mov	r9, QWORD PTR _Dest$[rbp]
	mov	r8, QWORD PTR _Last$[rbp]
	mov	rdx, QWORD PTR _First$[rbp]
	mov	rcx, QWORD PTR this$[rbp]
	call	?_Umove_if_noexcept1@?$vector@UBufferElement@buffers@core@@V?$allocator@UBufferElement@buffers@core@@@std@@@std@@AEAAXPEAUBufferElement@buffers@core@@00U?$integral_constant@_N$00@2@@Z ; std::vector<core::buffers::BufferElement,std::allocator<core::buffers::BufferElement> >::_Umove_if_noexcept1

; 1943 : 			_Disjunction_t<is_nothrow_move_constructible<_Ty>, negation<is_copy_constructible<_Ty>>>{});
; 1944 : 		}

	lea	rsp, QWORD PTR [rbp+88]
	pop	rdi
	pop	rbp
	ret	0
?_Umove_if_noexcept@?$vector@UBufferElement@buffers@core@@V?$allocator@UBufferElement@buffers@core@@@std@@@std@@AEAAXPEAUBufferElement@buffers@core@@00@Z ENDP ; std::vector<core::buffers::BufferElement,std::allocator<core::buffers::BufferElement> >::_Umove_if_noexcept
_TEXT	ENDS
; Function compile flags: /Odtp /RTCu /ZI
; File c:\program files (x86)\microsoft visual studio\2017\enterprise\vc\tools\msvc\14.14.26428\include\vector
;	COMDAT ?_Umove_if_noexcept1@?$vector@UBufferElement@buffers@core@@V?$allocator@UBufferElement@buffers@core@@@std@@@std@@AEAAXPEAUBufferElement@buffers@core@@00U?$integral_constant@_N$00@2@@Z
_TEXT	SEGMENT
this$ = 80
_First$ = 88
_Last$ = 96
_Dest$ = 104
__formal$ = 112
?_Umove_if_noexcept1@?$vector@UBufferElement@buffers@core@@V?$allocator@UBufferElement@buffers@core@@@std@@@std@@AEAAXPEAUBufferElement@buffers@core@@00U?$integral_constant@_N$00@2@@Z PROC ; std::vector<core::buffers::BufferElement,std::allocator<core::buffers::BufferElement> >::_Umove_if_noexcept1, COMDAT

; 1931 : 		{	// move [_First, _Last) to raw _Dest, using allocator

$LN3:
	mov	QWORD PTR [rsp+32], r9
	mov	QWORD PTR [rsp+24], r8
	mov	QWORD PTR [rsp+16], rdx
	mov	QWORD PTR [rsp+8], rcx
	push	rbp
	sub	rsp, 96					; 00000060H
	lea	rbp, QWORD PTR [rsp+32]

; 1932 : 		_Uninitialized_move(_First, _Last, _Dest, this->_Getal());

	mov	rcx, QWORD PTR this$[rbp]
	call	?_Getal@?$_Vector_alloc@U?$_Vec_base_types@UBufferElement@buffers@core@@V?$allocator@UBufferElement@buffers@core@@@std@@@std@@@std@@QEAAAEAV?$allocator@UBufferElement@buffers@core@@@2@XZ ; std::_Vector_alloc<std::_Vec_base_types<core::buffers::BufferElement,std::allocator<core::buffers::BufferElement> > >::_Getal
	mov	r9, rax
	mov	r8, QWORD PTR _Dest$[rbp]
	mov	rdx, QWORD PTR _Last$[rbp]
	mov	rcx, QWORD PTR _First$[rbp]
	call	??$_Uninitialized_move@PEAUBufferElement@buffers@core@@PEAU123@V?$allocator@UBufferElement@buffers@core@@@std@@@std@@YAPEAUBufferElement@buffers@core@@QEAU123@0PEAU123@AEAV?$allocator@UBufferElement@buffers@core@@@0@@Z ; std::_Uninitialized_move<core::buffers::BufferElement *,core::buffers::BufferElement *,std::allocator<core::buffers::BufferElement> >

; 1933 : 		}

	lea	rsp, QWORD PTR [rbp+64]
	pop	rbp
	ret	0
?_Umove_if_noexcept1@?$vector@UBufferElement@buffers@core@@V?$allocator@UBufferElement@buffers@core@@@std@@@std@@AEAAXPEAUBufferElement@buffers@core@@00U?$integral_constant@_N$00@2@@Z ENDP ; std::vector<core::buffers::BufferElement,std::allocator<core::buffers::BufferElement> >::_Umove_if_noexcept1
_TEXT	ENDS
; Function compile flags: /Odtp /RTCu /ZI
; File c:\program files (x86)\microsoft visual studio\2017\enterprise\vc\tools\msvc\14.14.26428\include\vector
;	COMDAT ?_Umove@?$vector@UBufferElement@buffers@core@@V?$allocator@UBufferElement@buffers@core@@@std@@@std@@AEAAPEAUBufferElement@buffers@core@@PEAU345@00@Z
_TEXT	SEGMENT
this$ = 80
_First$ = 88
_Last$ = 96
_Dest$ = 104
?_Umove@?$vector@UBufferElement@buffers@core@@V?$allocator@UBufferElement@buffers@core@@@std@@@std@@AEAAPEAUBufferElement@buffers@core@@PEAU345@00@Z PROC ; std::vector<core::buffers::BufferElement,std::allocator<core::buffers::BufferElement> >::_Umove, COMDAT

; 1926 : 		{	// move [_First, _Last) to raw _Dest, using allocator

$LN3:
	mov	QWORD PTR [rsp+32], r9
	mov	QWORD PTR [rsp+24], r8
	mov	QWORD PTR [rsp+16], rdx
	mov	QWORD PTR [rsp+8], rcx
	push	rbp
	sub	rsp, 96					; 00000060H
	lea	rbp, QWORD PTR [rsp+32]

; 1927 : 		return (_Uninitialized_move(_First, _Last, _Dest, this->_Getal()));

	mov	rcx, QWORD PTR this$[rbp]
	call	?_Getal@?$_Vector_alloc@U?$_Vec_base_types@UBufferElement@buffers@core@@V?$allocator@UBufferElement@buffers@core@@@std@@@std@@@std@@QEAAAEAV?$allocator@UBufferElement@buffers@core@@@2@XZ ; std::_Vector_alloc<std::_Vec_base_types<core::buffers::BufferElement,std::allocator<core::buffers::BufferElement> > >::_Getal
	mov	r9, rax
	mov	r8, QWORD PTR _Dest$[rbp]
	mov	rdx, QWORD PTR _Last$[rbp]
	mov	rcx, QWORD PTR _First$[rbp]
	call	??$_Uninitialized_move@PEAUBufferElement@buffers@core@@PEAU123@V?$allocator@UBufferElement@buffers@core@@@std@@@std@@YAPEAUBufferElement@buffers@core@@QEAU123@0PEAU123@AEAV?$allocator@UBufferElement@buffers@core@@@0@@Z ; std::_Uninitialized_move<core::buffers::BufferElement *,core::buffers::BufferElement *,std::allocator<core::buffers::BufferElement> >

; 1928 : 		}

	lea	rsp, QWORD PTR [rbp+64]
	pop	rbp
	ret	0
?_Umove@?$vector@UBufferElement@buffers@core@@V?$allocator@UBufferElement@buffers@core@@@std@@@std@@AEAAPEAUBufferElement@buffers@core@@PEAU345@00@Z ENDP ; std::vector<core::buffers::BufferElement,std::allocator<core::buffers::BufferElement> >::_Umove
_TEXT	ENDS
; Function compile flags: /Odtp /RTCu /ZI
; File c:\program files (x86)\microsoft visual studio\2017\enterprise\vc\tools\msvc\14.14.26428\include\vector
;	COMDAT ?_Has_unused_capacity@?$vector@UBufferElement@buffers@core@@V?$allocator@UBufferElement@buffers@core@@@std@@@std@@AEBA_NXZ
_TEXT	SEGMENT
tv69 = 64
tv77 = 72
this$ = 96
?_Has_unused_capacity@?$vector@UBufferElement@buffers@core@@V?$allocator@UBufferElement@buffers@core@@@std@@@std@@AEBA_NXZ PROC ; std::vector<core::buffers::BufferElement,std::allocator<core::buffers::BufferElement> >::_Has_unused_capacity, COMDAT

; 1794 : 		{	// micro-optimization for capacity() != size()

$LN5:
	mov	QWORD PTR [rsp+8], rcx
	push	rbp
	sub	rsp, 112				; 00000070H
	lea	rbp, QWORD PTR [rsp+32]

; 1795 : 		return (this->_Myend() != this->_Mylast());

	mov	rcx, QWORD PTR this$[rbp]
	call	?_Myend@?$_Vector_alloc@U?$_Vec_base_types@UBufferElement@buffers@core@@V?$allocator@UBufferElement@buffers@core@@@std@@@std@@@std@@QEBAAEBQEAUBufferElement@buffers@core@@XZ ; std::_Vector_alloc<std::_Vec_base_types<core::buffers::BufferElement,std::allocator<core::buffers::BufferElement> > >::_Myend
	mov	QWORD PTR tv69[rbp], rax
	mov	rcx, QWORD PTR this$[rbp]
	call	?_Mylast@?$_Vector_alloc@U?$_Vec_base_types@UBufferElement@buffers@core@@V?$allocator@UBufferElement@buffers@core@@@std@@@std@@@std@@QEBAAEBQEAUBufferElement@buffers@core@@XZ ; std::_Vector_alloc<std::_Vec_base_types<core::buffers::BufferElement,std::allocator<core::buffers::BufferElement> > >::_Mylast
	mov	rax, QWORD PTR [rax]
	mov	rcx, QWORD PTR tv69[rbp]
	cmp	QWORD PTR [rcx], rax
	je	SHORT $LN3@Has_unused
	mov	DWORD PTR tv77[rbp], 1
	jmp	SHORT $LN4@Has_unused
$LN3@Has_unused:
	mov	DWORD PTR tv77[rbp], 0
$LN4@Has_unused:
	movzx	eax, BYTE PTR tv77[rbp]

; 1796 : 		}

	lea	rsp, QWORD PTR [rbp+80]
	pop	rbp
	ret	0
?_Has_unused_capacity@?$vector@UBufferElement@buffers@core@@V?$allocator@UBufferElement@buffers@core@@@std@@@std@@AEBA_NXZ ENDP ; std::vector<core::buffers::BufferElement,std::allocator<core::buffers::BufferElement> >::_Has_unused_capacity
_TEXT	ENDS
; Function compile flags: /Odtp /RTCu /ZI
; File c:\program files (x86)\microsoft visual studio\2017\enterprise\vc\tools\msvc\14.14.26428\include\vector
;	COMDAT ?capacity@?$vector@UBufferElement@buffers@core@@V?$allocator@UBufferElement@buffers@core@@@std@@@std@@QEBA_KXZ
_TEXT	SEGMENT
tv69 = 64
this$ = 96
?capacity@?$vector@UBufferElement@buffers@core@@V?$allocator@UBufferElement@buffers@core@@@std@@@std@@QEBA_KXZ PROC ; std::vector<core::buffers::BufferElement,std::allocator<core::buffers::BufferElement> >::capacity, COMDAT

; 1783 : 		{	// return current length of allocated storage

$LN3:
	mov	QWORD PTR [rsp+8], rcx
	push	rbp
	sub	rsp, 112				; 00000070H
	lea	rbp, QWORD PTR [rsp+32]

; 1784 : 		return (static_cast<size_type>(this->_Myend() - this->_Myfirst()));

	mov	rcx, QWORD PTR this$[rbp]
	call	?_Myend@?$_Vector_alloc@U?$_Vec_base_types@UBufferElement@buffers@core@@V?$allocator@UBufferElement@buffers@core@@@std@@@std@@@std@@QEBAAEBQEAUBufferElement@buffers@core@@XZ ; std::_Vector_alloc<std::_Vec_base_types<core::buffers::BufferElement,std::allocator<core::buffers::BufferElement> > >::_Myend
	mov	QWORD PTR tv69[rbp], rax
	mov	rcx, QWORD PTR this$[rbp]
	call	?_Myfirst@?$_Vector_alloc@U?$_Vec_base_types@UBufferElement@buffers@core@@V?$allocator@UBufferElement@buffers@core@@@std@@@std@@@std@@QEBAAEBQEAUBufferElement@buffers@core@@XZ ; std::_Vector_alloc<std::_Vec_base_types<core::buffers::BufferElement,std::allocator<core::buffers::BufferElement> > >::_Myfirst
	mov	rax, QWORD PTR [rax]
	mov	rcx, QWORD PTR tv69[rbp]
	mov	rcx, QWORD PTR [rcx]
	sub	rcx, rax
	mov	rax, rcx
	cdq
	mov	ecx, 12
	idiv	rcx

; 1785 : 		}

	lea	rsp, QWORD PTR [rbp+80]
	pop	rbp
	ret	0
?capacity@?$vector@UBufferElement@buffers@core@@V?$allocator@UBufferElement@buffers@core@@@std@@@std@@QEBA_KXZ ENDP ; std::vector<core::buffers::BufferElement,std::allocator<core::buffers::BufferElement> >::capacity
_TEXT	ENDS
; Function compile flags: /Odtp /RTCu /ZI
; File c:\program files (x86)\microsoft visual studio\2017\enterprise\vc\tools\msvc\14.14.26428\include\vector
;	COMDAT ?max_size@?$vector@UBufferElement@buffers@core@@V?$allocator@UBufferElement@buffers@core@@@std@@@std@@QEBA_KXZ
_TEXT	SEGMENT
$T1 = 64
$T2 = 72
this$ = 96
?max_size@?$vector@UBufferElement@buffers@core@@V?$allocator@UBufferElement@buffers@core@@@std@@@std@@QEBA_KXZ PROC ; std::vector<core::buffers::BufferElement,std::allocator<core::buffers::BufferElement> >::max_size, COMDAT

; 1777 : 		{	// return maximum possible length of sequence

$LN3:
	mov	QWORD PTR [rsp+8], rcx
	push	rbp
	sub	rsp, 112				; 00000070H
	lea	rbp, QWORD PTR [rsp+32]

; 1778 : 		return (_Min_value(static_cast<size_type>((numeric_limits<difference_type>::max)()),

	mov	rcx, QWORD PTR this$[rbp]
	call	?_Getal@?$_Vector_alloc@U?$_Vec_base_types@UBufferElement@buffers@core@@V?$allocator@UBufferElement@buffers@core@@@std@@@std@@@std@@QEBAAEBV?$allocator@UBufferElement@buffers@core@@@2@XZ ; std::_Vector_alloc<std::_Vec_base_types<core::buffers::BufferElement,std::allocator<core::buffers::BufferElement> > >::_Getal
	mov	rcx, rax
	call	?max_size@?$_Default_allocator_traits@V?$allocator@UBufferElement@buffers@core@@@std@@@std@@SA_KAEBV?$allocator@UBufferElement@buffers@core@@@2@@Z ; std::_Default_allocator_traits<std::allocator<core::buffers::BufferElement> >::max_size
	mov	QWORD PTR $T1[rbp], rax
	call	?max@?$numeric_limits@_J@std@@SA_JXZ	; std::numeric_limits<__int64>::max
	mov	QWORD PTR $T2[rbp], rax
	lea	rdx, QWORD PTR $T1[rbp]
	lea	rcx, QWORD PTR $T2[rbp]
	call	??$_Min_value@_K@std@@YAAEB_KAEB_K0@Z	; std::_Min_value<unsigned __int64>
	mov	rax, QWORD PTR [rax]

; 1779 : 			_Alty_traits::max_size(this->_Getal())));
; 1780 : 		}

	lea	rsp, QWORD PTR [rbp+80]
	pop	rbp
	ret	0
?max_size@?$vector@UBufferElement@buffers@core@@V?$allocator@UBufferElement@buffers@core@@@std@@@std@@QEBA_KXZ ENDP ; std::vector<core::buffers::BufferElement,std::allocator<core::buffers::BufferElement> >::max_size
_TEXT	ENDS
; Function compile flags: /Odtp /RTCu /ZI
; File c:\program files (x86)\microsoft visual studio\2017\enterprise\vc\tools\msvc\14.14.26428\include\vector
;	COMDAT ?size@?$vector@UBufferElement@buffers@core@@V?$allocator@UBufferElement@buffers@core@@@std@@@std@@QEBA_KXZ
_TEXT	SEGMENT
tv69 = 64
this$ = 96
?size@?$vector@UBufferElement@buffers@core@@V?$allocator@UBufferElement@buffers@core@@@std@@@std@@QEBA_KXZ PROC ; std::vector<core::buffers::BufferElement,std::allocator<core::buffers::BufferElement> >::size, COMDAT

; 1772 : 		{	// return length of sequence

$LN3:
	mov	QWORD PTR [rsp+8], rcx
	push	rbp
	sub	rsp, 112				; 00000070H
	lea	rbp, QWORD PTR [rsp+32]

; 1773 : 		return (static_cast<size_type>(this->_Mylast() - this->_Myfirst()));

	mov	rcx, QWORD PTR this$[rbp]
	call	?_Mylast@?$_Vector_alloc@U?$_Vec_base_types@UBufferElement@buffers@core@@V?$allocator@UBufferElement@buffers@core@@@std@@@std@@@std@@QEBAAEBQEAUBufferElement@buffers@core@@XZ ; std::_Vector_alloc<std::_Vec_base_types<core::buffers::BufferElement,std::allocator<core::buffers::BufferElement> > >::_Mylast
	mov	QWORD PTR tv69[rbp], rax
	mov	rcx, QWORD PTR this$[rbp]
	call	?_Myfirst@?$_Vector_alloc@U?$_Vec_base_types@UBufferElement@buffers@core@@V?$allocator@UBufferElement@buffers@core@@@std@@@std@@@std@@QEBAAEBQEAUBufferElement@buffers@core@@XZ ; std::_Vector_alloc<std::_Vec_base_types<core::buffers::BufferElement,std::allocator<core::buffers::BufferElement> > >::_Myfirst
	mov	rax, QWORD PTR [rax]
	mov	rcx, QWORD PTR tv69[rbp]
	mov	rcx, QWORD PTR [rcx]
	sub	rcx, rax
	mov	rax, rcx
	cdq
	mov	ecx, 12
	idiv	rcx

; 1774 : 		}

	lea	rsp, QWORD PTR [rbp+80]
	pop	rbp
	ret	0
?size@?$vector@UBufferElement@buffers@core@@V?$allocator@UBufferElement@buffers@core@@@std@@@std@@QEBA_KXZ ENDP ; std::vector<core::buffers::BufferElement,std::allocator<core::buffers::BufferElement> >::size
_TEXT	ENDS
; Function compile flags: /Odtp /RTCu /ZI
; File c:\program files (x86)\microsoft visual studio\2017\enterprise\vc\tools\msvc\14.14.26428\include\vector
;	COMDAT ?push_back@?$vector@UBufferElement@buffers@core@@V?$allocator@UBufferElement@buffers@core@@@std@@@std@@QEAAX$$QEAUBufferElement@buffers@core@@@Z
_TEXT	SEGMENT
this$ = 80
_Val$ = 88
?push_back@?$vector@UBufferElement@buffers@core@@V?$allocator@UBufferElement@buffers@core@@@std@@@std@@QEAAX$$QEAUBufferElement@buffers@core@@@Z PROC ; std::vector<core::buffers::BufferElement,std::allocator<core::buffers::BufferElement> >::push_back, COMDAT

; 985  : 		{	// insert by moving into element at end, provide strong guarantee

$LN3:
	mov	QWORD PTR [rsp+16], rdx
	mov	QWORD PTR [rsp+8], rcx
	push	rbp
	sub	rsp, 96					; 00000060H
	lea	rbp, QWORD PTR [rsp+32]

; 986  : 		emplace_back(_STD move(_Val));

	mov	rcx, QWORD PTR _Val$[rbp]
	call	??$move@AEAUBufferElement@buffers@core@@@std@@YA$$QEAUBufferElement@buffers@core@@AEAU123@@Z ; std::move<core::buffers::BufferElement &>
	mov	rdx, rax
	mov	rcx, QWORD PTR this$[rbp]
	call	??$emplace_back@UBufferElement@buffers@core@@@?$vector@UBufferElement@buffers@core@@V?$allocator@UBufferElement@buffers@core@@@std@@@std@@QEAA@$$QEAUBufferElement@buffers@core@@@Z ; std::vector<core::buffers::BufferElement,std::allocator<core::buffers::BufferElement> >::emplace_back<core::buffers::BufferElement>

; 987  : 		}

	lea	rsp, QWORD PTR [rbp+64]
	pop	rbp
	ret	0
?push_back@?$vector@UBufferElement@buffers@core@@V?$allocator@UBufferElement@buffers@core@@@std@@@std@@QEAAX$$QEAUBufferElement@buffers@core@@@Z ENDP ; std::vector<core::buffers::BufferElement,std::allocator<core::buffers::BufferElement> >::push_back
_TEXT	ENDS
; Function compile flags: /Odtp /RTCu /ZI
; File c:\program files (x86)\microsoft visual studio\2017\enterprise\vc\tools\msvc\14.14.26428\include\vector
;	COMDAT ??1?$vector@UBufferElement@buffers@core@@V?$allocator@UBufferElement@buffers@core@@@std@@@std@@QEAA@XZ
_TEXT	SEGMENT
$T1 = 64
this$ = 96
??1?$vector@UBufferElement@buffers@core@@V?$allocator@UBufferElement@buffers@core@@@std@@@std@@QEAA@XZ PROC ; std::vector<core::buffers::BufferElement,std::allocator<core::buffers::BufferElement> >::~vector<core::buffers::BufferElement,std::allocator<core::buffers::BufferElement> >, COMDAT

; 942  : 		{	// destroy the object

$LN3:
	mov	QWORD PTR [rsp+8], rcx
	push	rbp
	sub	rsp, 112				; 00000070H
	lea	rbp, QWORD PTR [rsp+32]
	mov	QWORD PTR $T1[rbp], -2

; 943  : 		_Tidy();

	mov	rcx, QWORD PTR this$[rbp]
	call	?_Tidy@?$vector@UBufferElement@buffers@core@@V?$allocator@UBufferElement@buffers@core@@@std@@@std@@AEAAXXZ ; std::vector<core::buffers::BufferElement,std::allocator<core::buffers::BufferElement> >::_Tidy
	npad	1

; 944  : 		}

	mov	rcx, QWORD PTR this$[rbp]
	call	??1?$_Vector_alloc@U?$_Vec_base_types@UBufferElement@buffers@core@@V?$allocator@UBufferElement@buffers@core@@@std@@@std@@@std@@QEAA@XZ ; std::_Vector_alloc<std::_Vec_base_types<core::buffers::BufferElement,std::allocator<core::buffers::BufferElement> > >::~_Vector_alloc<std::_Vec_base_types<core::buffers::BufferElement,std::allocator<core::buffers::BufferElement> > >
	npad	1
	lea	rsp, QWORD PTR [rbp+80]
	pop	rbp
	ret	0
??1?$vector@UBufferElement@buffers@core@@V?$allocator@UBufferElement@buffers@core@@@std@@@std@@QEAA@XZ ENDP ; std::vector<core::buffers::BufferElement,std::allocator<core::buffers::BufferElement> >::~vector<core::buffers::BufferElement,std::allocator<core::buffers::BufferElement> >
_TEXT	ENDS
; Function compile flags: /Odtp /RTCu /ZI
; File c:\program files (x86)\microsoft visual studio\2017\enterprise\vc\tools\msvc\14.14.26428\include\vector
;	COMDAT ??0?$vector@UBufferElement@buffers@core@@V?$allocator@UBufferElement@buffers@core@@@std@@@std@@QEAA@XZ
_TEXT	SEGMENT
$T1 = 64
this$ = 96
??0?$vector@UBufferElement@buffers@core@@V?$allocator@UBufferElement@buffers@core@@@std@@@std@@QEAA@XZ PROC ; std::vector<core::buffers::BufferElement,std::allocator<core::buffers::BufferElement> >::vector<core::buffers::BufferElement,std::allocator<core::buffers::BufferElement> >, COMDAT

; 700  : 		{	// construct empty vector

$LN3:
	mov	QWORD PTR [rsp+8], rcx
	push	rbp
	sub	rsp, 112				; 00000070H
	lea	rbp, QWORD PTR [rsp+32]
	mov	QWORD PTR $T1[rbp], -2

; 699  : 		: _Mybase()

	mov	rcx, QWORD PTR this$[rbp]
	call	??0?$_Vector_alloc@U?$_Vec_base_types@UBufferElement@buffers@core@@V?$allocator@UBufferElement@buffers@core@@@std@@@std@@@std@@QEAA@XZ ; std::_Vector_alloc<std::_Vec_base_types<core::buffers::BufferElement,std::allocator<core::buffers::BufferElement> > >::_Vector_alloc<std::_Vec_base_types<core::buffers::BufferElement,std::allocator<core::buffers::BufferElement> > >
	npad	1

; 701  : 		}

	mov	rax, QWORD PTR this$[rbp]
	lea	rsp, QWORD PTR [rbp+80]
	pop	rbp
	ret	0
??0?$vector@UBufferElement@buffers@core@@V?$allocator@UBufferElement@buffers@core@@@std@@@std@@QEAA@XZ ENDP ; std::vector<core::buffers::BufferElement,std::allocator<core::buffers::BufferElement> >::vector<core::buffers::BufferElement,std::allocator<core::buffers::BufferElement> >
_TEXT	ENDS
; Function compile flags: /Odtp /RTCu /ZI
; File c:\program files (x86)\microsoft visual studio\2017\enterprise\vc\tools\msvc\14.14.26428\include\xutility
;	COMDAT ?_Get_second@?$_Compressed_pair@V?$allocator@UBufferElement@buffers@core@@@std@@V?$_Vector_val@U?$_Simple_types@UBufferElement@buffers@core@@@std@@@2@$00@std@@QEBAAEBV?$_Vector_val@U?$_Simple_types@UBufferElement@buffers@core@@@std@@@2@XZ
_TEXT	SEGMENT
this$ = 80
?_Get_second@?$_Compressed_pair@V?$allocator@UBufferElement@buffers@core@@@std@@V?$_Vector_val@U?$_Simple_types@UBufferElement@buffers@core@@@std@@@2@$00@std@@QEBAAEBV?$_Vector_val@U?$_Simple_types@UBufferElement@buffers@core@@@std@@@2@XZ PROC ; std::_Compressed_pair<std::allocator<core::buffers::BufferElement>,std::_Vector_val<std::_Simple_types<core::buffers::BufferElement> >,1>::_Get_second, COMDAT

; 354  : 		{	// return const reference to second

$LN3:
	mov	QWORD PTR [rsp+8], rcx
	push	rbp
	sub	rsp, 64					; 00000040H
	mov	rbp, rsp

; 355  : 		return (_Myval2);

	mov	rax, QWORD PTR this$[rbp]

; 356  : 		}

	lea	rsp, QWORD PTR [rbp+64]
	pop	rbp
	ret	0
?_Get_second@?$_Compressed_pair@V?$allocator@UBufferElement@buffers@core@@@std@@V?$_Vector_val@U?$_Simple_types@UBufferElement@buffers@core@@@std@@@2@$00@std@@QEBAAEBV?$_Vector_val@U?$_Simple_types@UBufferElement@buffers@core@@@std@@@2@XZ ENDP ; std::_Compressed_pair<std::allocator<core::buffers::BufferElement>,std::_Vector_val<std::_Simple_types<core::buffers::BufferElement> >,1>::_Get_second
_TEXT	ENDS
; Function compile flags: /Odtp /RTCu /ZI
; File c:\program files (x86)\microsoft visual studio\2017\enterprise\vc\tools\msvc\14.14.26428\include\xutility
;	COMDAT ?_Get_second@?$_Compressed_pair@V?$allocator@UBufferElement@buffers@core@@@std@@V?$_Vector_val@U?$_Simple_types@UBufferElement@buffers@core@@@std@@@2@$00@std@@QEAAAEAV?$_Vector_val@U?$_Simple_types@UBufferElement@buffers@core@@@std@@@2@XZ
_TEXT	SEGMENT
this$ = 80
?_Get_second@?$_Compressed_pair@V?$allocator@UBufferElement@buffers@core@@@std@@V?$_Vector_val@U?$_Simple_types@UBufferElement@buffers@core@@@std@@@2@$00@std@@QEAAAEAV?$_Vector_val@U?$_Simple_types@UBufferElement@buffers@core@@@std@@@2@XZ PROC ; std::_Compressed_pair<std::allocator<core::buffers::BufferElement>,std::_Vector_val<std::_Simple_types<core::buffers::BufferElement> >,1>::_Get_second, COMDAT

; 349  : 		{	// return reference to second

$LN3:
	mov	QWORD PTR [rsp+8], rcx
	push	rbp
	sub	rsp, 64					; 00000040H
	mov	rbp, rsp

; 350  : 		return (_Myval2);

	mov	rax, QWORD PTR this$[rbp]

; 351  : 		}

	lea	rsp, QWORD PTR [rbp+64]
	pop	rbp
	ret	0
?_Get_second@?$_Compressed_pair@V?$allocator@UBufferElement@buffers@core@@@std@@V?$_Vector_val@U?$_Simple_types@UBufferElement@buffers@core@@@std@@@2@$00@std@@QEAAAEAV?$_Vector_val@U?$_Simple_types@UBufferElement@buffers@core@@@std@@@2@XZ ENDP ; std::_Compressed_pair<std::allocator<core::buffers::BufferElement>,std::_Vector_val<std::_Simple_types<core::buffers::BufferElement> >,1>::_Get_second
_TEXT	ENDS
; Function compile flags: /Odtp /RTCu /ZI
; File c:\program files (x86)\microsoft visual studio\2017\enterprise\vc\tools\msvc\14.14.26428\include\xutility
;	COMDAT ?_Get_first@?$_Compressed_pair@V?$allocator@UBufferElement@buffers@core@@@std@@V?$_Vector_val@U?$_Simple_types@UBufferElement@buffers@core@@@std@@@2@$00@std@@QEBAAEBV?$allocator@UBufferElement@buffers@core@@@2@XZ
_TEXT	SEGMENT
this$ = 80
?_Get_first@?$_Compressed_pair@V?$allocator@UBufferElement@buffers@core@@@std@@V?$_Vector_val@U?$_Simple_types@UBufferElement@buffers@core@@@std@@@2@$00@std@@QEBAAEBV?$allocator@UBufferElement@buffers@core@@@2@XZ PROC ; std::_Compressed_pair<std::allocator<core::buffers::BufferElement>,std::_Vector_val<std::_Simple_types<core::buffers::BufferElement> >,1>::_Get_first, COMDAT

; 334  : 		{	// return const reference to first

$LN3:
	mov	QWORD PTR [rsp+8], rcx
	push	rbp
	sub	rsp, 64					; 00000040H
	mov	rbp, rsp

; 335  : 		return (*this);

	mov	rax, QWORD PTR this$[rbp]

; 336  : 		}

	lea	rsp, QWORD PTR [rbp+64]
	pop	rbp
	ret	0
?_Get_first@?$_Compressed_pair@V?$allocator@UBufferElement@buffers@core@@@std@@V?$_Vector_val@U?$_Simple_types@UBufferElement@buffers@core@@@std@@@2@$00@std@@QEBAAEBV?$allocator@UBufferElement@buffers@core@@@2@XZ ENDP ; std::_Compressed_pair<std::allocator<core::buffers::BufferElement>,std::_Vector_val<std::_Simple_types<core::buffers::BufferElement> >,1>::_Get_first
_TEXT	ENDS
; Function compile flags: /Odtp /RTCu /ZI
; File c:\program files (x86)\microsoft visual studio\2017\enterprise\vc\tools\msvc\14.14.26428\include\xutility
;	COMDAT ?_Get_first@?$_Compressed_pair@V?$allocator@UBufferElement@buffers@core@@@std@@V?$_Vector_val@U?$_Simple_types@UBufferElement@buffers@core@@@std@@@2@$00@std@@QEAAAEAV?$allocator@UBufferElement@buffers@core@@@2@XZ
_TEXT	SEGMENT
this$ = 80
?_Get_first@?$_Compressed_pair@V?$allocator@UBufferElement@buffers@core@@@std@@V?$_Vector_val@U?$_Simple_types@UBufferElement@buffers@core@@@std@@@2@$00@std@@QEAAAEAV?$allocator@UBufferElement@buffers@core@@@2@XZ PROC ; std::_Compressed_pair<std::allocator<core::buffers::BufferElement>,std::_Vector_val<std::_Simple_types<core::buffers::BufferElement> >,1>::_Get_first, COMDAT

; 329  : 		{	// return reference to first

$LN3:
	mov	QWORD PTR [rsp+8], rcx
	push	rbp
	sub	rsp, 64					; 00000040H
	mov	rbp, rsp

; 330  : 		return (*this);

	mov	rax, QWORD PTR this$[rbp]

; 331  : 		}

	lea	rsp, QWORD PTR [rbp+64]
	pop	rbp
	ret	0
?_Get_first@?$_Compressed_pair@V?$allocator@UBufferElement@buffers@core@@@std@@V?$_Vector_val@U?$_Simple_types@UBufferElement@buffers@core@@@std@@@2@$00@std@@QEAAAEAV?$allocator@UBufferElement@buffers@core@@@2@XZ ENDP ; std::_Compressed_pair<std::allocator<core::buffers::BufferElement>,std::_Vector_val<std::_Simple_types<core::buffers::BufferElement> >,1>::_Get_first
_TEXT	ENDS
; Function compile flags: /Odtp /RTCu /ZI
; File c:\program files (x86)\microsoft visual studio\2017\enterprise\vc\tools\msvc\14.14.26428\include\vector
;	COMDAT ??0?$_Vector_val@U?$_Simple_types@UBufferElement@buffers@core@@@std@@@std@@QEAA@XZ
_TEXT	SEGMENT
this$ = 80
??0?$_Vector_val@U?$_Simple_types@UBufferElement@buffers@core@@@std@@@std@@QEAA@XZ PROC ; std::_Vector_val<std::_Simple_types<core::buffers::BufferElement> >::_Vector_val<std::_Simple_types<core::buffers::BufferElement> >, COMDAT

; 441  : 		{	// initialize values

$LN3:
	mov	QWORD PTR [rsp+8], rcx
	push	rbp
	sub	rsp, 96					; 00000060H
	lea	rbp, QWORD PTR [rsp+32]
	mov	rcx, QWORD PTR this$[rbp]
	call	??0_Container_base12@std@@QEAA@XZ	; std::_Container_base12::_Container_base12

; 438  : 		: _Myfirst(),

	mov	rax, QWORD PTR this$[rbp]
	mov	QWORD PTR [rax+8], 0

; 439  : 		_Mylast(),

	mov	rax, QWORD PTR this$[rbp]
	mov	QWORD PTR [rax+16], 0

; 440  : 		_Myend()

	mov	rax, QWORD PTR this$[rbp]
	mov	QWORD PTR [rax+24], 0

; 442  : 		}

	mov	rax, QWORD PTR this$[rbp]
	lea	rsp, QWORD PTR [rbp+64]
	pop	rbp
	ret	0
??0?$_Vector_val@U?$_Simple_types@UBufferElement@buffers@core@@@std@@@std@@QEAA@XZ ENDP ; std::_Vector_val<std::_Simple_types<core::buffers::BufferElement> >::_Vector_val<std::_Simple_types<core::buffers::BufferElement> >
_TEXT	ENDS
; Function compile flags: /Odtp /RTCu /ZI
; File c:\program files (x86)\microsoft visual studio\2017\enterprise\vc\tools\msvc\14.14.26428\include\vector
;	COMDAT ?_Myend@?$_Vector_alloc@U?$_Vec_base_types@UBufferElement@buffers@core@@V?$allocator@UBufferElement@buffers@core@@@std@@@std@@@std@@QEBAAEBQEAUBufferElement@buffers@core@@XZ
_TEXT	SEGMENT
this$ = 80
?_Myend@?$_Vector_alloc@U?$_Vec_base_types@UBufferElement@buffers@core@@V?$allocator@UBufferElement@buffers@core@@@std@@@std@@@std@@QEBAAEBQEAUBufferElement@buffers@core@@XZ PROC ; std::_Vector_alloc<std::_Vec_base_types<core::buffers::BufferElement,std::allocator<core::buffers::BufferElement> > >::_Myend, COMDAT

; 649  : 		{	// return const reference to _Myend

$LN3:
	mov	QWORD PTR [rsp+8], rcx
	push	rbp
	sub	rsp, 96					; 00000060H
	lea	rbp, QWORD PTR [rsp+32]

; 650  : 		return (_Get_data()._Myend);

	mov	rcx, QWORD PTR this$[rbp]
	call	?_Get_data@?$_Vector_alloc@U?$_Vec_base_types@UBufferElement@buffers@core@@V?$allocator@UBufferElement@buffers@core@@@std@@@std@@@std@@QEBAAEBV?$_Vector_val@U?$_Simple_types@UBufferElement@buffers@core@@@std@@@2@XZ ; std::_Vector_alloc<std::_Vec_base_types<core::buffers::BufferElement,std::allocator<core::buffers::BufferElement> > >::_Get_data
	add	rax, 24

; 651  : 		}

	lea	rsp, QWORD PTR [rbp+64]
	pop	rbp
	ret	0
?_Myend@?$_Vector_alloc@U?$_Vec_base_types@UBufferElement@buffers@core@@V?$allocator@UBufferElement@buffers@core@@@std@@@std@@@std@@QEBAAEBQEAUBufferElement@buffers@core@@XZ ENDP ; std::_Vector_alloc<std::_Vec_base_types<core::buffers::BufferElement,std::allocator<core::buffers::BufferElement> > >::_Myend
_TEXT	ENDS
; Function compile flags: /Odtp /RTCu /ZI
; File c:\program files (x86)\microsoft visual studio\2017\enterprise\vc\tools\msvc\14.14.26428\include\vector
;	COMDAT ?_Myend@?$_Vector_alloc@U?$_Vec_base_types@UBufferElement@buffers@core@@V?$allocator@UBufferElement@buffers@core@@@std@@@std@@@std@@QEAAAEAPEAUBufferElement@buffers@core@@XZ
_TEXT	SEGMENT
this$ = 80
?_Myend@?$_Vector_alloc@U?$_Vec_base_types@UBufferElement@buffers@core@@V?$allocator@UBufferElement@buffers@core@@@std@@@std@@@std@@QEAAAEAPEAUBufferElement@buffers@core@@XZ PROC ; std::_Vector_alloc<std::_Vec_base_types<core::buffers::BufferElement,std::allocator<core::buffers::BufferElement> > >::_Myend, COMDAT

; 644  : 		{	// return reference to _Myend

$LN3:
	mov	QWORD PTR [rsp+8], rcx
	push	rbp
	sub	rsp, 96					; 00000060H
	lea	rbp, QWORD PTR [rsp+32]

; 645  : 		return (_Get_data()._Myend);

	mov	rcx, QWORD PTR this$[rbp]
	call	?_Get_data@?$_Vector_alloc@U?$_Vec_base_types@UBufferElement@buffers@core@@V?$allocator@UBufferElement@buffers@core@@@std@@@std@@@std@@QEAAAEAV?$_Vector_val@U?$_Simple_types@UBufferElement@buffers@core@@@std@@@2@XZ ; std::_Vector_alloc<std::_Vec_base_types<core::buffers::BufferElement,std::allocator<core::buffers::BufferElement> > >::_Get_data
	add	rax, 24

; 646  : 		}

	lea	rsp, QWORD PTR [rbp+64]
	pop	rbp
	ret	0
?_Myend@?$_Vector_alloc@U?$_Vec_base_types@UBufferElement@buffers@core@@V?$allocator@UBufferElement@buffers@core@@@std@@@std@@@std@@QEAAAEAPEAUBufferElement@buffers@core@@XZ ENDP ; std::_Vector_alloc<std::_Vec_base_types<core::buffers::BufferElement,std::allocator<core::buffers::BufferElement> > >::_Myend
_TEXT	ENDS
; Function compile flags: /Odtp /RTCu /ZI
; File c:\program files (x86)\microsoft visual studio\2017\enterprise\vc\tools\msvc\14.14.26428\include\vector
;	COMDAT ?_Mylast@?$_Vector_alloc@U?$_Vec_base_types@UBufferElement@buffers@core@@V?$allocator@UBufferElement@buffers@core@@@std@@@std@@@std@@QEBAAEBQEAUBufferElement@buffers@core@@XZ
_TEXT	SEGMENT
this$ = 80
?_Mylast@?$_Vector_alloc@U?$_Vec_base_types@UBufferElement@buffers@core@@V?$allocator@UBufferElement@buffers@core@@@std@@@std@@@std@@QEBAAEBQEAUBufferElement@buffers@core@@XZ PROC ; std::_Vector_alloc<std::_Vec_base_types<core::buffers::BufferElement,std::allocator<core::buffers::BufferElement> > >::_Mylast, COMDAT

; 639  : 		{	// return const reference to _Mylast

$LN3:
	mov	QWORD PTR [rsp+8], rcx
	push	rbp
	sub	rsp, 96					; 00000060H
	lea	rbp, QWORD PTR [rsp+32]

; 640  : 		return (_Get_data()._Mylast);

	mov	rcx, QWORD PTR this$[rbp]
	call	?_Get_data@?$_Vector_alloc@U?$_Vec_base_types@UBufferElement@buffers@core@@V?$allocator@UBufferElement@buffers@core@@@std@@@std@@@std@@QEBAAEBV?$_Vector_val@U?$_Simple_types@UBufferElement@buffers@core@@@std@@@2@XZ ; std::_Vector_alloc<std::_Vec_base_types<core::buffers::BufferElement,std::allocator<core::buffers::BufferElement> > >::_Get_data
	add	rax, 16

; 641  : 		}

	lea	rsp, QWORD PTR [rbp+64]
	pop	rbp
	ret	0
?_Mylast@?$_Vector_alloc@U?$_Vec_base_types@UBufferElement@buffers@core@@V?$allocator@UBufferElement@buffers@core@@@std@@@std@@@std@@QEBAAEBQEAUBufferElement@buffers@core@@XZ ENDP ; std::_Vector_alloc<std::_Vec_base_types<core::buffers::BufferElement,std::allocator<core::buffers::BufferElement> > >::_Mylast
_TEXT	ENDS
; Function compile flags: /Odtp /RTCu /ZI
; File c:\program files (x86)\microsoft visual studio\2017\enterprise\vc\tools\msvc\14.14.26428\include\vector
;	COMDAT ?_Mylast@?$_Vector_alloc@U?$_Vec_base_types@UBufferElement@buffers@core@@V?$allocator@UBufferElement@buffers@core@@@std@@@std@@@std@@QEAAAEAPEAUBufferElement@buffers@core@@XZ
_TEXT	SEGMENT
this$ = 80
?_Mylast@?$_Vector_alloc@U?$_Vec_base_types@UBufferElement@buffers@core@@V?$allocator@UBufferElement@buffers@core@@@std@@@std@@@std@@QEAAAEAPEAUBufferElement@buffers@core@@XZ PROC ; std::_Vector_alloc<std::_Vec_base_types<core::buffers::BufferElement,std::allocator<core::buffers::BufferElement> > >::_Mylast, COMDAT

; 634  : 		{	// return reference to _Mylast

$LN3:
	mov	QWORD PTR [rsp+8], rcx
	push	rbp
	sub	rsp, 96					; 00000060H
	lea	rbp, QWORD PTR [rsp+32]

; 635  : 		return (_Get_data()._Mylast);

	mov	rcx, QWORD PTR this$[rbp]
	call	?_Get_data@?$_Vector_alloc@U?$_Vec_base_types@UBufferElement@buffers@core@@V?$allocator@UBufferElement@buffers@core@@@std@@@std@@@std@@QEAAAEAV?$_Vector_val@U?$_Simple_types@UBufferElement@buffers@core@@@std@@@2@XZ ; std::_Vector_alloc<std::_Vec_base_types<core::buffers::BufferElement,std::allocator<core::buffers::BufferElement> > >::_Get_data
	add	rax, 16

; 636  : 		}

	lea	rsp, QWORD PTR [rbp+64]
	pop	rbp
	ret	0
?_Mylast@?$_Vector_alloc@U?$_Vec_base_types@UBufferElement@buffers@core@@V?$allocator@UBufferElement@buffers@core@@@std@@@std@@@std@@QEAAAEAPEAUBufferElement@buffers@core@@XZ ENDP ; std::_Vector_alloc<std::_Vec_base_types<core::buffers::BufferElement,std::allocator<core::buffers::BufferElement> > >::_Mylast
_TEXT	ENDS
; Function compile flags: /Odtp /RTCu /ZI
; File c:\program files (x86)\microsoft visual studio\2017\enterprise\vc\tools\msvc\14.14.26428\include\vector
;	COMDAT ?_Myfirst@?$_Vector_alloc@U?$_Vec_base_types@UBufferElement@buffers@core@@V?$allocator@UBufferElement@buffers@core@@@std@@@std@@@std@@QEBAAEBQEAUBufferElement@buffers@core@@XZ
_TEXT	SEGMENT
this$ = 80
?_Myfirst@?$_Vector_alloc@U?$_Vec_base_types@UBufferElement@buffers@core@@V?$allocator@UBufferElement@buffers@core@@@std@@@std@@@std@@QEBAAEBQEAUBufferElement@buffers@core@@XZ PROC ; std::_Vector_alloc<std::_Vec_base_types<core::buffers::BufferElement,std::allocator<core::buffers::BufferElement> > >::_Myfirst, COMDAT

; 629  : 		{	// return const reference to _Myfirst

$LN3:
	mov	QWORD PTR [rsp+8], rcx
	push	rbp
	sub	rsp, 96					; 00000060H
	lea	rbp, QWORD PTR [rsp+32]

; 630  : 		return (_Get_data()._Myfirst);

	mov	rcx, QWORD PTR this$[rbp]
	call	?_Get_data@?$_Vector_alloc@U?$_Vec_base_types@UBufferElement@buffers@core@@V?$allocator@UBufferElement@buffers@core@@@std@@@std@@@std@@QEBAAEBV?$_Vector_val@U?$_Simple_types@UBufferElement@buffers@core@@@std@@@2@XZ ; std::_Vector_alloc<std::_Vec_base_types<core::buffers::BufferElement,std::allocator<core::buffers::BufferElement> > >::_Get_data
	add	rax, 8

; 631  : 		}

	lea	rsp, QWORD PTR [rbp+64]
	pop	rbp
	ret	0
?_Myfirst@?$_Vector_alloc@U?$_Vec_base_types@UBufferElement@buffers@core@@V?$allocator@UBufferElement@buffers@core@@@std@@@std@@@std@@QEBAAEBQEAUBufferElement@buffers@core@@XZ ENDP ; std::_Vector_alloc<std::_Vec_base_types<core::buffers::BufferElement,std::allocator<core::buffers::BufferElement> > >::_Myfirst
_TEXT	ENDS
; Function compile flags: /Odtp /RTCu /ZI
; File c:\program files (x86)\microsoft visual studio\2017\enterprise\vc\tools\msvc\14.14.26428\include\vector
;	COMDAT ?_Myfirst@?$_Vector_alloc@U?$_Vec_base_types@UBufferElement@buffers@core@@V?$allocator@UBufferElement@buffers@core@@@std@@@std@@@std@@QEAAAEAPEAUBufferElement@buffers@core@@XZ
_TEXT	SEGMENT
this$ = 80
?_Myfirst@?$_Vector_alloc@U?$_Vec_base_types@UBufferElement@buffers@core@@V?$allocator@UBufferElement@buffers@core@@@std@@@std@@@std@@QEAAAEAPEAUBufferElement@buffers@core@@XZ PROC ; std::_Vector_alloc<std::_Vec_base_types<core::buffers::BufferElement,std::allocator<core::buffers::BufferElement> > >::_Myfirst, COMDAT

; 624  : 		{	// return reference to _Myfirst

$LN3:
	mov	QWORD PTR [rsp+8], rcx
	push	rbp
	sub	rsp, 96					; 00000060H
	lea	rbp, QWORD PTR [rsp+32]

; 625  : 		return (_Get_data()._Myfirst);

	mov	rcx, QWORD PTR this$[rbp]
	call	?_Get_data@?$_Vector_alloc@U?$_Vec_base_types@UBufferElement@buffers@core@@V?$allocator@UBufferElement@buffers@core@@@std@@@std@@@std@@QEAAAEAV?$_Vector_val@U?$_Simple_types@UBufferElement@buffers@core@@@std@@@2@XZ ; std::_Vector_alloc<std::_Vec_base_types<core::buffers::BufferElement,std::allocator<core::buffers::BufferElement> > >::_Get_data
	add	rax, 8

; 626  : 		}

	lea	rsp, QWORD PTR [rbp+64]
	pop	rbp
	ret	0
?_Myfirst@?$_Vector_alloc@U?$_Vec_base_types@UBufferElement@buffers@core@@V?$allocator@UBufferElement@buffers@core@@@std@@@std@@@std@@QEAAAEAPEAUBufferElement@buffers@core@@XZ ENDP ; std::_Vector_alloc<std::_Vec_base_types<core::buffers::BufferElement,std::allocator<core::buffers::BufferElement> > >::_Myfirst
_TEXT	ENDS
; Function compile flags: /Odtp /RTCu /ZI
; File c:\program files (x86)\microsoft visual studio\2017\enterprise\vc\tools\msvc\14.14.26428\include\vector
;	COMDAT ?_Get_data@?$_Vector_alloc@U?$_Vec_base_types@UBufferElement@buffers@core@@V?$allocator@UBufferElement@buffers@core@@@std@@@std@@@std@@QEBAAEBV?$_Vector_val@U?$_Simple_types@UBufferElement@buffers@core@@@std@@@2@XZ
_TEXT	SEGMENT
this$ = 80
?_Get_data@?$_Vector_alloc@U?$_Vec_base_types@UBufferElement@buffers@core@@V?$allocator@UBufferElement@buffers@core@@@std@@@std@@@std@@QEBAAEBV?$_Vector_val@U?$_Simple_types@UBufferElement@buffers@core@@@std@@@2@XZ PROC ; std::_Vector_alloc<std::_Vec_base_types<core::buffers::BufferElement,std::allocator<core::buffers::BufferElement> > >::_Get_data, COMDAT

; 608  : 		{	// return const reference to _Vector_val

$LN3:
	mov	QWORD PTR [rsp+8], rcx
	push	rbp
	sub	rsp, 96					; 00000060H
	lea	rbp, QWORD PTR [rsp+32]

; 609  : 		return (_Mypair._Get_second());

	mov	rax, QWORD PTR this$[rbp]
	mov	rcx, rax
	call	?_Get_second@?$_Compressed_pair@V?$allocator@UBufferElement@buffers@core@@@std@@V?$_Vector_val@U?$_Simple_types@UBufferElement@buffers@core@@@std@@@2@$00@std@@QEBAAEBV?$_Vector_val@U?$_Simple_types@UBufferElement@buffers@core@@@std@@@2@XZ ; std::_Compressed_pair<std::allocator<core::buffers::BufferElement>,std::_Vector_val<std::_Simple_types<core::buffers::BufferElement> >,1>::_Get_second

; 610  : 		}

	lea	rsp, QWORD PTR [rbp+64]
	pop	rbp
	ret	0
?_Get_data@?$_Vector_alloc@U?$_Vec_base_types@UBufferElement@buffers@core@@V?$allocator@UBufferElement@buffers@core@@@std@@@std@@@std@@QEBAAEBV?$_Vector_val@U?$_Simple_types@UBufferElement@buffers@core@@@std@@@2@XZ ENDP ; std::_Vector_alloc<std::_Vec_base_types<core::buffers::BufferElement,std::allocator<core::buffers::BufferElement> > >::_Get_data
_TEXT	ENDS
; Function compile flags: /Odtp /RTCu /ZI
; File c:\program files (x86)\microsoft visual studio\2017\enterprise\vc\tools\msvc\14.14.26428\include\vector
;	COMDAT ?_Get_data@?$_Vector_alloc@U?$_Vec_base_types@UBufferElement@buffers@core@@V?$allocator@UBufferElement@buffers@core@@@std@@@std@@@std@@QEAAAEAV?$_Vector_val@U?$_Simple_types@UBufferElement@buffers@core@@@std@@@2@XZ
_TEXT	SEGMENT
this$ = 80
?_Get_data@?$_Vector_alloc@U?$_Vec_base_types@UBufferElement@buffers@core@@V?$allocator@UBufferElement@buffers@core@@@std@@@std@@@std@@QEAAAEAV?$_Vector_val@U?$_Simple_types@UBufferElement@buffers@core@@@std@@@2@XZ PROC ; std::_Vector_alloc<std::_Vec_base_types<core::buffers::BufferElement,std::allocator<core::buffers::BufferElement> > >::_Get_data, COMDAT

; 603  : 		{	// return reference to _Vector_val

$LN3:
	mov	QWORD PTR [rsp+8], rcx
	push	rbp
	sub	rsp, 96					; 00000060H
	lea	rbp, QWORD PTR [rsp+32]

; 604  : 		return (_Mypair._Get_second());

	mov	rax, QWORD PTR this$[rbp]
	mov	rcx, rax
	call	?_Get_second@?$_Compressed_pair@V?$allocator@UBufferElement@buffers@core@@@std@@V?$_Vector_val@U?$_Simple_types@UBufferElement@buffers@core@@@std@@@2@$00@std@@QEAAAEAV?$_Vector_val@U?$_Simple_types@UBufferElement@buffers@core@@@std@@@2@XZ ; std::_Compressed_pair<std::allocator<core::buffers::BufferElement>,std::_Vector_val<std::_Simple_types<core::buffers::BufferElement> >,1>::_Get_second

; 605  : 		}

	lea	rsp, QWORD PTR [rbp+64]
	pop	rbp
	ret	0
?_Get_data@?$_Vector_alloc@U?$_Vec_base_types@UBufferElement@buffers@core@@V?$allocator@UBufferElement@buffers@core@@@std@@@std@@@std@@QEAAAEAV?$_Vector_val@U?$_Simple_types@UBufferElement@buffers@core@@@std@@@2@XZ ENDP ; std::_Vector_alloc<std::_Vec_base_types<core::buffers::BufferElement,std::allocator<core::buffers::BufferElement> > >::_Get_data
_TEXT	ENDS
; Function compile flags: /Odtp /RTCu /ZI
; File c:\program files (x86)\microsoft visual studio\2017\enterprise\vc\tools\msvc\14.14.26428\include\vector
;	COMDAT ?_Getal@?$_Vector_alloc@U?$_Vec_base_types@UBufferElement@buffers@core@@V?$allocator@UBufferElement@buffers@core@@@std@@@std@@@std@@QEBAAEBV?$allocator@UBufferElement@buffers@core@@@2@XZ
_TEXT	SEGMENT
this$ = 80
?_Getal@?$_Vector_alloc@U?$_Vec_base_types@UBufferElement@buffers@core@@V?$allocator@UBufferElement@buffers@core@@@std@@@std@@@std@@QEBAAEBV?$allocator@UBufferElement@buffers@core@@@2@XZ PROC ; std::_Vector_alloc<std::_Vec_base_types<core::buffers::BufferElement,std::allocator<core::buffers::BufferElement> > >::_Getal, COMDAT

; 598  : 		{	// return const reference to allocator

$LN3:
	mov	QWORD PTR [rsp+8], rcx
	push	rbp
	sub	rsp, 96					; 00000060H
	lea	rbp, QWORD PTR [rsp+32]

; 599  : 		return (_Mypair._Get_first());

	mov	rax, QWORD PTR this$[rbp]
	mov	rcx, rax
	call	?_Get_first@?$_Compressed_pair@V?$allocator@UBufferElement@buffers@core@@@std@@V?$_Vector_val@U?$_Simple_types@UBufferElement@buffers@core@@@std@@@2@$00@std@@QEBAAEBV?$allocator@UBufferElement@buffers@core@@@2@XZ ; std::_Compressed_pair<std::allocator<core::buffers::BufferElement>,std::_Vector_val<std::_Simple_types<core::buffers::BufferElement> >,1>::_Get_first

; 600  : 		}

	lea	rsp, QWORD PTR [rbp+64]
	pop	rbp
	ret	0
?_Getal@?$_Vector_alloc@U?$_Vec_base_types@UBufferElement@buffers@core@@V?$allocator@UBufferElement@buffers@core@@@std@@@std@@@std@@QEBAAEBV?$allocator@UBufferElement@buffers@core@@@2@XZ ENDP ; std::_Vector_alloc<std::_Vec_base_types<core::buffers::BufferElement,std::allocator<core::buffers::BufferElement> > >::_Getal
_TEXT	ENDS
; Function compile flags: /Odtp /RTCu /ZI
; File c:\program files (x86)\microsoft visual studio\2017\enterprise\vc\tools\msvc\14.14.26428\include\vector
;	COMDAT ?_Getal@?$_Vector_alloc@U?$_Vec_base_types@UBufferElement@buffers@core@@V?$allocator@UBufferElement@buffers@core@@@std@@@std@@@std@@QEAAAEAV?$allocator@UBufferElement@buffers@core@@@2@XZ
_TEXT	SEGMENT
this$ = 80
?_Getal@?$_Vector_alloc@U?$_Vec_base_types@UBufferElement@buffers@core@@V?$allocator@UBufferElement@buffers@core@@@std@@@std@@@std@@QEAAAEAV?$allocator@UBufferElement@buffers@core@@@2@XZ PROC ; std::_Vector_alloc<std::_Vec_base_types<core::buffers::BufferElement,std::allocator<core::buffers::BufferElement> > >::_Getal, COMDAT

; 593  : 		{	// return reference to allocator

$LN3:
	mov	QWORD PTR [rsp+8], rcx
	push	rbp
	sub	rsp, 96					; 00000060H
	lea	rbp, QWORD PTR [rsp+32]

; 594  : 		return (_Mypair._Get_first());

	mov	rax, QWORD PTR this$[rbp]
	mov	rcx, rax
	call	?_Get_first@?$_Compressed_pair@V?$allocator@UBufferElement@buffers@core@@@std@@V?$_Vector_val@U?$_Simple_types@UBufferElement@buffers@core@@@std@@@2@$00@std@@QEAAAEAV?$allocator@UBufferElement@buffers@core@@@2@XZ ; std::_Compressed_pair<std::allocator<core::buffers::BufferElement>,std::_Vector_val<std::_Simple_types<core::buffers::BufferElement> >,1>::_Get_first

; 595  : 		}

	lea	rsp, QWORD PTR [rbp+64]
	pop	rbp
	ret	0
?_Getal@?$_Vector_alloc@U?$_Vec_base_types@UBufferElement@buffers@core@@V?$allocator@UBufferElement@buffers@core@@@std@@@std@@@std@@QEAAAEAV?$allocator@UBufferElement@buffers@core@@@2@XZ ENDP ; std::_Vector_alloc<std::_Vec_base_types<core::buffers::BufferElement,std::allocator<core::buffers::BufferElement> > >::_Getal
_TEXT	ENDS
; Function compile flags: /Odtp /RTCu /ZI
; File c:\program files (x86)\microsoft visual studio\2017\enterprise\vc\tools\msvc\14.14.26428\include\vector
;	COMDAT ?_Orphan_all@?$_Vector_alloc@U?$_Vec_base_types@UBufferElement@buffers@core@@V?$allocator@UBufferElement@buffers@core@@@std@@@std@@@std@@QEAAXXZ
_TEXT	SEGMENT
this$ = 80
?_Orphan_all@?$_Vector_alloc@U?$_Vec_base_types@UBufferElement@buffers@core@@V?$allocator@UBufferElement@buffers@core@@@std@@@std@@@std@@QEAAXXZ PROC ; std::_Vector_alloc<std::_Vec_base_types<core::buffers::BufferElement,std::allocator<core::buffers::BufferElement> > >::_Orphan_all, COMDAT

; 583  : 		{	// orphan all iterators

$LN3:
	mov	QWORD PTR [rsp+8], rcx
	push	rbp
	sub	rsp, 96					; 00000060H
	lea	rbp, QWORD PTR [rsp+32]

; 584  : 		_Get_data()._Orphan_all();

	mov	rcx, QWORD PTR this$[rbp]
	call	?_Get_data@?$_Vector_alloc@U?$_Vec_base_types@UBufferElement@buffers@core@@V?$allocator@UBufferElement@buffers@core@@@std@@@std@@@std@@QEAAAEAV?$_Vector_val@U?$_Simple_types@UBufferElement@buffers@core@@@std@@@2@XZ ; std::_Vector_alloc<std::_Vec_base_types<core::buffers::BufferElement,std::allocator<core::buffers::BufferElement> > >::_Get_data
	mov	rcx, rax
	call	?_Orphan_all@_Container_base12@std@@QEAAXXZ ; std::_Container_base12::_Orphan_all

; 585  : 		}

	lea	rsp, QWORD PTR [rbp+64]
	pop	rbp
	ret	0
?_Orphan_all@?$_Vector_alloc@U?$_Vec_base_types@UBufferElement@buffers@core@@V?$allocator@UBufferElement@buffers@core@@@std@@@std@@@std@@QEAAXXZ ENDP ; std::_Vector_alloc<std::_Vec_base_types<core::buffers::BufferElement,std::allocator<core::buffers::BufferElement> > >::_Orphan_all
_TEXT	ENDS
; Function compile flags: /Odtp /RTCu /ZI
; File c:\program files (x86)\microsoft visual studio\2017\enterprise\vc\tools\msvc\14.14.26428\include\vector
;	COMDAT ?_Myproxy@?$_Vector_alloc@U?$_Vec_base_types@UBufferElement@buffers@core@@V?$allocator@UBufferElement@buffers@core@@@std@@@std@@@std@@QEAAAEAPEAU_Container_proxy@2@XZ
_TEXT	SEGMENT
this$ = 80
?_Myproxy@?$_Vector_alloc@U?$_Vec_base_types@UBufferElement@buffers@core@@V?$allocator@UBufferElement@buffers@core@@@std@@@std@@@std@@QEAAAEAPEAU_Container_proxy@2@XZ PROC ; std::_Vector_alloc<std::_Vec_base_types<core::buffers::BufferElement,std::allocator<core::buffers::BufferElement> > >::_Myproxy, COMDAT

; 572  : 		{	// return reference to _Myproxy

$LN3:
	mov	QWORD PTR [rsp+8], rcx
	push	rbp
	sub	rsp, 96					; 00000060H
	lea	rbp, QWORD PTR [rsp+32]

; 573  : 		return (_Get_data()._Myproxy);

	mov	rcx, QWORD PTR this$[rbp]
	call	?_Get_data@?$_Vector_alloc@U?$_Vec_base_types@UBufferElement@buffers@core@@V?$allocator@UBufferElement@buffers@core@@@std@@@std@@@std@@QEAAAEAV?$_Vector_val@U?$_Simple_types@UBufferElement@buffers@core@@@std@@@2@XZ ; std::_Vector_alloc<std::_Vec_base_types<core::buffers::BufferElement,std::allocator<core::buffers::BufferElement> > >::_Get_data

; 574  : 		}

	lea	rsp, QWORD PTR [rbp+64]
	pop	rbp
	ret	0
?_Myproxy@?$_Vector_alloc@U?$_Vec_base_types@UBufferElement@buffers@core@@V?$allocator@UBufferElement@buffers@core@@@std@@@std@@@std@@QEAAAEAPEAU_Container_proxy@2@XZ ENDP ; std::_Vector_alloc<std::_Vec_base_types<core::buffers::BufferElement,std::allocator<core::buffers::BufferElement> > >::_Myproxy
_TEXT	ENDS
; Function compile flags: /Odtp /RTCu /ZI
; File c:\program files (x86)\microsoft visual studio\2017\enterprise\vc\tools\msvc\14.14.26428\include\vector
;	COMDAT ?_Getpfirst@?$_Vector_alloc@U?$_Vec_base_types@UBufferElement@buffers@core@@V?$allocator@UBufferElement@buffers@core@@@std@@@std@@@std@@QEBAPEAPEAU_Iterator_base12@2@XZ
_TEXT	SEGMENT
this$ = 80
?_Getpfirst@?$_Vector_alloc@U?$_Vec_base_types@UBufferElement@buffers@core@@V?$allocator@UBufferElement@buffers@core@@@std@@@std@@@std@@QEBAPEAPEAU_Iterator_base12@2@XZ PROC ; std::_Vector_alloc<std::_Vec_base_types<core::buffers::BufferElement,std::allocator<core::buffers::BufferElement> > >::_Getpfirst, COMDAT

; 567  : 		{	// get address of iterator chain

$LN3:
	mov	QWORD PTR [rsp+8], rcx
	push	rbp
	sub	rsp, 96					; 00000060H
	lea	rbp, QWORD PTR [rsp+32]

; 568  : 		return (_Get_data()._Getpfirst());

	mov	rcx, QWORD PTR this$[rbp]
	call	?_Get_data@?$_Vector_alloc@U?$_Vec_base_types@UBufferElement@buffers@core@@V?$allocator@UBufferElement@buffers@core@@@std@@@std@@@std@@QEBAAEBV?$_Vector_val@U?$_Simple_types@UBufferElement@buffers@core@@@std@@@2@XZ ; std::_Vector_alloc<std::_Vec_base_types<core::buffers::BufferElement,std::allocator<core::buffers::BufferElement> > >::_Get_data
	mov	rcx, rax
	call	?_Getpfirst@_Container_base12@std@@QEBAPEAPEAU_Iterator_base12@2@XZ ; std::_Container_base12::_Getpfirst

; 569  : 		}

	lea	rsp, QWORD PTR [rbp+64]
	pop	rbp
	ret	0
?_Getpfirst@?$_Vector_alloc@U?$_Vec_base_types@UBufferElement@buffers@core@@V?$allocator@UBufferElement@buffers@core@@@std@@@std@@@std@@QEBAPEAPEAU_Iterator_base12@2@XZ ENDP ; std::_Vector_alloc<std::_Vec_base_types<core::buffers::BufferElement,std::allocator<core::buffers::BufferElement> > >::_Getpfirst
_TEXT	ENDS
; Function compile flags: /Odtp /RTCu /ZI
; File c:\program files (x86)\microsoft visual studio\2017\enterprise\vc\tools\msvc\14.14.26428\include\vector
;	COMDAT ?_Free_proxy@?$_Vector_alloc@U?$_Vec_base_types@UBufferElement@buffers@core@@V?$allocator@UBufferElement@buffers@core@@@std@@@std@@@std@@QEAAXXZ
_TEXT	SEGMENT
_Proxy_allocator$ = 0
__$ArrayPad$ = 72
this$ = 96
?_Free_proxy@?$_Vector_alloc@U?$_Vec_base_types@UBufferElement@buffers@core@@V?$allocator@UBufferElement@buffers@core@@@std@@@std@@@std@@QEAAXXZ PROC ; std::_Vector_alloc<std::_Vec_base_types<core::buffers::BufferElement,std::allocator<core::buffers::BufferElement> > >::_Free_proxy, COMDAT

; 558  : 		{	// destroy proxy

$LN3:
	mov	QWORD PTR [rsp+8], rcx
	push	rbp
	sub	rsp, 112				; 00000070H
	lea	rbp, QWORD PTR [rsp+32]
	mov	rax, QWORD PTR __security_cookie
	xor	rax, rbp
	mov	QWORD PTR __$ArrayPad$[rbp], rax

; 559  : 		_Alproxy _Proxy_allocator(_Getal());

	mov	rcx, QWORD PTR this$[rbp]
	call	?_Getal@?$_Vector_alloc@U?$_Vec_base_types@UBufferElement@buffers@core@@V?$allocator@UBufferElement@buffers@core@@@std@@@std@@@std@@QEAAAEAV?$allocator@UBufferElement@buffers@core@@@2@XZ ; std::_Vector_alloc<std::_Vec_base_types<core::buffers::BufferElement,std::allocator<core::buffers::BufferElement> > >::_Getal
	mov	rdx, rax
	lea	rcx, QWORD PTR _Proxy_allocator$[rbp]
	call	??$?0UBufferElement@buffers@core@@@?$allocator@U_Container_proxy@std@@@std@@QEAA@AEBV?$allocator@UBufferElement@buffers@core@@@1@@Z ; std::allocator<std::_Container_proxy>::allocator<std::_Container_proxy><core::buffers::BufferElement>

; 560  : 		_Orphan_all();

	mov	rcx, QWORD PTR this$[rbp]
	call	?_Orphan_all@?$_Vector_alloc@U?$_Vec_base_types@UBufferElement@buffers@core@@V?$allocator@UBufferElement@buffers@core@@@std@@@std@@@std@@QEAAXXZ ; std::_Vector_alloc<std::_Vec_base_types<core::buffers::BufferElement,std::allocator<core::buffers::BufferElement> > >::_Orphan_all

; 561  : 		_Alproxy_traits::destroy(_Proxy_allocator, _Myproxy());

	mov	rcx, QWORD PTR this$[rbp]
	call	?_Myproxy@?$_Vector_alloc@U?$_Vec_base_types@UBufferElement@buffers@core@@V?$allocator@UBufferElement@buffers@core@@@std@@@std@@@std@@QEAAAEAPEAU_Container_proxy@2@XZ ; std::_Vector_alloc<std::_Vec_base_types<core::buffers::BufferElement,std::allocator<core::buffers::BufferElement> > >::_Myproxy
	mov	rdx, QWORD PTR [rax]
	lea	rcx, QWORD PTR _Proxy_allocator$[rbp]
	call	??$destroy@U_Container_proxy@std@@@?$_Default_allocator_traits@V?$allocator@U_Container_proxy@std@@@std@@@std@@SAXAEAV?$allocator@U_Container_proxy@std@@@1@QEAU_Container_proxy@1@@Z ; std::_Default_allocator_traits<std::allocator<std::_Container_proxy> >::destroy<std::_Container_proxy>

; 562  : 		_Deallocate_plain(_Proxy_allocator, _Myproxy());

	mov	rcx, QWORD PTR this$[rbp]
	call	?_Myproxy@?$_Vector_alloc@U?$_Vec_base_types@UBufferElement@buffers@core@@V?$allocator@UBufferElement@buffers@core@@@std@@@std@@@std@@QEAAAEAPEAU_Container_proxy@2@XZ ; std::_Vector_alloc<std::_Vec_base_types<core::buffers::BufferElement,std::allocator<core::buffers::BufferElement> > >::_Myproxy
	mov	rdx, QWORD PTR [rax]
	lea	rcx, QWORD PTR _Proxy_allocator$[rbp]
	call	??$_Deallocate_plain@V?$allocator@U_Container_proxy@std@@@std@@$0A@@std@@YAXAEAV?$allocator@U_Container_proxy@std@@@0@QEAU_Container_proxy@0@@Z ; std::_Deallocate_plain<std::allocator<std::_Container_proxy>,0>

; 563  : 		_Myproxy() = 0;

	mov	rcx, QWORD PTR this$[rbp]
	call	?_Myproxy@?$_Vector_alloc@U?$_Vec_base_types@UBufferElement@buffers@core@@V?$allocator@UBufferElement@buffers@core@@@std@@@std@@@std@@QEAAAEAPEAU_Container_proxy@2@XZ ; std::_Vector_alloc<std::_Vec_base_types<core::buffers::BufferElement,std::allocator<core::buffers::BufferElement> > >::_Myproxy
	mov	QWORD PTR [rax], 0

; 564  : 		}

	mov	rcx, QWORD PTR __$ArrayPad$[rbp]
	xor	rcx, rbp
	call	__security_check_cookie
	lea	rsp, QWORD PTR [rbp+80]
	pop	rbp
	ret	0
?_Free_proxy@?$_Vector_alloc@U?$_Vec_base_types@UBufferElement@buffers@core@@V?$allocator@UBufferElement@buffers@core@@@std@@@std@@@std@@QEAAXXZ ENDP ; std::_Vector_alloc<std::_Vec_base_types<core::buffers::BufferElement,std::allocator<core::buffers::BufferElement> > >::_Free_proxy
_TEXT	ENDS
; Function compile flags: /Odtp /RTCu /ZI
; File c:\program files (x86)\microsoft visual studio\2017\enterprise\vc\tools\msvc\14.14.26428\include\vector
;	COMDAT ?_Alloc_proxy@?$_Vector_alloc@U?$_Vec_base_types@UBufferElement@buffers@core@@V?$allocator@UBufferElement@buffers@core@@@std@@@std@@@std@@QEAAXXZ
_TEXT	SEGMENT
_Proxy_allocator$ = 0
$T1 = 72
tv91 = 88
tv79 = 88
tv70 = 88
__$ArrayPad$ = 96
this$ = 128
?_Alloc_proxy@?$_Vector_alloc@U?$_Vec_base_types@UBufferElement@buffers@core@@V?$allocator@UBufferElement@buffers@core@@@std@@@std@@@std@@QEAAXXZ PROC ; std::_Vector_alloc<std::_Vec_base_types<core::buffers::BufferElement,std::allocator<core::buffers::BufferElement> > >::_Alloc_proxy, COMDAT

; 550  : 		{	// construct proxy

$LN3:
	mov	QWORD PTR [rsp+8], rcx
	push	rbp
	sub	rsp, 144				; 00000090H
	lea	rbp, QWORD PTR [rsp+32]
	mov	rax, QWORD PTR __security_cookie
	xor	rax, rbp
	mov	QWORD PTR __$ArrayPad$[rbp], rax

; 551  : 		_Alproxy _Proxy_allocator(_Getal());

	mov	rcx, QWORD PTR this$[rbp]
	call	?_Getal@?$_Vector_alloc@U?$_Vec_base_types@UBufferElement@buffers@core@@V?$allocator@UBufferElement@buffers@core@@@std@@@std@@@std@@QEAAAEAV?$allocator@UBufferElement@buffers@core@@@2@XZ ; std::_Vector_alloc<std::_Vec_base_types<core::buffers::BufferElement,std::allocator<core::buffers::BufferElement> > >::_Getal
	mov	rdx, rax
	lea	rcx, QWORD PTR _Proxy_allocator$[rbp]
	call	??$?0UBufferElement@buffers@core@@@?$allocator@U_Container_proxy@std@@@std@@QEAA@AEBV?$allocator@UBufferElement@buffers@core@@@1@@Z ; std::allocator<std::_Container_proxy>::allocator<std::_Container_proxy><core::buffers::BufferElement>

; 552  : 		_Myproxy() = _Unfancy(_Proxy_allocator.allocate(1));

	mov	edx, 1
	lea	rcx, QWORD PTR _Proxy_allocator$[rbp]
	call	?allocate@?$allocator@U_Container_proxy@std@@@std@@QEAAPEAU_Container_proxy@2@_K@Z ; std::allocator<std::_Container_proxy>::allocate
	mov	rcx, rax
	call	??$_Unfancy@U_Container_proxy@std@@@std@@YAPEAU_Container_proxy@0@PEAU10@@Z ; std::_Unfancy<std::_Container_proxy>
	mov	QWORD PTR tv70[rbp], rax
	mov	rcx, QWORD PTR this$[rbp]
	call	?_Myproxy@?$_Vector_alloc@U?$_Vec_base_types@UBufferElement@buffers@core@@V?$allocator@UBufferElement@buffers@core@@@std@@@std@@@std@@QEAAAEAPEAU_Container_proxy@2@XZ ; std::_Vector_alloc<std::_Vec_base_types<core::buffers::BufferElement,std::allocator<core::buffers::BufferElement> > >::_Myproxy
	mov	rcx, QWORD PTR tv70[rbp]
	mov	QWORD PTR [rax], rcx

; 553  : 		_Alproxy_traits::construct(_Proxy_allocator, _Myproxy(), _Container_proxy());

	lea	rcx, QWORD PTR $T1[rbp]
	call	??0_Container_proxy@std@@QEAA@XZ	; std::_Container_proxy::_Container_proxy
	mov	QWORD PTR tv79[rbp], rax
	mov	rcx, QWORD PTR this$[rbp]
	call	?_Myproxy@?$_Vector_alloc@U?$_Vec_base_types@UBufferElement@buffers@core@@V?$allocator@UBufferElement@buffers@core@@@std@@@std@@@std@@QEAAAEAPEAU_Container_proxy@2@XZ ; std::_Vector_alloc<std::_Vec_base_types<core::buffers::BufferElement,std::allocator<core::buffers::BufferElement> > >::_Myproxy
	mov	rcx, QWORD PTR tv79[rbp]
	mov	r8, rcx
	mov	rdx, QWORD PTR [rax]
	lea	rcx, QWORD PTR _Proxy_allocator$[rbp]
	call	??$construct@U_Container_proxy@std@@U12@@?$_Default_allocator_traits@V?$allocator@U_Container_proxy@std@@@std@@@std@@SAXAEAV?$allocator@U_Container_proxy@std@@@1@QEAU_Container_proxy@1@$$QEAU31@@Z ; std::_Default_allocator_traits<std::allocator<std::_Container_proxy> >::construct<std::_Container_proxy,std::_Container_proxy>

; 554  : 		_Myproxy()->_Mycont = _STD addressof(_Get_data());

	mov	rcx, QWORD PTR this$[rbp]
	call	?_Get_data@?$_Vector_alloc@U?$_Vec_base_types@UBufferElement@buffers@core@@V?$allocator@UBufferElement@buffers@core@@@std@@@std@@@std@@QEAAAEAV?$_Vector_val@U?$_Simple_types@UBufferElement@buffers@core@@@std@@@2@XZ ; std::_Vector_alloc<std::_Vec_base_types<core::buffers::BufferElement,std::allocator<core::buffers::BufferElement> > >::_Get_data
	mov	rcx, rax
	call	??$addressof@V?$_Vector_val@U?$_Simple_types@UBufferElement@buffers@core@@@std@@@std@@@std@@YAPEAV?$_Vector_val@U?$_Simple_types@UBufferElement@buffers@core@@@std@@@0@AEAV10@@Z ; std::addressof<std::_Vector_val<std::_Simple_types<core::buffers::BufferElement> > >
	mov	QWORD PTR tv91[rbp], rax
	mov	rcx, QWORD PTR this$[rbp]
	call	?_Myproxy@?$_Vector_alloc@U?$_Vec_base_types@UBufferElement@buffers@core@@V?$allocator@UBufferElement@buffers@core@@@std@@@std@@@std@@QEAAAEAPEAU_Container_proxy@2@XZ ; std::_Vector_alloc<std::_Vec_base_types<core::buffers::BufferElement,std::allocator<core::buffers::BufferElement> > >::_Myproxy
	mov	rax, QWORD PTR [rax]
	mov	rcx, QWORD PTR tv91[rbp]
	mov	QWORD PTR [rax], rcx

; 555  : 		}

	mov	rcx, QWORD PTR __$ArrayPad$[rbp]
	xor	rcx, rbp
	call	__security_check_cookie
	lea	rsp, QWORD PTR [rbp+112]
	pop	rbp
	ret	0
?_Alloc_proxy@?$_Vector_alloc@U?$_Vec_base_types@UBufferElement@buffers@core@@V?$allocator@UBufferElement@buffers@core@@@std@@@std@@@std@@QEAAXXZ ENDP ; std::_Vector_alloc<std::_Vec_base_types<core::buffers::BufferElement,std::allocator<core::buffers::BufferElement> > >::_Alloc_proxy
_TEXT	ENDS
; Function compile flags: /Odtp /RTCu /ZI
; File c:\program files (x86)\microsoft visual studio\2017\enterprise\vc\tools\msvc\14.14.26428\include\vector
;	COMDAT ??1?$_Vector_alloc@U?$_Vec_base_types@UBufferElement@buffers@core@@V?$allocator@UBufferElement@buffers@core@@@std@@@std@@@std@@QEAA@XZ
_TEXT	SEGMENT
$T1 = 64
this$ = 96
??1?$_Vector_alloc@U?$_Vec_base_types@UBufferElement@buffers@core@@V?$allocator@UBufferElement@buffers@core@@@std@@@std@@@std@@QEAA@XZ PROC ; std::_Vector_alloc<std::_Vec_base_types<core::buffers::BufferElement,std::allocator<core::buffers::BufferElement> > >::~_Vector_alloc<std::_Vec_base_types<core::buffers::BufferElement,std::allocator<core::buffers::BufferElement> > >, COMDAT

; 509  : 		{	// destroy proxy

$LN3:
	mov	QWORD PTR [rsp+8], rcx
	push	rbp
	sub	rsp, 112				; 00000070H
	lea	rbp, QWORD PTR [rsp+32]
	mov	QWORD PTR $T1[rbp], -2

; 510  : 		_Free_proxy();

	mov	rcx, QWORD PTR this$[rbp]
	call	?_Free_proxy@?$_Vector_alloc@U?$_Vec_base_types@UBufferElement@buffers@core@@V?$allocator@UBufferElement@buffers@core@@@std@@@std@@@std@@QEAAXXZ ; std::_Vector_alloc<std::_Vec_base_types<core::buffers::BufferElement,std::allocator<core::buffers::BufferElement> > >::_Free_proxy
	npad	1

; 511  : 		}

	lea	rsp, QWORD PTR [rbp+80]
	pop	rbp
	ret	0
??1?$_Vector_alloc@U?$_Vec_base_types@UBufferElement@buffers@core@@V?$allocator@UBufferElement@buffers@core@@@std@@@std@@@std@@QEAA@XZ ENDP ; std::_Vector_alloc<std::_Vec_base_types<core::buffers::BufferElement,std::allocator<core::buffers::BufferElement> > >::~_Vector_alloc<std::_Vec_base_types<core::buffers::BufferElement,std::allocator<core::buffers::BufferElement> > >
_TEXT	ENDS
; Function compile flags: /Odtp /RTCu /ZI
; File c:\program files (x86)\microsoft visual studio\2017\enterprise\vc\tools\msvc\14.14.26428\include\vector
;	COMDAT ??0?$_Vector_alloc@U?$_Vec_base_types@UBufferElement@buffers@core@@V?$allocator@UBufferElement@buffers@core@@@std@@@std@@@std@@QEAA@XZ
_TEXT	SEGMENT
$T1 = 64
this$ = 96
??0?$_Vector_alloc@U?$_Vec_base_types@UBufferElement@buffers@core@@V?$allocator@UBufferElement@buffers@core@@@std@@@std@@@std@@QEAA@XZ PROC ; std::_Vector_alloc<std::_Vec_base_types<core::buffers::BufferElement,std::allocator<core::buffers::BufferElement> > >::_Vector_alloc<std::_Vec_base_types<core::buffers::BufferElement,std::allocator<core::buffers::BufferElement> > >, COMDAT

; 495  : 		{	// default construct allocator

$LN3:
	mov	QWORD PTR [rsp+8], rcx
	push	rbp
	sub	rsp, 112				; 00000070H
	lea	rbp, QWORD PTR [rsp+32]

; 494  : 		: _Mypair(_Zero_then_variadic_args_t())

	mov	rax, QWORD PTR this$[rbp]
	movzx	edx, BYTE PTR $T1[rbp]
	mov	rcx, rax
	call	??$?0$$V@?$_Compressed_pair@V?$allocator@UBufferElement@buffers@core@@@std@@V?$_Vector_val@U?$_Simple_types@UBufferElement@buffers@core@@@std@@@2@$00@std@@QEAA@U_Zero_then_variadic_args_t@1@@Z ; std::_Compressed_pair<std::allocator<core::buffers::BufferElement>,std::_Vector_val<std::_Simple_types<core::buffers::BufferElement> >,1>::_Compressed_pair<std::allocator<core::buffers::BufferElement>,std::_Vector_val<std::_Simple_types<core::buffers::BufferElement> >,1><>

; 496  : 		_Alloc_proxy();

	mov	rcx, QWORD PTR this$[rbp]
	call	?_Alloc_proxy@?$_Vector_alloc@U?$_Vec_base_types@UBufferElement@buffers@core@@V?$allocator@UBufferElement@buffers@core@@@std@@@std@@@std@@QEAAXXZ ; std::_Vector_alloc<std::_Vec_base_types<core::buffers::BufferElement,std::allocator<core::buffers::BufferElement> > >::_Alloc_proxy

; 497  : 		}

	mov	rax, QWORD PTR this$[rbp]
	lea	rsp, QWORD PTR [rbp+80]
	pop	rbp
	ret	0
??0?$_Vector_alloc@U?$_Vec_base_types@UBufferElement@buffers@core@@V?$allocator@UBufferElement@buffers@core@@@std@@@std@@@std@@QEAA@XZ ENDP ; std::_Vector_alloc<std::_Vec_base_types<core::buffers::BufferElement,std::allocator<core::buffers::BufferElement> > >::_Vector_alloc<std::_Vec_base_types<core::buffers::BufferElement,std::allocator<core::buffers::BufferElement> > >
_TEXT	ENDS
; Function compile flags: /Odtp /RTCu /ZI
; File c:\program files (x86)\microsoft visual studio\2017\enterprise\vc\tools\msvc\14.14.26428\include\xmemory0
;	COMDAT ?max_size@?$_Default_allocator_traits@V?$allocator@UBufferElement@buffers@core@@@std@@@std@@SA_KAEBV?$allocator@UBufferElement@buffers@core@@@2@@Z
_TEXT	SEGMENT
__formal$ = 80
?max_size@?$_Default_allocator_traits@V?$allocator@UBufferElement@buffers@core@@@std@@@std@@SA_KAEBV?$allocator@UBufferElement@buffers@core@@@2@@Z PROC ; std::_Default_allocator_traits<std::allocator<core::buffers::BufferElement> >::max_size, COMDAT

; 930  : 		{	// get maximum size

$LN3:
	mov	QWORD PTR [rsp+8], rcx
	push	rbp
	sub	rsp, 64					; 00000040H
	mov	rbp, rsp

; 931  : 		return (static_cast<size_t>(-1) / sizeof(value_type));

	mov	rax, 1537228672809129301		; 1555555555555555H

; 932  : 		}

	lea	rsp, QWORD PTR [rbp+64]
	pop	rbp
	ret	0
?max_size@?$_Default_allocator_traits@V?$allocator@UBufferElement@buffers@core@@@std@@@std@@SA_KAEBV?$allocator@UBufferElement@buffers@core@@@2@@Z ENDP ; std::_Default_allocator_traits<std::allocator<core::buffers::BufferElement> >::max_size
_TEXT	ENDS
; Function compile flags: /Odtp /RTCu /ZI
; File c:\program files (x86)\microsoft visual studio\2017\enterprise\vc\tools\msvc\14.14.26428\include\xmemory0
;	COMDAT ?allocate@?$allocator@UBufferElement@buffers@core@@@std@@QEAAPEAUBufferElement@buffers@core@@_K@Z
_TEXT	SEGMENT
this$ = 80
_Count$ = 88
?allocate@?$allocator@UBufferElement@buffers@core@@@std@@QEAAPEAUBufferElement@buffers@core@@_K@Z PROC ; std::allocator<core::buffers::BufferElement>::allocate, COMDAT

; 1035 : 		{	// allocate array of _Count elements

$LN3:
	mov	QWORD PTR [rsp+16], rdx
	mov	QWORD PTR [rsp+8], rcx
	push	rbp
	sub	rsp, 96					; 00000060H
	lea	rbp, QWORD PTR [rsp+32]

; 1036 : 		return (static_cast<_Ty *>(_Allocate<_New_alignof<_Ty>>(_Get_size_of_n<sizeof(_Ty)>(_Count))));

	mov	rcx, QWORD PTR _Count$[rbp]
	call	??$_Get_size_of_n@$0M@@std@@YA_K_K@Z	; std::_Get_size_of_n<12>
	mov	rcx, rax
	call	??$_Allocate@$0BA@U_Default_allocate_traits@std@@$0A@@std@@YAPEAX_K@Z ; std::_Allocate<16,std::_Default_allocate_traits,0>

; 1037 : 		}

	lea	rsp, QWORD PTR [rbp+64]
	pop	rbp
	ret	0
?allocate@?$allocator@UBufferElement@buffers@core@@@std@@QEAAPEAUBufferElement@buffers@core@@_K@Z ENDP ; std::allocator<core::buffers::BufferElement>::allocate
_TEXT	ENDS
; Function compile flags: /Odtp /RTCu /ZI
; File c:\program files (x86)\microsoft visual studio\2017\enterprise\vc\tools\msvc\14.14.26428\include\xmemory0
;	COMDAT ?deallocate@?$allocator@UBufferElement@buffers@core@@@std@@QEAAXQEAUBufferElement@buffers@core@@_K@Z
_TEXT	SEGMENT
this$ = 80
_Ptr$ = 88
_Count$ = 96
?deallocate@?$allocator@UBufferElement@buffers@core@@@std@@QEAAXQEAUBufferElement@buffers@core@@_K@Z PROC ; std::allocator<core::buffers::BufferElement>::deallocate, COMDAT

; 1029 : 		{	// deallocate object at _Ptr

$LN3:
	mov	QWORD PTR [rsp+24], r8
	mov	QWORD PTR [rsp+16], rdx
	mov	QWORD PTR [rsp+8], rcx
	push	rbp
	sub	rsp, 96					; 00000060H
	lea	rbp, QWORD PTR [rsp+32]

; 1030 : 		// no overflow check on the following multiply; we assume _Allocate did that check
; 1031 : 		_Deallocate<_New_alignof<_Ty>>(_Ptr, sizeof(_Ty) * _Count);

	imul	rax, QWORD PTR _Count$[rbp], 12
	mov	rdx, rax
	mov	rcx, QWORD PTR _Ptr$[rbp]
	call	??$_Deallocate@$0BA@$0A@@std@@YAXPEAX_K@Z ; std::_Deallocate<16,0>

; 1032 : 		}

	lea	rsp, QWORD PTR [rbp+64]
	pop	rbp
	ret	0
?deallocate@?$allocator@UBufferElement@buffers@core@@@std@@QEAAXQEAUBufferElement@buffers@core@@_K@Z ENDP ; std::allocator<core::buffers::BufferElement>::deallocate
_TEXT	ENDS
; Function compile flags: /Odtp /RTCu /ZI
; File c:\program files (x86)\microsoft visual studio\2017\enterprise\vc\tools\msvc\14.14.26428\include\xmemory0
;	COMDAT ??0?$allocator@UBufferElement@buffers@core@@@std@@QEAA@XZ
_TEXT	SEGMENT
this$ = 80
??0?$allocator@UBufferElement@buffers@core@@@std@@QEAA@XZ PROC ; std::allocator<core::buffers::BufferElement>::allocator<core::buffers::BufferElement>, COMDAT

; 1018 : 	allocator() _NOEXCEPT

$LN3:
	mov	QWORD PTR [rsp+8], rcx
	push	rbp
	sub	rsp, 64					; 00000040H
	mov	rbp, rsp

; 1019 : 		{	// construct default allocator (do nothing)
; 1020 : 		}

	mov	rax, QWORD PTR this$[rbp]
	lea	rsp, QWORD PTR [rbp+64]
	pop	rbp
	ret	0
??0?$allocator@UBufferElement@buffers@core@@@std@@QEAA@XZ ENDP ; std::allocator<core::buffers::BufferElement>::allocator<core::buffers::BufferElement>
_TEXT	ENDS
; Function compile flags: /Odtp /RTCu /ZI
; File l:\dev\featherfallengine\featherfall_engine-core\src\buffers\bufferlayout.h
;	COMDAT ?SizeOfType@BufferElement@buffers@core@@SAII@Z
_TEXT	SEGMENT
tv64 = 64
type$ = 96
?SizeOfType@BufferElement@buffers@core@@SAII@Z PROC	; core::buffers::BufferElement::SizeOfType, COMDAT

; 15   : 		static unsigned int SizeOfType(unsigned int type) {

$LN9:
	mov	DWORD PTR [rsp+8], ecx
	push	rbp
	sub	rsp, 80					; 00000050H
	mov	rbp, rsp

; 16   : 			switch (type) {

	mov	eax, DWORD PTR type$[rbp]
	mov	DWORD PTR tv64[rbp], eax
	cmp	DWORD PTR tv64[rbp], 5121		; 00001401H
	je	SHORT $LN6@SizeOfType
	cmp	DWORD PTR tv64[rbp], 5125		; 00001405H
	je	SHORT $LN5@SizeOfType
	cmp	DWORD PTR tv64[rbp], 5126		; 00001406H
	je	SHORT $LN4@SizeOfType
	jmp	SHORT $LN2@SizeOfType
$LN4@SizeOfType:

; 17   : 			case GL_FLOAT:
; 18   : 				return sizeof(GLfloat);

	mov	eax, 4
	jmp	SHORT $LN1@SizeOfType
$LN5@SizeOfType:

; 19   : 
; 20   : 			case GL_UNSIGNED_INT:
; 21   : 				return sizeof(GLuint);

	mov	eax, 4
	jmp	SHORT $LN1@SizeOfType
$LN6@SizeOfType:

; 22   : 
; 23   : 			case GL_UNSIGNED_BYTE:
; 24   : 				return sizeof(GLubyte);

	mov	eax, 1
	jmp	SHORT $LN1@SizeOfType
$LN2@SizeOfType:

; 25   : 			}
; 26   : 
; 27   : 			FF_ASSERT(false);

	xor	eax, eax
	cmp	eax, 1
	je	SHORT $LN7@SizeOfType
	int	3
$LN7@SizeOfType:

; 28   : 			return 0;

	xor	eax, eax
$LN1@SizeOfType:

; 29   : 
; 30   : 		}

	lea	rsp, QWORD PTR [rbp+80]
	pop	rbp
	ret	0
?SizeOfType@BufferElement@buffers@core@@SAII@Z ENDP	; core::buffers::BufferElement::SizeOfType
_TEXT	ENDS
; Function compile flags: /Odtp /RTCu /ZI
;	COMDAT ??_GVBO@buffers@core@@QEAAPEAXI@Z
_TEXT	SEGMENT
this$ = 80
__flags$ = 88
??_GVBO@buffers@core@@QEAAPEAXI@Z PROC			; core::buffers::VBO::`scalar deleting destructor', COMDAT
$LN4:
	mov	DWORD PTR [rsp+16], edx
	mov	QWORD PTR [rsp+8], rcx
	push	rbp
	sub	rsp, 96					; 00000060H
	lea	rbp, QWORD PTR [rsp+32]
	mov	rcx, QWORD PTR this$[rbp]
	call	??1VBO@buffers@core@@QEAA@XZ		; core::buffers::VBO::~VBO
	mov	eax, DWORD PTR __flags$[rbp]
	and	eax, 1
	test	eax, eax
	je	SHORT $LN2@scalar
	mov	edx, 4
	mov	rcx, QWORD PTR this$[rbp]
	call	??3@YAXPEAX_K@Z				; operator delete
$LN2@scalar:
	mov	rax, QWORD PTR this$[rbp]
	lea	rsp, QWORD PTR [rbp+64]
	pop	rbp
	ret	0
??_GVBO@buffers@core@@QEAAPEAXI@Z ENDP			; core::buffers::VBO::`scalar deleting destructor'
_TEXT	ENDS
; Function compile flags: /Odtp /RTCu /ZI
;	COMDAT ??_GTexture@graphics@core@@QEAAPEAXI@Z
_TEXT	SEGMENT
this$ = 80
__flags$ = 88
??_GTexture@graphics@core@@QEAAPEAXI@Z PROC		; core::graphics::Texture::`scalar deleting destructor', COMDAT
$LN4:
	mov	DWORD PTR [rsp+16], edx
	mov	QWORD PTR [rsp+8], rcx
	push	rbp
	sub	rsp, 96					; 00000060H
	lea	rbp, QWORD PTR [rsp+32]
	mov	rcx, QWORD PTR this$[rbp]
	call	??1Texture@graphics@core@@QEAA@XZ	; core::graphics::Texture::~Texture
	mov	eax, DWORD PTR __flags$[rbp]
	and	eax, 1
	test	eax, eax
	je	SHORT $LN2@scalar
	mov	edx, 72					; 00000048H
	mov	rcx, QWORD PTR this$[rbp]
	call	??3@YAXPEAX_K@Z				; operator delete
$LN2@scalar:
	mov	rax, QWORD PTR this$[rbp]
	lea	rsp, QWORD PTR [rbp+64]
	pop	rbp
	ret	0
??_GTexture@graphics@core@@QEAAPEAXI@Z ENDP		; core::graphics::Texture::`scalar deleting destructor'
_TEXT	ENDS
; Function compile flags: /Odtp /RTCu /ZI
;	COMDAT ?__autoclassinit2@Texture@graphics@core@@QEAAX_K@Z
_TEXT	SEGMENT
this$ = 96
classSize$ = 104
?__autoclassinit2@Texture@graphics@core@@QEAAX_K@Z PROC	; core::graphics::Texture::__autoclassinit2, COMDAT
$LN3:
	mov	QWORD PTR [rsp+16], rdx
	mov	QWORD PTR [rsp+8], rcx
	push	rbp
	push	rdi
	sub	rsp, 72					; 00000048H
	mov	rbp, rsp
	mov	rdi, QWORD PTR this$[rbp]
	xor	eax, eax
	mov	rcx, QWORD PTR classSize$[rbp]
	rep stosb
	lea	rsp, QWORD PTR [rbp+72]
	pop	rdi
	pop	rbp
	ret	0
?__autoclassinit2@Texture@graphics@core@@QEAAX_K@Z ENDP	; core::graphics::Texture::__autoclassinit2
_TEXT	ENDS
; Function compile flags: /Odtp /RTCu /ZI
;	COMDAT ??_GShader@graphics@core@@QEAAPEAXI@Z
_TEXT	SEGMENT
this$ = 80
__flags$ = 88
??_GShader@graphics@core@@QEAAPEAXI@Z PROC		; core::graphics::Shader::`scalar deleting destructor', COMDAT
$LN4:
	mov	DWORD PTR [rsp+16], edx
	mov	QWORD PTR [rsp+8], rcx
	push	rbp
	sub	rsp, 96					; 00000060H
	lea	rbp, QWORD PTR [rsp+32]
	mov	rcx, QWORD PTR this$[rbp]
	call	??1Shader@graphics@core@@QEAA@XZ	; core::graphics::Shader::~Shader
	mov	eax, DWORD PTR __flags$[rbp]
	and	eax, 1
	test	eax, eax
	je	SHORT $LN2@scalar
	mov	edx, 4
	mov	rcx, QWORD PTR this$[rbp]
	call	??3@YAXPEAX_K@Z				; operator delete
$LN2@scalar:
	mov	rax, QWORD PTR this$[rbp]
	lea	rsp, QWORD PTR [rbp+64]
	pop	rbp
	ret	0
??_GShader@graphics@core@@QEAAPEAXI@Z ENDP		; core::graphics::Shader::`scalar deleting destructor'
_TEXT	ENDS
; Function compile flags: /Odtp /RTCu /ZI
; File c:\program files (x86)\microsoft visual studio\2017\enterprise\vc\tools\msvc\14.14.26428\include\xstring
;	COMDAT ?_Xlen@?$basic_string@DU?$char_traits@D@std@@V?$allocator@D@2@@std@@SAXXZ
_TEXT	SEGMENT
?_Xlen@?$basic_string@DU?$char_traits@D@std@@V?$allocator@D@2@@std@@SAXXZ PROC ; std::basic_string<char,std::char_traits<char>,std::allocator<char> >::_Xlen, COMDAT

; 3977 : 		{	// report a length_error

$LN3:
	push	rbp
	sub	rsp, 96					; 00000060H
	lea	rbp, QWORD PTR [rsp+32]

; 3978 : 		_Xlength_error("string too long");

	lea	rcx, OFFSET FLAT:??_C@_0BA@JFNIOLAK@string?5too?5long?$AA@
	call	?_Xlength_error@std@@YAXPEBD@Z		; std::_Xlength_error
$LN2@Xlen:

; 3979 : 		}

	lea	rsp, QWORD PTR [rbp+64]
	pop	rbp
	ret	0
?_Xlen@?$basic_string@DU?$char_traits@D@std@@V?$allocator@D@2@@std@@SAXXZ ENDP ; std::basic_string<char,std::char_traits<char>,std::allocator<char> >::_Xlen
_TEXT	ENDS
; Function compile flags: /Odtp /RTCu /ZI
; File c:\program files (x86)\microsoft visual studio\2017\enterprise\vc\tools\msvc\14.14.26428\include\xstring
;	COMDAT ?_Tidy_deallocate@?$basic_string@DU?$char_traits@D@std@@V?$allocator@D@2@@std@@QEAAXXZ
_TEXT	SEGMENT
_My_data$ = 0
_Ptr$1 = 8
_Al$2 = 16
$T3 = 88
this$ = 112
?_Tidy_deallocate@?$basic_string@DU?$char_traits@D@std@@V?$allocator@D@2@@std@@QEAAXXZ PROC ; std::basic_string<char,std::char_traits<char>,std::allocator<char> >::_Tidy_deallocate, COMDAT

; 3958 : 		{	// initialize buffer, deallocating any storage

$LN4:
	mov	QWORD PTR [rsp+8], rcx
	push	rbp
	sub	rsp, 128				; 00000080H
	lea	rbp, QWORD PTR [rsp+32]

; 3959 : 		this->_Orphan_all();

	mov	rcx, QWORD PTR this$[rbp]
	call	?_Orphan_all@?$_String_alloc@U?$_String_base_types@DV?$allocator@D@std@@@std@@@std@@QEAAXXZ ; std::_String_alloc<std::_String_base_types<char,std::allocator<char> > >::_Orphan_all

; 3960 : 		auto& _My_data = this->_Get_data();

	mov	rcx, QWORD PTR this$[rbp]
	call	?_Get_data@?$_String_alloc@U?$_String_base_types@DV?$allocator@D@std@@@std@@@std@@QEAAAEAV?$_String_val@U?$_Simple_types@D@std@@@2@XZ ; std::_String_alloc<std::_String_base_types<char,std::allocator<char> > >::_Get_data
	mov	QWORD PTR _My_data$[rbp], rax

; 3961 : 		if (_My_data._Large_string_engaged())

	mov	rcx, QWORD PTR _My_data$[rbp]
	call	?_Large_string_engaged@?$_String_val@U?$_Simple_types@D@std@@@std@@QEBA_NXZ ; std::_String_val<std::_Simple_types<char> >::_Large_string_engaged
	movzx	eax, al
	test	eax, eax
	je	SHORT $LN2@Tidy_deall

; 3962 : 			{
; 3963 : 			const pointer _Ptr = _My_data._Bx._Ptr;

	mov	rax, QWORD PTR _My_data$[rbp]
	mov	rax, QWORD PTR [rax+8]
	mov	QWORD PTR _Ptr$1[rbp], rax

; 3964 : 			auto& _Al = this->_Getal();

	mov	rcx, QWORD PTR this$[rbp]
	call	?_Getal@?$_String_alloc@U?$_String_base_types@DV?$allocator@D@std@@@std@@@std@@QEAAAEAV?$allocator@D@2@XZ ; std::_String_alloc<std::_String_base_types<char,std::allocator<char> > >::_Getal
	mov	QWORD PTR _Al$2[rbp], rax

; 3965 : 			_Alty_traits::destroy(_Al, _STD addressof(_My_data._Bx._Ptr));

	mov	rax, QWORD PTR _My_data$[rbp]
	add	rax, 8
	mov	rcx, rax
	call	??$addressof@PEAD@std@@YAPEAPEADAEAPEAD@Z ; std::addressof<char *>
	mov	rdx, rax
	mov	rcx, QWORD PTR _Al$2[rbp]
	call	??$destroy@PEAD@?$_Default_allocator_traits@V?$allocator@D@std@@@std@@SAXAEAV?$allocator@D@1@QEAPEAD@Z ; std::_Default_allocator_traits<std::allocator<char> >::destroy<char *>

; 3966 : 			_Al.deallocate(_Ptr, _My_data._Myres + 1);

	mov	rax, QWORD PTR _My_data$[rbp]
	mov	rax, QWORD PTR [rax+32]
	inc	rax
	mov	r8, rax
	mov	rdx, QWORD PTR _Ptr$1[rbp]
	mov	rcx, QWORD PTR _Al$2[rbp]
	call	?deallocate@?$allocator@D@std@@QEAAXQEAD_K@Z ; std::allocator<char>::deallocate
$LN2@Tidy_deall:

; 3967 : 			}
; 3968 : 
; 3969 : 		_My_data._Mysize = 0;

	mov	rax, QWORD PTR _My_data$[rbp]
	mov	QWORD PTR [rax+24], 0

; 3970 : 		_My_data._Myres = this->_BUF_SIZE - 1;

	mov	rax, QWORD PTR _My_data$[rbp]
	mov	QWORD PTR [rax+32], 15

; 3971 : 		// the _Traits::assign is last so the codegen doesn't think the char
; 3972 : 		// write can alias this
; 3973 : 		_Traits::assign(_My_data._Bx._Buf[0], _Elem());

	mov	BYTE PTR $T3[rbp], 0
	mov	eax, 1
	imul	rax, rax, 0
	mov	rcx, QWORD PTR _My_data$[rbp]
	lea	rax, QWORD PTR [rcx+rax+8]
	lea	rdx, QWORD PTR $T3[rbp]
	mov	rcx, rax
	call	?assign@?$char_traits@D@std@@SAXAEADAEBD@Z ; std::char_traits<char>::assign

; 3974 : 		}

	lea	rsp, QWORD PTR [rbp+96]
	pop	rbp
	ret	0
?_Tidy_deallocate@?$basic_string@DU?$char_traits@D@std@@V?$allocator@D@2@@std@@QEAAXXZ ENDP ; std::basic_string<char,std::char_traits<char>,std::allocator<char> >::_Tidy_deallocate
_TEXT	ENDS
; Function compile flags: /Odtp /RTCu /ZI
; File c:\program files (x86)\microsoft visual studio\2017\enterprise\vc\tools\msvc\14.14.26428\include\xstring
;	COMDAT ?_Tidy_init@?$basic_string@DU?$char_traits@D@std@@V?$allocator@D@2@@std@@QEAAXXZ
_TEXT	SEGMENT
_My_data$ = 0
$T1 = 72
this$ = 96
?_Tidy_init@?$basic_string@DU?$char_traits@D@std@@V?$allocator@D@2@@std@@QEAAXXZ PROC ; std::basic_string<char,std::char_traits<char>,std::allocator<char> >::_Tidy_init, COMDAT

; 3948 : 		{	// initialize basic_string data members

$LN3:
	mov	QWORD PTR [rsp+8], rcx
	push	rbp
	sub	rsp, 112				; 00000070H
	lea	rbp, QWORD PTR [rsp+32]

; 3949 : 		auto& _My_data = this->_Get_data();

	mov	rcx, QWORD PTR this$[rbp]
	call	?_Get_data@?$_String_alloc@U?$_String_base_types@DV?$allocator@D@std@@@std@@@std@@QEAAAEAV?$_String_val@U?$_Simple_types@D@std@@@2@XZ ; std::_String_alloc<std::_String_base_types<char,std::allocator<char> > >::_Get_data
	mov	QWORD PTR _My_data$[rbp], rax

; 3950 : 		_My_data._Mysize = 0;

	mov	rax, QWORD PTR _My_data$[rbp]
	mov	QWORD PTR [rax+24], 0

; 3951 : 		_My_data._Myres = this->_BUF_SIZE - 1;

	mov	rax, QWORD PTR _My_data$[rbp]
	mov	QWORD PTR [rax+32], 15

; 3952 : 		// the _Traits::assign is last so the codegen doesn't think the char
; 3953 : 		// write can alias this
; 3954 : 		_Traits::assign(_My_data._Bx._Buf[0], _Elem());

	mov	BYTE PTR $T1[rbp], 0
	mov	eax, 1
	imul	rax, rax, 0
	mov	rcx, QWORD PTR _My_data$[rbp]
	lea	rax, QWORD PTR [rcx+rax+8]
	lea	rdx, QWORD PTR $T1[rbp]
	mov	rcx, rax
	call	?assign@?$char_traits@D@std@@SAXAEADAEBD@Z ; std::char_traits<char>::assign

; 3955 : 		}

	lea	rsp, QWORD PTR [rbp+80]
	pop	rbp
	ret	0
?_Tidy_init@?$basic_string@DU?$char_traits@D@std@@V?$allocator@D@2@@std@@QEAAXXZ ENDP ; std::basic_string<char,std::char_traits<char>,std::allocator<char> >::_Tidy_init
_TEXT	ENDS
; Function compile flags: /Odtp /RTCu /ZI
; File c:\program files (x86)\microsoft visual studio\2017\enterprise\vc\tools\msvc\14.14.26428\include\xstring
;	COMDAT ?_Calculate_growth@?$basic_string@DU?$char_traits@D@std@@V?$allocator@D@2@@std@@QEBA_K_K@Z
_TEXT	SEGMENT
_Max$ = 0
_My_data$ = 8
_Masked$ = 16
_Old$ = 24
$T1 = 96
__$ArrayPad$ = 104
this$ = 128
_Requested$ = 136
?_Calculate_growth@?$basic_string@DU?$char_traits@D@std@@V?$allocator@D@2@@std@@QEBA_K_K@Z PROC ; std::basic_string<char,std::char_traits<char>,std::allocator<char> >::_Calculate_growth, COMDAT

; 3840 : 		{	// determines the next array size to allocate

$LN5:
	mov	QWORD PTR [rsp+16], rdx
	mov	QWORD PTR [rsp+8], rcx
	push	rbp
	sub	rsp, 144				; 00000090H
	lea	rbp, QWORD PTR [rsp+32]
	mov	rax, QWORD PTR __security_cookie
	xor	rax, rbp
	mov	QWORD PTR __$ArrayPad$[rbp], rax

; 3841 : 		const size_type _Max = max_size();

	mov	rcx, QWORD PTR this$[rbp]
	call	?max_size@?$basic_string@DU?$char_traits@D@std@@V?$allocator@D@2@@std@@QEBA_KXZ ; std::basic_string<char,std::char_traits<char>,std::allocator<char> >::max_size
	mov	QWORD PTR _Max$[rbp], rax

; 3842 : 		auto& _My_data = this->_Get_data();

	mov	rcx, QWORD PTR this$[rbp]
	call	?_Get_data@?$_String_alloc@U?$_String_base_types@DV?$allocator@D@std@@@std@@@std@@QEBAAEBV?$_String_val@U?$_Simple_types@D@std@@@2@XZ ; std::_String_alloc<std::_String_base_types<char,std::allocator<char> > >::_Get_data
	mov	QWORD PTR _My_data$[rbp], rax

; 3843 : 		const size_type _Masked = _Requested | this->_ALLOC_MASK;

	mov	rax, QWORD PTR _Requested$[rbp]
	or	rax, 15
	mov	QWORD PTR _Masked$[rbp], rax

; 3844 : 		if (_Masked > _Max)

	mov	rax, QWORD PTR _Max$[rbp]
	cmp	QWORD PTR _Masked$[rbp], rax
	jbe	SHORT $LN2@Calculate_

; 3845 : 			{	// the mask overflows, settle for max_size()
; 3846 : 			return (_Max);

	mov	rax, QWORD PTR _Max$[rbp]
	jmp	SHORT $LN1@Calculate_
$LN2@Calculate_:

; 3847 : 			}
; 3848 : 
; 3849 : 		const size_type _Old = _My_data._Myres;

	mov	rax, QWORD PTR _My_data$[rbp]
	mov	rax, QWORD PTR [rax+32]
	mov	QWORD PTR _Old$[rbp], rax

; 3850 : 		if (_Old > _Max - _Old / 2)

	xor	edx, edx
	mov	rax, QWORD PTR _Old$[rbp]
	mov	ecx, 2
	div	rcx
	mov	rcx, QWORD PTR _Max$[rbp]
	sub	rcx, rax
	mov	rax, rcx
	cmp	QWORD PTR _Old$[rbp], rax
	jbe	SHORT $LN3@Calculate_

; 3851 : 			{	// similarly, geometric overflows
; 3852 : 			return (_Max);

	mov	rax, QWORD PTR _Max$[rbp]
	jmp	SHORT $LN1@Calculate_
$LN3@Calculate_:

; 3853 : 			}
; 3854 : 
; 3855 : 		return (_Max_value(_Masked, _Old + _Old / 2));

	xor	edx, edx
	mov	rax, QWORD PTR _Old$[rbp]
	mov	ecx, 2
	div	rcx
	mov	rcx, QWORD PTR _Old$[rbp]
	add	rcx, rax
	mov	rax, rcx
	mov	QWORD PTR $T1[rbp], rax
	lea	rdx, QWORD PTR $T1[rbp]
	lea	rcx, QWORD PTR _Masked$[rbp]
	call	??$_Max_value@_K@std@@YAAEB_KAEB_K0@Z	; std::_Max_value<unsigned __int64>
	mov	rax, QWORD PTR [rax]
$LN1@Calculate_:

; 3856 : 		}

	mov	rcx, QWORD PTR __$ArrayPad$[rbp]
	xor	rcx, rbp
	call	__security_check_cookie
	lea	rsp, QWORD PTR [rbp+112]
	pop	rbp
	ret	0
?_Calculate_growth@?$basic_string@DU?$char_traits@D@std@@V?$allocator@D@2@@std@@QEBA_K_K@Z ENDP ; std::basic_string<char,std::char_traits<char>,std::allocator<char> >::_Calculate_growth
_TEXT	ENDS
; Function compile flags: /Odtp /RTCu /ZI
; File c:\program files (x86)\microsoft visual studio\2017\enterprise\vc\tools\msvc\14.14.26428\include\xstring
;	COMDAT ?max_size@?$basic_string@DU?$char_traits@D@std@@V?$allocator@D@2@@std@@QEBA_KXZ
_TEXT	SEGMENT
_Alloc_max$ = 0
_Storage_max$ = 8
$T1 = 80
$T2 = 88
$T3 = 96
__$ArrayPad$ = 104
this$ = 128
?max_size@?$basic_string@DU?$char_traits@D@std@@V?$allocator@D@2@@std@@QEBA_KXZ PROC ; std::basic_string<char,std::char_traits<char>,std::allocator<char> >::max_size, COMDAT

; 3279 : 		{	// return maximum possible length of sequence

$LN3:
	mov	QWORD PTR [rsp+8], rcx
	push	rbp
	sub	rsp, 144				; 00000090H
	lea	rbp, QWORD PTR [rsp+32]
	mov	rax, QWORD PTR __security_cookie
	xor	rax, rbp
	mov	QWORD PTR __$ArrayPad$[rbp], rax

; 3280 : 		const size_type _Alloc_max = _Alty_traits::max_size(this->_Getal());

	mov	rcx, QWORD PTR this$[rbp]
	call	?_Getal@?$_String_alloc@U?$_String_base_types@DV?$allocator@D@std@@@std@@@std@@QEBAAEBV?$allocator@D@2@XZ ; std::_String_alloc<std::_String_base_types<char,std::allocator<char> > >::_Getal
	mov	rcx, rax
	call	?max_size@?$_Default_allocator_traits@V?$allocator@D@std@@@std@@SA_KAEBV?$allocator@D@2@@Z ; std::_Default_allocator_traits<std::allocator<char> >::max_size
	mov	QWORD PTR _Alloc_max$[rbp], rax

; 3281 : 		const size_type _Storage_max = // can always store small string
; 3282 : 			_Max_value(_Alloc_max, static_cast<size_type>(this->_BUF_SIZE));

	mov	QWORD PTR $T1[rbp], 16
	lea	rdx, QWORD PTR $T1[rbp]
	lea	rcx, QWORD PTR _Alloc_max$[rbp]
	call	??$_Max_value@_K@std@@YAAEB_KAEB_K0@Z	; std::_Max_value<unsigned __int64>
	mov	rax, QWORD PTR [rax]
	mov	QWORD PTR _Storage_max$[rbp], rax

; 3283 : 		return (_Min_value(

	mov	rax, QWORD PTR _Storage_max$[rbp]
	dec	rax
	mov	QWORD PTR $T2[rbp], rax
	call	?max@?$numeric_limits@_J@std@@SA_JXZ	; std::numeric_limits<__int64>::max
	mov	QWORD PTR $T3[rbp], rax
	lea	rdx, QWORD PTR $T2[rbp]
	lea	rcx, QWORD PTR $T3[rbp]
	call	??$_Min_value@_K@std@@YAAEB_KAEB_K0@Z	; std::_Min_value<unsigned __int64>
	mov	rax, QWORD PTR [rax]

; 3284 : 			static_cast<size_type>((numeric_limits<difference_type>::max)()),
; 3285 : 			_Storage_max - 1 // -1 is for null terminator and/or npos
; 3286 : 			));
; 3287 : 
; 3288 : 		}

	mov	rcx, QWORD PTR __$ArrayPad$[rbp]
	xor	rcx, rbp
	call	__security_check_cookie
	lea	rsp, QWORD PTR [rbp+112]
	pop	rbp
	ret	0
?max_size@?$basic_string@DU?$char_traits@D@std@@V?$allocator@D@2@@std@@QEBA_KXZ ENDP ; std::basic_string<char,std::char_traits<char>,std::allocator<char> >::max_size
_TEXT	ENDS
; Function compile flags: /Odtp /RTCu /ZI
; File c:\program files (x86)\microsoft visual studio\2017\enterprise\vc\tools\msvc\14.14.26428\include\xstring
;	COMDAT ?assign@?$basic_string@DU?$char_traits@D@std@@V?$allocator@D@2@@std@@QEAAAEAV12@QEBD@Z
_TEXT	SEGMENT
this$ = 80
_Ptr$ = 88
?assign@?$basic_string@DU?$char_traits@D@std@@V?$allocator@D@2@@std@@QEAAAEAV12@QEBD@Z PROC ; std::basic_string<char,std::char_traits<char>,std::allocator<char> >::assign, COMDAT

; 2657 : 		{	// assign [_Ptr, <null>)

$LN3:
	mov	QWORD PTR [rsp+16], rdx
	mov	QWORD PTR [rsp+8], rcx
	push	rbp
	sub	rsp, 96					; 00000060H
	lea	rbp, QWORD PTR [rsp+32]

; 2658 : 		return (assign(_Ptr, _Convert_size<size_type>(_Traits::length(_Ptr))));

	mov	rcx, QWORD PTR _Ptr$[rbp]
	call	?length@?$char_traits@D@std@@SA_KQEBD@Z	; std::char_traits<char>::length
	mov	rcx, rax
	call	??$_Convert_size@_K@std@@YA_K_K@Z	; std::_Convert_size<unsigned __int64>
	mov	r8, rax
	mov	rdx, QWORD PTR _Ptr$[rbp]
	mov	rcx, QWORD PTR this$[rbp]
	call	?assign@?$basic_string@DU?$char_traits@D@std@@V?$allocator@D@2@@std@@QEAAAEAV12@QEBD_K@Z ; std::basic_string<char,std::char_traits<char>,std::allocator<char> >::assign

; 2659 : 		}

	lea	rsp, QWORD PTR [rbp+64]
	pop	rbp
	ret	0
?assign@?$basic_string@DU?$char_traits@D@std@@V?$allocator@D@2@@std@@QEAAAEAV12@QEBD@Z ENDP ; std::basic_string<char,std::char_traits<char>,std::allocator<char> >::assign
_TEXT	ENDS
; Function compile flags: /Odtp /RTCu /ZI
; File c:\program files (x86)\microsoft visual studio\2017\enterprise\vc\tools\msvc\14.14.26428\include\xstring
;	COMDAT ?assign@?$basic_string@DU?$char_traits@D@std@@V?$allocator@D@2@@std@@QEAAAEAV12@QEBD_K@Z
_TEXT	SEGMENT
_My_data$ = 0
_Old_ptr$1 = 8
$T2 = 80
$T3 = 81
this$ = 128
_Ptr$ = 136
_Count$ = 144
?assign@?$basic_string@DU?$char_traits@D@std@@V?$allocator@D@2@@std@@QEAAAEAV12@QEBD_K@Z PROC ; std::basic_string<char,std::char_traits<char>,std::allocator<char> >::assign, COMDAT

; 2639 : 		{	// assign [_Ptr, _Ptr + _Count)

$LN4:
	mov	QWORD PTR [rsp+24], r8
	mov	QWORD PTR [rsp+16], rdx
	mov	QWORD PTR [rsp+8], rcx
	push	rbp
	push	rdi
	sub	rsp, 136				; 00000088H
	lea	rbp, QWORD PTR [rsp+32]

; 2640 : 		auto& _My_data = this->_Get_data();

	mov	rcx, QWORD PTR this$[rbp]
	call	?_Get_data@?$_String_alloc@U?$_String_base_types@DV?$allocator@D@std@@@std@@@std@@QEAAAEAV?$_String_val@U?$_Simple_types@D@std@@@2@XZ ; std::_String_alloc<std::_String_base_types<char,std::allocator<char> > >::_Get_data
	mov	QWORD PTR _My_data$[rbp], rax

; 2641 : 		if (_Count <= _My_data._Myres)

	mov	rax, QWORD PTR _My_data$[rbp]
	mov	rax, QWORD PTR [rax+32]
	cmp	QWORD PTR _Count$[rbp], rax
	ja	SHORT $LN2@assign

; 2642 : 			{
; 2643 : 			_Elem * const _Old_ptr = _My_data._Myptr();

	mov	rcx, QWORD PTR _My_data$[rbp]
	call	?_Myptr@?$_String_val@U?$_Simple_types@D@std@@@std@@QEAAPEADXZ ; std::_String_val<std::_Simple_types<char> >::_Myptr
	mov	QWORD PTR _Old_ptr$1[rbp], rax

; 2644 : 			_My_data._Mysize = _Count;

	mov	rax, QWORD PTR _My_data$[rbp]
	mov	rcx, QWORD PTR _Count$[rbp]
	mov	QWORD PTR [rax+24], rcx

; 2645 : 			_Traits::move(_Old_ptr, _Ptr, _Count);

	mov	r8, QWORD PTR _Count$[rbp]
	mov	rdx, QWORD PTR _Ptr$[rbp]
	mov	rcx, QWORD PTR _Old_ptr$1[rbp]
	call	?move@?$char_traits@D@std@@SAPEADQEADQEBD_K@Z ; std::char_traits<char>::move

; 2646 : 			_Traits::assign(_Old_ptr[_Count], _Elem());

	mov	BYTE PTR $T2[rbp], 0
	mov	rax, QWORD PTR _Count$[rbp]
	mov	rcx, QWORD PTR _Old_ptr$1[rbp]
	add	rcx, rax
	mov	rax, rcx
	lea	rdx, QWORD PTR $T2[rbp]
	mov	rcx, rax
	call	?assign@?$char_traits@D@std@@SAXAEADAEBD@Z ; std::char_traits<char>::assign

; 2647 : 			return (*this);

	mov	rax, QWORD PTR this$[rbp]
	jmp	SHORT $LN1@assign
$LN2@assign:

; 2648 : 			}
; 2649 : 
; 2650 : 		return (_Reallocate_for(_Count, [](_Elem * const _New_ptr, const size_type _Count, const _Elem * const _Ptr) {

	lea	rax, QWORD PTR $T3[rbp]
	mov	rdi, rax
	xor	eax, eax
	mov	ecx, 1
	rep stosb
	mov	r9, QWORD PTR _Ptr$[rbp]
	movzx	r8d, BYTE PTR $T3[rbp]
	mov	rdx, QWORD PTR _Count$[rbp]
	mov	rcx, QWORD PTR this$[rbp]
	call	??$_Reallocate_for@V<lambda_66f57f934f28d61049862f64df852ff0>@@PEBD@?$basic_string@DU?$char_traits@D@std@@V?$allocator@D@2@@std@@QEAAAEAV01@_KV<lambda_66f57f934f28d61049862f64df852ff0>@@PEBD@Z ; std::basic_string<char,std::char_traits<char>,std::allocator<char> >::_Reallocate_for<<lambda_66f57f934f28d61049862f64df852ff0>,char const *>
$LN1@assign:

; 2651 : 			_Traits::copy(_New_ptr, _Ptr, _Count);
; 2652 : 			_Traits::assign(_New_ptr[_Count], _Elem());
; 2653 : 			}, _Ptr));
; 2654 : 		}

	lea	rsp, QWORD PTR [rbp+104]
	pop	rdi
	pop	rbp
	ret	0
?assign@?$basic_string@DU?$char_traits@D@std@@V?$allocator@D@2@@std@@QEAAAEAV12@QEBD_K@Z ENDP ; std::basic_string<char,std::char_traits<char>,std::allocator<char> >::assign
_TEXT	ENDS
; Function compile flags: /Odtp /RTCu /ZI
; File c:\program files (x86)\microsoft visual studio\2017\enterprise\vc\tools\msvc\14.14.26428\include\xstring
;	COMDAT ??1?$basic_string@DU?$char_traits@D@std@@V?$allocator@D@2@@std@@QEAA@XZ
_TEXT	SEGMENT
$T1 = 64
this$ = 96
??1?$basic_string@DU?$char_traits@D@std@@V?$allocator@D@2@@std@@QEAA@XZ PROC ; std::basic_string<char,std::char_traits<char>,std::allocator<char> >::~basic_string<char,std::char_traits<char>,std::allocator<char> >, COMDAT

; 2441 : 		{	// destroy the string

$LN3:
	mov	QWORD PTR [rsp+8], rcx
	push	rbp
	sub	rsp, 112				; 00000070H
	lea	rbp, QWORD PTR [rsp+32]
	mov	QWORD PTR $T1[rbp], -2

; 2442 : 		_Tidy_deallocate();

	mov	rcx, QWORD PTR this$[rbp]
	call	?_Tidy_deallocate@?$basic_string@DU?$char_traits@D@std@@V?$allocator@D@2@@std@@QEAAXXZ ; std::basic_string<char,std::char_traits<char>,std::allocator<char> >::_Tidy_deallocate
	npad	1

; 2443 : 		}

	mov	rcx, QWORD PTR this$[rbp]
	call	??1?$_String_alloc@U?$_String_base_types@DV?$allocator@D@std@@@std@@@std@@QEAA@XZ ; std::_String_alloc<std::_String_base_types<char,std::allocator<char> > >::~_String_alloc<std::_String_base_types<char,std::allocator<char> > >
	npad	1
	lea	rsp, QWORD PTR [rbp+80]
	pop	rbp
	ret	0
??1?$basic_string@DU?$char_traits@D@std@@V?$allocator@D@2@@std@@QEAA@XZ ENDP ; std::basic_string<char,std::char_traits<char>,std::allocator<char> >::~basic_string<char,std::char_traits<char>,std::allocator<char> >
_TEXT	ENDS
; Function compile flags: /Odtp /RTCu /ZI
; File c:\program files (x86)\microsoft visual studio\2017\enterprise\vc\tools\msvc\14.14.26428\include\xstring
;	COMDAT ??0?$basic_string@DU?$char_traits@D@std@@V?$allocator@D@2@@std@@QEAA@QEBD@Z
_TEXT	SEGMENT
$T1 = 64
this$ = 96
_Ptr$ = 104
??0?$basic_string@DU?$char_traits@D@std@@V?$allocator@D@2@@std@@QEAA@QEBD@Z PROC ; std::basic_string<char,std::char_traits<char>,std::allocator<char> >::basic_string<char,std::char_traits<char>,std::allocator<char> >, COMDAT

; 2166 : 		{	// construct from [_Ptr, <null>)

$LN4:
	mov	QWORD PTR [rsp+16], rdx
	mov	QWORD PTR [rsp+8], rcx
	push	rbp
	sub	rsp, 112				; 00000070H
	lea	rbp, QWORD PTR [rsp+32]
	mov	QWORD PTR $T1[rbp], -2

; 2165 : 		: _Mybase()

	mov	rcx, QWORD PTR this$[rbp]
	call	??0?$_String_alloc@U?$_String_base_types@DV?$allocator@D@std@@@std@@@std@@QEAA@XZ ; std::_String_alloc<std::_String_base_types<char,std::allocator<char> > >::_String_alloc<std::_String_base_types<char,std::allocator<char> > >
	npad	1

; 2167 : 		_Tidy_init();

	mov	rcx, QWORD PTR this$[rbp]
	call	?_Tidy_init@?$basic_string@DU?$char_traits@D@std@@V?$allocator@D@2@@std@@QEAAXXZ ; std::basic_string<char,std::char_traits<char>,std::allocator<char> >::_Tidy_init

; 2168 : 		assign(_Ptr);

	mov	rdx, QWORD PTR _Ptr$[rbp]
	mov	rcx, QWORD PTR this$[rbp]
	call	?assign@?$basic_string@DU?$char_traits@D@std@@V?$allocator@D@2@@std@@QEAAAEAV12@QEBD@Z ; std::basic_string<char,std::char_traits<char>,std::allocator<char> >::assign
	npad	1

; 2169 : 		}

	mov	rax, QWORD PTR this$[rbp]
	lea	rsp, QWORD PTR [rbp+80]
	pop	rbp
	ret	0
??0?$basic_string@DU?$char_traits@D@std@@V?$allocator@D@2@@std@@QEAA@QEBD@Z ENDP ; std::basic_string<char,std::char_traits<char>,std::allocator<char> >::basic_string<char,std::char_traits<char>,std::allocator<char> >
_TEXT	ENDS
;	COMDAT text$x
text$x	SEGMENT
$T1 = 64
this$ = 96
_Ptr$ = 104
?dtor$0@?0???0?$basic_string@DU?$char_traits@D@std@@V?$allocator@D@2@@std@@QEAA@QEBD@Z@4HA PROC ; `std::basic_string<char,std::char_traits<char>,std::allocator<char> >::basic_string<char,std::char_traits<char>,std::allocator<char> >'::`1'::dtor$0
	push	rbp
	sub	rsp, 32					; 00000020H
	lea	rbp, QWORD PTR [rdx+32]
	mov	rcx, QWORD PTR this$[rbp]
	call	??1?$_String_alloc@U?$_String_base_types@DV?$allocator@D@std@@@std@@@std@@QEAA@XZ ; std::_String_alloc<std::_String_base_types<char,std::allocator<char> > >::~_String_alloc<std::_String_base_types<char,std::allocator<char> > >
	add	rsp, 32					; 00000020H
	pop	rbp
	ret	0
?dtor$0@?0???0?$basic_string@DU?$char_traits@D@std@@V?$allocator@D@2@@std@@QEAA@QEBD@Z@4HA ENDP ; `std::basic_string<char,std::char_traits<char>,std::allocator<char> >::basic_string<char,std::char_traits<char>,std::allocator<char> >'::`1'::dtor$0
text$x	ENDS
; Function compile flags: /Odtp /RTCu /ZI
;	COMDAT text$x
text$x	SEGMENT
$T1 = 64
this$ = 96
_Ptr$ = 104
?dtor$0@?0???0?$basic_string@DU?$char_traits@D@std@@V?$allocator@D@2@@std@@QEAA@QEBD@Z@4HA PROC ; `std::basic_string<char,std::char_traits<char>,std::allocator<char> >::basic_string<char,std::char_traits<char>,std::allocator<char> >'::`1'::dtor$0
	push	rbp
	sub	rsp, 32					; 00000020H
	lea	rbp, QWORD PTR [rdx+32]
	mov	rcx, QWORD PTR this$[rbp]
	call	??1?$_String_alloc@U?$_String_base_types@DV?$allocator@D@std@@@std@@@std@@QEAA@XZ ; std::_String_alloc<std::_String_base_types<char,std::allocator<char> > >::~_String_alloc<std::_String_base_types<char,std::allocator<char> > >
	add	rsp, 32					; 00000020H
	pop	rbp
	ret	0
?dtor$0@?0???0?$basic_string@DU?$char_traits@D@std@@V?$allocator@D@2@@std@@QEAA@QEBD@Z@4HA ENDP ; `std::basic_string<char,std::char_traits<char>,std::allocator<char> >::basic_string<char,std::char_traits<char>,std::allocator<char> >'::`1'::dtor$0
text$x	ENDS
; Function compile flags: /Odtp /RTCu /ZI
;	COMDAT ??1?$_Compressed_pair@V?$allocator@D@std@@V?$_String_val@U?$_Simple_types@D@std@@@2@$00@std@@QEAA@XZ
_TEXT	SEGMENT
this$ = 80
??1?$_Compressed_pair@V?$allocator@D@std@@V?$_String_val@U?$_Simple_types@D@std@@@2@$00@std@@QEAA@XZ PROC ; std::_Compressed_pair<std::allocator<char>,std::_String_val<std::_Simple_types<char> >,1>::~_Compressed_pair<std::allocator<char>,std::_String_val<std::_Simple_types<char> >,1>, COMDAT
$LN3:
	mov	QWORD PTR [rsp+8], rcx
	push	rbp
	sub	rsp, 96					; 00000060H
	lea	rbp, QWORD PTR [rsp+32]
	mov	rax, QWORD PTR this$[rbp]
	mov	rcx, rax
	call	??1?$_String_val@U?$_Simple_types@D@std@@@std@@QEAA@XZ
	lea	rsp, QWORD PTR [rbp+64]
	pop	rbp
	ret	0
??1?$_Compressed_pair@V?$allocator@D@std@@V?$_String_val@U?$_Simple_types@D@std@@@2@$00@std@@QEAA@XZ ENDP ; std::_Compressed_pair<std::allocator<char>,std::_String_val<std::_Simple_types<char> >,1>::~_Compressed_pair<std::allocator<char>,std::_String_val<std::_Simple_types<char> >,1>
_TEXT	ENDS
; Function compile flags: /Odtp /RTCu /ZI
; File c:\program files (x86)\microsoft visual studio\2017\enterprise\vc\tools\msvc\14.14.26428\include\xutility
;	COMDAT ?_Get_second@?$_Compressed_pair@V?$allocator@D@std@@V?$_String_val@U?$_Simple_types@D@std@@@2@$00@std@@QEBAAEBV?$_String_val@U?$_Simple_types@D@std@@@2@XZ
_TEXT	SEGMENT
this$ = 80
?_Get_second@?$_Compressed_pair@V?$allocator@D@std@@V?$_String_val@U?$_Simple_types@D@std@@@2@$00@std@@QEBAAEBV?$_String_val@U?$_Simple_types@D@std@@@2@XZ PROC ; std::_Compressed_pair<std::allocator<char>,std::_String_val<std::_Simple_types<char> >,1>::_Get_second, COMDAT

; 354  : 		{	// return const reference to second

$LN3:
	mov	QWORD PTR [rsp+8], rcx
	push	rbp
	sub	rsp, 64					; 00000040H
	mov	rbp, rsp

; 355  : 		return (_Myval2);

	mov	rax, QWORD PTR this$[rbp]

; 356  : 		}

	lea	rsp, QWORD PTR [rbp+64]
	pop	rbp
	ret	0
?_Get_second@?$_Compressed_pair@V?$allocator@D@std@@V?$_String_val@U?$_Simple_types@D@std@@@2@$00@std@@QEBAAEBV?$_String_val@U?$_Simple_types@D@std@@@2@XZ ENDP ; std::_Compressed_pair<std::allocator<char>,std::_String_val<std::_Simple_types<char> >,1>::_Get_second
_TEXT	ENDS
; Function compile flags: /Odtp /RTCu /ZI
; File c:\program files (x86)\microsoft visual studio\2017\enterprise\vc\tools\msvc\14.14.26428\include\xutility
;	COMDAT ?_Get_second@?$_Compressed_pair@V?$allocator@D@std@@V?$_String_val@U?$_Simple_types@D@std@@@2@$00@std@@QEAAAEAV?$_String_val@U?$_Simple_types@D@std@@@2@XZ
_TEXT	SEGMENT
this$ = 80
?_Get_second@?$_Compressed_pair@V?$allocator@D@std@@V?$_String_val@U?$_Simple_types@D@std@@@2@$00@std@@QEAAAEAV?$_String_val@U?$_Simple_types@D@std@@@2@XZ PROC ; std::_Compressed_pair<std::allocator<char>,std::_String_val<std::_Simple_types<char> >,1>::_Get_second, COMDAT

; 349  : 		{	// return reference to second

$LN3:
	mov	QWORD PTR [rsp+8], rcx
	push	rbp
	sub	rsp, 64					; 00000040H
	mov	rbp, rsp

; 350  : 		return (_Myval2);

	mov	rax, QWORD PTR this$[rbp]

; 351  : 		}

	lea	rsp, QWORD PTR [rbp+64]
	pop	rbp
	ret	0
?_Get_second@?$_Compressed_pair@V?$allocator@D@std@@V?$_String_val@U?$_Simple_types@D@std@@@2@$00@std@@QEAAAEAV?$_String_val@U?$_Simple_types@D@std@@@2@XZ ENDP ; std::_Compressed_pair<std::allocator<char>,std::_String_val<std::_Simple_types<char> >,1>::_Get_second
_TEXT	ENDS
; Function compile flags: /Odtp /RTCu /ZI
; File c:\program files (x86)\microsoft visual studio\2017\enterprise\vc\tools\msvc\14.14.26428\include\xutility
;	COMDAT ?_Get_first@?$_Compressed_pair@V?$allocator@D@std@@V?$_String_val@U?$_Simple_types@D@std@@@2@$00@std@@QEBAAEBV?$allocator@D@2@XZ
_TEXT	SEGMENT
this$ = 80
?_Get_first@?$_Compressed_pair@V?$allocator@D@std@@V?$_String_val@U?$_Simple_types@D@std@@@2@$00@std@@QEBAAEBV?$allocator@D@2@XZ PROC ; std::_Compressed_pair<std::allocator<char>,std::_String_val<std::_Simple_types<char> >,1>::_Get_first, COMDAT

; 334  : 		{	// return const reference to first

$LN3:
	mov	QWORD PTR [rsp+8], rcx
	push	rbp
	sub	rsp, 64					; 00000040H
	mov	rbp, rsp

; 335  : 		return (*this);

	mov	rax, QWORD PTR this$[rbp]

; 336  : 		}

	lea	rsp, QWORD PTR [rbp+64]
	pop	rbp
	ret	0
?_Get_first@?$_Compressed_pair@V?$allocator@D@std@@V?$_String_val@U?$_Simple_types@D@std@@@2@$00@std@@QEBAAEBV?$allocator@D@2@XZ ENDP ; std::_Compressed_pair<std::allocator<char>,std::_String_val<std::_Simple_types<char> >,1>::_Get_first
_TEXT	ENDS
; Function compile flags: /Odtp /RTCu /ZI
; File c:\program files (x86)\microsoft visual studio\2017\enterprise\vc\tools\msvc\14.14.26428\include\xutility
;	COMDAT ?_Get_first@?$_Compressed_pair@V?$allocator@D@std@@V?$_String_val@U?$_Simple_types@D@std@@@2@$00@std@@QEAAAEAV?$allocator@D@2@XZ
_TEXT	SEGMENT
this$ = 80
?_Get_first@?$_Compressed_pair@V?$allocator@D@std@@V?$_String_val@U?$_Simple_types@D@std@@@2@$00@std@@QEAAAEAV?$allocator@D@2@XZ PROC ; std::_Compressed_pair<std::allocator<char>,std::_String_val<std::_Simple_types<char> >,1>::_Get_first, COMDAT

; 329  : 		{	// return reference to first

$LN3:
	mov	QWORD PTR [rsp+8], rcx
	push	rbp
	sub	rsp, 64					; 00000040H
	mov	rbp, rsp

; 330  : 		return (*this);

	mov	rax, QWORD PTR this$[rbp]

; 331  : 		}

	lea	rsp, QWORD PTR [rbp+64]
	pop	rbp
	ret	0
?_Get_first@?$_Compressed_pair@V?$allocator@D@std@@V?$_String_val@U?$_Simple_types@D@std@@@2@$00@std@@QEAAAEAV?$allocator@D@2@XZ ENDP ; std::_Compressed_pair<std::allocator<char>,std::_String_val<std::_Simple_types<char> >,1>::_Get_first
_TEXT	ENDS
; Function compile flags: /Odtp /RTCu /ZI
; File c:\program files (x86)\microsoft visual studio\2017\enterprise\vc\tools\msvc\14.14.26428\include\xstring
;	COMDAT ?_Get_data@?$_String_alloc@U?$_String_base_types@DV?$allocator@D@std@@@std@@@std@@QEBAAEBV?$_String_val@U?$_Simple_types@D@std@@@2@XZ
_TEXT	SEGMENT
this$ = 80
?_Get_data@?$_String_alloc@U?$_String_base_types@DV?$allocator@D@std@@@std@@@std@@QEBAAEBV?$_String_val@U?$_Simple_types@D@std@@@2@XZ PROC ; std::_String_alloc<std::_String_base_types<char,std::allocator<char> > >::_Get_data, COMDAT

; 2030 : 		{	// return const reference to _String_val

$LN3:
	mov	QWORD PTR [rsp+8], rcx
	push	rbp
	sub	rsp, 96					; 00000060H
	lea	rbp, QWORD PTR [rsp+32]

; 2031 : 		return (_Mypair._Get_second());

	mov	rax, QWORD PTR this$[rbp]
	mov	rcx, rax
	call	?_Get_second@?$_Compressed_pair@V?$allocator@D@std@@V?$_String_val@U?$_Simple_types@D@std@@@2@$00@std@@QEBAAEBV?$_String_val@U?$_Simple_types@D@std@@@2@XZ ; std::_Compressed_pair<std::allocator<char>,std::_String_val<std::_Simple_types<char> >,1>::_Get_second

; 2032 : 		}

	lea	rsp, QWORD PTR [rbp+64]
	pop	rbp
	ret	0
?_Get_data@?$_String_alloc@U?$_String_base_types@DV?$allocator@D@std@@@std@@@std@@QEBAAEBV?$_String_val@U?$_Simple_types@D@std@@@2@XZ ENDP ; std::_String_alloc<std::_String_base_types<char,std::allocator<char> > >::_Get_data
_TEXT	ENDS
; Function compile flags: /Odtp /RTCu /ZI
; File c:\program files (x86)\microsoft visual studio\2017\enterprise\vc\tools\msvc\14.14.26428\include\xstring
;	COMDAT ?_Get_data@?$_String_alloc@U?$_String_base_types@DV?$allocator@D@std@@@std@@@std@@QEAAAEAV?$_String_val@U?$_Simple_types@D@std@@@2@XZ
_TEXT	SEGMENT
this$ = 80
?_Get_data@?$_String_alloc@U?$_String_base_types@DV?$allocator@D@std@@@std@@@std@@QEAAAEAV?$_String_val@U?$_Simple_types@D@std@@@2@XZ PROC ; std::_String_alloc<std::_String_base_types<char,std::allocator<char> > >::_Get_data, COMDAT

; 2025 : 		{	// return reference to _String_val

$LN3:
	mov	QWORD PTR [rsp+8], rcx
	push	rbp
	sub	rsp, 96					; 00000060H
	lea	rbp, QWORD PTR [rsp+32]

; 2026 : 		return (_Mypair._Get_second());

	mov	rax, QWORD PTR this$[rbp]
	mov	rcx, rax
	call	?_Get_second@?$_Compressed_pair@V?$allocator@D@std@@V?$_String_val@U?$_Simple_types@D@std@@@2@$00@std@@QEAAAEAV?$_String_val@U?$_Simple_types@D@std@@@2@XZ ; std::_Compressed_pair<std::allocator<char>,std::_String_val<std::_Simple_types<char> >,1>::_Get_second

; 2027 : 		}

	lea	rsp, QWORD PTR [rbp+64]
	pop	rbp
	ret	0
?_Get_data@?$_String_alloc@U?$_String_base_types@DV?$allocator@D@std@@@std@@@std@@QEAAAEAV?$_String_val@U?$_Simple_types@D@std@@@2@XZ ENDP ; std::_String_alloc<std::_String_base_types<char,std::allocator<char> > >::_Get_data
_TEXT	ENDS
; Function compile flags: /Odtp /RTCu /ZI
; File c:\program files (x86)\microsoft visual studio\2017\enterprise\vc\tools\msvc\14.14.26428\include\xstring
;	COMDAT ?_Getal@?$_String_alloc@U?$_String_base_types@DV?$allocator@D@std@@@std@@@std@@QEBAAEBV?$allocator@D@2@XZ
_TEXT	SEGMENT
this$ = 80
?_Getal@?$_String_alloc@U?$_String_base_types@DV?$allocator@D@std@@@std@@@std@@QEBAAEBV?$allocator@D@2@XZ PROC ; std::_String_alloc<std::_String_base_types<char,std::allocator<char> > >::_Getal, COMDAT

; 2020 : 		{	// return const reference to allocator

$LN3:
	mov	QWORD PTR [rsp+8], rcx
	push	rbp
	sub	rsp, 96					; 00000060H
	lea	rbp, QWORD PTR [rsp+32]

; 2021 : 		return (_Mypair._Get_first());

	mov	rax, QWORD PTR this$[rbp]
	mov	rcx, rax
	call	?_Get_first@?$_Compressed_pair@V?$allocator@D@std@@V?$_String_val@U?$_Simple_types@D@std@@@2@$00@std@@QEBAAEBV?$allocator@D@2@XZ ; std::_Compressed_pair<std::allocator<char>,std::_String_val<std::_Simple_types<char> >,1>::_Get_first

; 2022 : 		}

	lea	rsp, QWORD PTR [rbp+64]
	pop	rbp
	ret	0
?_Getal@?$_String_alloc@U?$_String_base_types@DV?$allocator@D@std@@@std@@@std@@QEBAAEBV?$allocator@D@2@XZ ENDP ; std::_String_alloc<std::_String_base_types<char,std::allocator<char> > >::_Getal
_TEXT	ENDS
; Function compile flags: /Odtp /RTCu /ZI
; File c:\program files (x86)\microsoft visual studio\2017\enterprise\vc\tools\msvc\14.14.26428\include\xstring
;	COMDAT ?_Getal@?$_String_alloc@U?$_String_base_types@DV?$allocator@D@std@@@std@@@std@@QEAAAEAV?$allocator@D@2@XZ
_TEXT	SEGMENT
this$ = 80
?_Getal@?$_String_alloc@U?$_String_base_types@DV?$allocator@D@std@@@std@@@std@@QEAAAEAV?$allocator@D@2@XZ PROC ; std::_String_alloc<std::_String_base_types<char,std::allocator<char> > >::_Getal, COMDAT

; 2015 : 		{	// return reference to allocator

$LN3:
	mov	QWORD PTR [rsp+8], rcx
	push	rbp
	sub	rsp, 96					; 00000060H
	lea	rbp, QWORD PTR [rsp+32]

; 2016 : 		return (_Mypair._Get_first());

	mov	rax, QWORD PTR this$[rbp]
	mov	rcx, rax
	call	?_Get_first@?$_Compressed_pair@V?$allocator@D@std@@V?$_String_val@U?$_Simple_types@D@std@@@2@$00@std@@QEAAAEAV?$allocator@D@2@XZ ; std::_Compressed_pair<std::allocator<char>,std::_String_val<std::_Simple_types<char> >,1>::_Get_first

; 2017 : 		}

	lea	rsp, QWORD PTR [rbp+64]
	pop	rbp
	ret	0
?_Getal@?$_String_alloc@U?$_String_base_types@DV?$allocator@D@std@@@std@@@std@@QEAAAEAV?$allocator@D@2@XZ ENDP ; std::_String_alloc<std::_String_base_types<char,std::allocator<char> > >::_Getal
_TEXT	ENDS
; Function compile flags: /Odtp /RTCu /ZI
; File c:\program files (x86)\microsoft visual studio\2017\enterprise\vc\tools\msvc\14.14.26428\include\xstring
;	COMDAT ?_Orphan_all@?$_String_alloc@U?$_String_base_types@DV?$allocator@D@std@@@std@@@std@@QEAAXXZ
_TEXT	SEGMENT
this$ = 80
?_Orphan_all@?$_String_alloc@U?$_String_base_types@DV?$allocator@D@std@@@std@@@std@@QEAAXXZ PROC ; std::_String_alloc<std::_String_base_types<char,std::allocator<char> > >::_Orphan_all, COMDAT

; 2005 : 		{	// orphan all iterators

$LN3:
	mov	QWORD PTR [rsp+8], rcx
	push	rbp
	sub	rsp, 96					; 00000060H
	lea	rbp, QWORD PTR [rsp+32]

; 2006 : 		_Get_data()._Orphan_all();

	mov	rcx, QWORD PTR this$[rbp]
	call	?_Get_data@?$_String_alloc@U?$_String_base_types@DV?$allocator@D@std@@@std@@@std@@QEAAAEAV?$_String_val@U?$_Simple_types@D@std@@@2@XZ ; std::_String_alloc<std::_String_base_types<char,std::allocator<char> > >::_Get_data
	mov	rcx, rax
	call	?_Orphan_all@_Container_base12@std@@QEAAXXZ ; std::_Container_base12::_Orphan_all

; 2007 : 		}

	lea	rsp, QWORD PTR [rbp+64]
	pop	rbp
	ret	0
?_Orphan_all@?$_String_alloc@U?$_String_base_types@DV?$allocator@D@std@@@std@@@std@@QEAAXXZ ENDP ; std::_String_alloc<std::_String_base_types<char,std::allocator<char> > >::_Orphan_all
_TEXT	ENDS
; Function compile flags: /Odtp /RTCu /ZI
; File c:\program files (x86)\microsoft visual studio\2017\enterprise\vc\tools\msvc\14.14.26428\include\xstring
;	COMDAT ?_Myproxy@?$_String_alloc@U?$_String_base_types@DV?$allocator@D@std@@@std@@@std@@QEAAAEAPEAU_Container_proxy@2@XZ
_TEXT	SEGMENT
this$ = 80
?_Myproxy@?$_String_alloc@U?$_String_base_types@DV?$allocator@D@std@@@std@@@std@@QEAAAEAPEAU_Container_proxy@2@XZ PROC ; std::_String_alloc<std::_String_base_types<char,std::allocator<char> > >::_Myproxy, COMDAT

; 1994 : 		{	// return reference to _Myproxy

$LN3:
	mov	QWORD PTR [rsp+8], rcx
	push	rbp
	sub	rsp, 96					; 00000060H
	lea	rbp, QWORD PTR [rsp+32]

; 1995 : 		return (_Get_data()._Myproxy);

	mov	rcx, QWORD PTR this$[rbp]
	call	?_Get_data@?$_String_alloc@U?$_String_base_types@DV?$allocator@D@std@@@std@@@std@@QEAAAEAV?$_String_val@U?$_Simple_types@D@std@@@2@XZ ; std::_String_alloc<std::_String_base_types<char,std::allocator<char> > >::_Get_data

; 1996 : 		}

	lea	rsp, QWORD PTR [rbp+64]
	pop	rbp
	ret	0
?_Myproxy@?$_String_alloc@U?$_String_base_types@DV?$allocator@D@std@@@std@@@std@@QEAAAEAPEAU_Container_proxy@2@XZ ENDP ; std::_String_alloc<std::_String_base_types<char,std::allocator<char> > >::_Myproxy
_TEXT	ENDS
; Function compile flags: /Odtp /RTCu /ZI
; File c:\program files (x86)\microsoft visual studio\2017\enterprise\vc\tools\msvc\14.14.26428\include\xstring
;	COMDAT ?_Free_proxy@?$_String_alloc@U?$_String_base_types@DV?$allocator@D@std@@@std@@@std@@QEAAXXZ
_TEXT	SEGMENT
_Proxy_allocator$ = 0
__$ArrayPad$ = 72
this$ = 96
?_Free_proxy@?$_String_alloc@U?$_String_base_types@DV?$allocator@D@std@@@std@@@std@@QEAAXXZ PROC ; std::_String_alloc<std::_String_base_types<char,std::allocator<char> > >::_Free_proxy, COMDAT

; 1980 : 		{	// destroy proxy

$LN3:
	mov	QWORD PTR [rsp+8], rcx
	push	rbp
	sub	rsp, 112				; 00000070H
	lea	rbp, QWORD PTR [rsp+32]
	mov	rax, QWORD PTR __security_cookie
	xor	rax, rbp
	mov	QWORD PTR __$ArrayPad$[rbp], rax

; 1981 : 		_Alproxy _Proxy_allocator(_Getal());

	mov	rcx, QWORD PTR this$[rbp]
	call	?_Getal@?$_String_alloc@U?$_String_base_types@DV?$allocator@D@std@@@std@@@std@@QEAAAEAV?$allocator@D@2@XZ ; std::_String_alloc<std::_String_base_types<char,std::allocator<char> > >::_Getal
	mov	rdx, rax
	lea	rcx, QWORD PTR _Proxy_allocator$[rbp]
	call	??$?0D@?$allocator@U_Container_proxy@std@@@std@@QEAA@AEBV?$allocator@D@1@@Z ; std::allocator<std::_Container_proxy>::allocator<std::_Container_proxy><char>

; 1982 : 		_Orphan_all();

	mov	rcx, QWORD PTR this$[rbp]
	call	?_Orphan_all@?$_String_alloc@U?$_String_base_types@DV?$allocator@D@std@@@std@@@std@@QEAAXXZ ; std::_String_alloc<std::_String_base_types<char,std::allocator<char> > >::_Orphan_all

; 1983 : 		_Alproxy_traits::destroy(_Proxy_allocator, _Myproxy());

	mov	rcx, QWORD PTR this$[rbp]
	call	?_Myproxy@?$_String_alloc@U?$_String_base_types@DV?$allocator@D@std@@@std@@@std@@QEAAAEAPEAU_Container_proxy@2@XZ ; std::_String_alloc<std::_String_base_types<char,std::allocator<char> > >::_Myproxy
	mov	rdx, QWORD PTR [rax]
	lea	rcx, QWORD PTR _Proxy_allocator$[rbp]
	call	??$destroy@U_Container_proxy@std@@@?$_Default_allocator_traits@V?$allocator@U_Container_proxy@std@@@std@@@std@@SAXAEAV?$allocator@U_Container_proxy@std@@@1@QEAU_Container_proxy@1@@Z ; std::_Default_allocator_traits<std::allocator<std::_Container_proxy> >::destroy<std::_Container_proxy>

; 1984 : 		_Deallocate_plain(_Proxy_allocator, _Myproxy());

	mov	rcx, QWORD PTR this$[rbp]
	call	?_Myproxy@?$_String_alloc@U?$_String_base_types@DV?$allocator@D@std@@@std@@@std@@QEAAAEAPEAU_Container_proxy@2@XZ ; std::_String_alloc<std::_String_base_types<char,std::allocator<char> > >::_Myproxy
	mov	rdx, QWORD PTR [rax]
	lea	rcx, QWORD PTR _Proxy_allocator$[rbp]
	call	??$_Deallocate_plain@V?$allocator@U_Container_proxy@std@@@std@@$0A@@std@@YAXAEAV?$allocator@U_Container_proxy@std@@@0@QEAU_Container_proxy@0@@Z ; std::_Deallocate_plain<std::allocator<std::_Container_proxy>,0>

; 1985 : 		_Myproxy() = 0;

	mov	rcx, QWORD PTR this$[rbp]
	call	?_Myproxy@?$_String_alloc@U?$_String_base_types@DV?$allocator@D@std@@@std@@@std@@QEAAAEAPEAU_Container_proxy@2@XZ ; std::_String_alloc<std::_String_base_types<char,std::allocator<char> > >::_Myproxy
	mov	QWORD PTR [rax], 0

; 1986 : 		}

	mov	rcx, QWORD PTR __$ArrayPad$[rbp]
	xor	rcx, rbp
	call	__security_check_cookie
	lea	rsp, QWORD PTR [rbp+80]
	pop	rbp
	ret	0
?_Free_proxy@?$_String_alloc@U?$_String_base_types@DV?$allocator@D@std@@@std@@@std@@QEAAXXZ ENDP ; std::_String_alloc<std::_String_base_types<char,std::allocator<char> > >::_Free_proxy
_TEXT	ENDS
; Function compile flags: /Odtp /RTCu /ZI
; File c:\program files (x86)\microsoft visual studio\2017\enterprise\vc\tools\msvc\14.14.26428\include\xstring
;	COMDAT ?_Alloc_proxy@?$_String_alloc@U?$_String_base_types@DV?$allocator@D@std@@@std@@@std@@QEAAXXZ
_TEXT	SEGMENT
_Proxy_allocator$ = 0
$T1 = 72
tv91 = 88
tv79 = 88
tv70 = 88
__$ArrayPad$ = 96
this$ = 128
?_Alloc_proxy@?$_String_alloc@U?$_String_base_types@DV?$allocator@D@std@@@std@@@std@@QEAAXXZ PROC ; std::_String_alloc<std::_String_base_types<char,std::allocator<char> > >::_Alloc_proxy, COMDAT

; 1972 : 		{	// construct proxy

$LN3:
	mov	QWORD PTR [rsp+8], rcx
	push	rbp
	sub	rsp, 144				; 00000090H
	lea	rbp, QWORD PTR [rsp+32]
	mov	rax, QWORD PTR __security_cookie
	xor	rax, rbp
	mov	QWORD PTR __$ArrayPad$[rbp], rax

; 1973 : 		_Alproxy _Proxy_allocator(_Getal());

	mov	rcx, QWORD PTR this$[rbp]
	call	?_Getal@?$_String_alloc@U?$_String_base_types@DV?$allocator@D@std@@@std@@@std@@QEAAAEAV?$allocator@D@2@XZ ; std::_String_alloc<std::_String_base_types<char,std::allocator<char> > >::_Getal
	mov	rdx, rax
	lea	rcx, QWORD PTR _Proxy_allocator$[rbp]
	call	??$?0D@?$allocator@U_Container_proxy@std@@@std@@QEAA@AEBV?$allocator@D@1@@Z ; std::allocator<std::_Container_proxy>::allocator<std::_Container_proxy><char>

; 1974 : 		_Myproxy() = _Unfancy(_Proxy_allocator.allocate(1));

	mov	edx, 1
	lea	rcx, QWORD PTR _Proxy_allocator$[rbp]
	call	?allocate@?$allocator@U_Container_proxy@std@@@std@@QEAAPEAU_Container_proxy@2@_K@Z ; std::allocator<std::_Container_proxy>::allocate
	mov	rcx, rax
	call	??$_Unfancy@U_Container_proxy@std@@@std@@YAPEAU_Container_proxy@0@PEAU10@@Z ; std::_Unfancy<std::_Container_proxy>
	mov	QWORD PTR tv70[rbp], rax
	mov	rcx, QWORD PTR this$[rbp]
	call	?_Myproxy@?$_String_alloc@U?$_String_base_types@DV?$allocator@D@std@@@std@@@std@@QEAAAEAPEAU_Container_proxy@2@XZ ; std::_String_alloc<std::_String_base_types<char,std::allocator<char> > >::_Myproxy
	mov	rcx, QWORD PTR tv70[rbp]
	mov	QWORD PTR [rax], rcx

; 1975 : 		_Alproxy_traits::construct(_Proxy_allocator, _Myproxy(), _Container_proxy());

	lea	rcx, QWORD PTR $T1[rbp]
	call	??0_Container_proxy@std@@QEAA@XZ	; std::_Container_proxy::_Container_proxy
	mov	QWORD PTR tv79[rbp], rax
	mov	rcx, QWORD PTR this$[rbp]
	call	?_Myproxy@?$_String_alloc@U?$_String_base_types@DV?$allocator@D@std@@@std@@@std@@QEAAAEAPEAU_Container_proxy@2@XZ ; std::_String_alloc<std::_String_base_types<char,std::allocator<char> > >::_Myproxy
	mov	rcx, QWORD PTR tv79[rbp]
	mov	r8, rcx
	mov	rdx, QWORD PTR [rax]
	lea	rcx, QWORD PTR _Proxy_allocator$[rbp]
	call	??$construct@U_Container_proxy@std@@U12@@?$_Default_allocator_traits@V?$allocator@U_Container_proxy@std@@@std@@@std@@SAXAEAV?$allocator@U_Container_proxy@std@@@1@QEAU_Container_proxy@1@$$QEAU31@@Z ; std::_Default_allocator_traits<std::allocator<std::_Container_proxy> >::construct<std::_Container_proxy,std::_Container_proxy>

; 1976 : 		_Myproxy()->_Mycont = _STD addressof(_Get_data());

	mov	rcx, QWORD PTR this$[rbp]
	call	?_Get_data@?$_String_alloc@U?$_String_base_types@DV?$allocator@D@std@@@std@@@std@@QEAAAEAV?$_String_val@U?$_Simple_types@D@std@@@2@XZ ; std::_String_alloc<std::_String_base_types<char,std::allocator<char> > >::_Get_data
	mov	rcx, rax
	call	??$addressof@V?$_String_val@U?$_Simple_types@D@std@@@std@@@std@@YAPEAV?$_String_val@U?$_Simple_types@D@std@@@0@AEAV10@@Z ; std::addressof<std::_String_val<std::_Simple_types<char> > >
	mov	QWORD PTR tv91[rbp], rax
	mov	rcx, QWORD PTR this$[rbp]
	call	?_Myproxy@?$_String_alloc@U?$_String_base_types@DV?$allocator@D@std@@@std@@@std@@QEAAAEAPEAU_Container_proxy@2@XZ ; std::_String_alloc<std::_String_base_types<char,std::allocator<char> > >::_Myproxy
	mov	rax, QWORD PTR [rax]
	mov	rcx, QWORD PTR tv91[rbp]
	mov	QWORD PTR [rax], rcx

; 1977 : 		}

	mov	rcx, QWORD PTR __$ArrayPad$[rbp]
	xor	rcx, rbp
	call	__security_check_cookie
	lea	rsp, QWORD PTR [rbp+112]
	pop	rbp
	ret	0
?_Alloc_proxy@?$_String_alloc@U?$_String_base_types@DV?$allocator@D@std@@@std@@@std@@QEAAXXZ ENDP ; std::_String_alloc<std::_String_base_types<char,std::allocator<char> > >::_Alloc_proxy
_TEXT	ENDS
; Function compile flags: /Odtp /RTCu /ZI
; File c:\program files (x86)\microsoft visual studio\2017\enterprise\vc\tools\msvc\14.14.26428\include\xstring
;	COMDAT ??1?$_String_alloc@U?$_String_base_types@DV?$allocator@D@std@@@std@@@std@@QEAA@XZ
_TEXT	SEGMENT
$T1 = 64
this$ = 96
??1?$_String_alloc@U?$_String_base_types@DV?$allocator@D@std@@@std@@@std@@QEAA@XZ PROC ; std::_String_alloc<std::_String_base_types<char,std::allocator<char> > >::~_String_alloc<std::_String_base_types<char,std::allocator<char> > >, COMDAT

; 1931 : 		{	// destroy the object

$LN3:
	mov	QWORD PTR [rsp+8], rcx
	push	rbp
	sub	rsp, 112				; 00000070H
	lea	rbp, QWORD PTR [rsp+32]
	mov	QWORD PTR $T1[rbp], -2

; 1932 : 		_Free_proxy();

	mov	rcx, QWORD PTR this$[rbp]
	call	?_Free_proxy@?$_String_alloc@U?$_String_base_types@DV?$allocator@D@std@@@std@@@std@@QEAAXXZ ; std::_String_alloc<std::_String_base_types<char,std::allocator<char> > >::_Free_proxy
	npad	1

; 1933 : 		}

	mov	rax, QWORD PTR this$[rbp]
	mov	rcx, rax
	call	??1?$_Compressed_pair@V?$allocator@D@std@@V?$_String_val@U?$_Simple_types@D@std@@@2@$00@std@@QEAA@XZ
	npad	1
	lea	rsp, QWORD PTR [rbp+80]
	pop	rbp
	ret	0
??1?$_String_alloc@U?$_String_base_types@DV?$allocator@D@std@@@std@@@std@@QEAA@XZ ENDP ; std::_String_alloc<std::_String_base_types<char,std::allocator<char> > >::~_String_alloc<std::_String_base_types<char,std::allocator<char> > >
_TEXT	ENDS
; Function compile flags: /Odtp /RTCu /ZI
; File c:\program files (x86)\microsoft visual studio\2017\enterprise\vc\tools\msvc\14.14.26428\include\xstring
;	COMDAT ??0?$_String_alloc@U?$_String_base_types@DV?$allocator@D@std@@@std@@@std@@QEAA@XZ
_TEXT	SEGMENT
$T1 = 64
$T2 = 72
this$ = 96
??0?$_String_alloc@U?$_String_base_types@DV?$allocator@D@std@@@std@@@std@@QEAA@XZ PROC ; std::_String_alloc<std::_String_base_types<char,std::allocator<char> > >::_String_alloc<std::_String_base_types<char,std::allocator<char> > >, COMDAT

; 1917 : 		{	// default construct allocator

$LN4:
	mov	QWORD PTR [rsp+8], rcx
	push	rbp
	sub	rsp, 112				; 00000070H
	lea	rbp, QWORD PTR [rsp+32]
	mov	QWORD PTR $T2[rbp], -2

; 1916 : 		: _Mypair(_Zero_then_variadic_args_t())

	mov	rax, QWORD PTR this$[rbp]
	movzx	edx, BYTE PTR $T1[rbp]
	mov	rcx, rax
	call	??$?0$$V@?$_Compressed_pair@V?$allocator@D@std@@V?$_String_val@U?$_Simple_types@D@std@@@2@$00@std@@QEAA@U_Zero_then_variadic_args_t@1@@Z ; std::_Compressed_pair<std::allocator<char>,std::_String_val<std::_Simple_types<char> >,1>::_Compressed_pair<std::allocator<char>,std::_String_val<std::_Simple_types<char> >,1><>
	npad	1

; 1918 : 		_Alloc_proxy();

	mov	rcx, QWORD PTR this$[rbp]
	call	?_Alloc_proxy@?$_String_alloc@U?$_String_base_types@DV?$allocator@D@std@@@std@@@std@@QEAAXXZ ; std::_String_alloc<std::_String_base_types<char,std::allocator<char> > >::_Alloc_proxy
	npad	1

; 1919 : 		}

	mov	rax, QWORD PTR this$[rbp]
	lea	rsp, QWORD PTR [rbp+80]
	pop	rbp
	ret	0
??0?$_String_alloc@U?$_String_base_types@DV?$allocator@D@std@@@std@@@std@@QEAA@XZ ENDP ; std::_String_alloc<std::_String_base_types<char,std::allocator<char> > >::_String_alloc<std::_String_base_types<char,std::allocator<char> > >
_TEXT	ENDS
;	COMDAT text$x
text$x	SEGMENT
$T1 = 64
$T2 = 72
this$ = 96
?dtor$0@?0???0?$_String_alloc@U?$_String_base_types@DV?$allocator@D@std@@@std@@@std@@QEAA@XZ@4HA PROC ; `std::_String_alloc<std::_String_base_types<char,std::allocator<char> > >::_String_alloc<std::_String_base_types<char,std::allocator<char> > >'::`1'::dtor$0
	push	rbp
	sub	rsp, 32					; 00000020H
	lea	rbp, QWORD PTR [rdx+32]
	mov	rcx, QWORD PTR this$[rbp]
	call	??1?$_Compressed_pair@V?$allocator@D@std@@V?$_String_val@U?$_Simple_types@D@std@@@2@$00@std@@QEAA@XZ
	add	rsp, 32					; 00000020H
	pop	rbp
	ret	0
?dtor$0@?0???0?$_String_alloc@U?$_String_base_types@DV?$allocator@D@std@@@std@@@std@@QEAA@XZ@4HA ENDP ; `std::_String_alloc<std::_String_base_types<char,std::allocator<char> > >::_String_alloc<std::_String_base_types<char,std::allocator<char> > >'::`1'::dtor$0
text$x	ENDS
; Function compile flags: /Odtp /RTCu /ZI
;	COMDAT text$x
text$x	SEGMENT
$T1 = 64
$T2 = 72
this$ = 96
?dtor$0@?0???0?$_String_alloc@U?$_String_base_types@DV?$allocator@D@std@@@std@@@std@@QEAA@XZ@4HA PROC ; `std::_String_alloc<std::_String_base_types<char,std::allocator<char> > >::_String_alloc<std::_String_base_types<char,std::allocator<char> > >'::`1'::dtor$0
	push	rbp
	sub	rsp, 32					; 00000020H
	lea	rbp, QWORD PTR [rdx+32]
	mov	rcx, QWORD PTR this$[rbp]
	call	??1?$_Compressed_pair@V?$allocator@D@std@@V?$_String_val@U?$_Simple_types@D@std@@@2@$00@std@@QEAA@XZ
	add	rsp, 32					; 00000020H
	pop	rbp
	ret	0
?dtor$0@?0???0?$_String_alloc@U?$_String_base_types@DV?$allocator@D@std@@@std@@@std@@QEAA@XZ@4HA ENDP ; `std::_String_alloc<std::_String_base_types<char,std::allocator<char> > >::_String_alloc<std::_String_base_types<char,std::allocator<char> > >'::`1'::dtor$0
text$x	ENDS
; Function compile flags: /Odtp /RTCu /ZI
;	COMDAT ??1?$_String_val@U?$_Simple_types@D@std@@@std@@QEAA@XZ
_TEXT	SEGMENT
this$ = 80
??1?$_String_val@U?$_Simple_types@D@std@@@std@@QEAA@XZ PROC ; std::_String_val<std::_Simple_types<char> >::~_String_val<std::_Simple_types<char> >, COMDAT
$LN3:
	mov	QWORD PTR [rsp+8], rcx
	push	rbp
	sub	rsp, 96					; 00000060H
	lea	rbp, QWORD PTR [rsp+32]
	mov	rax, QWORD PTR this$[rbp]
	add	rax, 8
	mov	rcx, rax
	call	??1_Bxty@?$_String_val@U?$_Simple_types@D@std@@@std@@QEAA@XZ ; std::_String_val<std::_Simple_types<char> >::_Bxty::~_Bxty
	lea	rsp, QWORD PTR [rbp+64]
	pop	rbp
	ret	0
??1?$_String_val@U?$_Simple_types@D@std@@@std@@QEAA@XZ ENDP ; std::_String_val<std::_Simple_types<char> >::~_String_val<std::_Simple_types<char> >
_TEXT	ENDS
; Function compile flags: /Odtp /RTCu /ZI
; File c:\program files (x86)\microsoft visual studio\2017\enterprise\vc\tools\msvc\14.14.26428\include\xstring
;	COMDAT ??1_Bxty@?$_String_val@U?$_Simple_types@D@std@@@std@@QEAA@XZ
_TEXT	SEGMENT
this$ = 80
??1_Bxty@?$_String_val@U?$_Simple_types@D@std@@@std@@QEAA@XZ PROC ; std::_String_val<std::_Simple_types<char> >::_Bxty::~_Bxty, COMDAT

; 1844 : 			{	// user-provided, for fancy pointers

$LN3:
	mov	QWORD PTR [rsp+8], rcx
	push	rbp
	sub	rsp, 64					; 00000040H
	mov	rbp, rsp

; 1845 : 			}

	lea	rsp, QWORD PTR [rbp+64]
	pop	rbp
	ret	0
??1_Bxty@?$_String_val@U?$_Simple_types@D@std@@@std@@QEAA@XZ ENDP ; std::_String_val<std::_Simple_types<char> >::_Bxty::~_Bxty
_TEXT	ENDS
; Function compile flags: /Odtp /RTCu /ZI
; File c:\program files (x86)\microsoft visual studio\2017\enterprise\vc\tools\msvc\14.14.26428\include\xstring
;	COMDAT ??0_Bxty@?$_String_val@U?$_Simple_types@D@std@@@std@@QEAA@XZ
_TEXT	SEGMENT
this$ = 80
??0_Bxty@?$_String_val@U?$_Simple_types@D@std@@@std@@QEAA@XZ PROC ; std::_String_val<std::_Simple_types<char> >::_Bxty::_Bxty, COMDAT

; 1839 : 		_Bxty()

$LN3:
	mov	QWORD PTR [rsp+8], rcx
	push	rbp
	sub	rsp, 64					; 00000040H
	mov	rbp, rsp

; 1840 : 			{	// user-provided, for fancy pointers
; 1841 : 			}

	mov	rax, QWORD PTR this$[rbp]
	lea	rsp, QWORD PTR [rbp+64]
	pop	rbp
	ret	0
??0_Bxty@?$_String_val@U?$_Simple_types@D@std@@@std@@QEAA@XZ ENDP ; std::_String_val<std::_Simple_types<char> >::_Bxty::_Bxty
_TEXT	ENDS
; Function compile flags: /Odtp /RTCu /ZI
; File c:\program files (x86)\microsoft visual studio\2017\enterprise\vc\tools\msvc\14.14.26428\include\xstring
;	COMDAT ?_Large_string_engaged@?$_String_val@U?$_Simple_types@D@std@@@std@@QEBA_NXZ
_TEXT	SEGMENT
tv66 = 64
this$ = 96
?_Large_string_engaged@?$_String_val@U?$_Simple_types@D@std@@@std@@QEBA_NXZ PROC ; std::_String_val<std::_Simple_types<char> >::_Large_string_engaged, COMDAT

; 1807 : 		{	// returns whether the large string mode (allocated memory) is engaged

$LN5:
	mov	QWORD PTR [rsp+8], rcx
	push	rbp
	sub	rsp, 80					; 00000050H
	mov	rbp, rsp

; 1808 : 		return (_BUF_SIZE <= _Myres);

	mov	rax, QWORD PTR this$[rbp]
	cmp	QWORD PTR [rax+32], 16
	jb	SHORT $LN3@Large_stri
	mov	DWORD PTR tv66[rbp], 1
	jmp	SHORT $LN4@Large_stri
$LN3@Large_stri:
	mov	DWORD PTR tv66[rbp], 0
$LN4@Large_stri:
	movzx	eax, BYTE PTR tv66[rbp]

; 1809 : 		}

	lea	rsp, QWORD PTR [rbp+80]
	pop	rbp
	ret	0
?_Large_string_engaged@?$_String_val@U?$_Simple_types@D@std@@@std@@QEBA_NXZ ENDP ; std::_String_val<std::_Simple_types<char> >::_Large_string_engaged
_TEXT	ENDS
; Function compile flags: /Odtp /RTCu /ZI
; File c:\program files (x86)\microsoft visual studio\2017\enterprise\vc\tools\msvc\14.14.26428\include\xstring
;	COMDAT ?_Myptr@?$_String_val@U?$_Simple_types@D@std@@@std@@QEAAPEADXZ
_TEXT	SEGMENT
_Result$ = 0
this$ = 96
?_Myptr@?$_String_val@U?$_Simple_types@D@std@@@std@@QEAAPEADXZ PROC ; std::_String_val<std::_Simple_types<char> >::_Myptr, COMDAT

; 1785 : 		{	// determine current pointer to buffer for mutable string

$LN4:
	mov	QWORD PTR [rsp+8], rcx
	push	rbp
	sub	rsp, 112				; 00000070H
	lea	rbp, QWORD PTR [rsp+32]

; 1786 : 		value_type * _Result = _Bx._Buf;

	mov	rax, QWORD PTR this$[rbp]
	add	rax, 8
	mov	QWORD PTR _Result$[rbp], rax

; 1787 : 		if (_Large_string_engaged())

	mov	rcx, QWORD PTR this$[rbp]
	call	?_Large_string_engaged@?$_String_val@U?$_Simple_types@D@std@@@std@@QEBA_NXZ ; std::_String_val<std::_Simple_types<char> >::_Large_string_engaged
	movzx	eax, al
	test	eax, eax
	je	SHORT $LN2@Myptr

; 1788 : 			{
; 1789 : 			_Result = _Unfancy(_Bx._Ptr);

	mov	rax, QWORD PTR this$[rbp]
	mov	rcx, QWORD PTR [rax+8]
	call	??$_Unfancy@D@std@@YAPEADPEAD@Z		; std::_Unfancy<char>
	mov	QWORD PTR _Result$[rbp], rax
$LN2@Myptr:

; 1790 : 			}
; 1791 : 
; 1792 : 		return (_Result);

	mov	rax, QWORD PTR _Result$[rbp]

; 1793 : 		}

	lea	rsp, QWORD PTR [rbp+80]
	pop	rbp
	ret	0
?_Myptr@?$_String_val@U?$_Simple_types@D@std@@@std@@QEAAPEADXZ ENDP ; std::_String_val<std::_Simple_types<char> >::_Myptr
_TEXT	ENDS
; Function compile flags: /Odtp /RTCu /ZI
; File c:\program files (x86)\microsoft visual studio\2017\enterprise\vc\tools\msvc\14.14.26428\include\xstring
;	COMDAT ??0?$_String_val@U?$_Simple_types@D@std@@@std@@QEAA@XZ
_TEXT	SEGMENT
this$ = 80
??0?$_String_val@U?$_Simple_types@D@std@@@std@@QEAA@XZ PROC ; std::_String_val<std::_Simple_types<char> >::_String_val<std::_Simple_types<char> >, COMDAT

; 1769 : 		{	// initialize values

$LN4:
	mov	QWORD PTR [rsp+8], rcx
	push	rbp
	sub	rsp, 96					; 00000060H
	lea	rbp, QWORD PTR [rsp+32]
	mov	rcx, QWORD PTR this$[rbp]
	call	??0_Container_base12@std@@QEAA@XZ	; std::_Container_base12::_Container_base12

; 1766 : 		: _Bx(),

	mov	rax, QWORD PTR this$[rbp]
	add	rax, 8
	mov	rcx, rax
	call	??0_Bxty@?$_String_val@U?$_Simple_types@D@std@@@std@@QEAA@XZ ; std::_String_val<std::_Simple_types<char> >::_Bxty::_Bxty

; 1767 : 		_Mysize(0),

	mov	rax, QWORD PTR this$[rbp]
	mov	QWORD PTR [rax+24], 0

; 1768 : 		_Myres(0)

	mov	rax, QWORD PTR this$[rbp]
	mov	QWORD PTR [rax+32], 0

; 1770 : 		}

	mov	rax, QWORD PTR this$[rbp]
	lea	rsp, QWORD PTR [rbp+64]
	pop	rbp
	ret	0
??0?$_String_val@U?$_Simple_types@D@std@@@std@@QEAA@XZ ENDP ; std::_String_val<std::_Simple_types<char> >::_String_val<std::_Simple_types<char> >
_TEXT	ENDS
; Function compile flags: /Odtp /RTCu /ZI
; File c:\program files (x86)\microsoft visual studio\2017\enterprise\vc\tools\msvc\14.14.26428\include\xmemory0
;	COMDAT ?max_size@?$_Default_allocator_traits@V?$allocator@D@std@@@std@@SA_KAEBV?$allocator@D@2@@Z
_TEXT	SEGMENT
__formal$ = 80
?max_size@?$_Default_allocator_traits@V?$allocator@D@std@@@std@@SA_KAEBV?$allocator@D@2@@Z PROC ; std::_Default_allocator_traits<std::allocator<char> >::max_size, COMDAT

; 930  : 		{	// get maximum size

$LN3:
	mov	QWORD PTR [rsp+8], rcx
	push	rbp
	sub	rsp, 64					; 00000040H
	mov	rbp, rsp

; 931  : 		return (static_cast<size_t>(-1) / sizeof(value_type));

	mov	rax, -1

; 932  : 		}

	lea	rsp, QWORD PTR [rbp+64]
	pop	rbp
	ret	0
?max_size@?$_Default_allocator_traits@V?$allocator@D@std@@@std@@SA_KAEBV?$allocator@D@2@@Z ENDP ; std::_Default_allocator_traits<std::allocator<char> >::max_size
_TEXT	ENDS
; Function compile flags: /Odtp /RTCu /ZI
; File c:\program files (x86)\microsoft visual studio\2017\enterprise\vc\tools\msvc\14.14.26428\include\xmemory0
;	COMDAT ?allocate@?$allocator@D@std@@QEAAPEAD_K@Z
_TEXT	SEGMENT
this$ = 80
_Count$ = 88
?allocate@?$allocator@D@std@@QEAAPEAD_K@Z PROC		; std::allocator<char>::allocate, COMDAT

; 1035 : 		{	// allocate array of _Count elements

$LN3:
	mov	QWORD PTR [rsp+16], rdx
	mov	QWORD PTR [rsp+8], rcx
	push	rbp
	sub	rsp, 96					; 00000060H
	lea	rbp, QWORD PTR [rsp+32]

; 1036 : 		return (static_cast<_Ty *>(_Allocate<_New_alignof<_Ty>>(_Get_size_of_n<sizeof(_Ty)>(_Count))));

	mov	rcx, QWORD PTR _Count$[rbp]
	call	??$_Get_size_of_n@$00@std@@YA_K_K@Z	; std::_Get_size_of_n<1>
	mov	rcx, rax
	call	??$_Allocate@$0BA@U_Default_allocate_traits@std@@$0A@@std@@YAPEAX_K@Z ; std::_Allocate<16,std::_Default_allocate_traits,0>

; 1037 : 		}

	lea	rsp, QWORD PTR [rbp+64]
	pop	rbp
	ret	0
?allocate@?$allocator@D@std@@QEAAPEAD_K@Z ENDP		; std::allocator<char>::allocate
_TEXT	ENDS
; Function compile flags: /Odtp /RTCu /ZI
; File c:\program files (x86)\microsoft visual studio\2017\enterprise\vc\tools\msvc\14.14.26428\include\xmemory0
;	COMDAT ?deallocate@?$allocator@D@std@@QEAAXQEAD_K@Z
_TEXT	SEGMENT
this$ = 80
_Ptr$ = 88
_Count$ = 96
?deallocate@?$allocator@D@std@@QEAAXQEAD_K@Z PROC	; std::allocator<char>::deallocate, COMDAT

; 1029 : 		{	// deallocate object at _Ptr

$LN3:
	mov	QWORD PTR [rsp+24], r8
	mov	QWORD PTR [rsp+16], rdx
	mov	QWORD PTR [rsp+8], rcx
	push	rbp
	sub	rsp, 96					; 00000060H
	lea	rbp, QWORD PTR [rsp+32]

; 1030 : 		// no overflow check on the following multiply; we assume _Allocate did that check
; 1031 : 		_Deallocate<_New_alignof<_Ty>>(_Ptr, sizeof(_Ty) * _Count);

	mov	rdx, QWORD PTR _Count$[rbp]
	mov	rcx, QWORD PTR _Ptr$[rbp]
	call	??$_Deallocate@$0BA@$0A@@std@@YAXPEAX_K@Z ; std::_Deallocate<16,0>

; 1032 : 		}

	lea	rsp, QWORD PTR [rbp+64]
	pop	rbp
	ret	0
?deallocate@?$allocator@D@std@@QEAAXQEAD_K@Z ENDP	; std::allocator<char>::deallocate
_TEXT	ENDS
; Function compile flags: /Odtp /RTCu /ZI
; File c:\program files (x86)\microsoft visual studio\2017\enterprise\vc\tools\msvc\14.14.26428\include\xmemory0
;	COMDAT ??0?$allocator@D@std@@QEAA@XZ
_TEXT	SEGMENT
this$ = 80
??0?$allocator@D@std@@QEAA@XZ PROC			; std::allocator<char>::allocator<char>, COMDAT

; 1018 : 	allocator() _NOEXCEPT

$LN3:
	mov	QWORD PTR [rsp+8], rcx
	push	rbp
	sub	rsp, 64					; 00000040H
	mov	rbp, rsp

; 1019 : 		{	// construct default allocator (do nothing)
; 1020 : 		}

	mov	rax, QWORD PTR this$[rbp]
	lea	rsp, QWORD PTR [rbp+64]
	pop	rbp
	ret	0
??0?$allocator@D@std@@QEAA@XZ ENDP			; std::allocator<char>::allocator<char>
_TEXT	ENDS
; Function compile flags: /Odtp /RTCu /ZI
; File c:\program files (x86)\microsoft visual studio\2017\enterprise\vc\tools\msvc\14.14.26428\include\utility
;	COMDAT ??$_Min_value@_K@std@@YAAEB_KAEB_K0@Z
_TEXT	SEGMENT
$T1 = 64
tv65 = 72
_Left$ = 96
_Right$ = 104
??$_Min_value@_K@std@@YAAEB_KAEB_K0@Z PROC		; std::_Min_value<unsigned __int64>, COMDAT

; 23   : 	{	// return smaller of _Left and _Right

$LN5:
	mov	QWORD PTR [rsp+16], rdx
	mov	QWORD PTR [rsp+8], rcx
	push	rbp
	sub	rsp, 80					; 00000050H
	mov	rbp, rsp

; 24   : 	return (_Right < _Left ? _Right : _Left);

	mov	rax, QWORD PTR _Right$[rbp]
	mov	rcx, QWORD PTR _Left$[rbp]
	mov	rcx, QWORD PTR [rcx]
	cmp	QWORD PTR [rax], rcx
	jae	SHORT $LN3@Min_value
	mov	rax, QWORD PTR _Right$[rbp]
	mov	QWORD PTR tv65[rbp], rax
	jmp	SHORT $LN4@Min_value
$LN3@Min_value:
	mov	rax, QWORD PTR _Left$[rbp]
	mov	QWORD PTR tv65[rbp], rax
$LN4@Min_value:
	mov	rax, QWORD PTR tv65[rbp]
	mov	QWORD PTR $T1[rbp], rax
	mov	rax, QWORD PTR $T1[rbp]

; 25   : 	}

	lea	rsp, QWORD PTR [rbp+80]
	pop	rbp
	ret	0
??$_Min_value@_K@std@@YAAEB_KAEB_K0@Z ENDP		; std::_Min_value<unsigned __int64>
_TEXT	ENDS
; Function compile flags: /Odtp /RTCu /ZI
; File c:\program files (x86)\microsoft visual studio\2017\enterprise\vc\tools\msvc\14.14.26428\include\xmemory0
;	COMDAT ??$_Convert_size@_K@std@@YA_K_K@Z
_TEXT	SEGMENT
_Len$ = 80
??$_Convert_size@_K@std@@YA_K_K@Z PROC			; std::_Convert_size<unsigned __int64>, COMDAT

; 1247 : 	{	// convert size_t to size_t, unchanged

$LN3:
	mov	QWORD PTR [rsp+8], rcx
	push	rbp
	sub	rsp, 64					; 00000040H
	mov	rbp, rsp

; 1248 : 	return (_Len);

	mov	rax, QWORD PTR _Len$[rbp]

; 1249 : 	}

	lea	rsp, QWORD PTR [rbp+64]
	pop	rbp
	ret	0
??$_Convert_size@_K@std@@YA_K_K@Z ENDP			; std::_Convert_size<unsigned __int64>
_TEXT	ENDS
; Function compile flags: /Odtp /RTCu /ZI
; File c:\program files (x86)\microsoft visual studio\2017\enterprise\vc\tools\msvc\14.14.26428\include\xmemory0
;	COMDAT ?_Adjust_manually_vector_aligned@std@@YAXAEAPEAXAEA_K@Z
_TEXT	SEGMENT
_Ptr_user$ = 0
_Ptr_container$ = 8
_Min_back_shift$ = 16
_Back_shift$ = 24
_Ptr$ = 112
_Bytes$ = 120
?_Adjust_manually_vector_aligned@std@@YAXAEAPEAXAEA_K@Z PROC ; std::_Adjust_manually_vector_aligned, COMDAT

; 116  : 	{	// adjust parameters from _Allocate_manually_vector_aligned to pass to operator delete

$LN6:
	mov	QWORD PTR [rsp+16], rdx
	mov	QWORD PTR [rsp+8], rcx
	push	rbp
	sub	rsp, 144				; 00000090H
	lea	rbp, QWORD PTR [rsp+48]

; 117  : 	_Bytes += _Non_user_size;

	mov	rax, QWORD PTR _Bytes$[rbp]
	mov	rax, QWORD PTR [rax]
	add	rax, 47					; 0000002fH
	mov	rcx, QWORD PTR _Bytes$[rbp]
	mov	QWORD PTR [rcx], rax

; 118  : 
; 119  : 	const uintptr_t * const _Ptr_user = reinterpret_cast<uintptr_t *>(_Ptr);

	mov	rax, QWORD PTR _Ptr$[rbp]
	mov	rax, QWORD PTR [rax]
	mov	QWORD PTR _Ptr_user$[rbp], rax

; 120  : 	const uintptr_t _Ptr_container = _Ptr_user[-1];

	mov	eax, 8
	imul	rax, rax, -1
	mov	rcx, QWORD PTR _Ptr_user$[rbp]
	mov	rax, QWORD PTR [rcx+rax]
	mov	QWORD PTR _Ptr_container$[rbp], rax

; 121  : 
; 122  :   #ifdef _DEBUG
; 123  : 	// If the following asserts, it likely means that we are performing
; 124  : 	// an aligned delete on memory coming from an unaligned allocation.
; 125  : 	if (_Ptr_user[-2] != _Big_allocation_sentinel)

	mov	eax, 8
	imul	rax, rax, -2
	mov	rcx, QWORD PTR _Ptr_user$[rbp]
	mov	rdx, -361700864190383366		; fafafafafafafafaH
	cmp	QWORD PTR [rcx+rax], rdx
	je	SHORT $LN2@Adjust_man

; 126  : 		{
; 127  : 		_SCL_SECURE_INVALID_ARGUMENT_NO_ASSERT;

	mov	eax, DWORD PTR ?__LINE__Var@?0??_Adjust_manually_vector_aligned@std@@YAXAEAPEAXAEA_K@Z@4JA
	add	eax, 11
	mov	QWORD PTR [rsp+32], 0
	mov	r9d, eax
	lea	r8, OFFSET FLAT:??_C@_1NE@FCGGJAHE@?$AAc?$AA?3?$AA?2?$AAp?$AAr?$AAo?$AAg?$AAr?$AAa?$AAm?$AA?5?$AAf?$AAi?$AAl?$AAe?$AAs?$AA?5?$AA?$CI?$AAx?$AA8?$AA6?$AA?$CJ?$AA?2?$AAm?$AAi?$AAc?$AAr?$AAo?$AAs?$AAo?$AAf?$AAt@
	lea	rdx, OFFSET FLAT:??_C@_1EK@NIFDJFDG@?$AAs?$AAt?$AAd?$AA?3?$AA?3?$AA_?$AAA?$AAd?$AAj?$AAu?$AAs?$AAt?$AA_?$AAm?$AAa?$AAn?$AAu?$AAa?$AAl?$AAl?$AAy?$AA_?$AAv?$AAe?$AAc?$AAt?$AAo?$AAr?$AA_?$AAa?$AAl?$AAi@
	lea	rcx, OFFSET FLAT:??_C@_1CG@JNLFBNGN@?$AA?$CC?$AAi?$AAn?$AAv?$AAa?$AAl?$AAi?$AAd?$AA?5?$AAa?$AAr?$AAg?$AAu?$AAm?$AAe?$AAn?$AAt?$AA?$CC?$AA?$AA@
	call	QWORD PTR __imp__invalid_parameter
$LN2@Adjust_man:

; 128  : 		}
; 129  :   #endif /* _DEBUG */
; 130  : 
; 131  : 	// Extra paranoia on aligned allocation/deallocation; ensure _Ptr_container is
; 132  : 	// in range [_Min_back_shift, _Non_user_size]
; 133  :   #ifdef _DEBUG
; 134  : 	constexpr uintptr_t _Min_back_shift = 2 * sizeof(void *);

	mov	QWORD PTR _Min_back_shift$[rbp], 16

; 135  :   #else /* ^^^ _DEBUG ^^^ // vvv !_DEBUG vvv */
; 136  : 	constexpr uintptr_t _Min_back_shift = sizeof(void *);
; 137  :   #endif /* _DEBUG */
; 138  : 	const uintptr_t _Back_shift = reinterpret_cast<uintptr_t>(_Ptr) - _Ptr_container;

	mov	rax, QWORD PTR _Ptr$[rbp]
	mov	rcx, QWORD PTR _Ptr_container$[rbp]
	mov	rax, QWORD PTR [rax]
	sub	rax, rcx
	mov	QWORD PTR _Back_shift$[rbp], rax

; 139  : 	if (_Back_shift < _Min_back_shift || _Back_shift > _Non_user_size)

	cmp	QWORD PTR _Back_shift$[rbp], 16
	jb	SHORT $LN4@Adjust_man
	cmp	QWORD PTR _Back_shift$[rbp], 47		; 0000002fH
	jbe	SHORT $LN3@Adjust_man
$LN4@Adjust_man:

; 140  : 		{
; 141  : 		_SCL_SECURE_INVALID_ARGUMENT_NO_ASSERT;

	mov	eax, DWORD PTR ?__LINE__Var@?0??_Adjust_manually_vector_aligned@std@@YAXAEAPEAXAEA_K@Z@4JA
	add	eax, 25
	mov	QWORD PTR [rsp+32], 0
	mov	r9d, eax
	lea	r8, OFFSET FLAT:??_C@_1NE@FCGGJAHE@?$AAc?$AA?3?$AA?2?$AAp?$AAr?$AAo?$AAg?$AAr?$AAa?$AAm?$AA?5?$AAf?$AAi?$AAl?$AAe?$AAs?$AA?5?$AA?$CI?$AAx?$AA8?$AA6?$AA?$CJ?$AA?2?$AAm?$AAi?$AAc?$AAr?$AAo?$AAs?$AAo?$AAf?$AAt@
	lea	rdx, OFFSET FLAT:??_C@_1EK@NIFDJFDG@?$AAs?$AAt?$AAd?$AA?3?$AA?3?$AA_?$AAA?$AAd?$AAj?$AAu?$AAs?$AAt?$AA_?$AAm?$AAa?$AAn?$AAu?$AAa?$AAl?$AAl?$AAy?$AA_?$AAv?$AAe?$AAc?$AAt?$AAo?$AAr?$AA_?$AAa?$AAl?$AAi@
	lea	rcx, OFFSET FLAT:??_C@_1CG@JNLFBNGN@?$AA?$CC?$AAi?$AAn?$AAv?$AAa?$AAl?$AAi?$AAd?$AA?5?$AAa?$AAr?$AAg?$AAu?$AAm?$AAe?$AAn?$AAt?$AA?$CC?$AA?$AA@
	call	QWORD PTR __imp__invalid_parameter
$LN3@Adjust_man:

; 142  : 		}
; 143  : 
; 144  : 	_Ptr = reinterpret_cast<void *>(_Ptr_container);

	mov	rax, QWORD PTR _Ptr$[rbp]
	mov	rcx, QWORD PTR _Ptr_container$[rbp]
	mov	QWORD PTR [rax], rcx

; 145  : 	}

	lea	rsp, QWORD PTR [rbp+96]
	pop	rbp
	ret	0
?_Adjust_manually_vector_aligned@std@@YAXAEAPEAXAEA_K@Z ENDP ; std::_Adjust_manually_vector_aligned
_TEXT	ENDS
; Function compile flags: /Odtp /RTCu /ZI
; File c:\program files (x86)\microsoft visual studio\2017\enterprise\vc\tools\msvc\14.14.26428\include\xmemory0
;	COMDAT ?_Allocate@_Default_allocate_traits@std@@SAPEAX_K@Z
_TEXT	SEGMENT
_Bytes$ = 80
?_Allocate@_Default_allocate_traits@std@@SAPEAX_K@Z PROC ; std::_Default_allocate_traits::_Allocate, COMDAT

; 51   : 		{

$LN3:
	mov	QWORD PTR [rsp+8], rcx
	push	rbp
	sub	rsp, 96					; 00000060H
	lea	rbp, QWORD PTR [rsp+32]

; 52   : 		return (::operator new(_Bytes));

	mov	rcx, QWORD PTR _Bytes$[rbp]
	call	??2@YAPEAX_K@Z				; operator new

; 53   : 		}

	lea	rsp, QWORD PTR [rbp+64]
	pop	rbp
	ret	0
?_Allocate@_Default_allocate_traits@std@@SAPEAX_K@Z ENDP ; std::_Default_allocate_traits::_Allocate
_TEXT	ENDS
; Function compile flags: /Odtp /RTCu /ZI
; File c:\program files (x86)\microsoft visual studio\2017\enterprise\vc\tools\msvc\14.14.26428\include\xmemory0
;	COMDAT ??$_Get_size_of_n@$00@std@@YA_K_K@Z
_TEXT	SEGMENT
_Count$ = 80
??$_Get_size_of_n@$00@std@@YA_K_K@Z PROC		; std::_Get_size_of_n<1>, COMDAT

; 37   : 	{	// gets the size of _Count copies of a type with size 1

$LN3:
	mov	QWORD PTR [rsp+8], rcx
	push	rbp
	sub	rsp, 64					; 00000040H
	mov	rbp, rsp

; 38   : 	return (_Count);

	mov	rax, QWORD PTR _Count$[rbp]

; 39   : 	}

	lea	rsp, QWORD PTR [rbp+64]
	pop	rbp
	ret	0
??$_Get_size_of_n@$00@std@@YA_K_K@Z ENDP		; std::_Get_size_of_n<1>
_TEXT	ENDS
; Function compile flags: /Odtp /RTCu /ZI
; File c:\program files (x86)\microsoft visual studio\2017\enterprise\vc\tools\msvc\14.14.26428\include\xutility
;	COMDAT ?_Getpnext@_Iterator_base12@std@@QEAAPEAPEAU12@XZ
_TEXT	SEGMENT
this$ = 80
?_Getpnext@_Iterator_base12@std@@QEAAPEAPEAU12@XZ PROC	; std::_Iterator_base12::_Getpnext, COMDAT

; 221  : 		{	// get address of remaining iterator chain

$LN3:
	mov	QWORD PTR [rsp+8], rcx
	push	rbp
	sub	rsp, 64					; 00000040H
	mov	rbp, rsp

; 222  : 		return (&_Mynextiter);

	mov	rax, QWORD PTR this$[rbp]
	add	rax, 8

; 223  : 		}

	lea	rsp, QWORD PTR [rbp+64]
	pop	rbp
	ret	0
?_Getpnext@_Iterator_base12@std@@QEAAPEAPEAU12@XZ ENDP	; std::_Iterator_base12::_Getpnext
_TEXT	ENDS
; Function compile flags: /Odtp /RTCu /ZI
; File c:\program files (x86)\microsoft visual studio\2017\enterprise\vc\tools\msvc\14.14.26428\include\xutility
;	COMDAT ?_Clrcont@_Iterator_base12@std@@QEAAXXZ
_TEXT	SEGMENT
this$ = 80
?_Clrcont@_Iterator_base12@std@@QEAAXXZ PROC		; std::_Iterator_base12::_Clrcont, COMDAT

; 211  : 		{	// disown owning container

$LN3:
	mov	QWORD PTR [rsp+8], rcx
	push	rbp
	sub	rsp, 64					; 00000040H
	mov	rbp, rsp

; 212  : 		_Myproxy = 0;

	mov	rax, QWORD PTR this$[rbp]
	mov	QWORD PTR [rax], 0

; 213  : 		}

	lea	rsp, QWORD PTR [rbp+64]
	pop	rbp
	ret	0
?_Clrcont@_Iterator_base12@std@@QEAAXXZ ENDP		; std::_Iterator_base12::_Clrcont
_TEXT	ENDS
; Function compile flags: /Odtp /RTCu /ZI
; File c:\program files (x86)\microsoft visual studio\2017\enterprise\vc\tools\msvc\14.14.26428\include\xutility
;	COMDAT ?_Orphan_all@_Container_base12@std@@QEAAXXZ
_TEXT	SEGMENT
_Lock$1 = 0
_Pnext$2 = 8
$T3 = 80
__$ArrayPad$ = 88
this$ = 112
?_Orphan_all@_Container_base12@std@@QEAAXXZ PROC	; std::_Container_base12::_Orphan_all, COMDAT

; 251  : 	{	// orphan all iterators

$LN7:
	mov	QWORD PTR [rsp+8], rcx
	push	rbp
	sub	rsp, 128				; 00000080H
	lea	rbp, QWORD PTR [rsp+32]
	mov	QWORD PTR $T3[rbp], -2
	mov	rax, QWORD PTR __security_cookie
	xor	rax, rbp
	mov	QWORD PTR __$ArrayPad$[rbp], rax

; 252  :  #if _ITERATOR_DEBUG_LEVEL == 2
; 253  : 	if (_Myproxy != 0)

	mov	rax, QWORD PTR this$[rbp]
	cmp	QWORD PTR [rax], 0
	je	SHORT $LN5@Orphan_all

; 254  : 		{	// proxy allocated, drain it
; 255  : 		_Lockit _Lock(_LOCK_DEBUG);

	mov	edx, 3
	lea	rcx, QWORD PTR _Lock$1[rbp]
	call	QWORD PTR __imp_??0_Lockit@std@@QEAA@H@Z
	npad	1

; 256  : 
; 257  : 		for (_Iterator_base12 **_Pnext = &_Myproxy->_Myfirstiter;

	mov	rax, QWORD PTR this$[rbp]
	mov	rax, QWORD PTR [rax]
	add	rax, 8
	mov	QWORD PTR _Pnext$2[rbp], rax
	jmp	SHORT $LN4@Orphan_all
$LN2@Orphan_all:

; 258  : 			*_Pnext != 0; *_Pnext = (*_Pnext)->_Mynextiter)

	mov	rax, QWORD PTR _Pnext$2[rbp]
	mov	rax, QWORD PTR [rax]
	mov	rcx, QWORD PTR _Pnext$2[rbp]
	mov	rax, QWORD PTR [rax+8]
	mov	QWORD PTR [rcx], rax
$LN4@Orphan_all:
	mov	rax, QWORD PTR _Pnext$2[rbp]
	cmp	QWORD PTR [rax], 0
	je	SHORT $LN3@Orphan_all

; 259  : 			(*_Pnext)->_Myproxy = 0;

	mov	rax, QWORD PTR _Pnext$2[rbp]
	mov	rax, QWORD PTR [rax]
	mov	QWORD PTR [rax], 0
	jmp	SHORT $LN2@Orphan_all
$LN3@Orphan_all:

; 260  : 		_Myproxy->_Myfirstiter = 0;

	mov	rax, QWORD PTR this$[rbp]
	mov	rax, QWORD PTR [rax]
	mov	QWORD PTR [rax+8], 0

; 261  : 		}

	lea	rcx, QWORD PTR _Lock$1[rbp]
	call	QWORD PTR __imp_??1_Lockit@std@@QEAA@XZ
	npad	1
$LN5@Orphan_all:

; 262  :  #endif /* _ITERATOR_DEBUG_LEVEL == 2 */
; 263  : 	}

	mov	rcx, QWORD PTR __$ArrayPad$[rbp]
	xor	rcx, rbp
	call	__security_check_cookie
	npad	1
	lea	rsp, QWORD PTR [rbp+96]
	pop	rbp
	ret	0
?_Orphan_all@_Container_base12@std@@QEAAXXZ ENDP	; std::_Container_base12::_Orphan_all
_TEXT	ENDS
; Function compile flags: /Odtp /RTCu /ZI
; File c:\program files (x86)\microsoft visual studio\2017\enterprise\vc\tools\msvc\14.14.26428\include\xutility
;	COMDAT ?_Getpfirst@_Container_base12@std@@QEBAPEAPEAU_Iterator_base12@2@XZ
_TEXT	SEGMENT
tv68 = 64
this$ = 96
?_Getpfirst@_Container_base12@std@@QEBAPEAPEAU_Iterator_base12@2@XZ PROC ; std::_Container_base12::_Getpfirst, COMDAT

; 132  : 		{	// get address of iterator chain

$LN5:
	mov	QWORD PTR [rsp+8], rcx
	push	rbp
	sub	rsp, 80					; 00000050H
	mov	rbp, rsp

; 133  : 		return (_Myproxy == 0 ? 0 : &_Myproxy->_Myfirstiter);

	mov	rax, QWORD PTR this$[rbp]
	cmp	QWORD PTR [rax], 0
	jne	SHORT $LN3@Getpfirst
	mov	QWORD PTR tv68[rbp], 0
	jmp	SHORT $LN4@Getpfirst
$LN3@Getpfirst:
	mov	rax, QWORD PTR this$[rbp]
	mov	rax, QWORD PTR [rax]
	add	rax, 8
	mov	QWORD PTR tv68[rbp], rax
$LN4@Getpfirst:
	mov	rax, QWORD PTR tv68[rbp]

; 134  : 		}

	lea	rsp, QWORD PTR [rbp+80]
	pop	rbp
	ret	0
?_Getpfirst@_Container_base12@std@@QEBAPEAPEAU_Iterator_base12@2@XZ ENDP ; std::_Container_base12::_Getpfirst
_TEXT	ENDS
; Function compile flags: /Odtp /RTCu /ZI
; File c:\program files (x86)\microsoft visual studio\2017\enterprise\vc\tools\msvc\14.14.26428\include\xutility
;	COMDAT ??0_Container_base12@std@@QEAA@XZ
_TEXT	SEGMENT
this$ = 80
??0_Container_base12@std@@QEAA@XZ PROC			; std::_Container_base12::_Container_base12, COMDAT

; 118  : 		{	// construct childless container

$LN3:
	mov	QWORD PTR [rsp+8], rcx
	push	rbp
	sub	rsp, 64					; 00000040H
	mov	rbp, rsp

; 117  : 		: _Myproxy(0)

	mov	rax, QWORD PTR this$[rbp]
	mov	QWORD PTR [rax], 0

; 119  : 		}

	mov	rax, QWORD PTR this$[rbp]
	lea	rsp, QWORD PTR [rbp+64]
	pop	rbp
	ret	0
??0_Container_base12@std@@QEAA@XZ ENDP			; std::_Container_base12::_Container_base12
_TEXT	ENDS
; Function compile flags: /Odtp /RTCu /ZI
; File c:\program files (x86)\microsoft visual studio\2017\enterprise\vc\tools\msvc\14.14.26428\include\xutility
;	COMDAT ??0_Container_proxy@std@@QEAA@XZ
_TEXT	SEGMENT
this$ = 80
??0_Container_proxy@std@@QEAA@XZ PROC			; std::_Container_proxy::_Container_proxy, COMDAT

; 106  : 		{	// construct from pointers

$LN3:
	mov	QWORD PTR [rsp+8], rcx
	push	rbp
	sub	rsp, 64					; 00000040H
	mov	rbp, rsp

; 105  : 		: _Mycont(0), _Myfirstiter(0)

	mov	rax, QWORD PTR this$[rbp]
	mov	QWORD PTR [rax], 0
	mov	rax, QWORD PTR this$[rbp]
	mov	QWORD PTR [rax+8], 0

; 107  : 		}

	mov	rax, QWORD PTR this$[rbp]
	lea	rsp, QWORD PTR [rbp+64]
	pop	rbp
	ret	0
??0_Container_proxy@std@@QEAA@XZ ENDP			; std::_Container_proxy::_Container_proxy
_TEXT	ENDS
; Function compile flags: /Odtp /RTCu /ZI
; File c:\program files (x86)\microsoft visual studio\2017\enterprise\vc\tools\msvc\14.14.26428\include\iosfwd
;	COMDAT ?assign@?$char_traits@D@std@@SAXAEADAEBD@Z
_TEXT	SEGMENT
_Left$ = 80
_Right$ = 88
?assign@?$char_traits@D@std@@SAXAEADAEBD@Z PROC		; std::char_traits<char>::assign, COMDAT

; 488  : 		{	// assign an element

$LN3:
	mov	QWORD PTR [rsp+16], rdx
	mov	QWORD PTR [rsp+8], rcx
	push	rbp
	sub	rsp, 64					; 00000040H
	mov	rbp, rsp

; 489  : 		_Left = _Right;

	mov	rax, QWORD PTR _Left$[rbp]
	mov	rcx, QWORD PTR _Right$[rbp]
	movzx	ecx, BYTE PTR [rcx]
	mov	BYTE PTR [rax], cl

; 490  : 		}

	lea	rsp, QWORD PTR [rbp+64]
	pop	rbp
	ret	0
?assign@?$char_traits@D@std@@SAXAEADAEBD@Z ENDP		; std::char_traits<char>::assign
_TEXT	ENDS
; Function compile flags: /Odtp /RTCu /ZI
; File c:\program files (x86)\microsoft visual studio\2017\enterprise\vc\tools\msvc\14.14.26428\include\iosfwd
;	COMDAT ?move@?$char_traits@D@std@@SAPEADQEADQEBD_K@Z
_TEXT	SEGMENT
_First1$ = 80
_First2$ = 88
_Count$ = 96
?move@?$char_traits@D@std@@SAPEADQEADQEBD_K@Z PROC	; std::char_traits<char>::move, COMDAT

; 477  : 		{	// copy [_First2, _First2 + _Count) to [_First1, ...)

$LN3:
	mov	QWORD PTR [rsp+24], r8
	mov	QWORD PTR [rsp+16], rdx
	mov	QWORD PTR [rsp+8], rcx
	push	rbp
	sub	rsp, 96					; 00000060H
	lea	rbp, QWORD PTR [rsp+32]

; 478  : 		return (static_cast<char *>(_CSTD memmove(_First1, _First2, _Count)));

	mov	r8, QWORD PTR _Count$[rbp]
	mov	rdx, QWORD PTR _First2$[rbp]
	mov	rcx, QWORD PTR _First1$[rbp]
	call	memmove

; 479  : 		}

	lea	rsp, QWORD PTR [rbp+64]
	pop	rbp
	ret	0
?move@?$char_traits@D@std@@SAPEADQEADQEBD_K@Z ENDP	; std::char_traits<char>::move
_TEXT	ENDS
; Function compile flags: /Odtp /RTCu /ZI
; File c:\program files (x86)\microsoft visual studio\2017\enterprise\vc\tools\msvc\14.14.26428\include\iosfwd
;	COMDAT ?copy@?$char_traits@D@std@@SAPEADQEADQEBD_K@Z
_TEXT	SEGMENT
_First1$ = 80
_First2$ = 88
_Count$ = 96
?copy@?$char_traits@D@std@@SAPEADQEADQEBD_K@Z PROC	; std::char_traits<char>::copy, COMDAT

; 453  : 		{	// copy [_First2, _First2 + _Count) to [_First1, ...)

$LN3:
	mov	QWORD PTR [rsp+24], r8
	mov	QWORD PTR [rsp+16], rdx
	mov	QWORD PTR [rsp+8], rcx
	push	rbp
	sub	rsp, 96					; 00000060H
	lea	rbp, QWORD PTR [rsp+32]

; 454  : 		return (static_cast<char *>(_CSTD memcpy(_First1, _First2, _Count)));

	mov	r8, QWORD PTR _Count$[rbp]
	mov	rdx, QWORD PTR _First2$[rbp]
	mov	rcx, QWORD PTR _First1$[rbp]
	call	memcpy

; 455  : 		}

	lea	rsp, QWORD PTR [rbp+64]
	pop	rbp
	ret	0
?copy@?$char_traits@D@std@@SAPEADQEADQEBD_K@Z ENDP	; std::char_traits<char>::copy
_TEXT	ENDS
; Function compile flags: /Odtp /RTCu /ZI
; File c:\program files (x86)\microsoft visual studio\2017\enterprise\vc\tools\msvc\14.14.26428\include\iosfwd
;	COMDAT ?length@?$char_traits@D@std@@SA_KQEBD@Z
_TEXT	SEGMENT
_First$ = 80
?length@?$char_traits@D@std@@SA_KQEBD@Z PROC		; std::char_traits<char>::length, COMDAT

; 443  : 		{	// find length of null-terminated string

$LN3:
	mov	QWORD PTR [rsp+8], rcx
	push	rbp
	sub	rsp, 96					; 00000060H
	lea	rbp, QWORD PTR [rsp+32]

; 444  : #if _HAS_CONSTEXPR_CHAR_TRAITS
; 445  : 		return (__builtin_strlen(_First));
; 446  : #else /* _HAS_CONSTEXPR_CHAR_TRAITS */
; 447  : 		return (_CSTD strlen(_First));

	mov	rcx, QWORD PTR _First$[rbp]
	call	strlen

; 448  : #endif /* _HAS_CONSTEXPR_CHAR_TRAITS */
; 449  : 		}

	lea	rsp, QWORD PTR [rbp+64]
	pop	rbp
	ret	0
?length@?$char_traits@D@std@@SA_KQEBD@Z ENDP		; std::char_traits<char>::length
_TEXT	ENDS
; Function compile flags: /Odtp /RTCu /ZI
; File c:\program files (x86)\microsoft visual studio\2017\enterprise\vc\tools\msvc\14.14.26428\include\vcruntime_new.h
;	COMDAT ??2@YAPEAX_KPEAX@Z
_TEXT	SEGMENT
_Size$ = 80
_Where$ = 88
??2@YAPEAX_KPEAX@Z PROC					; operator new, COMDAT

; 180  :     {

$LN3:
	mov	QWORD PTR [rsp+16], rdx
	mov	QWORD PTR [rsp+8], rcx
	push	rbp
	sub	rsp, 64					; 00000040H
	mov	rbp, rsp

; 181  :         (void)_Size;
; 182  :         return _Where;

	mov	rax, QWORD PTR _Where$[rbp]

; 183  :     }

	lea	rsp, QWORD PTR [rbp+64]
	pop	rbp
	ret	0
??2@YAPEAX_KPEAX@Z ENDP					; operator new
_TEXT	ENDS
; Function compile flags: /Odtp /RTCu /ZI
; File c:\program files (x86)\microsoft visual studio\2017\enterprise\vc\tools\msvc\14.14.26428\include\limits
;	COMDAT ?max@?$numeric_limits@_J@std@@SA_JXZ
_TEXT	SEGMENT
?max@?$numeric_limits@_J@std@@SA_JXZ PROC		; std::numeric_limits<__int64>::max, COMDAT

; 973  : 		{	// return maximum value

$LN3:
	push	rbp
	sub	rsp, 64					; 00000040H
	mov	rbp, rsp

; 974  : 		return (LLONG_MAX);

	mov	rax, 9223372036854775807		; 7fffffffffffffffH

; 975  : 		}

	lea	rsp, QWORD PTR [rbp+64]
	pop	rbp
	ret	0
?max@?$numeric_limits@_J@std@@SA_JXZ ENDP		; std::numeric_limits<__int64>::max
_TEXT	ENDS
; Function compile flags: /Odtp /RTCu /ZI
; File l:\dev\featherfallengine\featherfall-examples\src\scene\mainmenuscene.cpp
;	COMDAT ?__empty_global_delete@@YAXPEAX_K@Z
_TEXT	SEGMENT
__formal$ = 80
__formal$ = 88
?__empty_global_delete@@YAXPEAX_K@Z PROC		; __empty_global_delete, COMDAT

$LN3:
	mov	QWORD PTR [rsp+16], rdx
	mov	QWORD PTR [rsp+8], rcx
	push	rbp
	sub	rsp, 64					; 00000040H
	mov	rbp, rsp
	lea	rsp, QWORD PTR [rbp+64]
	pop	rbp
	ret	0
?__empty_global_delete@@YAXPEAX_K@Z ENDP		; __empty_global_delete
_TEXT	ENDS
; Function compile flags: /Odtp /RTCu /ZI
; File l:\dev\featherfallengine\featherfall-examples\src\scene\mainmenuscene.cpp
;	COMDAT ?__empty_global_delete@@YAXPEAX@Z
_TEXT	SEGMENT
__formal$ = 80
?__empty_global_delete@@YAXPEAX@Z PROC			; __empty_global_delete, COMDAT

$LN3:
	mov	QWORD PTR [rsp+8], rcx
	push	rbp
	sub	rsp, 64					; 00000040H
	mov	rbp, rsp
	lea	rsp, QWORD PTR [rbp+64]
	pop	rbp
	ret	0
?__empty_global_delete@@YAXPEAX@Z ENDP			; __empty_global_delete
_TEXT	ENDS
; Function compile flags: /Odtp /RTCu /ZI
;	COMDAT ??_H@YAXPEAX_K1P6APEAX0@Z@Z
_TEXT	SEGMENT
tv66 = 64
tv67 = 72
__t$ = 96
__s$ = 104
__n$ = 112
__f$ = 120
??_H@YAXPEAX_K1P6APEAX0@Z@Z PROC			; `vector constructor iterator', COMDAT
$LN7:
	mov	QWORD PTR [rsp+32], r9
	mov	QWORD PTR [rsp+24], r8
	mov	QWORD PTR [rsp+16], rdx
	mov	QWORD PTR [rsp+8], rcx
	push	rbp
	sub	rsp, 112				; 00000070H
	lea	rbp, QWORD PTR [rsp+32]
$LN2@vector:
	mov	rax, QWORD PTR __n$[rbp]
	mov	QWORD PTR tv66[rbp], rax
	mov	rax, QWORD PTR __n$[rbp]
	dec	rax
	mov	QWORD PTR __n$[rbp], rax
	cmp	QWORD PTR tv66[rbp], 0
	jbe	SHORT $LN5@vector
	mov	DWORD PTR tv67[rbp], 1
	jmp	SHORT $LN6@vector
$LN5@vector:
	mov	DWORD PTR tv67[rbp], 0
$LN6@vector:
	cmp	DWORD PTR tv67[rbp], 0
	je	SHORT $LN3@vector
	mov	rcx, QWORD PTR __t$[rbp]
	call	QWORD PTR __f$[rbp]
	mov	rax, QWORD PTR __s$[rbp]
	mov	rcx, QWORD PTR __t$[rbp]
	add	rcx, rax
	mov	rax, rcx
	mov	QWORD PTR __t$[rbp], rax
	jmp	SHORT $LN2@vector
$LN3@vector:
	lea	rsp, QWORD PTR [rbp+80]
	pop	rbp
	ret	0
??_H@YAXPEAX_K1P6APEAX0@Z@Z ENDP			; `vector constructor iterator'
_TEXT	ENDS
END
