; Listing generated by Microsoft (R) Optimizing Compiler Version 19.15.26726.0 

include listing.inc

INCLUDELIB MSVCRTD
INCLUDELIB OLDNAMES

msvcjmc	SEGMENT
__C3726024_vcruntime_new.h DB 01H
__ACA0BEE6_malloc.h DB 01H
__388D9910_stdlib.h DB 01H
__AF9067BE_corecrt_math.h DB 01H
__F0F1F39B_cstdlib DB 01H
__6C905C6A_type_traits DB 01H
__80B6B68A_type_vec4_simd.inl DB 01H
__FC722CCB_xtgmath.h DB 01H
__5340138E_cmath DB 01H
__5DB10197_corecrt_memcpy_s.h DB 01H
__D40DD59F_corecrt_stdio_config.h DB 01H
__7EC77528_corecrt_wconio.h DB 01H
__5C7715BA_corecrt_wio.h DB 01H
__3AB8031F_corecrt_wstdio.h DB 01H
__7A0084B3_corecrt_wstring.h DB 01H
__8AE89E8D_corecrt_wtime.h DB 01H
__3F8BCAED_stat.h DB 01H
__5B5D5F1B_wchar.h DB 01H
__7FD60861_limits DB 01H
__E3872A82_exponential.h DB 01H
__9F28AA45_func_exponential_simd.inl DB 01H
__29A045F3_common.h DB 01H
__B7988A80_func_common.inl DB 01H
__24CAB0E6_geometric.h DB 01H
__97BCFF82_matrix.h DB 01H
__120E1A77_func_matrix_simd.inl DB 01H
__A6F69866_renderable2d.h DB 01H
__1AB859C2_vcruntime_exception.h DB 01H
__B20D35A8_exception DB 01H
__A57BBCE6_stdio.h DB 01H
__1F77EA16_corecrt_memory.h DB 01H
__BEFE0DB4_string.h DB 01H
__B33FDDE7_iosfwd DB 01H
__E8FD1B86_xutility DB 01H
__44F7D211_xatomic0.h DB 01H
__39AEDAD7_xmemory0 DB 01H
__3B430FF5_stdexcept DB 01H
__2E045A0E_renderer2d.h DB 01H
__6DC649C7_bufferlayout.h DB 01H
__29D2B671_ibo.h DB 01H
__8E8B64AE_type_half.inl DB 01H
__89F26D34_func_packing.inl DB 01H
__0491C86E_integer.h DB 01H
__E2916211_func_integer.inl DB 01H
__1E4AFF03_renderable3d.h DB 01H
__96B83D6B_renderer3d.h DB 01H
__768210A7_vcruntime_typeinfo.h DB 01H
__7A53EED8_ctype.h DB 01H
__87AB0B57_xlocinfo DB 01H
__C37804EF_memory DB 01H
__EF3D53E0_xfacet DB 01H
__0684E77E_xlocale DB 01H
__4552C965_xcall_once.h DB 01H
__FA0FDB45_system_error DB 01H
__BE4E7C44_xiosbase DB 01H
__98038169_xlocnum DB 01H
__F5D7447A_ios DB 01H
__B7AB8273_string DB 01H
__96066920_texture.h DB 01H
__09AF338C_imgui.h DB 01H
__4013777C_sandboxscene.cpp DB 01H
__327B7881_vector DB 01H
__D9BA934F_xstring DB 01H
__76440880_istream DB 01H
__15943DBA_ostream DB 01H
__39E3B749_streambuf DB 01H
__C7FC7610_utility DB 01H
__2F30B87A_type_vec2.inl DB 01H
__EEB2B1DD_type_vec2.hpp DB 01H
__A0704DDA_type_vec4.inl DB 01H
__61F2447D_type_vec4.hpp DB 01H
__BF97B2F5_type_mat4x4.inl DB 01H
__30E3E102_xstddef DB 01H
__B60C3EDD_matrix_transform.inl DB 01H
__7E15BB52_type_mat4x4.hpp DB 01H
__7419D44A__vectorize.hpp DB 01H
__AD6915D3_xmemory DB 01H
msvcjmc	ENDS
PUBLIC	??_H@YAXPEAX_K1P6APEAX0@Z@Z			; `vector constructor iterator'
PUBLIC	?__empty_global_delete@@YAXPEAX@Z		; __empty_global_delete
PUBLIC	?__empty_global_delete@@YAXPEAX_K@Z		; __empty_global_delete
PUBLIC	??2@YAPEAX_KPEAX@Z				; operator new
PUBLIC	?max@?$numeric_limits@_J@std@@SA_JXZ		; std::numeric_limits<__int64>::max
PUBLIC	??0?$tvec4@M$0A@@glm@@QEAA@XZ			; glm::tvec4<float,0>::tvec4<float,0>
PUBLIC	??0?$tvec4@M$0A@@glm@@QEAA@MMMM@Z		; glm::tvec4<float,0>::tvec4<float,0>
PUBLIC	??0?$tvec2@M$0A@@glm@@QEAA@XZ			; glm::tvec2<float,0>::tvec2<float,0>
PUBLIC	?getPosition@Renderable2D@graphics@core@@QEBAAEBU?$tvec4@M$0A@@glm@@XZ ; core::graphics::Renderable2D::getPosition
PUBLIC	?length@?$char_traits@D@std@@SA_KQEBD@Z		; std::char_traits<char>::length
PUBLIC	?copy@?$char_traits@D@std@@SAPEADQEADQEBD_K@Z	; std::char_traits<char>::copy
PUBLIC	?move@?$char_traits@D@std@@SAPEADQEADQEBD_K@Z	; std::char_traits<char>::move
PUBLIC	?assign@?$char_traits@D@std@@SAXAEADAEBD@Z	; std::char_traits<char>::assign
PUBLIC	??0_Container_proxy@std@@QEAA@XZ		; std::_Container_proxy::_Container_proxy
PUBLIC	??0_Container_base12@std@@QEAA@XZ		; std::_Container_base12::_Container_base12
PUBLIC	?_Orphan_all@_Container_base12@std@@QEAAXXZ	; std::_Container_base12::_Orphan_all
PUBLIC	??$_Get_size_of_n@$00@std@@YA_K_K@Z		; std::_Get_size_of_n<1>
PUBLIC	?_Allocate@_Default_allocate_traits@std@@SAPEAX_K@Z ; std::_Default_allocate_traits::_Allocate
PUBLIC	?_Adjust_manually_vector_aligned@std@@YAXAEAPEAXAEA_K@Z ; std::_Adjust_manually_vector_aligned
PUBLIC	??$_Convert_size@_K@std@@YA_K_K@Z		; std::_Convert_size<unsigned __int64>
PUBLIC	??$_Min_value@_K@std@@YAAEB_KAEB_K0@Z		; std::_Min_value<unsigned __int64>
PUBLIC	??0?$allocator@D@std@@QEAA@XZ			; std::allocator<char>::allocator<char>
PUBLIC	?deallocate@?$allocator@D@std@@QEAAXQEAD_K@Z	; std::allocator<char>::deallocate
PUBLIC	?allocate@?$allocator@D@std@@QEAAPEAD_K@Z	; std::allocator<char>::allocate
PUBLIC	?max_size@?$_Default_allocator_traits@V?$allocator@D@std@@@std@@SA_KAEBV?$allocator@D@2@@Z ; std::_Default_allocator_traits<std::allocator<char> >::max_size
PUBLIC	??0?$_String_val@U?$_Simple_types@D@std@@@std@@QEAA@XZ ; std::_String_val<std::_Simple_types<char> >::_String_val<std::_Simple_types<char> >
PUBLIC	?_Myptr@?$_String_val@U?$_Simple_types@D@std@@@std@@QEAAPEADXZ ; std::_String_val<std::_Simple_types<char> >::_Myptr
PUBLIC	?_Large_string_engaged@?$_String_val@U?$_Simple_types@D@std@@@std@@QEBA_NXZ ; std::_String_val<std::_Simple_types<char> >::_Large_string_engaged
PUBLIC	??0_Bxty@?$_String_val@U?$_Simple_types@D@std@@@std@@QEAA@XZ ; std::_String_val<std::_Simple_types<char> >::_Bxty::_Bxty
PUBLIC	??1_Bxty@?$_String_val@U?$_Simple_types@D@std@@@std@@QEAA@XZ ; std::_String_val<std::_Simple_types<char> >::_Bxty::~_Bxty
PUBLIC	??1?$_String_val@U?$_Simple_types@D@std@@@std@@QEAA@XZ ; std::_String_val<std::_Simple_types<char> >::~_String_val<std::_Simple_types<char> >
PUBLIC	??0?$_String_alloc@U?$_String_base_types@DV?$allocator@D@std@@@std@@@std@@QEAA@XZ ; std::_String_alloc<std::_String_base_types<char,std::allocator<char> > >::_String_alloc<std::_String_base_types<char,std::allocator<char> > >
PUBLIC	??1?$_String_alloc@U?$_String_base_types@DV?$allocator@D@std@@@std@@@std@@QEAA@XZ ; std::_String_alloc<std::_String_base_types<char,std::allocator<char> > >::~_String_alloc<std::_String_base_types<char,std::allocator<char> > >
PUBLIC	?_Alloc_proxy@?$_String_alloc@U?$_String_base_types@DV?$allocator@D@std@@@std@@@std@@QEAAXXZ ; std::_String_alloc<std::_String_base_types<char,std::allocator<char> > >::_Alloc_proxy
PUBLIC	?_Free_proxy@?$_String_alloc@U?$_String_base_types@DV?$allocator@D@std@@@std@@@std@@QEAAXXZ ; std::_String_alloc<std::_String_base_types<char,std::allocator<char> > >::_Free_proxy
PUBLIC	?_Myproxy@?$_String_alloc@U?$_String_base_types@DV?$allocator@D@std@@@std@@@std@@QEAAAEAPEAU_Container_proxy@2@XZ ; std::_String_alloc<std::_String_base_types<char,std::allocator<char> > >::_Myproxy
PUBLIC	?_Orphan_all@?$_String_alloc@U?$_String_base_types@DV?$allocator@D@std@@@std@@@std@@QEAAXXZ ; std::_String_alloc<std::_String_base_types<char,std::allocator<char> > >::_Orphan_all
PUBLIC	?_Getal@?$_String_alloc@U?$_String_base_types@DV?$allocator@D@std@@@std@@@std@@QEAAAEAV?$allocator@D@2@XZ ; std::_String_alloc<std::_String_base_types<char,std::allocator<char> > >::_Getal
PUBLIC	?_Getal@?$_String_alloc@U?$_String_base_types@DV?$allocator@D@std@@@std@@@std@@QEBAAEBV?$allocator@D@2@XZ ; std::_String_alloc<std::_String_base_types<char,std::allocator<char> > >::_Getal
PUBLIC	?_Get_data@?$_String_alloc@U?$_String_base_types@DV?$allocator@D@std@@@std@@@std@@QEAAAEAV?$_String_val@U?$_Simple_types@D@std@@@2@XZ ; std::_String_alloc<std::_String_base_types<char,std::allocator<char> > >::_Get_data
PUBLIC	?_Get_data@?$_String_alloc@U?$_String_base_types@DV?$allocator@D@std@@@std@@@std@@QEBAAEBV?$_String_val@U?$_Simple_types@D@std@@@2@XZ ; std::_String_alloc<std::_String_base_types<char,std::allocator<char> > >::_Get_data
PUBLIC	?_Get_first@?$_Compressed_pair@V?$allocator@D@std@@V?$_String_val@U?$_Simple_types@D@std@@@2@$00@std@@QEAAAEAV?$allocator@D@2@XZ ; std::_Compressed_pair<std::allocator<char>,std::_String_val<std::_Simple_types<char> >,1>::_Get_first
PUBLIC	?_Get_first@?$_Compressed_pair@V?$allocator@D@std@@V?$_String_val@U?$_Simple_types@D@std@@@2@$00@std@@QEBAAEBV?$allocator@D@2@XZ ; std::_Compressed_pair<std::allocator<char>,std::_String_val<std::_Simple_types<char> >,1>::_Get_first
PUBLIC	?_Get_second@?$_Compressed_pair@V?$allocator@D@std@@V?$_String_val@U?$_Simple_types@D@std@@@2@$00@std@@QEAAAEAV?$_String_val@U?$_Simple_types@D@std@@@2@XZ ; std::_Compressed_pair<std::allocator<char>,std::_String_val<std::_Simple_types<char> >,1>::_Get_second
PUBLIC	?_Get_second@?$_Compressed_pair@V?$allocator@D@std@@V?$_String_val@U?$_Simple_types@D@std@@@2@$00@std@@QEBAAEBV?$_String_val@U?$_Simple_types@D@std@@@2@XZ ; std::_Compressed_pair<std::allocator<char>,std::_String_val<std::_Simple_types<char> >,1>::_Get_second
PUBLIC	??1?$_Compressed_pair@V?$allocator@D@std@@V?$_String_val@U?$_Simple_types@D@std@@@2@$00@std@@QEAA@XZ ; std::_Compressed_pair<std::allocator<char>,std::_String_val<std::_Simple_types<char> >,1>::~_Compressed_pair<std::allocator<char>,std::_String_val<std::_Simple_types<char> >,1>
PUBLIC	??0?$basic_string@DU?$char_traits@D@std@@V?$allocator@D@2@@std@@QEAA@QEBD@Z ; std::basic_string<char,std::char_traits<char>,std::allocator<char> >::basic_string<char,std::char_traits<char>,std::allocator<char> >
PUBLIC	??1?$basic_string@DU?$char_traits@D@std@@V?$allocator@D@2@@std@@QEAA@XZ ; std::basic_string<char,std::char_traits<char>,std::allocator<char> >::~basic_string<char,std::char_traits<char>,std::allocator<char> >
PUBLIC	?assign@?$basic_string@DU?$char_traits@D@std@@V?$allocator@D@2@@std@@QEAAAEAV12@QEBD_K@Z ; std::basic_string<char,std::char_traits<char>,std::allocator<char> >::assign
PUBLIC	?assign@?$basic_string@DU?$char_traits@D@std@@V?$allocator@D@2@@std@@QEAAAEAV12@QEBD@Z ; std::basic_string<char,std::char_traits<char>,std::allocator<char> >::assign
PUBLIC	?max_size@?$basic_string@DU?$char_traits@D@std@@V?$allocator@D@2@@std@@QEBA_KXZ ; std::basic_string<char,std::char_traits<char>,std::allocator<char> >::max_size
PUBLIC	?_Calculate_growth@?$basic_string@DU?$char_traits@D@std@@V?$allocator@D@2@@std@@QEBA_K_K@Z ; std::basic_string<char,std::char_traits<char>,std::allocator<char> >::_Calculate_growth
PUBLIC	?_Tidy_init@?$basic_string@DU?$char_traits@D@std@@V?$allocator@D@2@@std@@QEAAXXZ ; std::basic_string<char,std::char_traits<char>,std::allocator<char> >::_Tidy_init
PUBLIC	?_Tidy_deallocate@?$basic_string@DU?$char_traits@D@std@@V?$allocator@D@2@@std@@QEAAXXZ ; std::basic_string<char,std::char_traits<char>,std::allocator<char> >::_Tidy_deallocate
PUBLIC	?_Xlen@?$basic_string@DU?$char_traits@D@std@@V?$allocator@D@2@@std@@SAXXZ ; std::basic_string<char,std::char_traits<char>,std::allocator<char> >::_Xlen
PUBLIC	??1Sprite@graphics@core@@UEAA@XZ		; core::graphics::Sprite::~Sprite
PUBLIC	??0SandboxScene@Scene@Application@@QEAA@XZ	; Application::Scene::SandboxScene::SandboxScene
PUBLIC	??1SandboxScene@Scene@Application@@UEAA@XZ	; Application::Scene::SandboxScene::~SandboxScene
PUBLIC	?OnUpdate@SandboxScene@Scene@Application@@UEAAXM@Z ; Application::Scene::SandboxScene::OnUpdate
PUBLIC	?OnRender@SandboxScene@Scene@Application@@UEAAXXZ ; Application::Scene::SandboxScene::OnRender
PUBLIC	?OnImGuiRender@SandboxScene@Scene@Application@@UEAAXXZ ; Application::Scene::SandboxScene::OnImGuiRender
PUBLIC	??_GSandboxScene@Scene@Application@@UEAAPEAXI@Z	; Application::Scene::SandboxScene::`scalar deleting destructor'
PUBLIC	??$ortho@N@glm@@YA?AU?$tmat4x4@N$0A@@0@NNNNNN@Z	; glm::ortho<double>
PUBLIC	?length@?$tvec4@N$0A@@glm@@SAHXZ		; glm::tvec4<double,0>::length
PUBLIC	??A?$tvec4@N$0A@@glm@@QEAAAEANH@Z		; glm::tvec4<double,0>::operator[]
PUBLIC	??0?$tvec4@N$0A@@glm@@QEAA@XZ			; glm::tvec4<double,0>::tvec4<double,0>
PUBLIC	??0?$tmat4x4@N$0A@@glm@@QEAA@AEBN@Z		; glm::tmat4x4<double,0>::tmat4x4<double,0>
PUBLIC	?length@?$tmat4x4@N$0A@@glm@@SAHXZ		; glm::tmat4x4<double,0>::length
PUBLIC	??A?$tmat4x4@N$0A@@glm@@QEAAAEAU?$tvec4@N$0A@@1@H@Z ; glm::tmat4x4<double,0>::operator[]
PUBLIC	??A?$tmat4x4@N$0A@@glm@@QEBAAEBU?$tvec4@N$0A@@1@H@Z ; glm::tmat4x4<double,0>::operator[]
PUBLIC	??$?0N$0A@@?$tmat4x4@M$0A@@glm@@QEAA@AEBU?$tmat4x4@N$0A@@1@@Z ; glm::tmat4x4<float,0>::tmat4x4<float,0><double,0>
PUBLIC	??$?0M$0A@@?$tvec2@M$0A@@glm@@QEAA@AEBU?$tvec4@M$0A@@1@@Z ; glm::tvec2<float,0>::tvec2<float,0><float,0>
PUBLIC	??$_Unfancy@D@std@@YAPEADPEAD@Z			; std::_Unfancy<char>
PUBLIC	??$?0$$V@?$_Compressed_pair@V?$allocator@D@std@@V?$_String_val@U?$_Simple_types@D@std@@@2@$00@std@@QEAA@U_Zero_then_variadic_args_t@1@@Z ; std::_Compressed_pair<std::allocator<char>,std::_String_val<std::_Simple_types<char> >,1>::_Compressed_pair<std::allocator<char>,std::_String_val<std::_Simple_types<char> >,1><>
PUBLIC	??$addressof@PEAD@std@@YAPEAPEADAEAPEAD@Z	; std::addressof<char *>
PUBLIC	??$destroy@PEAD@?$_Default_allocator_traits@V?$allocator@D@std@@@std@@SAXAEAV?$allocator@D@1@QEAPEAD@Z ; std::_Default_allocator_traits<std::allocator<char> >::destroy<char *>
PUBLIC	??$_Max_value@_K@std@@YAAEB_KAEB_K0@Z		; std::_Max_value<unsigned __int64>
PUBLIC	??$construct@PEADAEBQEAD@?$_Default_allocator_traits@V?$allocator@D@std@@@std@@SAXAEAV?$allocator@D@1@QEAPEADAEBQEAD@Z ; std::_Default_allocator_traits<std::allocator<char> >::construct<char *,char * const &>
PUBLIC	??$addressof@V?$_String_val@U?$_Simple_types@D@std@@@std@@@std@@YAPEAV?$_String_val@U?$_Simple_types@D@std@@@0@AEAV10@@Z ; std::addressof<std::_String_val<std::_Simple_types<char> > >
PUBLIC	??$_Allocate@$0BA@U_Default_allocate_traits@std@@$0A@@std@@YAPEAX_K@Z ; std::_Allocate<16,std::_Default_allocate_traits,0>
PUBLIC	??$_Deallocate@$0BA@$0A@@std@@YAXPEAX_K@Z	; std::_Deallocate<16,0>
PUBLIC	?allocate@?$allocator@U_Container_proxy@std@@@std@@QEAAPEAU_Container_proxy@2@_K@Z ; std::allocator<std::_Container_proxy>::allocate
PUBLIC	?deallocate@?$_Default_allocator_traits@V?$allocator@U_Container_proxy@std@@@std@@@std@@SAXAEAV?$allocator@U_Container_proxy@std@@@2@QEAU_Container_proxy@2@_K@Z ; std::_Default_allocator_traits<std::allocator<std::_Container_proxy> >::deallocate
PUBLIC	??$destroy@U_Container_proxy@std@@@?$_Default_allocator_traits@V?$allocator@U_Container_proxy@std@@@std@@@std@@SAXAEAV?$allocator@U_Container_proxy@std@@@1@QEAU_Container_proxy@1@@Z ; std::_Default_allocator_traits<std::allocator<std::_Container_proxy> >::destroy<std::_Container_proxy>
PUBLIC	??$_Deallocate_plain@V?$allocator@U_Container_proxy@std@@@std@@$0A@@std@@YAXAEAV?$allocator@U_Container_proxy@std@@@0@QEAU_Container_proxy@0@@Z ; std::_Deallocate_plain<std::allocator<std::_Container_proxy>,0>
PUBLIC	??$_Unfancy@U_Container_proxy@std@@@std@@YAPEAU_Container_proxy@0@PEAU10@@Z ; std::_Unfancy<std::_Container_proxy>
PUBLIC	??$construct@U_Container_proxy@std@@U12@@?$_Default_allocator_traits@V?$allocator@U_Container_proxy@std@@@std@@@std@@SAXAEAV?$allocator@U_Container_proxy@std@@@1@QEAU_Container_proxy@1@$$QEAU31@@Z ; std::_Default_allocator_traits<std::allocator<std::_Container_proxy> >::construct<std::_Container_proxy,std::_Container_proxy>
PUBLIC	??$?0D@?$allocator@U_Container_proxy@std@@@std@@QEAA@AEBV?$allocator@D@1@@Z ; std::allocator<std::_Container_proxy>::allocator<std::_Container_proxy><char>
PUBLIC	??$_Get_size_of_n@$0BA@@std@@YA_K_K@Z		; std::_Get_size_of_n<16>
PUBLIC	??$orthoRH@N@glm@@YA?AU?$tmat4x4@N$0A@@0@NNNNNN@Z ; glm::orthoRH<double>
PUBLIC	??$?0N$0A@@?$tvec4@M$0A@@glm@@QEAA@AEBU?$tvec4@N$0A@@1@@Z ; glm::tvec4<float,0>::tvec4<float,0><double,0>
PUBLIC	??$forward@AEBQEAD@std@@YAAEBQEADAEBQEAD@Z	; std::forward<char * const &>
PUBLIC	??$_Allocate_manually_vector_aligned@U_Default_allocate_traits@std@@@std@@YAPEAX_K@Z ; std::_Allocate_manually_vector_aligned<std::_Default_allocate_traits>
PUBLIC	??$forward@U_Container_proxy@std@@@std@@YA$$QEAU_Container_proxy@0@AEAU10@@Z ; std::forward<std::_Container_proxy>
PUBLIC	??$?0NHHH@?$tvec4@N$0A@@glm@@QEAA@NHHH@Z	; glm::tvec4<double,0>::tvec4<double,0><double,int,int,int>
PUBLIC	??$?0HNHH@?$tvec4@N$0A@@glm@@QEAA@HNHH@Z	; glm::tvec4<double,0>::tvec4<double,0><int,double,int,int>
PUBLIC	??$?0HHNH@?$tvec4@N$0A@@glm@@QEAA@HHNH@Z	; glm::tvec4<double,0>::tvec4<double,0><int,int,double,int>
PUBLIC	??$?0HHHN@?$tvec4@N$0A@@glm@@QEAA@HHHN@Z	; glm::tvec4<double,0>::tvec4<double,0><int,int,int,double>
PUBLIC	??_C@_0BB@FCMFBGOM@invalid?5argument@		; `string'
PUBLIC	??_C@_02DKCKIIND@?$CFs@				; `string'
PUBLIC	??_C@_1CG@JNLFBNGN@?$AA?$CC?$AAi?$AAn?$AAv?$AAa?$AAl?$AAi?$AAd?$AA?5?$AAa?$AAr?$AAg?$AAu?$AAm?$AAe@ ; `string'
PUBLIC	?__LINE__Var@?0??_Adjust_manually_vector_aligned@std@@YAXAEAPEAXAEA_K@Z@4JA ; `std::_Adjust_manually_vector_aligned'::`1'::__LINE__Var
PUBLIC	??_C@_0GK@FKLKIKPD@c?3?2program?5files?5?$CIx86?$CJ?2microsof@ ; `string'
PUBLIC	??_C@_1NE@MCNNPIKO@?$AAc?$AA?3?$AA?2?$AAp?$AAr?$AAo?$AAg?$AAr?$AAa?$AAm?$AA?5?$AAf?$AAi?$AAl?$AAe@ ; `string'
PUBLIC	??_C@_1EK@NIFDJFDG@?$AAs?$AAt?$AAd?$AA?3?$AA?3?$AA_?$AAA?$AAd?$AAj?$AAu?$AAs?$AAt?$AA_?$AAm?$AAa@ ; `string'
PUBLIC	??_7SandboxScene@Scene@Application@@6B@		; Application::Scene::SandboxScene::`vftable'
PUBLIC	??_C@_0BL@OOFMDA@res?1shaders?1Sandbox?4shader@	; `string'
PUBLIC	??_C@_08IMNAFLGG@prMatrix@			; `string'
PUBLIC	??_C@_09GCGFNBLA@playerPos@			; `string'
PUBLIC	??_C@_0BF@FEFAANEH@This?5is?5the?5Sandbox?$CB@	; `string'
PUBLIC	??_C@_0BL@CKFJBINN@Light?5Position?3?5?$CF?41f?0?5?$CF?41f@ ; `string'
PUBLIC	??_C@_1DK@BGNCJAPL@?$AAi?$AA?5?$AA?$DO?$AA?$DN?$AA?5?$AA0?$AA?5?$AA?$CG?$AA?$CG?$AA?5?$AAi?$AA?5?$AA?$DM?$AA?5?$AAt@ ; `string'
PUBLIC	??_C@_1JE@JLGGFMIE@?$AAl?$AA?3?$AA?2?$AAd?$AAe?$AAv?$AA?2?$AAf?$AAe?$AAa?$AAt?$AAh?$AAe?$AAr?$AAf@ ; `string'
PUBLIC	??_C@_1JI@BDACPION@?$AAl?$AA?3?$AA?2?$AAd?$AAe?$AAv?$AA?2?$AAf?$AAe?$AAa?$AAt?$AAh?$AAe?$AAr?$AAf@ ; `string'
PUBLIC	??_C@_1CG@KOFHLCJL@?$AAi?$AA?5?$AA?$DM?$AA?5?$AAt?$AAh?$AAi?$AAs?$AA?9?$AA?$DO?$AAl?$AAe?$AAn?$AAg?$AAt@ ; `string'
PUBLIC	??_C@_0BA@JFNIOLAK@string?5too?5long@		; `string'
PUBLIC	??_C@_1EO@GFNCMDLA@?$AAs?$AAt?$AAd?$AA?3?$AA?3?$AA_?$AAA?$AAl?$AAl?$AAo?$AAc?$AAa?$AAt?$AAe?$AA_@ ; `string'
PUBLIC	??_R4SandboxScene@Scene@Application@@6B@	; Application::Scene::SandboxScene::`RTTI Complete Object Locator'
PUBLIC	??_R0?AVSandboxScene@Scene@Application@@@8	; Application::Scene::SandboxScene `RTTI Type Descriptor'
PUBLIC	??_R3SandboxScene@Scene@Application@@8		; Application::Scene::SandboxScene::`RTTI Class Hierarchy Descriptor'
PUBLIC	??_R2SandboxScene@Scene@Application@@8		; Application::Scene::SandboxScene::`RTTI Base Class Array'
PUBLIC	??_R1A@?0A@EA@SandboxScene@Scene@Application@@8	; Application::Scene::SandboxScene::`RTTI Base Class Descriptor at (0,-1,0,64)'
PUBLIC	??_R1A@?0A@EA@Scene@0Application@@8		; Application::Scene::Scene::`RTTI Base Class Descriptor at (0,-1,0,64)'
PUBLIC	??_R0?AVScene@0Application@@@8			; Application::Scene::Scene `RTTI Type Descriptor'
PUBLIC	??_R3Scene@0Application@@8			; Application::Scene::Scene::`RTTI Class Hierarchy Descriptor'
PUBLIC	??_R2Scene@0Application@@8			; Application::Scene::Scene::`RTTI Base Class Array'
PUBLIC	__real@3f800000
PUBLIC	__real@3ff0000000000000
PUBLIC	__real@4000000000000000
PUBLIC	__real@4022000000000000
PUBLIC	__real@4030000000000000
PUBLIC	__real@40400000
PUBLIC	__real@41000000
PUBLIC	__real@41100000
PUBLIC	__real@41800000
PUBLIC	__real@42000000
PUBLIC	__real@bfc00000
PUBLIC	__real@bff0000000000000
PUBLIC	__real@c000000000000000
PUBLIC	__real@c022000000000000
PUBLIC	__real@c030000000000000
PUBLIC	__real@c1100000
PUBLIC	__real@c1800000
PUBLIC	__xmm@80000000000000008000000000000000
EXTRN	??2@YAPEAX_K@Z:PROC				; operator new
EXTRN	??3@YAXPEAX_K@Z:PROC				; operator delete
EXTRN	??0Scene@0Application@@QEAA@XZ:PROC		; Application::Scene::Scene::Scene
EXTRN	??1Scene@0Application@@UEAA@XZ:PROC		; Application::Scene::Scene::~Scene
EXTRN	__imp__invalid_parameter:PROC
EXTRN	__imp__CrtDbgReport:PROC
EXTRN	__imp_??0_Lockit@std@@QEAA@H@Z:PROC
EXTRN	__imp_??1_Lockit@std@@QEAA@XZ:PROC
EXTRN	__imp__wassert:PROC
EXTRN	memcpy:PROC
EXTRN	memmove:PROC
EXTRN	??1Renderable2D@graphics@core@@UEAA@XZ:PROC	; core::graphics::Renderable2D::~Renderable2D
EXTRN	strlen:PROC
EXTRN	?_Xlength_error@std@@YAXPEBD@Z:PROC		; std::_Xlength_error
EXTRN	??0BatchRenderer2D@graphics@core@@QEAA@XZ:PROC	; core::graphics::BatchRenderer2D::BatchRenderer2D
EXTRN	??1BatchRenderer2D@graphics@core@@QEAA@XZ:PROC	; core::graphics::BatchRenderer2D::~BatchRenderer2D
EXTRN	??0Shader@graphics@core@@QEAA@AEBV?$basic_string@DU?$char_traits@D@std@@V?$allocator@D@2@@std@@@Z:PROC ; core::graphics::Shader::Shader
EXTRN	??1Shader@graphics@core@@QEAA@XZ:PROC		; core::graphics::Shader::~Shader
EXTRN	?bind@Shader@graphics@core@@QEBAXXZ:PROC	; core::graphics::Shader::bind
EXTRN	?setUniformVec2@Shader@graphics@core@@QEAAXPEBDAEBU?$tvec2@M$0A@@glm@@@Z:PROC ; core::graphics::Shader::setUniformVec2
EXTRN	?setUniformMat4@Shader@graphics@core@@QEAAXPEBDAEBU?$tmat4x4@M$0A@@glm@@@Z:PROC ; core::graphics::Shader::setUniformMat4
EXTRN	??0Sprite@graphics@core@@QEAA@MMMMAEBU?$tvec4@M$0A@@glm@@@Z:PROC ; core::graphics::Sprite::Sprite
EXTRN	?getWindowSize_s@Window@graphics@core@@SAAEBU?$tvec2@M$0A@@glm@@XZ:PROC ; core::graphics::Window::getWindowSize_s
EXTRN	??_ESandboxScene@Scene@Application@@UEAAPEAXI@Z:PROC ; Application::Scene::SandboxScene::`vector deleting destructor'
EXTRN	?Text@ImGui@@YAXPEBDZZ:PROC			; ImGui::Text
EXTRN	?GetMousePos@ImGui@@YA?AUImVec2@@XZ:PROC	; ImGui::GetMousePos
EXTRN	_RTC_InitBase:PROC
EXTRN	_RTC_Shutdown:PROC
EXTRN	__CheckForDebuggerJustMyCode:PROC
EXTRN	__CxxFrameHandler3:PROC
EXTRN	__GSHandlerCheck:PROC
EXTRN	__GSHandlerCheck_EH:PROC
EXTRN	__security_check_cookie:PROC
EXTRN	??_7type_info@@6B@:BYTE				; type_info::`vftable'
EXTRN	__security_cookie:QWORD
EXTRN	_fltused:DWORD
;	COMDAT pdata
pdata	SEGMENT
$pdata$??_H@YAXPEAX_K1P6APEAX0@Z@Z DD imagerel $LN7
	DD	imagerel $LN7+111
	DD	imagerel $unwind$??_H@YAXPEAX_K1P6APEAX0@Z@Z
pdata	ENDS
;	COMDAT pdata
pdata	SEGMENT
$pdata$?__empty_global_delete@@YAXPEAX@Z DD imagerel $LN3
	DD	imagerel $LN3+33
	DD	imagerel $unwind$?__empty_global_delete@@YAXPEAX@Z
pdata	ENDS
;	COMDAT pdata
pdata	SEGMENT
$pdata$?__empty_global_delete@@YAXPEAX_K@Z DD imagerel $LN3
	DD	imagerel $LN3+38
	DD	imagerel $unwind$?__empty_global_delete@@YAXPEAX_K@Z
pdata	ENDS
;	COMDAT pdata
pdata	SEGMENT
$pdata$??2@YAPEAX_KPEAX@Z DD imagerel $LN3
	DD	imagerel $LN3+51
	DD	imagerel $unwind$??2@YAPEAX_KPEAX@Z
pdata	ENDS
;	COMDAT pdata
pdata	SEGMENT
$pdata$?max@?$numeric_limits@_J@std@@SA_JXZ DD imagerel $LN3
	DD	imagerel $LN3+48
	DD	imagerel $unwind$?max@?$numeric_limits@_J@std@@SA_JXZ
pdata	ENDS
;	COMDAT pdata
pdata	SEGMENT
$pdata$??0?$tvec4@M$0A@@glm@@QEAA@XZ DD imagerel $LN3
	DD	imagerel $LN3+84
	DD	imagerel $unwind$??0?$tvec4@M$0A@@glm@@QEAA@XZ
pdata	ENDS
;	COMDAT pdata
pdata	SEGMENT
$pdata$??0?$tvec4@M$0A@@glm@@QEAA@MMMM@Z DD imagerel $LN3
	DD	imagerel $LN3+110
	DD	imagerel $unwind$??0?$tvec4@M$0A@@glm@@QEAA@MMMM@Z
pdata	ENDS
;	COMDAT pdata
pdata	SEGMENT
$pdata$??0?$tvec2@M$0A@@glm@@QEAA@XZ DD imagerel $LN3
	DD	imagerel $LN3+60
	DD	imagerel $unwind$??0?$tvec2@M$0A@@glm@@QEAA@XZ
pdata	ENDS
;	COMDAT pdata
pdata	SEGMENT
$pdata$?getPosition@Renderable2D@graphics@core@@QEBAAEBU?$tvec4@M$0A@@glm@@XZ DD imagerel $LN3
	DD	imagerel $LN3+41
	DD	imagerel $unwind$?getPosition@Renderable2D@graphics@core@@QEBAAEBU?$tvec4@M$0A@@glm@@XZ
pdata	ENDS
;	COMDAT pdata
pdata	SEGMENT
$pdata$?length@?$char_traits@D@std@@SA_KQEBD@Z DD imagerel $LN3
	DD	imagerel $LN3+52
	DD	imagerel $unwind$?length@?$char_traits@D@std@@SA_KQEBD@Z
pdata	ENDS
;	COMDAT pdata
pdata	SEGMENT
$pdata$?copy@?$char_traits@D@std@@SAPEADQEADQEBD_K@Z DD imagerel $LN3
	DD	imagerel $LN3+70
	DD	imagerel $unwind$?copy@?$char_traits@D@std@@SAPEADQEADQEBD_K@Z
pdata	ENDS
;	COMDAT pdata
pdata	SEGMENT
$pdata$?move@?$char_traits@D@std@@SAPEADQEADQEBD_K@Z DD imagerel $LN3
	DD	imagerel $LN3+70
	DD	imagerel $unwind$?move@?$char_traits@D@std@@SAPEADQEADQEBD_K@Z
pdata	ENDS
;	COMDAT pdata
pdata	SEGMENT
$pdata$?assign@?$char_traits@D@std@@SAXAEADAEBD@Z DD imagerel $LN3
	DD	imagerel $LN3+60
	DD	imagerel $unwind$?assign@?$char_traits@D@std@@SAXAEADAEBD@Z
pdata	ENDS
;	COMDAT pdata
pdata	SEGMENT
$pdata$??0_Container_proxy@std@@QEAA@XZ DD imagerel $LN3
	DD	imagerel $LN3+69
	DD	imagerel $unwind$??0_Container_proxy@std@@QEAA@XZ
pdata	ENDS
;	COMDAT pdata
pdata	SEGMENT
$pdata$??0_Container_base12@std@@QEAA@XZ DD imagerel $LN3
	DD	imagerel $LN3+48
	DD	imagerel $unwind$??0_Container_base12@std@@QEAA@XZ
pdata	ENDS
;	COMDAT pdata
pdata	SEGMENT
$pdata$?_Orphan_all@_Container_base12@std@@QEAAXXZ DD imagerel $LN7
	DD	imagerel $LN7+185
	DD	imagerel $unwind$?_Orphan_all@_Container_base12@std@@QEAAXXZ
pdata	ENDS
;	COMDAT pdata
pdata	SEGMENT
$pdata$??$_Get_size_of_n@$00@std@@YA_K_K@Z DD imagerel $LN3
	DD	imagerel $LN3+37
	DD	imagerel $unwind$??$_Get_size_of_n@$00@std@@YA_K_K@Z
pdata	ENDS
;	COMDAT pdata
pdata	SEGMENT
$pdata$?_Allocate@_Default_allocate_traits@std@@SAPEAX_K@Z DD imagerel $LN3
	DD	imagerel $LN3+42
	DD	imagerel $unwind$?_Allocate@_Default_allocate_traits@std@@SAPEAX_K@Z
pdata	ENDS
;	COMDAT pdata
pdata	SEGMENT
$pdata$?_Adjust_manually_vector_aligned@std@@YAXAEAPEAXAEA_K@Z DD imagerel $LN21
	DD	imagerel $LN21+433
	DD	imagerel $unwind$?_Adjust_manually_vector_aligned@std@@YAXAEAPEAXAEA_K@Z
pdata	ENDS
;	COMDAT pdata
pdata	SEGMENT
$pdata$??$_Convert_size@_K@std@@YA_K_K@Z DD imagerel $LN3
	DD	imagerel $LN3+37
	DD	imagerel $unwind$??$_Convert_size@_K@std@@YA_K_K@Z
pdata	ENDS
;	COMDAT pdata
pdata	SEGMENT
$pdata$??$_Min_value@_K@std@@YAAEB_KAEB_K0@Z DD imagerel $LN5
	DD	imagerel $LN5+96
	DD	imagerel $unwind$??$_Min_value@_K@std@@YAAEB_KAEB_K0@Z
pdata	ENDS
;	COMDAT pdata
pdata	SEGMENT
$pdata$??0?$allocator@D@std@@QEAA@XZ DD imagerel $LN3
	DD	imagerel $LN3+46
	DD	imagerel $unwind$??0?$allocator@D@std@@QEAA@XZ
pdata	ENDS
;	COMDAT pdata
pdata	SEGMENT
$pdata$?deallocate@?$allocator@D@std@@QEAAXQEAD_K@Z DD imagerel $LN3
	DD	imagerel $LN3+56
	DD	imagerel $unwind$?deallocate@?$allocator@D@std@@QEAAXQEAD_K@Z
pdata	ENDS
;	COMDAT pdata
pdata	SEGMENT
$pdata$?allocate@?$allocator@D@std@@QEAAPEAD_K@Z DD imagerel $LN3
	DD	imagerel $LN3+55
	DD	imagerel $unwind$?allocate@?$allocator@D@std@@QEAAPEAD_K@Z
pdata	ENDS
;	COMDAT pdata
pdata	SEGMENT
$pdata$?max_size@?$_Default_allocator_traits@V?$allocator@D@std@@@std@@SA_KAEBV?$allocator@D@2@@Z DD imagerel $LN3
	DD	imagerel $LN3+49
	DD	imagerel $unwind$?max_size@?$_Default_allocator_traits@V?$allocator@D@std@@@std@@SA_KAEBV?$allocator@D@2@@Z
pdata	ENDS
;	COMDAT pdata
pdata	SEGMENT
$pdata$??0?$_String_val@U?$_Simple_types@D@std@@@std@@QEAA@XZ DD imagerel $LN4
	DD	imagerel $LN4+86
	DD	imagerel $unwind$??0?$_String_val@U?$_Simple_types@D@std@@@std@@QEAA@XZ
pdata	ENDS
;	COMDAT pdata
pdata	SEGMENT
$pdata$?_Myptr@?$_String_val@U?$_Simple_types@D@std@@@std@@QEAAPEADXZ DD imagerel $LN4
	DD	imagerel $LN4+82
	DD	imagerel $unwind$?_Myptr@?$_String_val@U?$_Simple_types@D@std@@@std@@QEAAPEADXZ
pdata	ENDS
;	COMDAT pdata
pdata	SEGMENT
$pdata$?_Large_string_engaged@?$_String_val@U?$_Simple_types@D@std@@@std@@QEBA_NXZ DD imagerel $LN5
	DD	imagerel $LN5+64
	DD	imagerel $unwind$?_Large_string_engaged@?$_String_val@U?$_Simple_types@D@std@@@std@@QEBA_NXZ
pdata	ENDS
;	COMDAT pdata
pdata	SEGMENT
$pdata$??0_Bxty@?$_String_val@U?$_Simple_types@D@std@@@std@@QEAA@XZ DD imagerel $LN3
	DD	imagerel $LN3+37
	DD	imagerel $unwind$??0_Bxty@?$_String_val@U?$_Simple_types@D@std@@@std@@QEAA@XZ
pdata	ENDS
;	COMDAT pdata
pdata	SEGMENT
$pdata$??1_Bxty@?$_String_val@U?$_Simple_types@D@std@@@std@@QEAA@XZ DD imagerel $LN3
	DD	imagerel $LN3+42
	DD	imagerel $unwind$??1_Bxty@?$_String_val@U?$_Simple_types@D@std@@@std@@QEAA@XZ
pdata	ENDS
;	COMDAT pdata
pdata	SEGMENT
$pdata$??1?$_String_val@U?$_Simple_types@D@std@@@std@@QEAA@XZ DD imagerel $LN3
	DD	imagerel $LN3+37
	DD	imagerel $unwind$??1?$_String_val@U?$_Simple_types@D@std@@@std@@QEAA@XZ
pdata	ENDS
;	COMDAT pdata
pdata	SEGMENT
$pdata$??0?$_String_alloc@U?$_String_base_types@DV?$allocator@D@std@@@std@@@std@@QEAA@XZ DD imagerel $LN4
	DD	imagerel $LN4+72
	DD	imagerel $unwind$??0?$_String_alloc@U?$_String_base_types@DV?$allocator@D@std@@@std@@@std@@QEAA@XZ
pdata	ENDS
;	COMDAT pdata
pdata	SEGMENT
$pdata$?dtor$0@?0???0?$_String_alloc@U?$_String_base_types@DV?$allocator@D@std@@@std@@@std@@QEAA@XZ@4HA DD imagerel ?dtor$0@?0???0?$_String_alloc@U?$_String_base_types@DV?$allocator@D@std@@@std@@@std@@QEAA@XZ@4HA
	DD	imagerel ?dtor$0@?0???0?$_String_alloc@U?$_String_base_types@DV?$allocator@D@std@@@std@@@std@@QEAA@XZ@4HA+25
	DD	imagerel $unwind$?dtor$0@?0???0?$_String_alloc@U?$_String_base_types@DV?$allocator@D@std@@@std@@@std@@QEAA@XZ@4HA
pdata	ENDS
;	COMDAT pdata
pdata	SEGMENT
$pdata$??1?$_String_alloc@U?$_String_base_types@DV?$allocator@D@std@@@std@@@std@@QEAA@XZ DD imagerel $LN3
	DD	imagerel $LN3+65
	DD	imagerel $unwind$??1?$_String_alloc@U?$_String_base_types@DV?$allocator@D@std@@@std@@@std@@QEAA@XZ
pdata	ENDS
;	COMDAT pdata
pdata	SEGMENT
$pdata$?_Alloc_proxy@?$_String_alloc@U?$_String_base_types@DV?$allocator@D@std@@@std@@@std@@QEAAXXZ DD imagerel $LN3
	DD	imagerel $LN3+221
	DD	imagerel $unwind$?_Alloc_proxy@?$_String_alloc@U?$_String_base_types@DV?$allocator@D@std@@@std@@@std@@QEAAXXZ
pdata	ENDS
;	COMDAT pdata
pdata	SEGMENT
$pdata$?_Free_proxy@?$_String_alloc@U?$_String_base_types@DV?$allocator@D@std@@@std@@@std@@QEAAXXZ DD imagerel $LN3
	DD	imagerel $LN3+147
	DD	imagerel $unwind$?_Free_proxy@?$_String_alloc@U?$_String_base_types@DV?$allocator@D@std@@@std@@@std@@QEAAXXZ
pdata	ENDS
;	COMDAT pdata
pdata	SEGMENT
$pdata$?_Myproxy@?$_String_alloc@U?$_String_base_types@DV?$allocator@D@std@@@std@@@std@@QEAAAEAPEAU_Container_proxy@2@XZ DD imagerel $LN3
	DD	imagerel $LN3+52
	DD	imagerel $unwind$?_Myproxy@?$_String_alloc@U?$_String_base_types@DV?$allocator@D@std@@@std@@@std@@QEAAAEAPEAU_Container_proxy@2@XZ
pdata	ENDS
;	COMDAT pdata
pdata	SEGMENT
$pdata$?_Orphan_all@?$_String_alloc@U?$_String_base_types@DV?$allocator@D@std@@@std@@@std@@QEAAXXZ DD imagerel $LN3
	DD	imagerel $LN3+50
	DD	imagerel $unwind$?_Orphan_all@?$_String_alloc@U?$_String_base_types@DV?$allocator@D@std@@@std@@@std@@QEAAXXZ
pdata	ENDS
;	COMDAT pdata
pdata	SEGMENT
$pdata$?_Getal@?$_String_alloc@U?$_String_base_types@DV?$allocator@D@std@@@std@@@std@@QEAAAEAV?$allocator@D@2@XZ DD imagerel $LN3
	DD	imagerel $LN3+55
	DD	imagerel $unwind$?_Getal@?$_String_alloc@U?$_String_base_types@DV?$allocator@D@std@@@std@@@std@@QEAAAEAV?$allocator@D@2@XZ
pdata	ENDS
;	COMDAT pdata
pdata	SEGMENT
$pdata$?_Getal@?$_String_alloc@U?$_String_base_types@DV?$allocator@D@std@@@std@@@std@@QEBAAEBV?$allocator@D@2@XZ DD imagerel $LN3
	DD	imagerel $LN3+55
	DD	imagerel $unwind$?_Getal@?$_String_alloc@U?$_String_base_types@DV?$allocator@D@std@@@std@@@std@@QEBAAEBV?$allocator@D@2@XZ
pdata	ENDS
;	COMDAT pdata
pdata	SEGMENT
$pdata$?_Get_data@?$_String_alloc@U?$_String_base_types@DV?$allocator@D@std@@@std@@@std@@QEAAAEAV?$_String_val@U?$_Simple_types@D@std@@@2@XZ DD imagerel $LN3
	DD	imagerel $LN3+55
	DD	imagerel $unwind$?_Get_data@?$_String_alloc@U?$_String_base_types@DV?$allocator@D@std@@@std@@@std@@QEAAAEAV?$_String_val@U?$_Simple_types@D@std@@@2@XZ
pdata	ENDS
;	COMDAT pdata
pdata	SEGMENT
$pdata$?_Get_data@?$_String_alloc@U?$_String_base_types@DV?$allocator@D@std@@@std@@@std@@QEBAAEBV?$_String_val@U?$_Simple_types@D@std@@@2@XZ DD imagerel $LN3
	DD	imagerel $LN3+55
	DD	imagerel $unwind$?_Get_data@?$_String_alloc@U?$_String_base_types@DV?$allocator@D@std@@@std@@@std@@QEBAAEBV?$_String_val@U?$_Simple_types@D@std@@@2@XZ
pdata	ENDS
;	COMDAT pdata
pdata	SEGMENT
$pdata$?_Get_first@?$_Compressed_pair@V?$allocator@D@std@@V?$_String_val@U?$_Simple_types@D@std@@@2@$00@std@@QEAAAEAV?$allocator@D@2@XZ DD imagerel $LN3
	DD	imagerel $LN3+46
	DD	imagerel $unwind$?_Get_first@?$_Compressed_pair@V?$allocator@D@std@@V?$_String_val@U?$_Simple_types@D@std@@@2@$00@std@@QEAAAEAV?$allocator@D@2@XZ
pdata	ENDS
;	COMDAT pdata
pdata	SEGMENT
$pdata$?_Get_first@?$_Compressed_pair@V?$allocator@D@std@@V?$_String_val@U?$_Simple_types@D@std@@@2@$00@std@@QEBAAEBV?$allocator@D@2@XZ DD imagerel $LN3
	DD	imagerel $LN3+46
	DD	imagerel $unwind$?_Get_first@?$_Compressed_pair@V?$allocator@D@std@@V?$_String_val@U?$_Simple_types@D@std@@@2@$00@std@@QEBAAEBV?$allocator@D@2@XZ
pdata	ENDS
;	COMDAT pdata
pdata	SEGMENT
$pdata$?_Get_second@?$_Compressed_pair@V?$allocator@D@std@@V?$_String_val@U?$_Simple_types@D@std@@@2@$00@std@@QEAAAEAV?$_String_val@U?$_Simple_types@D@std@@@2@XZ DD imagerel $LN3
	DD	imagerel $LN3+46
	DD	imagerel $unwind$?_Get_second@?$_Compressed_pair@V?$allocator@D@std@@V?$_String_val@U?$_Simple_types@D@std@@@2@$00@std@@QEAAAEAV?$_String_val@U?$_Simple_types@D@std@@@2@XZ
pdata	ENDS
;	COMDAT pdata
pdata	SEGMENT
$pdata$?_Get_second@?$_Compressed_pair@V?$allocator@D@std@@V?$_String_val@U?$_Simple_types@D@std@@@2@$00@std@@QEBAAEBV?$_String_val@U?$_Simple_types@D@std@@@2@XZ DD imagerel $LN3
	DD	imagerel $LN3+46
	DD	imagerel $unwind$?_Get_second@?$_Compressed_pair@V?$allocator@D@std@@V?$_String_val@U?$_Simple_types@D@std@@@2@$00@std@@QEBAAEBV?$_String_val@U?$_Simple_types@D@std@@@2@XZ
pdata	ENDS
;	COMDAT pdata
pdata	SEGMENT
$pdata$??1?$_Compressed_pair@V?$allocator@D@std@@V?$_String_val@U?$_Simple_types@D@std@@@2@$00@std@@QEAA@XZ DD imagerel $LN3
	DD	imagerel $LN3+33
	DD	imagerel $unwind$??1?$_Compressed_pair@V?$allocator@D@std@@V?$_String_val@U?$_Simple_types@D@std@@@2@$00@std@@QEAA@XZ
pdata	ENDS
;	COMDAT pdata
pdata	SEGMENT
$pdata$??0?$basic_string@DU?$char_traits@D@std@@V?$allocator@D@2@@std@@QEAA@QEBD@Z DD imagerel $LN4
	DD	imagerel $LN4+83
	DD	imagerel $unwind$??0?$basic_string@DU?$char_traits@D@std@@V?$allocator@D@2@@std@@QEAA@QEBD@Z
pdata	ENDS
;	COMDAT pdata
pdata	SEGMENT
$pdata$?dtor$0@?0???0?$basic_string@DU?$char_traits@D@std@@V?$allocator@D@2@@std@@QEAA@QEBD@Z@4HA DD imagerel ?dtor$0@?0???0?$basic_string@DU?$char_traits@D@std@@V?$allocator@D@2@@std@@QEAA@QEBD@Z@4HA
	DD	imagerel ?dtor$0@?0???0?$basic_string@DU?$char_traits@D@std@@V?$allocator@D@2@@std@@QEAA@QEBD@Z@4HA+25
	DD	imagerel $unwind$?dtor$0@?0???0?$basic_string@DU?$char_traits@D@std@@V?$allocator@D@2@@std@@QEAA@QEBD@Z@4HA
pdata	ENDS
;	COMDAT pdata
pdata	SEGMENT
$pdata$??1?$basic_string@DU?$char_traits@D@std@@V?$allocator@D@2@@std@@QEAA@XZ DD imagerel $LN3
	DD	imagerel $LN3+62
	DD	imagerel $unwind$??1?$basic_string@DU?$char_traits@D@std@@V?$allocator@D@2@@std@@QEAA@XZ
pdata	ENDS
;	COMDAT pdata
pdata	SEGMENT
$pdata$?assign@?$basic_string@DU?$char_traits@D@std@@V?$allocator@D@2@@std@@QEAAAEAV12@QEBD_K@Z DD imagerel $LN4
	DD	imagerel $LN4+221
	DD	imagerel $unwind$?assign@?$basic_string@DU?$char_traits@D@std@@V?$allocator@D@2@@std@@QEAAAEAV12@QEBD_K@Z
pdata	ENDS
;	COMDAT pdata
pdata	SEGMENT
$pdata$?assign@?$basic_string@DU?$char_traits@D@std@@V?$allocator@D@2@@std@@QEAAAEAV12@QEBD@Z DD imagerel $LN3
	DD	imagerel $LN3+71
	DD	imagerel $unwind$?assign@?$basic_string@DU?$char_traits@D@std@@V?$allocator@D@2@@std@@QEAAAEAV12@QEBD@Z
pdata	ENDS
;	COMDAT pdata
pdata	SEGMENT
$pdata$?max_size@?$basic_string@DU?$char_traits@D@std@@V?$allocator@D@2@@std@@QEBA_KXZ DD imagerel $LN3
	DD	imagerel $LN3+168
	DD	imagerel $unwind$?max_size@?$basic_string@DU?$char_traits@D@std@@V?$allocator@D@2@@std@@QEBA_KXZ
pdata	ENDS
;	COMDAT pdata
pdata	SEGMENT
$pdata$?_Calculate_growth@?$basic_string@DU?$char_traits@D@std@@V?$allocator@D@2@@std@@QEBA_K_K@Z DD imagerel $LN5
	DD	imagerel $LN5+222
	DD	imagerel $unwind$?_Calculate_growth@?$basic_string@DU?$char_traits@D@std@@V?$allocator@D@2@@std@@QEBA_K_K@Z
pdata	ENDS
;	COMDAT pdata
pdata	SEGMENT
$pdata$?_Tidy_init@?$basic_string@DU?$char_traits@D@std@@V?$allocator@D@2@@std@@QEAAXXZ DD imagerel $LN3
	DD	imagerel $LN3+104
	DD	imagerel $unwind$?_Tidy_init@?$basic_string@DU?$char_traits@D@std@@V?$allocator@D@2@@std@@QEAAXXZ
pdata	ENDS
;	COMDAT pdata
pdata	SEGMENT
$pdata$?_Tidy_deallocate@?$basic_string@DU?$char_traits@D@std@@V?$allocator@D@2@@std@@QEAAXXZ DD imagerel $LN4
	DD	imagerel $LN4+212
	DD	imagerel $unwind$?_Tidy_deallocate@?$basic_string@DU?$char_traits@D@std@@V?$allocator@D@2@@std@@QEAAXXZ
pdata	ENDS
;	COMDAT pdata
pdata	SEGMENT
$pdata$?_Xlen@?$basic_string@DU?$char_traits@D@std@@V?$allocator@D@2@@std@@SAXXZ DD imagerel $LN3
	DD	imagerel $LN3+41
	DD	imagerel $unwind$?_Xlen@?$basic_string@DU?$char_traits@D@std@@V?$allocator@D@2@@std@@SAXXZ
pdata	ENDS
;	COMDAT pdata
pdata	SEGMENT
$pdata$??1Sprite@graphics@core@@UEAA@XZ DD imagerel $LN3
	DD	imagerel $LN3+30
	DD	imagerel $unwind$??1Sprite@graphics@core@@UEAA@XZ
pdata	ENDS
;	COMDAT pdata
pdata	SEGMENT
$pdata$??0SandboxScene@Scene@Application@@QEAA@XZ DD imagerel $LN9
	DD	imagerel $LN9+543
	DD	imagerel $unwind$??0SandboxScene@Scene@Application@@QEAA@XZ
pdata	ENDS
;	COMDAT pdata
pdata	SEGMENT
$pdata$?dtor$0@?0???0SandboxScene@Scene@Application@@QEAA@XZ@4HA DD imagerel ?dtor$0@?0???0SandboxScene@Scene@Application@@QEAA@XZ@4HA
	DD	imagerel ?dtor$0@?0???0SandboxScene@Scene@Application@@QEAA@XZ@4HA+28
	DD	imagerel $unwind$?dtor$0@?0???0SandboxScene@Scene@Application@@QEAA@XZ@4HA
pdata	ENDS
;	COMDAT pdata
pdata	SEGMENT
$pdata$?dtor$1@?0???0SandboxScene@Scene@Application@@QEAA@XZ@4HA DD imagerel ?dtor$1@?0???0SandboxScene@Scene@Application@@QEAA@XZ@4HA
	DD	imagerel ?dtor$1@?0???0SandboxScene@Scene@Application@@QEAA@XZ@4HA+32
	DD	imagerel $unwind$?dtor$1@?0???0SandboxScene@Scene@Application@@QEAA@XZ@4HA
pdata	ENDS
;	COMDAT pdata
pdata	SEGMENT
$pdata$?dtor$2@?0???0SandboxScene@Scene@Application@@QEAA@XZ@4HA DD imagerel ?dtor$2@?0???0SandboxScene@Scene@Application@@QEAA@XZ@4HA
	DD	imagerel ?dtor$2@?0???0SandboxScene@Scene@Application@@QEAA@XZ@4HA+32
	DD	imagerel $unwind$?dtor$2@?0???0SandboxScene@Scene@Application@@QEAA@XZ@4HA
pdata	ENDS
;	COMDAT pdata
pdata	SEGMENT
$pdata$?dtor$3@?0???0SandboxScene@Scene@Application@@QEAA@XZ@4HA DD imagerel ?dtor$3@?0???0SandboxScene@Scene@Application@@QEAA@XZ@4HA
	DD	imagerel ?dtor$3@?0???0SandboxScene@Scene@Application@@QEAA@XZ@4HA+32
	DD	imagerel $unwind$?dtor$3@?0???0SandboxScene@Scene@Application@@QEAA@XZ@4HA
pdata	ENDS
;	COMDAT pdata
pdata	SEGMENT
$pdata$?dtor$4@?0???0SandboxScene@Scene@Application@@QEAA@XZ@4HA DD imagerel ?dtor$4@?0???0SandboxScene@Scene@Application@@QEAA@XZ@4HA
	DD	imagerel ?dtor$4@?0???0SandboxScene@Scene@Application@@QEAA@XZ@4HA+25
	DD	imagerel $unwind$?dtor$4@?0???0SandboxScene@Scene@Application@@QEAA@XZ@4HA
pdata	ENDS
;	COMDAT pdata
pdata	SEGMENT
$pdata$?dtor$5@?0???0SandboxScene@Scene@Application@@QEAA@XZ@4HA DD imagerel ?dtor$5@?0???0SandboxScene@Scene@Application@@QEAA@XZ@4HA
	DD	imagerel ?dtor$5@?0???0SandboxScene@Scene@Application@@QEAA@XZ@4HA+35
	DD	imagerel $unwind$?dtor$5@?0???0SandboxScene@Scene@Application@@QEAA@XZ@4HA
pdata	ENDS
;	COMDAT pdata
pdata	SEGMENT
$pdata$??1SandboxScene@Scene@Application@@UEAA@XZ DD imagerel $LN3
	DD	imagerel $LN3+136
	DD	imagerel $unwind$??1SandboxScene@Scene@Application@@UEAA@XZ
pdata	ENDS
;	COMDAT pdata
pdata	SEGMENT
$pdata$?OnUpdate@SandboxScene@Scene@Application@@UEAAXM@Z DD imagerel $LN3
	DD	imagerel $LN3+389
	DD	imagerel $unwind$?OnUpdate@SandboxScene@Scene@Application@@UEAAXM@Z
pdata	ENDS
;	COMDAT pdata
pdata	SEGMENT
$pdata$?OnRender@SandboxScene@Scene@Application@@UEAAXXZ DD imagerel $LN3
	DD	imagerel $LN3+255
	DD	imagerel $unwind$?OnRender@SandboxScene@Scene@Application@@UEAAXXZ
pdata	ENDS
;	COMDAT pdata
pdata	SEGMENT
$pdata$?OnImGuiRender@SandboxScene@Scene@Application@@UEAAXXZ DD imagerel $LN3
	DD	imagerel $LN3+94
	DD	imagerel $unwind$?OnImGuiRender@SandboxScene@Scene@Application@@UEAAXXZ
pdata	ENDS
;	COMDAT pdata
pdata	SEGMENT
$pdata$??_GSandboxScene@Scene@Application@@UEAAPEAXI@Z DD imagerel $LN4
	DD	imagerel $LN4+62
	DD	imagerel $unwind$??_GSandboxScene@Scene@Application@@UEAAPEAXI@Z
pdata	ENDS
;	COMDAT pdata
pdata	SEGMENT
$pdata$??$ortho@N@glm@@YA?AU?$tmat4x4@N$0A@@0@NNNNNN@Z DD imagerel $LN3
	DD	imagerel $LN3+118
	DD	imagerel $unwind$??$ortho@N@glm@@YA?AU?$tmat4x4@N$0A@@0@NNNNNN@Z
pdata	ENDS
;	COMDAT pdata
pdata	SEGMENT
$pdata$?length@?$tvec4@N$0A@@glm@@SAHXZ DD imagerel $LN3
	DD	imagerel $LN3+34
	DD	imagerel $unwind$?length@?$tvec4@N$0A@@glm@@SAHXZ
pdata	ENDS
;	COMDAT pdata
pdata	SEGMENT
$pdata$??A?$tvec4@N$0A@@glm@@QEAAAEANH@Z DD imagerel $LN5
	DD	imagerel $LN5+93
	DD	imagerel $unwind$??A?$tvec4@N$0A@@glm@@QEAAAEANH@Z
pdata	ENDS
;	COMDAT pdata
pdata	SEGMENT
$pdata$??0?$tvec4@N$0A@@glm@@QEAA@XZ DD imagerel $LN3
	DD	imagerel $LN3+84
	DD	imagerel $unwind$??0?$tvec4@N$0A@@glm@@QEAA@XZ
pdata	ENDS
;	COMDAT pdata
pdata	SEGMENT
$pdata$??0?$tmat4x4@N$0A@@glm@@QEAA@AEBN@Z DD imagerel $LN3
	DD	imagerel $LN3+345
	DD	imagerel $unwind$??0?$tmat4x4@N$0A@@glm@@QEAA@AEBN@Z
pdata	ENDS
;	COMDAT pdata
pdata	SEGMENT
$pdata$?length@?$tmat4x4@N$0A@@glm@@SAHXZ DD imagerel $LN3
	DD	imagerel $LN3+34
	DD	imagerel $unwind$?length@?$tmat4x4@N$0A@@glm@@SAHXZ
pdata	ENDS
;	COMDAT pdata
pdata	SEGMENT
$pdata$??A?$tmat4x4@N$0A@@glm@@QEAAAEAU?$tvec4@N$0A@@1@H@Z DD imagerel $LN4
	DD	imagerel $LN4+93
	DD	imagerel $unwind$??A?$tmat4x4@N$0A@@glm@@QEAAAEAU?$tvec4@N$0A@@1@H@Z
pdata	ENDS
;	COMDAT pdata
pdata	SEGMENT
$pdata$??A?$tmat4x4@N$0A@@glm@@QEBAAEBU?$tvec4@N$0A@@1@H@Z DD imagerel $LN4
	DD	imagerel $LN4+93
	DD	imagerel $unwind$??A?$tmat4x4@N$0A@@glm@@QEBAAEBU?$tvec4@N$0A@@1@H@Z
pdata	ENDS
;	COMDAT pdata
pdata	SEGMENT
$pdata$??$?0N$0A@@?$tmat4x4@M$0A@@glm@@QEAA@AEBU?$tmat4x4@N$0A@@1@@Z DD imagerel $LN3
	DD	imagerel $LN3+318
	DD	imagerel $unwind$??$?0N$0A@@?$tmat4x4@M$0A@@glm@@QEAA@AEBU?$tmat4x4@N$0A@@1@@Z
pdata	ENDS
;	COMDAT pdata
pdata	SEGMENT
$pdata$??$?0M$0A@@?$tvec2@M$0A@@glm@@QEAA@AEBU?$tvec4@M$0A@@1@@Z DD imagerel $LN3
	DD	imagerel $LN3+76
	DD	imagerel $unwind$??$?0M$0A@@?$tvec2@M$0A@@glm@@QEAA@AEBU?$tvec4@M$0A@@1@@Z
pdata	ENDS
;	COMDAT pdata
pdata	SEGMENT
$pdata$??$_Unfancy@D@std@@YAPEADPEAD@Z DD imagerel $LN3
	DD	imagerel $LN3+37
	DD	imagerel $unwind$??$_Unfancy@D@std@@YAPEADPEAD@Z
pdata	ENDS
;	COMDAT pdata
pdata	SEGMENT
$pdata$??$?0$$V@?$_Compressed_pair@V?$allocator@D@std@@V?$_String_val@U?$_Simple_types@D@std@@@2@$00@std@@QEAA@U_Zero_then_variadic_args_t@1@@Z DD imagerel $LN4
	DD	imagerel $LN4+62
	DD	imagerel $unwind$??$?0$$V@?$_Compressed_pair@V?$allocator@D@std@@V?$_String_val@U?$_Simple_types@D@std@@@2@$00@std@@QEAA@U_Zero_then_variadic_args_t@1@@Z
pdata	ENDS
;	COMDAT pdata
pdata	SEGMENT
$pdata$??$addressof@PEAD@std@@YAPEAPEADAEAPEAD@Z DD imagerel $LN3
	DD	imagerel $LN3+46
	DD	imagerel $unwind$??$addressof@PEAD@std@@YAPEAPEADAEAPEAD@Z
pdata	ENDS
;	COMDAT pdata
pdata	SEGMENT
$pdata$??$destroy@PEAD@?$_Default_allocator_traits@V?$allocator@D@std@@@std@@SAXAEAV?$allocator@D@1@QEAPEAD@Z DD imagerel $LN3
	DD	imagerel $LN3+38
	DD	imagerel $unwind$??$destroy@PEAD@?$_Default_allocator_traits@V?$allocator@D@std@@@std@@SAXAEAV?$allocator@D@1@QEAPEAD@Z
pdata	ENDS
;	COMDAT pdata
pdata	SEGMENT
$pdata$??$_Max_value@_K@std@@YAAEB_KAEB_K0@Z DD imagerel $LN5
	DD	imagerel $LN5+96
	DD	imagerel $unwind$??$_Max_value@_K@std@@YAAEB_KAEB_K0@Z
pdata	ENDS
;	COMDAT pdata
pdata	SEGMENT
$pdata$??R<lambda_66f57f934f28d61049862f64df852ff0>@@QEBAXQEAD_KQEBD@Z DD imagerel ??R<lambda_66f57f934f28d61049862f64df852ff0>@@QEBAXQEAD_KQEBD@Z
	DD	imagerel ??R<lambda_66f57f934f28d61049862f64df852ff0>@@QEBAXQEAD_KQEBD@Z+95
	DD	imagerel $unwind$??R<lambda_66f57f934f28d61049862f64df852ff0>@@QEBAXQEAD_KQEBD@Z
pdata	ENDS
;	COMDAT pdata
pdata	SEGMENT
$pdata$??$_Reallocate_for@V<lambda_66f57f934f28d61049862f64df852ff0>@@PEBD@?$basic_string@DU?$char_traits@D@std@@V?$allocator@D@2@@std@@QEAAAEAV01@_KV<lambda_66f57f934f28d61049862f64df852ff0>@@PEBD@Z DD imagerel ??$_Reallocate_for@V<lambda_66f57f934f28d61049862f64df852ff0>@@PEBD@?$basic_string@DU?$char_traits@D@std@@V?$allocator@D@2@@std@@QEAAAEAV01@_KV<lambda_66f57f934f28d61049862f64df852ff0>@@PEBD@Z
	DD	imagerel ??$_Reallocate_for@V<lambda_66f57f934f28d61049862f64df852ff0>@@PEBD@?$basic_string@DU?$char_traits@D@std@@V?$allocator@D@2@@std@@QEAAAEAV01@_KV<lambda_66f57f934f28d61049862f64df852ff0>@@PEBD@Z+366
	DD	imagerel $unwind$??$_Reallocate_for@V<lambda_66f57f934f28d61049862f64df852ff0>@@PEBD@?$basic_string@DU?$char_traits@D@std@@V?$allocator@D@2@@std@@QEAAAEAV01@_KV<lambda_66f57f934f28d61049862f64df852ff0>@@PEBD@Z
pdata	ENDS
;	COMDAT pdata
pdata	SEGMENT
$pdata$??$construct@PEADAEBQEAD@?$_Default_allocator_traits@V?$allocator@D@std@@@std@@SAXAEAV?$allocator@D@1@QEAPEADAEBQEAD@Z DD imagerel $LN3
	DD	imagerel $LN3+80
	DD	imagerel $unwind$??$construct@PEADAEBQEAD@?$_Default_allocator_traits@V?$allocator@D@std@@@std@@SAXAEAV?$allocator@D@1@QEAPEADAEBQEAD@Z
pdata	ENDS
;	COMDAT pdata
pdata	SEGMENT
$pdata$??$addressof@V?$_String_val@U?$_Simple_types@D@std@@@std@@@std@@YAPEAV?$_String_val@U?$_Simple_types@D@std@@@0@AEAV10@@Z DD imagerel $LN3
	DD	imagerel $LN3+46
	DD	imagerel $unwind$??$addressof@V?$_String_val@U?$_Simple_types@D@std@@@std@@@std@@YAPEAV?$_String_val@U?$_Simple_types@D@std@@@0@AEAV10@@Z
pdata	ENDS
;	COMDAT pdata
pdata	SEGMENT
$pdata$??$_Allocate@$0BA@U_Default_allocate_traits@std@@$0A@@std@@YAPEAX_K@Z DD imagerel $LN5
	DD	imagerel $LN5+74
	DD	imagerel $unwind$??$_Allocate@$0BA@U_Default_allocate_traits@std@@$0A@@std@@YAPEAX_K@Z
pdata	ENDS
;	COMDAT pdata
pdata	SEGMENT
$pdata$??$_Deallocate@$0BA@$0A@@std@@YAXPEAX_K@Z DD imagerel $LN4
	DD	imagerel $LN4+74
	DD	imagerel $unwind$??$_Deallocate@$0BA@$0A@@std@@YAXPEAX_K@Z
pdata	ENDS
;	COMDAT pdata
pdata	SEGMENT
$pdata$?allocate@?$allocator@U_Container_proxy@std@@@std@@QEAAPEAU_Container_proxy@2@_K@Z DD imagerel $LN3
	DD	imagerel $LN3+55
	DD	imagerel $unwind$?allocate@?$allocator@U_Container_proxy@std@@@std@@QEAAPEAU_Container_proxy@2@_K@Z
pdata	ENDS
;	COMDAT pdata
pdata	SEGMENT
$pdata$?deallocate@?$_Default_allocator_traits@V?$allocator@U_Container_proxy@std@@@std@@@std@@SAXAEAV?$allocator@U_Container_proxy@std@@@2@QEAU_Container_proxy@2@_K@Z DD imagerel $LN3
	DD	imagerel $LN3+60
	DD	imagerel $unwind$?deallocate@?$_Default_allocator_traits@V?$allocator@U_Container_proxy@std@@@std@@@std@@SAXAEAV?$allocator@U_Container_proxy@std@@@2@QEAU_Container_proxy@2@_K@Z
pdata	ENDS
;	COMDAT pdata
pdata	SEGMENT
$pdata$??$destroy@U_Container_proxy@std@@@?$_Default_allocator_traits@V?$allocator@U_Container_proxy@std@@@std@@@std@@SAXAEAV?$allocator@U_Container_proxy@std@@@1@QEAU_Container_proxy@1@@Z DD imagerel $LN3
	DD	imagerel $LN3+38
	DD	imagerel $unwind$??$destroy@U_Container_proxy@std@@@?$_Default_allocator_traits@V?$allocator@U_Container_proxy@std@@@std@@@std@@SAXAEAV?$allocator@U_Container_proxy@std@@@1@QEAU_Container_proxy@1@@Z
pdata	ENDS
;	COMDAT pdata
pdata	SEGMENT
$pdata$??$_Deallocate_plain@V?$allocator@U_Container_proxy@std@@@std@@$0A@@std@@YAXAEAV?$allocator@U_Container_proxy@std@@@0@QEAU_Container_proxy@0@@Z DD imagerel $LN3
	DD	imagerel $LN3+57
	DD	imagerel $unwind$??$_Deallocate_plain@V?$allocator@U_Container_proxy@std@@@std@@$0A@@std@@YAXAEAV?$allocator@U_Container_proxy@std@@@0@QEAU_Container_proxy@0@@Z
pdata	ENDS
;	COMDAT pdata
pdata	SEGMENT
$pdata$??$_Unfancy@U_Container_proxy@std@@@std@@YAPEAU_Container_proxy@0@PEAU10@@Z DD imagerel $LN3
	DD	imagerel $LN3+37
	DD	imagerel $unwind$??$_Unfancy@U_Container_proxy@std@@@std@@YAPEAU_Container_proxy@0@PEAU10@@Z
pdata	ENDS
;	COMDAT pdata
pdata	SEGMENT
$pdata$??$construct@U_Container_proxy@std@@U12@@?$_Default_allocator_traits@V?$allocator@U_Container_proxy@std@@@std@@@std@@SAXAEAV?$allocator@U_Container_proxy@std@@@1@QEAU_Container_proxy@1@$$QEAU31@@Z DD imagerel $LN3
	DD	imagerel $LN3+91
	DD	imagerel $unwind$??$construct@U_Container_proxy@std@@U12@@?$_Default_allocator_traits@V?$allocator@U_Container_proxy@std@@@std@@@std@@SAXAEAV?$allocator@U_Container_proxy@std@@@1@QEAU_Container_proxy@1@$$QEAU31@@Z
pdata	ENDS
;	COMDAT pdata
pdata	SEGMENT
$pdata$??$?0D@?$allocator@U_Container_proxy@std@@@std@@QEAA@AEBV?$allocator@D@1@@Z DD imagerel $LN3
	DD	imagerel $LN3+51
	DD	imagerel $unwind$??$?0D@?$allocator@U_Container_proxy@std@@@std@@QEAA@AEBV?$allocator@D@1@@Z
pdata	ENDS
;	COMDAT pdata
pdata	SEGMENT
$pdata$??$_Get_size_of_n@$0BA@@std@@YA_K_K@Z DD imagerel $LN4
	DD	imagerel $LN4+84
	DD	imagerel $unwind$??$_Get_size_of_n@$0BA@@std@@YA_K_K@Z
pdata	ENDS
;	COMDAT pdata
pdata	SEGMENT
$pdata$??$orthoRH@N@glm@@YA?AU?$tmat4x4@N$0A@@0@NNNNNN@Z DD imagerel $LN3
	DD	imagerel $LN3+648
	DD	imagerel $unwind$??$orthoRH@N@glm@@YA?AU?$tmat4x4@N$0A@@0@NNNNNN@Z
pdata	ENDS
;	COMDAT pdata
pdata	SEGMENT
$pdata$??$?0N$0A@@?$tvec4@M$0A@@glm@@QEAA@AEBU?$tvec4@N$0A@@1@@Z DD imagerel $LN3
	DD	imagerel $LN3+112
	DD	imagerel $unwind$??$?0N$0A@@?$tvec4@M$0A@@glm@@QEAA@AEBU?$tvec4@N$0A@@1@@Z
pdata	ENDS
;	COMDAT pdata
pdata	SEGMENT
$pdata$??$forward@AEBQEAD@std@@YAAEBQEADAEBQEAD@Z DD imagerel $LN3
	DD	imagerel $LN3+46
	DD	imagerel $unwind$??$forward@AEBQEAD@std@@YAAEBQEADAEBQEAD@Z
pdata	ENDS
;	COMDAT pdata
pdata	SEGMENT
$pdata$??$_Allocate_manually_vector_aligned@U_Default_allocate_traits@std@@@std@@YAPEAX_K@Z DD imagerel $LN13
	DD	imagerel $LN13+269
	DD	imagerel $unwind$??$_Allocate_manually_vector_aligned@U_Default_allocate_traits@std@@@std@@YAPEAX_K@Z
pdata	ENDS
;	COMDAT pdata
pdata	SEGMENT
$pdata$??$forward@U_Container_proxy@std@@@std@@YA$$QEAU_Container_proxy@0@AEAU10@@Z DD imagerel $LN3
	DD	imagerel $LN3+46
	DD	imagerel $unwind$??$forward@U_Container_proxy@std@@@std@@YA$$QEAU_Container_proxy@0@AEAU10@@Z
pdata	ENDS
;	COMDAT pdata
pdata	SEGMENT
$pdata$??$?0NHHH@?$tvec4@N$0A@@glm@@QEAA@NHHH@Z DD imagerel $LN3
	DD	imagerel $LN3+108
	DD	imagerel $unwind$??$?0NHHH@?$tvec4@N$0A@@glm@@QEAA@NHHH@Z
pdata	ENDS
;	COMDAT pdata
pdata	SEGMENT
$pdata$??$?0HNHH@?$tvec4@N$0A@@glm@@QEAA@HNHH@Z DD imagerel $LN3
	DD	imagerel $LN3+107
	DD	imagerel $unwind$??$?0HNHH@?$tvec4@N$0A@@glm@@QEAA@HNHH@Z
pdata	ENDS
;	COMDAT pdata
pdata	SEGMENT
$pdata$??$?0HHNH@?$tvec4@N$0A@@glm@@QEAA@HHNH@Z DD imagerel $LN3
	DD	imagerel $LN3+107
	DD	imagerel $unwind$??$?0HHNH@?$tvec4@N$0A@@glm@@QEAA@HHNH@Z
pdata	ENDS
;	COMDAT pdata
pdata	SEGMENT
$pdata$??$?0HHHN@?$tvec4@N$0A@@glm@@QEAA@HHHN@Z DD imagerel $LN3
	DD	imagerel $LN3+106
	DD	imagerel $unwind$??$?0HHHN@?$tvec4@N$0A@@glm@@QEAA@HHHN@Z
pdata	ENDS
;	COMDAT __xmm@80000000000000008000000000000000
CONST	SEGMENT
__xmm@80000000000000008000000000000000 DB 00H, 00H, 00H, 00H, 00H, 00H, 00H
	DB	080H, 00H, 00H, 00H, 00H, 00H, 00H, 00H, 080H
CONST	ENDS
;	COMDAT __real@c1800000
CONST	SEGMENT
__real@c1800000 DD 0c1800000r			; -16
CONST	ENDS
;	COMDAT __real@c1100000
CONST	SEGMENT
__real@c1100000 DD 0c1100000r			; -9
CONST	ENDS
;	COMDAT __real@c030000000000000
CONST	SEGMENT
__real@c030000000000000 DQ 0c030000000000000r	; -16
CONST	ENDS
;	COMDAT __real@c022000000000000
CONST	SEGMENT
__real@c022000000000000 DQ 0c022000000000000r	; -9
CONST	ENDS
;	COMDAT __real@c000000000000000
CONST	SEGMENT
__real@c000000000000000 DQ 0c000000000000000r	; -2
CONST	ENDS
;	COMDAT __real@bff0000000000000
CONST	SEGMENT
__real@bff0000000000000 DQ 0bff0000000000000r	; -1
CONST	ENDS
;	COMDAT __real@bfc00000
CONST	SEGMENT
__real@bfc00000 DD 0bfc00000r			; -1.5
CONST	ENDS
;	COMDAT __real@42000000
CONST	SEGMENT
__real@42000000 DD 042000000r			; 32
CONST	ENDS
;	COMDAT __real@41800000
CONST	SEGMENT
__real@41800000 DD 041800000r			; 16
CONST	ENDS
;	COMDAT __real@41100000
CONST	SEGMENT
__real@41100000 DD 041100000r			; 9
CONST	ENDS
;	COMDAT __real@41000000
CONST	SEGMENT
__real@41000000 DD 041000000r			; 8
CONST	ENDS
;	COMDAT __real@40400000
CONST	SEGMENT
__real@40400000 DD 040400000r			; 3
CONST	ENDS
;	COMDAT __real@4030000000000000
CONST	SEGMENT
__real@4030000000000000 DQ 04030000000000000r	; 16
CONST	ENDS
;	COMDAT __real@4022000000000000
CONST	SEGMENT
__real@4022000000000000 DQ 04022000000000000r	; 9
CONST	ENDS
;	COMDAT __real@4000000000000000
CONST	SEGMENT
__real@4000000000000000 DQ 04000000000000000r	; 2
CONST	ENDS
;	COMDAT __real@3ff0000000000000
CONST	SEGMENT
__real@3ff0000000000000 DQ 03ff0000000000000r	; 1
CONST	ENDS
;	COMDAT __real@3f800000
CONST	SEGMENT
__real@3f800000 DD 03f800000r			; 1
CONST	ENDS
;	COMDAT rtc$TMZ
rtc$TMZ	SEGMENT
_RTC_Shutdown.rtc$TMZ DQ FLAT:_RTC_Shutdown
rtc$TMZ	ENDS
;	COMDAT rtc$IMZ
rtc$IMZ	SEGMENT
_RTC_InitBase.rtc$IMZ DQ FLAT:_RTC_InitBase
rtc$IMZ	ENDS
;	COMDAT ??_R2Scene@0Application@@8
rdata$r	SEGMENT
??_R2Scene@0Application@@8 DD imagerel ??_R1A@?0A@EA@Scene@0Application@@8 ; Application::Scene::Scene::`RTTI Base Class Array'
	ORG $+3
rdata$r	ENDS
;	COMDAT ??_R3Scene@0Application@@8
rdata$r	SEGMENT
??_R3Scene@0Application@@8 DD 00H			; Application::Scene::Scene::`RTTI Class Hierarchy Descriptor'
	DD	00H
	DD	01H
	DD	imagerel ??_R2Scene@0Application@@8
rdata$r	ENDS
;	COMDAT ??_R0?AVScene@0Application@@@8
data$r	SEGMENT
??_R0?AVScene@0Application@@@8 DQ FLAT:??_7type_info@@6B@ ; Application::Scene::Scene `RTTI Type Descriptor'
	DQ	0000000000000000H
	DB	'.?AVScene@0Application@@', 00H
data$r	ENDS
;	COMDAT ??_R1A@?0A@EA@Scene@0Application@@8
rdata$r	SEGMENT
??_R1A@?0A@EA@Scene@0Application@@8 DD imagerel ??_R0?AVScene@0Application@@@8 ; Application::Scene::Scene::`RTTI Base Class Descriptor at (0,-1,0,64)'
	DD	00H
	DD	00H
	DD	0ffffffffH
	DD	00H
	DD	040H
	DD	imagerel ??_R3Scene@0Application@@8
rdata$r	ENDS
;	COMDAT ??_R1A@?0A@EA@SandboxScene@Scene@Application@@8
rdata$r	SEGMENT
??_R1A@?0A@EA@SandboxScene@Scene@Application@@8 DD imagerel ??_R0?AVSandboxScene@Scene@Application@@@8 ; Application::Scene::SandboxScene::`RTTI Base Class Descriptor at (0,-1,0,64)'
	DD	01H
	DD	00H
	DD	0ffffffffH
	DD	00H
	DD	040H
	DD	imagerel ??_R3SandboxScene@Scene@Application@@8
rdata$r	ENDS
;	COMDAT ??_R2SandboxScene@Scene@Application@@8
rdata$r	SEGMENT
??_R2SandboxScene@Scene@Application@@8 DD imagerel ??_R1A@?0A@EA@SandboxScene@Scene@Application@@8 ; Application::Scene::SandboxScene::`RTTI Base Class Array'
	DD	imagerel ??_R1A@?0A@EA@Scene@0Application@@8
	ORG $+3
rdata$r	ENDS
;	COMDAT ??_R3SandboxScene@Scene@Application@@8
rdata$r	SEGMENT
??_R3SandboxScene@Scene@Application@@8 DD 00H		; Application::Scene::SandboxScene::`RTTI Class Hierarchy Descriptor'
	DD	00H
	DD	02H
	DD	imagerel ??_R2SandboxScene@Scene@Application@@8
rdata$r	ENDS
;	COMDAT ??_R0?AVSandboxScene@Scene@Application@@@8
data$r	SEGMENT
??_R0?AVSandboxScene@Scene@Application@@@8 DQ FLAT:??_7type_info@@6B@ ; Application::Scene::SandboxScene `RTTI Type Descriptor'
	DQ	0000000000000000H
	DB	'.?AVSandboxScene@Scene@Application@@', 00H
data$r	ENDS
;	COMDAT ??_R4SandboxScene@Scene@Application@@6B@
rdata$r	SEGMENT
??_R4SandboxScene@Scene@Application@@6B@ DD 01H		; Application::Scene::SandboxScene::`RTTI Complete Object Locator'
	DD	00H
	DD	00H
	DD	imagerel ??_R0?AVSandboxScene@Scene@Application@@@8
	DD	imagerel ??_R3SandboxScene@Scene@Application@@8
	DD	imagerel ??_R4SandboxScene@Scene@Application@@6B@
rdata$r	ENDS
;	COMDAT ??_C@_1EO@GFNCMDLA@?$AAs?$AAt?$AAd?$AA?3?$AA?3?$AA_?$AAA?$AAl?$AAl?$AAo?$AAc?$AAa?$AAt?$AAe?$AA_@
CONST	SEGMENT
??_C@_1EO@GFNCMDLA@?$AAs?$AAt?$AAd?$AA?3?$AA?3?$AA_?$AAA?$AAl?$AAl?$AAo?$AAc?$AAa?$AAt?$AAe?$AA_@ DB 's'
	DB	00H, 't', 00H, 'd', 00H, ':', 00H, ':', 00H, '_', 00H, 'A', 00H
	DB	'l', 00H, 'l', 00H, 'o', 00H, 'c', 00H, 'a', 00H, 't', 00H, 'e'
	DB	00H, '_', 00H, 'm', 00H, 'a', 00H, 'n', 00H, 'u', 00H, 'a', 00H
	DB	'l', 00H, 'l', 00H, 'y', 00H, '_', 00H, 'v', 00H, 'e', 00H, 'c'
	DB	00H, 't', 00H, 'o', 00H, 'r', 00H, '_', 00H, 'a', 00H, 'l', 00H
	DB	'i', 00H, 'g', 00H, 'n', 00H, 'e', 00H, 'd', 00H, 00H, 00H ; `string'
CONST	ENDS
;	COMDAT ??_C@_0BA@JFNIOLAK@string?5too?5long@
CONST	SEGMENT
??_C@_0BA@JFNIOLAK@string?5too?5long@ DB 'string too long', 00H ; `string'
CONST	ENDS
;	COMDAT ??_C@_1CG@KOFHLCJL@?$AAi?$AA?5?$AA?$DM?$AA?5?$AAt?$AAh?$AAi?$AAs?$AA?9?$AA?$DO?$AAl?$AAe?$AAn?$AAg?$AAt@
CONST	SEGMENT
??_C@_1CG@KOFHLCJL@?$AAi?$AA?5?$AA?$DM?$AA?5?$AAt?$AAh?$AAi?$AAs?$AA?9?$AA?$DO?$AAl?$AAe?$AAn?$AAg?$AAt@ DB 'i'
	DB	00H, ' ', 00H, '<', 00H, ' ', 00H, 't', 00H, 'h', 00H, 'i', 00H
	DB	's', 00H, '-', 00H, '>', 00H, 'l', 00H, 'e', 00H, 'n', 00H, 'g'
	DB	00H, 't', 00H, 'h', 00H, '(', 00H, ')', 00H, 00H, 00H ; `string'
CONST	ENDS
;	COMDAT ??_C@_1JI@BDACPION@?$AAl?$AA?3?$AA?2?$AAd?$AAe?$AAv?$AA?2?$AAf?$AAe?$AAa?$AAt?$AAh?$AAe?$AAr?$AAf@
CONST	SEGMENT
??_C@_1JI@BDACPION@?$AAl?$AA?3?$AA?2?$AAd?$AAe?$AAv?$AA?2?$AAf?$AAe?$AAa?$AAt?$AAh?$AAe?$AAr?$AAf@ DB 'l'
	DB	00H, ':', 00H, '\', 00H, 'd', 00H, 'e', 00H, 'v', 00H, '\', 00H
	DB	'f', 00H, 'e', 00H, 'a', 00H, 't', 00H, 'h', 00H, 'e', 00H, 'r'
	DB	00H, 'f', 00H, 'a', 00H, 'l', 00H, 'l', 00H, 'e', 00H, 'n', 00H
	DB	'g', 00H, 'i', 00H, 'n', 00H, 'e', 00H, '\', 00H, 'd', 00H, 'e'
	DB	00H, 'p', 00H, 'e', 00H, 'n', 00H, 'd', 00H, 's', 00H, '\', 00H
	DB	'i', 00H, 'n', 00H, 's', 00H, 't', 00H, 'a', 00H, 'l', 00H, 'l'
	DB	00H, '\', 00H, 'i', 00H, 'n', 00H, 'c', 00H, 'l', 00H, 'u', 00H
	DB	'd', 00H, 'e', 00H, '\', 00H, 'g', 00H, 'l', 00H, 'm', 00H, '\'
	DB	00H, 'd', 00H, 'e', 00H, 't', 00H, 'a', 00H, 'i', 00H, 'l', 00H
	DB	'\', 00H, 't', 00H, 'y', 00H, 'p', 00H, 'e', 00H, '_', 00H, 'm'
	DB	00H, 'a', 00H, 't', 00H, '4', 00H, 'x', 00H, '4', 00H, '.', 00H
	DB	'i', 00H, 'n', 00H, 'l', 00H, 00H, 00H	; `string'
CONST	ENDS
;	COMDAT ??_C@_1JE@JLGGFMIE@?$AAl?$AA?3?$AA?2?$AAd?$AAe?$AAv?$AA?2?$AAf?$AAe?$AAa?$AAt?$AAh?$AAe?$AAr?$AAf@
CONST	SEGMENT
??_C@_1JE@JLGGFMIE@?$AAl?$AA?3?$AA?2?$AAd?$AAe?$AAv?$AA?2?$AAf?$AAe?$AAa?$AAt?$AAh?$AAe?$AAr?$AAf@ DB 'l'
	DB	00H, ':', 00H, '\', 00H, 'd', 00H, 'e', 00H, 'v', 00H, '\', 00H
	DB	'f', 00H, 'e', 00H, 'a', 00H, 't', 00H, 'h', 00H, 'e', 00H, 'r'
	DB	00H, 'f', 00H, 'a', 00H, 'l', 00H, 'l', 00H, 'e', 00H, 'n', 00H
	DB	'g', 00H, 'i', 00H, 'n', 00H, 'e', 00H, '\', 00H, 'd', 00H, 'e'
	DB	00H, 'p', 00H, 'e', 00H, 'n', 00H, 'd', 00H, 's', 00H, '\', 00H
	DB	'i', 00H, 'n', 00H, 's', 00H, 't', 00H, 'a', 00H, 'l', 00H, 'l'
	DB	00H, '\', 00H, 'i', 00H, 'n', 00H, 'c', 00H, 'l', 00H, 'u', 00H
	DB	'd', 00H, 'e', 00H, '\', 00H, 'g', 00H, 'l', 00H, 'm', 00H, '\'
	DB	00H, 'd', 00H, 'e', 00H, 't', 00H, 'a', 00H, 'i', 00H, 'l', 00H
	DB	'\', 00H, 't', 00H, 'y', 00H, 'p', 00H, 'e', 00H, '_', 00H, 'v'
	DB	00H, 'e', 00H, 'c', 00H, '4', 00H, '.', 00H, 'i', 00H, 'n', 00H
	DB	'l', 00H, 00H, 00H				; `string'
CONST	ENDS
;	COMDAT ??_C@_1DK@BGNCJAPL@?$AAi?$AA?5?$AA?$DO?$AA?$DN?$AA?5?$AA0?$AA?5?$AA?$CG?$AA?$CG?$AA?5?$AAi?$AA?5?$AA?$DM?$AA?5?$AAt@
CONST	SEGMENT
??_C@_1DK@BGNCJAPL@?$AAi?$AA?5?$AA?$DO?$AA?$DN?$AA?5?$AA0?$AA?5?$AA?$CG?$AA?$CG?$AA?5?$AAi?$AA?5?$AA?$DM?$AA?5?$AAt@ DB 'i'
	DB	00H, ' ', 00H, '>', 00H, '=', 00H, ' ', 00H, '0', 00H, ' ', 00H
	DB	'&', 00H, '&', 00H, ' ', 00H, 'i', 00H, ' ', 00H, '<', 00H, ' '
	DB	00H, 't', 00H, 'h', 00H, 'i', 00H, 's', 00H, '-', 00H, '>', 00H
	DB	'l', 00H, 'e', 00H, 'n', 00H, 'g', 00H, 't', 00H, 'h', 00H, '('
	DB	00H, ')', 00H, 00H, 00H			; `string'
CONST	ENDS
;	COMDAT ??_C@_0BL@CKFJBINN@Light?5Position?3?5?$CF?41f?0?5?$CF?41f@
CONST	SEGMENT
??_C@_0BL@CKFJBINN@Light?5Position?3?5?$CF?41f?0?5?$CF?41f@ DB 'Light Pos'
	DB	'ition: %.1f, %.1f', 00H			; `string'
CONST	ENDS
;	COMDAT ??_C@_0BF@FEFAANEH@This?5is?5the?5Sandbox?$CB@
CONST	SEGMENT
??_C@_0BF@FEFAANEH@This?5is?5the?5Sandbox?$CB@ DB 'This is the Sandbox!', 00H ; `string'
CONST	ENDS
;	COMDAT ??_C@_09GCGFNBLA@playerPos@
CONST	SEGMENT
??_C@_09GCGFNBLA@playerPos@ DB 'playerPos', 00H		; `string'
CONST	ENDS
;	COMDAT ??_C@_08IMNAFLGG@prMatrix@
CONST	SEGMENT
??_C@_08IMNAFLGG@prMatrix@ DB 'prMatrix', 00H		; `string'
CONST	ENDS
;	COMDAT ??_C@_0BL@OOFMDA@res?1shaders?1Sandbox?4shader@
CONST	SEGMENT
??_C@_0BL@OOFMDA@res?1shaders?1Sandbox?4shader@ DB 'res/shaders/Sandbox.s'
	DB	'hader', 00H					; `string'
CONST	ENDS
;	COMDAT ??_7SandboxScene@Scene@Application@@6B@
CONST	SEGMENT
??_7SandboxScene@Scene@Application@@6B@ DQ FLAT:??_R4SandboxScene@Scene@Application@@6B@ ; Application::Scene::SandboxScene::`vftable'
	DQ	FLAT:??_ESandboxScene@Scene@Application@@UEAAPEAXI@Z
	DQ	FLAT:?OnUpdate@SandboxScene@Scene@Application@@UEAAXM@Z
	DQ	FLAT:?OnRender@SandboxScene@Scene@Application@@UEAAXXZ
	DQ	FLAT:?OnImGuiRender@SandboxScene@Scene@Application@@UEAAXXZ
CONST	ENDS
;	COMDAT ??_C@_1EK@NIFDJFDG@?$AAs?$AAt?$AAd?$AA?3?$AA?3?$AA_?$AAA?$AAd?$AAj?$AAu?$AAs?$AAt?$AA_?$AAm?$AAa@
CONST	SEGMENT
??_C@_1EK@NIFDJFDG@?$AAs?$AAt?$AAd?$AA?3?$AA?3?$AA_?$AAA?$AAd?$AAj?$AAu?$AAs?$AAt?$AA_?$AAm?$AAa@ DB 's'
	DB	00H, 't', 00H, 'd', 00H, ':', 00H, ':', 00H, '_', 00H, 'A', 00H
	DB	'd', 00H, 'j', 00H, 'u', 00H, 's', 00H, 't', 00H, '_', 00H, 'm'
	DB	00H, 'a', 00H, 'n', 00H, 'u', 00H, 'a', 00H, 'l', 00H, 'l', 00H
	DB	'y', 00H, '_', 00H, 'v', 00H, 'e', 00H, 'c', 00H, 't', 00H, 'o'
	DB	00H, 'r', 00H, '_', 00H, 'a', 00H, 'l', 00H, 'i', 00H, 'g', 00H
	DB	'n', 00H, 'e', 00H, 'd', 00H, 00H, 00H	; `string'
CONST	ENDS
;	COMDAT ??_C@_1NE@MCNNPIKO@?$AAc?$AA?3?$AA?2?$AAp?$AAr?$AAo?$AAg?$AAr?$AAa?$AAm?$AA?5?$AAf?$AAi?$AAl?$AAe@
CONST	SEGMENT
??_C@_1NE@MCNNPIKO@?$AAc?$AA?3?$AA?2?$AAp?$AAr?$AAo?$AAg?$AAr?$AAa?$AAm?$AA?5?$AAf?$AAi?$AAl?$AAe@ DB 'c'
	DB	00H, ':', 00H, '\', 00H, 'p', 00H, 'r', 00H, 'o', 00H, 'g', 00H
	DB	'r', 00H, 'a', 00H, 'm', 00H, ' ', 00H, 'f', 00H, 'i', 00H, 'l'
	DB	00H, 'e', 00H, 's', 00H, ' ', 00H, '(', 00H, 'x', 00H, '8', 00H
	DB	'6', 00H, ')', 00H, '\', 00H, 'm', 00H, 'i', 00H, 'c', 00H, 'r'
	DB	00H, 'o', 00H, 's', 00H, 'o', 00H, 'f', 00H, 't', 00H, ' ', 00H
	DB	'v', 00H, 'i', 00H, 's', 00H, 'u', 00H, 'a', 00H, 'l', 00H, ' '
	DB	00H, 's', 00H, 't', 00H, 'u', 00H, 'd', 00H, 'i', 00H, 'o', 00H
	DB	'\', 00H, '2', 00H, '0', 00H, '1', 00H, '7', 00H, '\', 00H, 'e'
	DB	00H, 'n', 00H, 't', 00H, 'e', 00H, 'r', 00H, 'p', 00H, 'r', 00H
	DB	'i', 00H, 's', 00H, 'e', 00H, '\', 00H, 'v', 00H, 'c', 00H, '\'
	DB	00H, 't', 00H, 'o', 00H, 'o', 00H, 'l', 00H, 's', 00H, '\', 00H
	DB	'm', 00H, 's', 00H, 'v', 00H, 'c', 00H, '\', 00H, '1', 00H, '4'
	DB	00H, '.', 00H, '1', 00H, '5', 00H, '.', 00H, '2', 00H, '6', 00H
	DB	'7', 00H, '2', 00H, '6', 00H, '\', 00H, 'i', 00H, 'n', 00H, 'c'
	DB	00H, 'l', 00H, 'u', 00H, 'd', 00H, 'e', 00H, '\', 00H, 'x', 00H
	DB	'm', 00H, 'e', 00H, 'm', 00H, 'o', 00H, 'r', 00H, 'y', 00H, '0'
	DB	00H, 00H, 00H				; `string'
CONST	ENDS
;	COMDAT ??_C@_0GK@FKLKIKPD@c?3?2program?5files?5?$CIx86?$CJ?2microsof@
CONST	SEGMENT
??_C@_0GK@FKLKIKPD@c?3?2program?5files?5?$CIx86?$CJ?2microsof@ DB 'c:\pro'
	DB	'gram files (x86)\microsoft visual studio\2017\enterprise\vc\t'
	DB	'ools\msvc\14.15.26726\include\xmemory0', 00H ; `string'
CONST	ENDS
;	COMDAT ?__LINE__Var@?0??_Adjust_manually_vector_aligned@std@@YAXAEAPEAXAEA_K@Z@4JA
_DATA	SEGMENT
?__LINE__Var@?0??_Adjust_manually_vector_aligned@std@@YAXAEAPEAXAEA_K@Z@4JA DD 072H ; `std::_Adjust_manually_vector_aligned'::`1'::__LINE__Var
_DATA	ENDS
;	COMDAT ??_C@_1CG@JNLFBNGN@?$AA?$CC?$AAi?$AAn?$AAv?$AAa?$AAl?$AAi?$AAd?$AA?5?$AAa?$AAr?$AAg?$AAu?$AAm?$AAe@
CONST	SEGMENT
??_C@_1CG@JNLFBNGN@?$AA?$CC?$AAi?$AAn?$AAv?$AAa?$AAl?$AAi?$AAd?$AA?5?$AAa?$AAr?$AAg?$AAu?$AAm?$AAe@ DB '"'
	DB	00H, 'i', 00H, 'n', 00H, 'v', 00H, 'a', 00H, 'l', 00H, 'i', 00H
	DB	'd', 00H, ' ', 00H, 'a', 00H, 'r', 00H, 'g', 00H, 'u', 00H, 'm'
	DB	00H, 'e', 00H, 'n', 00H, 't', 00H, '"', 00H, 00H, 00H ; `string'
CONST	ENDS
;	COMDAT ??_C@_02DKCKIIND@?$CFs@
CONST	SEGMENT
??_C@_02DKCKIIND@?$CFs@ DB '%s', 00H			; `string'
CONST	ENDS
;	COMDAT ??_C@_0BB@FCMFBGOM@invalid?5argument@
CONST	SEGMENT
??_C@_0BB@FCMFBGOM@invalid?5argument@ DB 'invalid argument', 00H ; `string'
CONST	ENDS
;	COMDAT xdata
xdata	SEGMENT
$unwind$??$?0HHHN@?$tvec4@N$0A@@glm@@QEAA@HHHN@Z DD 025031d01H
	DD	0b218231dH
	DD	05014H
xdata	ENDS
;	COMDAT xdata
xdata	SEGMENT
$unwind$??$?0HHNH@?$tvec4@N$0A@@glm@@QEAA@HHNH@Z DD 025031e01H
	DD	0b219231eH
	DD	05015H
xdata	ENDS
;	COMDAT xdata
xdata	SEGMENT
$unwind$??$?0HNHH@?$tvec4@N$0A@@glm@@QEAA@HNHH@Z DD 025031e01H
	DD	0b219231eH
	DD	05015H
xdata	ENDS
;	COMDAT xdata
xdata	SEGMENT
$unwind$??$?0NHHH@?$tvec4@N$0A@@glm@@QEAA@NHHH@Z DD 025031f01H
	DD	0b21a231fH
	DD	05016H
xdata	ENDS
;	COMDAT xdata
xdata	SEGMENT
$ip2state$??$forward@U_Container_proxy@std@@@std@@YA$$QEAU_Container_proxy@0@AEAU10@@Z DD imagerel ??$forward@U_Container_proxy@std@@@std@@YA$$QEAU_Container_proxy@0@AEAU10@@Z
	DD	0ffffffffH
xdata	ENDS
;	COMDAT CONST
CONST	SEGMENT
$cppxdata$??$forward@U_Container_proxy@std@@@std@@YA$$QEAU_Container_proxy@0@AEAU10@@Z DD 019930522H
	DD	00H
	DD	00H
	DD	00H
	DD	00H
	DD	01H
	DD	imagerel $ip2state$??$forward@U_Container_proxy@std@@@std@@YA$$QEAU_Container_proxy@0@AEAU10@@Z
	DD	060H
	DD	00H
	DD	05H
CONST	ENDS
;	COMDAT xdata
xdata	SEGMENT
$unwind$??$forward@U_Container_proxy@std@@@std@@YA$$QEAU_Container_proxy@0@AEAU10@@Z DD 025031719H
	DD	0d20a230fH
	DD	05006H
	DD	imagerel __CxxFrameHandler3
	DD	imagerel $cppxdata$??$forward@U_Container_proxy@std@@@std@@YA$$QEAU_Container_proxy@0@AEAU10@@Z
xdata	ENDS
;	COMDAT xdata
xdata	SEGMENT
$unwind$??$_Allocate_manually_vector_aligned@U_Default_allocate_traits@std@@@std@@YAPEAX_K@Z DD 035041201H
	DD	010d3312H
	DD	050060012H
xdata	ENDS
;	COMDAT xdata
xdata	SEGMENT
$ip2state$??$forward@AEBQEAD@std@@YAAEBQEADAEBQEAD@Z DD imagerel ??$forward@AEBQEAD@std@@YAAEBQEADAEBQEAD@Z
	DD	0ffffffffH
xdata	ENDS
;	COMDAT CONST
CONST	SEGMENT
$cppxdata$??$forward@AEBQEAD@std@@YAAEBQEADAEBQEAD@Z DD 019930522H
	DD	00H
	DD	00H
	DD	00H
	DD	00H
	DD	01H
	DD	imagerel $ip2state$??$forward@AEBQEAD@std@@YAAEBQEADAEBQEAD@Z
	DD	060H
	DD	00H
	DD	05H
CONST	ENDS
;	COMDAT xdata
xdata	SEGMENT
$unwind$??$forward@AEBQEAD@std@@YAAEBQEADAEBQEAD@Z DD 025031719H
	DD	0d20a230fH
	DD	05006H
	DD	imagerel __CxxFrameHandler3
	DD	imagerel $cppxdata$??$forward@AEBQEAD@std@@YAAEBQEADAEBQEAD@Z
xdata	ENDS
;	COMDAT xdata
xdata	SEGMENT
$unwind$??$?0N$0A@@?$tvec4@M$0A@@glm@@QEAA@AEBU?$tvec4@N$0A@@1@@Z DD 025031401H
	DD	0b20f2314H
	DD	0500bH
xdata	ENDS
;	COMDAT xdata
xdata	SEGMENT
$unwind$??$orthoRH@N@glm@@YA?AU?$tmat4x4@N$0A@@0@NNNNNN@Z DD 025063719H
	DD	01212326H
	DD	0701a0020H
	DD	050186019H
	DD	imagerel __GSHandlerCheck
	DD	0f0H
xdata	ENDS
;	COMDAT xdata
xdata	SEGMENT
$unwind$??$_Get_size_of_n@$0BA@@std@@YA_K_K@Z DD 025030f01H
	DD	0d20a230fH
	DD	05006H
xdata	ENDS
;	COMDAT xdata
xdata	SEGMENT
$ip2state$??$?0D@?$allocator@U_Container_proxy@std@@@std@@QEAA@AEBV?$allocator@D@1@@Z DD imagerel ??$?0D@?$allocator@U_Container_proxy@std@@@std@@QEAA@AEBV?$allocator@D@1@@Z
	DD	0ffffffffH
xdata	ENDS
;	COMDAT CONST
CONST	SEGMENT
$cppxdata$??$?0D@?$allocator@U_Container_proxy@std@@@std@@QEAA@AEBV?$allocator@D@1@@Z DD 019930522H
	DD	00H
	DD	00H
	DD	00H
	DD	00H
	DD	01H
	DD	imagerel $ip2state$??$?0D@?$allocator@U_Container_proxy@std@@@std@@QEAA@AEBV?$allocator@D@1@@Z
	DD	060H
	DD	00H
	DD	05H
CONST	ENDS
;	COMDAT xdata
xdata	SEGMENT
$unwind$??$?0D@?$allocator@U_Container_proxy@std@@@std@@QEAA@AEBV?$allocator@D@1@@Z DD 025031c19H
	DD	0d20f2314H
	DD	0500bH
	DD	imagerel __CxxFrameHandler3
	DD	imagerel $cppxdata$??$?0D@?$allocator@U_Container_proxy@std@@@std@@QEAA@AEBV?$allocator@D@1@@Z
xdata	ENDS
;	COMDAT xdata
xdata	SEGMENT
$unwind$??$construct@U_Container_proxy@std@@U12@@?$_Default_allocator_traits@V?$allocator@U_Container_proxy@std@@@std@@@std@@SAXAEAV?$allocator@U_Container_proxy@std@@@1@QEAU_Container_proxy@1@$$QEAU31@@Z DD 025051b01H
	DD	0d216231bH
	DD	060117012H
	DD	05010H
xdata	ENDS
;	COMDAT xdata
xdata	SEGMENT
$unwind$??$_Unfancy@U_Container_proxy@std@@@std@@YAPEAU_Container_proxy@0@PEAU10@@Z DD 025030f01H
	DD	0b20a230fH
	DD	05006H
xdata	ENDS
;	COMDAT xdata
xdata	SEGMENT
$unwind$??$_Deallocate_plain@V?$allocator@U_Container_proxy@std@@@std@@$0A@@std@@YAXAEAV?$allocator@U_Container_proxy@std@@@0@QEAU_Container_proxy@0@@Z DD 025031401H
	DD	0b20f2314H
	DD	0500bH
xdata	ENDS
;	COMDAT xdata
xdata	SEGMENT
$unwind$??$destroy@U_Container_proxy@std@@@?$_Default_allocator_traits@V?$allocator@U_Container_proxy@std@@@std@@@std@@SAXAEAV?$allocator@U_Container_proxy@std@@@1@QEAU_Container_proxy@1@@Z DD 025031401H
	DD	0b20f2314H
	DD	0500bH
xdata	ENDS
;	COMDAT xdata
xdata	SEGMENT
$unwind$?deallocate@?$_Default_allocator_traits@V?$allocator@U_Container_proxy@std@@@std@@@std@@SAXAEAV?$allocator@U_Container_proxy@std@@@2@QEAU_Container_proxy@2@_K@Z DD 025031901H
	DD	0b2142319H
	DD	05010H
xdata	ENDS
;	COMDAT xdata
xdata	SEGMENT
$unwind$?allocate@?$allocator@U_Container_proxy@std@@@std@@QEAAPEAU_Container_proxy@2@_K@Z DD 025031401H
	DD	0b20f2314H
	DD	0500bH
xdata	ENDS
;	COMDAT xdata
xdata	SEGMENT
$unwind$??$_Deallocate@$0BA@$0A@@std@@YAXPEAX_K@Z DD 025031401H
	DD	0b20f2314H
	DD	0500bH
xdata	ENDS
;	COMDAT xdata
xdata	SEGMENT
$unwind$??$_Allocate@$0BA@U_Default_allocate_traits@std@@$0A@@std@@YAPEAX_K@Z DD 025030f01H
	DD	0b20a230fH
	DD	05006H
xdata	ENDS
;	COMDAT xdata
xdata	SEGMENT
$ip2state$??$addressof@V?$_String_val@U?$_Simple_types@D@std@@@std@@@std@@YAPEAV?$_String_val@U?$_Simple_types@D@std@@@0@AEAV10@@Z DD imagerel ??$addressof@V?$_String_val@U?$_Simple_types@D@std@@@std@@@std@@YAPEAV?$_String_val@U?$_Simple_types@D@std@@@0@AEAV10@@Z
	DD	0ffffffffH
xdata	ENDS
;	COMDAT CONST
CONST	SEGMENT
$cppxdata$??$addressof@V?$_String_val@U?$_Simple_types@D@std@@@std@@@std@@YAPEAV?$_String_val@U?$_Simple_types@D@std@@@0@AEAV10@@Z DD 019930522H
	DD	00H
	DD	00H
	DD	00H
	DD	00H
	DD	01H
	DD	imagerel $ip2state$??$addressof@V?$_String_val@U?$_Simple_types@D@std@@@std@@@std@@YAPEAV?$_String_val@U?$_Simple_types@D@std@@@0@AEAV10@@Z
	DD	060H
	DD	00H
	DD	05H
CONST	ENDS
;	COMDAT xdata
xdata	SEGMENT
$unwind$??$addressof@V?$_String_val@U?$_Simple_types@D@std@@@std@@@std@@YAPEAV?$_String_val@U?$_Simple_types@D@std@@@0@AEAV10@@Z DD 025031719H
	DD	0d20a230fH
	DD	05006H
	DD	imagerel __CxxFrameHandler3
	DD	imagerel $cppxdata$??$addressof@V?$_String_val@U?$_Simple_types@D@std@@@std@@@std@@YAPEAV?$_String_val@U?$_Simple_types@D@std@@@0@AEAV10@@Z
xdata	ENDS
;	COMDAT xdata
xdata	SEGMENT
$unwind$??$construct@PEADAEBQEAD@?$_Default_allocator_traits@V?$allocator@D@std@@@std@@SAXAEAV?$allocator@D@1@QEAPEADAEBQEAD@Z DD 025031901H
	DD	0d2142319H
	DD	05010H
xdata	ENDS
;	COMDAT xdata
xdata	SEGMENT
$unwind$??$_Reallocate_for@V<lambda_66f57f934f28d61049862f64df852ff0>@@PEBD@?$basic_string@DU?$char_traits@D@std@@V?$allocator@D@2@@std@@QEAAAEAV01@_KV<lambda_66f57f934f28d61049862f64df852ff0>@@PEBD@Z DD 025042f19H
	DD	011c2321H
	DD	050150012H
	DD	imagerel __GSHandlerCheck
	DD	088H
xdata	ENDS
;	COMDAT xdata
xdata	SEGMENT
$unwind$??R<lambda_66f57f934f28d61049862f64df852ff0>@@QEBAXQEAD_KQEBD@Z DD 025031e01H
	DD	0d219231eH
	DD	05015H
xdata	ENDS
;	COMDAT xdata
xdata	SEGMENT
$ip2state$??$_Max_value@_K@std@@YAAEB_KAEB_K0@Z DD imagerel ??$_Max_value@_K@std@@YAAEB_KAEB_K0@Z
	DD	0ffffffffH
xdata	ENDS
;	COMDAT CONST
CONST	SEGMENT
$cppxdata$??$_Max_value@_K@std@@YAAEB_KAEB_K0@Z DD 019930522H
	DD	00H
	DD	00H
	DD	00H
	DD	00H
	DD	01H
	DD	imagerel $ip2state$??$_Max_value@_K@std@@YAAEB_KAEB_K0@Z
	DD	068H
	DD	00H
	DD	05H
CONST	ENDS
;	COMDAT xdata
xdata	SEGMENT
$unwind$??$_Max_value@_K@std@@YAAEB_KAEB_K0@Z DD 025031f19H
	DD	0f2122317H
	DD	0500bH
	DD	imagerel __CxxFrameHandler3
	DD	imagerel $cppxdata$??$_Max_value@_K@std@@YAAEB_KAEB_K0@Z
xdata	ENDS
;	COMDAT xdata
xdata	SEGMENT
$unwind$??$destroy@PEAD@?$_Default_allocator_traits@V?$allocator@D@std@@@std@@SAXAEAV?$allocator@D@1@QEAPEAD@Z DD 025031401H
	DD	0b20f2314H
	DD	0500bH
xdata	ENDS
;	COMDAT xdata
xdata	SEGMENT
$ip2state$??$addressof@PEAD@std@@YAPEAPEADAEAPEAD@Z DD imagerel ??$addressof@PEAD@std@@YAPEAPEADAEAPEAD@Z
	DD	0ffffffffH
xdata	ENDS
;	COMDAT CONST
CONST	SEGMENT
$cppxdata$??$addressof@PEAD@std@@YAPEAPEADAEAPEAD@Z DD 019930522H
	DD	00H
	DD	00H
	DD	00H
	DD	00H
	DD	01H
	DD	imagerel $ip2state$??$addressof@PEAD@std@@YAPEAPEADAEAPEAD@Z
	DD	060H
	DD	00H
	DD	05H
CONST	ENDS
;	COMDAT xdata
xdata	SEGMENT
$unwind$??$addressof@PEAD@std@@YAPEAPEADAEAPEAD@Z DD 025031719H
	DD	0d20a230fH
	DD	05006H
	DD	imagerel __CxxFrameHandler3
	DD	imagerel $cppxdata$??$addressof@PEAD@std@@YAPEAPEADAEAPEAD@Z
xdata	ENDS
;	COMDAT xdata
xdata	SEGMENT
$unwind$??$?0$$V@?$_Compressed_pair@V?$allocator@D@std@@V?$_String_val@U?$_Simple_types@D@std@@@2@$00@std@@QEAA@U_Zero_then_variadic_args_t@1@@Z DD 025031301H
	DD	0b20e2313H
	DD	0500aH
xdata	ENDS
;	COMDAT xdata
xdata	SEGMENT
$unwind$??$_Unfancy@D@std@@YAPEADPEAD@Z DD 025030f01H
	DD	0b20a230fH
	DD	05006H
xdata	ENDS
;	COMDAT xdata
xdata	SEGMENT
$unwind$??$?0M$0A@@?$tvec2@M$0A@@glm@@QEAA@AEBU?$tvec4@M$0A@@1@@Z DD 025031401H
	DD	0b20f2314H
	DD	0500bH
xdata	ENDS
;	COMDAT xdata
xdata	SEGMENT
$unwind$??$?0N$0A@@?$tmat4x4@M$0A@@glm@@QEAA@AEBU?$tmat4x4@N$0A@@1@@Z DD 025061901H
	DD	01142319H
	DD	0700d0014H
	DD	0500b600cH
xdata	ENDS
;	COMDAT xdata
xdata	SEGMENT
$unwind$??A?$tmat4x4@N$0A@@glm@@QEBAAEBU?$tvec4@N$0A@@1@H@Z DD 025031301H
	DD	0b20e2313H
	DD	0500aH
xdata	ENDS
;	COMDAT xdata
xdata	SEGMENT
$unwind$??A?$tmat4x4@N$0A@@glm@@QEAAAEAU?$tvec4@N$0A@@1@H@Z DD 025031301H
	DD	0b20e2313H
	DD	0500aH
xdata	ENDS
;	COMDAT xdata
xdata	SEGMENT
$unwind$?length@?$tmat4x4@N$0A@@glm@@SAHXZ DD 025030b01H
	DD	0b206230bH
	DD	05002H
xdata	ENDS
;	COMDAT xdata
xdata	SEGMENT
$unwind$??0?$tmat4x4@N$0A@@glm@@QEAA@AEBN@Z DD 035061901H
	DD	01143319H
	DD	0700d001eH
	DD	0500b600cH
xdata	ENDS
;	COMDAT xdata
xdata	SEGMENT
$unwind$??0?$tvec4@N$0A@@glm@@QEAA@XZ DD 025030f01H
	DD	0b20a230fH
	DD	05006H
xdata	ENDS
;	COMDAT xdata
xdata	SEGMENT
$unwind$??A?$tvec4@N$0A@@glm@@QEAAAEANH@Z DD 025031301H
	DD	0b20e2313H
	DD	0500aH
xdata	ENDS
;	COMDAT xdata
xdata	SEGMENT
$unwind$?length@?$tvec4@N$0A@@glm@@SAHXZ DD 025030b01H
	DD	0b206230bH
	DD	05002H
xdata	ENDS
;	COMDAT xdata
xdata	SEGMENT
$unwind$??$ortho@N@glm@@YA?AU?$tmat4x4@N$0A@@0@NNNNNN@Z DD 045032401H
	DD	0f21f4324H
	DD	05018H
xdata	ENDS
;	COMDAT xdata
xdata	SEGMENT
$unwind$??_GSandboxScene@Scene@Application@@UEAAPEAXI@Z DD 025031301H
	DD	0b20e2313H
	DD	0500aH
xdata	ENDS
;	COMDAT xdata
xdata	SEGMENT
$unwind$?OnImGuiRender@SandboxScene@Scene@Application@@UEAAXXZ DD 025030f01H
	DD	0b20a230fH
	DD	05006H
xdata	ENDS
;	COMDAT xdata
xdata	SEGMENT
$unwind$?OnRender@SandboxScene@Scene@Application@@UEAAXXZ DD 025030f01H
	DD	0d20a230fH
	DD	05006H
xdata	ENDS
;	COMDAT xdata
xdata	SEGMENT
$unwind$?OnUpdate@SandboxScene@Scene@Application@@UEAAXM@Z DD 025042619H
	DD	01132318H
	DD	0500c0012H
	DD	imagerel __GSHandlerCheck
	DD	088H
xdata	ENDS
;	COMDAT xdata
xdata	SEGMENT
$ip2state$??1SandboxScene@Scene@Application@@UEAA@XZ DD imagerel ??1SandboxScene@Scene@Application@@UEAA@XZ
	DD	0ffffffffH
xdata	ENDS
;	COMDAT CONST
CONST	SEGMENT
$cppxdata$??1SandboxScene@Scene@Application@@UEAA@XZ DD 019930522H
	DD	00H
	DD	00H
	DD	00H
	DD	00H
	DD	01H
	DD	imagerel $ip2state$??1SandboxScene@Scene@Application@@UEAA@XZ
	DD	060H
	DD	00H
	DD	05H
CONST	ENDS
;	COMDAT xdata
xdata	SEGMENT
$unwind$??1SandboxScene@Scene@Application@@UEAA@XZ DD 025031719H
	DD	0d20a230fH
	DD	05006H
	DD	imagerel __CxxFrameHandler3
	DD	imagerel $cppxdata$??1SandboxScene@Scene@Application@@UEAA@XZ
xdata	ENDS
;	COMDAT xdata
xdata	SEGMENT
$unwind$?dtor$5@?0???0SandboxScene@Scene@Application@@QEAA@XZ@4HA DD 020601H
	DD	050023206H
xdata	ENDS
;	COMDAT xdata
xdata	SEGMENT
$unwind$?dtor$4@?0???0SandboxScene@Scene@Application@@QEAA@XZ@4HA DD 020601H
	DD	050023206H
xdata	ENDS
;	COMDAT xdata
xdata	SEGMENT
$unwind$?dtor$3@?0???0SandboxScene@Scene@Application@@QEAA@XZ@4HA DD 020601H
	DD	050023206H
xdata	ENDS
;	COMDAT xdata
xdata	SEGMENT
$unwind$?dtor$2@?0???0SandboxScene@Scene@Application@@QEAA@XZ@4HA DD 020601H
	DD	050023206H
xdata	ENDS
;	COMDAT xdata
xdata	SEGMENT
$unwind$?dtor$1@?0???0SandboxScene@Scene@Application@@QEAA@XZ@4HA DD 020601H
	DD	050023206H
xdata	ENDS
;	COMDAT xdata
xdata	SEGMENT
$unwind$?dtor$0@?0???0SandboxScene@Scene@Application@@QEAA@XZ@4HA DD 020601H
	DD	050023206H
xdata	ENDS
;	COMDAT xdata
xdata	SEGMENT
$ip2state$??0SandboxScene@Scene@Application@@QEAA@XZ DD imagerel ??0SandboxScene@Scene@Application@@QEAA@XZ
	DD	0ffffffffH
	DD	imagerel ??0SandboxScene@Scene@Application@@QEAA@XZ+54
	DD	00H
	DD	imagerel ??0SandboxScene@Scene@Application@@QEAA@XZ+173
	DD	01H
	DD	imagerel ??0SandboxScene@Scene@Application@@QEAA@XZ+270
	DD	02H
	DD	imagerel ??0SandboxScene@Scene@Application@@QEAA@XZ+290
	DD	03H
	DD	imagerel ??0SandboxScene@Scene@Application@@QEAA@XZ+307
	DD	04H
	DD	imagerel ??0SandboxScene@Scene@Application@@QEAA@XZ+333
	DD	06H
	DD	imagerel ??0SandboxScene@Scene@Application@@QEAA@XZ+527
	DD	0ffffffffH
xdata	ENDS
;	COMDAT xdata
xdata	SEGMENT
$stateUnwindMap$??0SandboxScene@Scene@Application@@QEAA@XZ DD 0ffffffffH
	DD	imagerel ?dtor$0@?0???0SandboxScene@Scene@Application@@QEAA@XZ@4HA
	DD	00H
	DD	imagerel ?dtor$1@?0???0SandboxScene@Scene@Application@@QEAA@XZ@4HA
	DD	01H
	DD	imagerel ?dtor$2@?0???0SandboxScene@Scene@Application@@QEAA@XZ@4HA
	DD	02H
	DD	imagerel ?dtor$3@?0???0SandboxScene@Scene@Application@@QEAA@XZ@4HA
	DD	03H
	DD	imagerel ?dtor$4@?0???0SandboxScene@Scene@Application@@QEAA@XZ@4HA
	DD	04H
	DD	imagerel ?dtor$5@?0???0SandboxScene@Scene@Application@@QEAA@XZ@4HA
	DD	03H
	DD	imagerel ?dtor$5@?0???0SandboxScene@Scene@Application@@QEAA@XZ@4HA
xdata	ENDS
;	COMDAT CONST
CONST	SEGMENT
$cppxdata$??0SandboxScene@Scene@Application@@QEAA@XZ DD 019930522H
	DD	07H
	DD	imagerel $stateUnwindMap$??0SandboxScene@Scene@Application@@QEAA@XZ
	DD	00H
	DD	00H
	DD	08H
	DD	imagerel $ip2state$??0SandboxScene@Scene@Application@@QEAA@XZ
	DD	0150H
	DD	00H
	DD	01H
CONST	ENDS
;	COMDAT xdata
xdata	SEGMENT
$unwind$??0SandboxScene@Scene@Application@@QEAA@XZ DD 045041d11H
	DD	010d4312H
	DD	05006002cH
	DD	imagerel __CxxFrameHandler3
	DD	imagerel $cppxdata$??0SandboxScene@Scene@Application@@QEAA@XZ
xdata	ENDS
;	COMDAT xdata
xdata	SEGMENT
$unwind$??1Sprite@graphics@core@@UEAA@XZ DD 025030f01H
	DD	0b20a230fH
	DD	05006H
xdata	ENDS
;	COMDAT xdata
xdata	SEGMENT
$unwind$?_Xlen@?$basic_string@DU?$char_traits@D@std@@V?$allocator@D@2@@std@@SAXXZ DD 025030b01H
	DD	0b206230bH
	DD	05002H
xdata	ENDS
;	COMDAT xdata
xdata	SEGMENT
$unwind$?_Tidy_deallocate@?$basic_string@DU?$char_traits@D@std@@V?$allocator@D@2@@std@@QEAAXXZ DD 025031201H
	DD	0f20d2312H
	DD	05006H
xdata	ENDS
;	COMDAT xdata
xdata	SEGMENT
$unwind$?_Tidy_init@?$basic_string@DU?$char_traits@D@std@@V?$allocator@D@2@@std@@QEAAXXZ DD 025030f01H
	DD	0d20a230fH
	DD	05006H
xdata	ENDS
;	COMDAT xdata
xdata	SEGMENT
$unwind$?_Calculate_growth@?$basic_string@DU?$char_traits@D@std@@V?$allocator@D@2@@std@@QEBA_K_K@Z DD 025042519H
	DD	01122317H
	DD	0500b0012H
	DD	imagerel __GSHandlerCheck
	DD	088H
xdata	ENDS
;	COMDAT xdata
xdata	SEGMENT
$ip2state$?max_size@?$basic_string@DU?$char_traits@D@std@@V?$allocator@D@2@@std@@QEBA_KXZ DD imagerel ?max_size@?$basic_string@DU?$char_traits@D@std@@V?$allocator@D@2@@std@@QEBA_KXZ
	DD	0ffffffffH
xdata	ENDS
;	COMDAT CONST
CONST	SEGMENT
$cppxdata$?max_size@?$basic_string@DU?$char_traits@D@std@@V?$allocator@D@2@@std@@QEBA_KXZ DD 019930522H
	DD	00H
	DD	00H
	DD	00H
	DD	00H
	DD	01H
	DD	imagerel $ip2state$?max_size@?$basic_string@DU?$char_traits@D@std@@V?$allocator@D@2@@std@@QEBA_KXZ
	DD	088H
	DD	00H
	DD	05H
CONST	ENDS
;	COMDAT xdata
xdata	SEGMENT
$unwind$?max_size@?$basic_string@DU?$char_traits@D@std@@V?$allocator@D@2@@std@@QEBA_KXZ DD 025042819H
	DD	010d2312H
	DD	050060014H
	DD	imagerel __GSHandlerCheck_EH
	DD	imagerel $cppxdata$?max_size@?$basic_string@DU?$char_traits@D@std@@V?$allocator@D@2@@std@@QEBA_KXZ
	DD	093H
xdata	ENDS
;	COMDAT xdata
xdata	SEGMENT
$unwind$?assign@?$basic_string@DU?$char_traits@D@std@@V?$allocator@D@2@@std@@QEAAAEAV12@QEBD@Z DD 025031401H
	DD	0b20f2314H
	DD	0500bH
xdata	ENDS
;	COMDAT xdata
xdata	SEGMENT
$unwind$?assign@?$basic_string@DU?$char_traits@D@std@@V?$allocator@D@2@@std@@QEAAAEAV12@QEBD_K@Z DD 025051d01H
	DD	0118231dH
	DD	070110011H
	DD	05010H
xdata	ENDS
;	COMDAT xdata
xdata	SEGMENT
$ip2state$??1?$basic_string@DU?$char_traits@D@std@@V?$allocator@D@2@@std@@QEAA@XZ DD imagerel ??1?$basic_string@DU?$char_traits@D@std@@V?$allocator@D@2@@std@@QEAA@XZ
	DD	0ffffffffH
xdata	ENDS
;	COMDAT CONST
CONST	SEGMENT
$cppxdata$??1?$basic_string@DU?$char_traits@D@std@@V?$allocator@D@2@@std@@QEAA@XZ DD 019930522H
	DD	00H
	DD	00H
	DD	00H
	DD	00H
	DD	01H
	DD	imagerel $ip2state$??1?$basic_string@DU?$char_traits@D@std@@V?$allocator@D@2@@std@@QEAA@XZ
	DD	060H
	DD	00H
	DD	05H
CONST	ENDS
;	COMDAT xdata
xdata	SEGMENT
$unwind$??1?$basic_string@DU?$char_traits@D@std@@V?$allocator@D@2@@std@@QEAA@XZ DD 025031719H
	DD	0d20a230fH
	DD	05006H
	DD	imagerel __CxxFrameHandler3
	DD	imagerel $cppxdata$??1?$basic_string@DU?$char_traits@D@std@@V?$allocator@D@2@@std@@QEAA@XZ
xdata	ENDS
;	COMDAT xdata
xdata	SEGMENT
$unwind$?dtor$0@?0???0?$basic_string@DU?$char_traits@D@std@@V?$allocator@D@2@@std@@QEAA@QEBD@Z@4HA DD 020601H
	DD	050023206H
xdata	ENDS
;	COMDAT xdata
xdata	SEGMENT
$ip2state$??0?$basic_string@DU?$char_traits@D@std@@V?$allocator@D@2@@std@@QEAA@QEBD@Z DD imagerel ??0?$basic_string@DU?$char_traits@D@std@@V?$allocator@D@2@@std@@QEAA@QEBD@Z
	DD	0ffffffffH
	DD	imagerel ??0?$basic_string@DU?$char_traits@D@std@@V?$allocator@D@2@@std@@QEAA@QEBD@Z+50
	DD	00H
	DD	imagerel ??0?$basic_string@DU?$char_traits@D@std@@V?$allocator@D@2@@std@@QEAA@QEBD@Z+73
	DD	0ffffffffH
xdata	ENDS
;	COMDAT xdata
xdata	SEGMENT
$stateUnwindMap$??0?$basic_string@DU?$char_traits@D@std@@V?$allocator@D@2@@std@@QEAA@QEBD@Z DD 0ffffffffH
	DD	imagerel ?dtor$0@?0???0?$basic_string@DU?$char_traits@D@std@@V?$allocator@D@2@@std@@QEAA@QEBD@Z@4HA
xdata	ENDS
;	COMDAT CONST
CONST	SEGMENT
$cppxdata$??0?$basic_string@DU?$char_traits@D@std@@V?$allocator@D@2@@std@@QEAA@QEBD@Z DD 019930522H
	DD	01H
	DD	imagerel $stateUnwindMap$??0?$basic_string@DU?$char_traits@D@std@@V?$allocator@D@2@@std@@QEAA@QEBD@Z
	DD	00H
	DD	00H
	DD	03H
	DD	imagerel $ip2state$??0?$basic_string@DU?$char_traits@D@std@@V?$allocator@D@2@@std@@QEAA@QEBD@Z
	DD	060H
	DD	00H
	DD	01H
CONST	ENDS
;	COMDAT xdata
xdata	SEGMENT
$unwind$??0?$basic_string@DU?$char_traits@D@std@@V?$allocator@D@2@@std@@QEAA@QEBD@Z DD 025031c11H
	DD	0d20f2314H
	DD	0500bH
	DD	imagerel __CxxFrameHandler3
	DD	imagerel $cppxdata$??0?$basic_string@DU?$char_traits@D@std@@V?$allocator@D@2@@std@@QEAA@QEBD@Z
xdata	ENDS
;	COMDAT xdata
xdata	SEGMENT
$unwind$??1?$_Compressed_pair@V?$allocator@D@std@@V?$_String_val@U?$_Simple_types@D@std@@@2@$00@std@@QEAA@XZ DD 025030f01H
	DD	0b20a230fH
	DD	05006H
xdata	ENDS
;	COMDAT xdata
xdata	SEGMENT
$ip2state$?_Get_second@?$_Compressed_pair@V?$allocator@D@std@@V?$_String_val@U?$_Simple_types@D@std@@@2@$00@std@@QEBAAEBV?$_String_val@U?$_Simple_types@D@std@@@2@XZ DD imagerel ?_Get_second@?$_Compressed_pair@V?$allocator@D@std@@V?$_String_val@U?$_Simple_types@D@std@@@2@$00@std@@QEBAAEBV?$_String_val@U?$_Simple_types@D@std@@@2@XZ
	DD	0ffffffffH
xdata	ENDS
;	COMDAT CONST
CONST	SEGMENT
$cppxdata$?_Get_second@?$_Compressed_pair@V?$allocator@D@std@@V?$_String_val@U?$_Simple_types@D@std@@@2@$00@std@@QEBAAEBV?$_String_val@U?$_Simple_types@D@std@@@2@XZ DD 019930522H
	DD	00H
	DD	00H
	DD	00H
	DD	00H
	DD	01H
	DD	imagerel $ip2state$?_Get_second@?$_Compressed_pair@V?$allocator@D@std@@V?$_String_val@U?$_Simple_types@D@std@@@2@$00@std@@QEBAAEBV?$_String_val@U?$_Simple_types@D@std@@@2@XZ
	DD	060H
	DD	00H
	DD	05H
CONST	ENDS
;	COMDAT xdata
xdata	SEGMENT
$unwind$?_Get_second@?$_Compressed_pair@V?$allocator@D@std@@V?$_String_val@U?$_Simple_types@D@std@@@2@$00@std@@QEBAAEBV?$_String_val@U?$_Simple_types@D@std@@@2@XZ DD 025031719H
	DD	0d20a230fH
	DD	05006H
	DD	imagerel __CxxFrameHandler3
	DD	imagerel $cppxdata$?_Get_second@?$_Compressed_pair@V?$allocator@D@std@@V?$_String_val@U?$_Simple_types@D@std@@@2@$00@std@@QEBAAEBV?$_String_val@U?$_Simple_types@D@std@@@2@XZ
xdata	ENDS
;	COMDAT xdata
xdata	SEGMENT
$ip2state$?_Get_second@?$_Compressed_pair@V?$allocator@D@std@@V?$_String_val@U?$_Simple_types@D@std@@@2@$00@std@@QEAAAEAV?$_String_val@U?$_Simple_types@D@std@@@2@XZ DD imagerel ?_Get_second@?$_Compressed_pair@V?$allocator@D@std@@V?$_String_val@U?$_Simple_types@D@std@@@2@$00@std@@QEAAAEAV?$_String_val@U?$_Simple_types@D@std@@@2@XZ
	DD	0ffffffffH
xdata	ENDS
;	COMDAT CONST
CONST	SEGMENT
$cppxdata$?_Get_second@?$_Compressed_pair@V?$allocator@D@std@@V?$_String_val@U?$_Simple_types@D@std@@@2@$00@std@@QEAAAEAV?$_String_val@U?$_Simple_types@D@std@@@2@XZ DD 019930522H
	DD	00H
	DD	00H
	DD	00H
	DD	00H
	DD	01H
	DD	imagerel $ip2state$?_Get_second@?$_Compressed_pair@V?$allocator@D@std@@V?$_String_val@U?$_Simple_types@D@std@@@2@$00@std@@QEAAAEAV?$_String_val@U?$_Simple_types@D@std@@@2@XZ
	DD	060H
	DD	00H
	DD	05H
CONST	ENDS
;	COMDAT xdata
xdata	SEGMENT
$unwind$?_Get_second@?$_Compressed_pair@V?$allocator@D@std@@V?$_String_val@U?$_Simple_types@D@std@@@2@$00@std@@QEAAAEAV?$_String_val@U?$_Simple_types@D@std@@@2@XZ DD 025031719H
	DD	0d20a230fH
	DD	05006H
	DD	imagerel __CxxFrameHandler3
	DD	imagerel $cppxdata$?_Get_second@?$_Compressed_pair@V?$allocator@D@std@@V?$_String_val@U?$_Simple_types@D@std@@@2@$00@std@@QEAAAEAV?$_String_val@U?$_Simple_types@D@std@@@2@XZ
xdata	ENDS
;	COMDAT xdata
xdata	SEGMENT
$ip2state$?_Get_first@?$_Compressed_pair@V?$allocator@D@std@@V?$_String_val@U?$_Simple_types@D@std@@@2@$00@std@@QEBAAEBV?$allocator@D@2@XZ DD imagerel ?_Get_first@?$_Compressed_pair@V?$allocator@D@std@@V?$_String_val@U?$_Simple_types@D@std@@@2@$00@std@@QEBAAEBV?$allocator@D@2@XZ
	DD	0ffffffffH
xdata	ENDS
;	COMDAT CONST
CONST	SEGMENT
$cppxdata$?_Get_first@?$_Compressed_pair@V?$allocator@D@std@@V?$_String_val@U?$_Simple_types@D@std@@@2@$00@std@@QEBAAEBV?$allocator@D@2@XZ DD 019930522H
	DD	00H
	DD	00H
	DD	00H
	DD	00H
	DD	01H
	DD	imagerel $ip2state$?_Get_first@?$_Compressed_pair@V?$allocator@D@std@@V?$_String_val@U?$_Simple_types@D@std@@@2@$00@std@@QEBAAEBV?$allocator@D@2@XZ
	DD	060H
	DD	00H
	DD	05H
CONST	ENDS
;	COMDAT xdata
xdata	SEGMENT
$unwind$?_Get_first@?$_Compressed_pair@V?$allocator@D@std@@V?$_String_val@U?$_Simple_types@D@std@@@2@$00@std@@QEBAAEBV?$allocator@D@2@XZ DD 025031719H
	DD	0d20a230fH
	DD	05006H
	DD	imagerel __CxxFrameHandler3
	DD	imagerel $cppxdata$?_Get_first@?$_Compressed_pair@V?$allocator@D@std@@V?$_String_val@U?$_Simple_types@D@std@@@2@$00@std@@QEBAAEBV?$allocator@D@2@XZ
xdata	ENDS
;	COMDAT xdata
xdata	SEGMENT
$ip2state$?_Get_first@?$_Compressed_pair@V?$allocator@D@std@@V?$_String_val@U?$_Simple_types@D@std@@@2@$00@std@@QEAAAEAV?$allocator@D@2@XZ DD imagerel ?_Get_first@?$_Compressed_pair@V?$allocator@D@std@@V?$_String_val@U?$_Simple_types@D@std@@@2@$00@std@@QEAAAEAV?$allocator@D@2@XZ
	DD	0ffffffffH
xdata	ENDS
;	COMDAT CONST
CONST	SEGMENT
$cppxdata$?_Get_first@?$_Compressed_pair@V?$allocator@D@std@@V?$_String_val@U?$_Simple_types@D@std@@@2@$00@std@@QEAAAEAV?$allocator@D@2@XZ DD 019930522H
	DD	00H
	DD	00H
	DD	00H
	DD	00H
	DD	01H
	DD	imagerel $ip2state$?_Get_first@?$_Compressed_pair@V?$allocator@D@std@@V?$_String_val@U?$_Simple_types@D@std@@@2@$00@std@@QEAAAEAV?$allocator@D@2@XZ
	DD	060H
	DD	00H
	DD	05H
CONST	ENDS
;	COMDAT xdata
xdata	SEGMENT
$unwind$?_Get_first@?$_Compressed_pair@V?$allocator@D@std@@V?$_String_val@U?$_Simple_types@D@std@@@2@$00@std@@QEAAAEAV?$allocator@D@2@XZ DD 025031719H
	DD	0d20a230fH
	DD	05006H
	DD	imagerel __CxxFrameHandler3
	DD	imagerel $cppxdata$?_Get_first@?$_Compressed_pair@V?$allocator@D@std@@V?$_String_val@U?$_Simple_types@D@std@@@2@$00@std@@QEAAAEAV?$allocator@D@2@XZ
xdata	ENDS
;	COMDAT xdata
xdata	SEGMENT
$ip2state$?_Get_data@?$_String_alloc@U?$_String_base_types@DV?$allocator@D@std@@@std@@@std@@QEBAAEBV?$_String_val@U?$_Simple_types@D@std@@@2@XZ DD imagerel ?_Get_data@?$_String_alloc@U?$_String_base_types@DV?$allocator@D@std@@@std@@@std@@QEBAAEBV?$_String_val@U?$_Simple_types@D@std@@@2@XZ
	DD	0ffffffffH
xdata	ENDS
;	COMDAT CONST
CONST	SEGMENT
$cppxdata$?_Get_data@?$_String_alloc@U?$_String_base_types@DV?$allocator@D@std@@@std@@@std@@QEBAAEBV?$_String_val@U?$_Simple_types@D@std@@@2@XZ DD 019930522H
	DD	00H
	DD	00H
	DD	00H
	DD	00H
	DD	01H
	DD	imagerel $ip2state$?_Get_data@?$_String_alloc@U?$_String_base_types@DV?$allocator@D@std@@@std@@@std@@QEBAAEBV?$_String_val@U?$_Simple_types@D@std@@@2@XZ
	DD	060H
	DD	00H
	DD	05H
CONST	ENDS
;	COMDAT xdata
xdata	SEGMENT
$unwind$?_Get_data@?$_String_alloc@U?$_String_base_types@DV?$allocator@D@std@@@std@@@std@@QEBAAEBV?$_String_val@U?$_Simple_types@D@std@@@2@XZ DD 025031719H
	DD	0d20a230fH
	DD	05006H
	DD	imagerel __CxxFrameHandler3
	DD	imagerel $cppxdata$?_Get_data@?$_String_alloc@U?$_String_base_types@DV?$allocator@D@std@@@std@@@std@@QEBAAEBV?$_String_val@U?$_Simple_types@D@std@@@2@XZ
xdata	ENDS
;	COMDAT xdata
xdata	SEGMENT
$ip2state$?_Get_data@?$_String_alloc@U?$_String_base_types@DV?$allocator@D@std@@@std@@@std@@QEAAAEAV?$_String_val@U?$_Simple_types@D@std@@@2@XZ DD imagerel ?_Get_data@?$_String_alloc@U?$_String_base_types@DV?$allocator@D@std@@@std@@@std@@QEAAAEAV?$_String_val@U?$_Simple_types@D@std@@@2@XZ
	DD	0ffffffffH
xdata	ENDS
;	COMDAT CONST
CONST	SEGMENT
$cppxdata$?_Get_data@?$_String_alloc@U?$_String_base_types@DV?$allocator@D@std@@@std@@@std@@QEAAAEAV?$_String_val@U?$_Simple_types@D@std@@@2@XZ DD 019930522H
	DD	00H
	DD	00H
	DD	00H
	DD	00H
	DD	01H
	DD	imagerel $ip2state$?_Get_data@?$_String_alloc@U?$_String_base_types@DV?$allocator@D@std@@@std@@@std@@QEAAAEAV?$_String_val@U?$_Simple_types@D@std@@@2@XZ
	DD	060H
	DD	00H
	DD	05H
CONST	ENDS
;	COMDAT xdata
xdata	SEGMENT
$unwind$?_Get_data@?$_String_alloc@U?$_String_base_types@DV?$allocator@D@std@@@std@@@std@@QEAAAEAV?$_String_val@U?$_Simple_types@D@std@@@2@XZ DD 025031719H
	DD	0d20a230fH
	DD	05006H
	DD	imagerel __CxxFrameHandler3
	DD	imagerel $cppxdata$?_Get_data@?$_String_alloc@U?$_String_base_types@DV?$allocator@D@std@@@std@@@std@@QEAAAEAV?$_String_val@U?$_Simple_types@D@std@@@2@XZ
xdata	ENDS
;	COMDAT xdata
xdata	SEGMENT
$ip2state$?_Getal@?$_String_alloc@U?$_String_base_types@DV?$allocator@D@std@@@std@@@std@@QEBAAEBV?$allocator@D@2@XZ DD imagerel ?_Getal@?$_String_alloc@U?$_String_base_types@DV?$allocator@D@std@@@std@@@std@@QEBAAEBV?$allocator@D@2@XZ
	DD	0ffffffffH
xdata	ENDS
;	COMDAT CONST
CONST	SEGMENT
$cppxdata$?_Getal@?$_String_alloc@U?$_String_base_types@DV?$allocator@D@std@@@std@@@std@@QEBAAEBV?$allocator@D@2@XZ DD 019930522H
	DD	00H
	DD	00H
	DD	00H
	DD	00H
	DD	01H
	DD	imagerel $ip2state$?_Getal@?$_String_alloc@U?$_String_base_types@DV?$allocator@D@std@@@std@@@std@@QEBAAEBV?$allocator@D@2@XZ
	DD	060H
	DD	00H
	DD	05H
CONST	ENDS
;	COMDAT xdata
xdata	SEGMENT
$unwind$?_Getal@?$_String_alloc@U?$_String_base_types@DV?$allocator@D@std@@@std@@@std@@QEBAAEBV?$allocator@D@2@XZ DD 025031719H
	DD	0d20a230fH
	DD	05006H
	DD	imagerel __CxxFrameHandler3
	DD	imagerel $cppxdata$?_Getal@?$_String_alloc@U?$_String_base_types@DV?$allocator@D@std@@@std@@@std@@QEBAAEBV?$allocator@D@2@XZ
xdata	ENDS
;	COMDAT xdata
xdata	SEGMENT
$ip2state$?_Getal@?$_String_alloc@U?$_String_base_types@DV?$allocator@D@std@@@std@@@std@@QEAAAEAV?$allocator@D@2@XZ DD imagerel ?_Getal@?$_String_alloc@U?$_String_base_types@DV?$allocator@D@std@@@std@@@std@@QEAAAEAV?$allocator@D@2@XZ
	DD	0ffffffffH
xdata	ENDS
;	COMDAT CONST
CONST	SEGMENT
$cppxdata$?_Getal@?$_String_alloc@U?$_String_base_types@DV?$allocator@D@std@@@std@@@std@@QEAAAEAV?$allocator@D@2@XZ DD 019930522H
	DD	00H
	DD	00H
	DD	00H
	DD	00H
	DD	01H
	DD	imagerel $ip2state$?_Getal@?$_String_alloc@U?$_String_base_types@DV?$allocator@D@std@@@std@@@std@@QEAAAEAV?$allocator@D@2@XZ
	DD	060H
	DD	00H
	DD	05H
CONST	ENDS
;	COMDAT xdata
xdata	SEGMENT
$unwind$?_Getal@?$_String_alloc@U?$_String_base_types@DV?$allocator@D@std@@@std@@@std@@QEAAAEAV?$allocator@D@2@XZ DD 025031719H
	DD	0d20a230fH
	DD	05006H
	DD	imagerel __CxxFrameHandler3
	DD	imagerel $cppxdata$?_Getal@?$_String_alloc@U?$_String_base_types@DV?$allocator@D@std@@@std@@@std@@QEAAAEAV?$allocator@D@2@XZ
xdata	ENDS
;	COMDAT xdata
xdata	SEGMENT
$unwind$?_Orphan_all@?$_String_alloc@U?$_String_base_types@DV?$allocator@D@std@@@std@@@std@@QEAAXXZ DD 025030f01H
	DD	0b20a230fH
	DD	05006H
xdata	ENDS
;	COMDAT xdata
xdata	SEGMENT
$ip2state$?_Myproxy@?$_String_alloc@U?$_String_base_types@DV?$allocator@D@std@@@std@@@std@@QEAAAEAPEAU_Container_proxy@2@XZ DD imagerel ?_Myproxy@?$_String_alloc@U?$_String_base_types@DV?$allocator@D@std@@@std@@@std@@QEAAAEAPEAU_Container_proxy@2@XZ
	DD	0ffffffffH
xdata	ENDS
;	COMDAT CONST
CONST	SEGMENT
$cppxdata$?_Myproxy@?$_String_alloc@U?$_String_base_types@DV?$allocator@D@std@@@std@@@std@@QEAAAEAPEAU_Container_proxy@2@XZ DD 019930522H
	DD	00H
	DD	00H
	DD	00H
	DD	00H
	DD	01H
	DD	imagerel $ip2state$?_Myproxy@?$_String_alloc@U?$_String_base_types@DV?$allocator@D@std@@@std@@@std@@QEAAAEAPEAU_Container_proxy@2@XZ
	DD	060H
	DD	00H
	DD	05H
CONST	ENDS
;	COMDAT xdata
xdata	SEGMENT
$unwind$?_Myproxy@?$_String_alloc@U?$_String_base_types@DV?$allocator@D@std@@@std@@@std@@QEAAAEAPEAU_Container_proxy@2@XZ DD 025031719H
	DD	0d20a230fH
	DD	05006H
	DD	imagerel __CxxFrameHandler3
	DD	imagerel $cppxdata$?_Myproxy@?$_String_alloc@U?$_String_base_types@DV?$allocator@D@std@@@std@@@std@@QEAAAEAPEAU_Container_proxy@2@XZ
xdata	ENDS
;	COMDAT xdata
xdata	SEGMENT
$unwind$?_Free_proxy@?$_String_alloc@U?$_String_base_types@DV?$allocator@D@std@@@std@@@std@@QEAAXXZ DD 025031d19H
	DD	0d20a230fH
	DD	05006H
	DD	imagerel __GSHandlerCheck
	DD	068H
xdata	ENDS
;	COMDAT xdata
xdata	SEGMENT
$unwind$?_Alloc_proxy@?$_String_alloc@U?$_String_base_types@DV?$allocator@D@std@@@std@@@std@@QEAAXXZ DD 025042019H
	DD	010d2312H
	DD	050060012H
	DD	imagerel __GSHandlerCheck
	DD	080H
xdata	ENDS
;	COMDAT xdata
xdata	SEGMENT
$ip2state$??1?$_String_alloc@U?$_String_base_types@DV?$allocator@D@std@@@std@@@std@@QEAA@XZ DD imagerel ??1?$_String_alloc@U?$_String_base_types@DV?$allocator@D@std@@@std@@@std@@QEAA@XZ
	DD	0ffffffffH
xdata	ENDS
;	COMDAT CONST
CONST	SEGMENT
$cppxdata$??1?$_String_alloc@U?$_String_base_types@DV?$allocator@D@std@@@std@@@std@@QEAA@XZ DD 019930522H
	DD	00H
	DD	00H
	DD	00H
	DD	00H
	DD	01H
	DD	imagerel $ip2state$??1?$_String_alloc@U?$_String_base_types@DV?$allocator@D@std@@@std@@@std@@QEAA@XZ
	DD	060H
	DD	00H
	DD	05H
CONST	ENDS
;	COMDAT xdata
xdata	SEGMENT
$unwind$??1?$_String_alloc@U?$_String_base_types@DV?$allocator@D@std@@@std@@@std@@QEAA@XZ DD 025031719H
	DD	0d20a230fH
	DD	05006H
	DD	imagerel __CxxFrameHandler3
	DD	imagerel $cppxdata$??1?$_String_alloc@U?$_String_base_types@DV?$allocator@D@std@@@std@@@std@@QEAA@XZ
xdata	ENDS
;	COMDAT xdata
xdata	SEGMENT
$unwind$?dtor$0@?0???0?$_String_alloc@U?$_String_base_types@DV?$allocator@D@std@@@std@@@std@@QEAA@XZ@4HA DD 020601H
	DD	050023206H
xdata	ENDS
;	COMDAT xdata
xdata	SEGMENT
$ip2state$??0?$_String_alloc@U?$_String_base_types@DV?$allocator@D@std@@@std@@@std@@QEAA@XZ DD imagerel ??0?$_String_alloc@U?$_String_base_types@DV?$allocator@D@std@@@std@@@std@@QEAA@XZ
	DD	0ffffffffH
	DD	imagerel ??0?$_String_alloc@U?$_String_base_types@DV?$allocator@D@std@@@std@@@std@@QEAA@XZ+52
	DD	00H
	DD	imagerel ??0?$_String_alloc@U?$_String_base_types@DV?$allocator@D@std@@@std@@@std@@QEAA@XZ+62
	DD	0ffffffffH
xdata	ENDS
;	COMDAT xdata
xdata	SEGMENT
$stateUnwindMap$??0?$_String_alloc@U?$_String_base_types@DV?$allocator@D@std@@@std@@@std@@QEAA@XZ DD 0ffffffffH
	DD	imagerel ?dtor$0@?0???0?$_String_alloc@U?$_String_base_types@DV?$allocator@D@std@@@std@@@std@@QEAA@XZ@4HA
xdata	ENDS
;	COMDAT CONST
CONST	SEGMENT
$cppxdata$??0?$_String_alloc@U?$_String_base_types@DV?$allocator@D@std@@@std@@@std@@QEAA@XZ DD 019930522H
	DD	01H
	DD	imagerel $stateUnwindMap$??0?$_String_alloc@U?$_String_base_types@DV?$allocator@D@std@@@std@@@std@@QEAA@XZ
	DD	00H
	DD	00H
	DD	03H
	DD	imagerel $ip2state$??0?$_String_alloc@U?$_String_base_types@DV?$allocator@D@std@@@std@@@std@@QEAA@XZ
	DD	068H
	DD	00H
	DD	01H
CONST	ENDS
;	COMDAT xdata
xdata	SEGMENT
$unwind$??0?$_String_alloc@U?$_String_base_types@DV?$allocator@D@std@@@std@@@std@@QEAA@XZ DD 025031711H
	DD	0d20a230fH
	DD	05006H
	DD	imagerel __CxxFrameHandler3
	DD	imagerel $cppxdata$??0?$_String_alloc@U?$_String_base_types@DV?$allocator@D@std@@@std@@@std@@QEAA@XZ
xdata	ENDS
;	COMDAT xdata
xdata	SEGMENT
$unwind$??1?$_String_val@U?$_Simple_types@D@std@@@std@@QEAA@XZ DD 025030f01H
	DD	0b20a230fH
	DD	05006H
xdata	ENDS
;	COMDAT xdata
xdata	SEGMENT
$ip2state$??1_Bxty@?$_String_val@U?$_Simple_types@D@std@@@std@@QEAA@XZ DD imagerel ??1_Bxty@?$_String_val@U?$_Simple_types@D@std@@@std@@QEAA@XZ
	DD	0ffffffffH
xdata	ENDS
;	COMDAT CONST
CONST	SEGMENT
$cppxdata$??1_Bxty@?$_String_val@U?$_Simple_types@D@std@@@std@@QEAA@XZ DD 019930522H
	DD	00H
	DD	00H
	DD	00H
	DD	00H
	DD	01H
	DD	imagerel $ip2state$??1_Bxty@?$_String_val@U?$_Simple_types@D@std@@@std@@QEAA@XZ
	DD	060H
	DD	00H
	DD	05H
CONST	ENDS
;	COMDAT xdata
xdata	SEGMENT
$unwind$??1_Bxty@?$_String_val@U?$_Simple_types@D@std@@@std@@QEAA@XZ DD 025031719H
	DD	0d20a230fH
	DD	05006H
	DD	imagerel __CxxFrameHandler3
	DD	imagerel $cppxdata$??1_Bxty@?$_String_val@U?$_Simple_types@D@std@@@std@@QEAA@XZ
xdata	ENDS
;	COMDAT xdata
xdata	SEGMENT
$unwind$??0_Bxty@?$_String_val@U?$_Simple_types@D@std@@@std@@QEAA@XZ DD 025030f01H
	DD	0b20a230fH
	DD	05006H
xdata	ENDS
;	COMDAT xdata
xdata	SEGMENT
$unwind$?_Large_string_engaged@?$_String_val@U?$_Simple_types@D@std@@@std@@QEBA_NXZ DD 025030f01H
	DD	0d20a230fH
	DD	05006H
xdata	ENDS
;	COMDAT xdata
xdata	SEGMENT
$unwind$?_Myptr@?$_String_val@U?$_Simple_types@D@std@@@std@@QEAAPEADXZ DD 025030f01H
	DD	0d20a230fH
	DD	05006H
xdata	ENDS
;	COMDAT xdata
xdata	SEGMENT
$unwind$??0?$_String_val@U?$_Simple_types@D@std@@@std@@QEAA@XZ DD 025030f01H
	DD	0b20a230fH
	DD	05006H
xdata	ENDS
;	COMDAT xdata
xdata	SEGMENT
$ip2state$?max_size@?$_Default_allocator_traits@V?$allocator@D@std@@@std@@SA_KAEBV?$allocator@D@2@@Z DD imagerel ?max_size@?$_Default_allocator_traits@V?$allocator@D@std@@@std@@SA_KAEBV?$allocator@D@2@@Z
	DD	0ffffffffH
xdata	ENDS
;	COMDAT CONST
CONST	SEGMENT
$cppxdata$?max_size@?$_Default_allocator_traits@V?$allocator@D@std@@@std@@SA_KAEBV?$allocator@D@2@@Z DD 019930522H
	DD	00H
	DD	00H
	DD	00H
	DD	00H
	DD	01H
	DD	imagerel $ip2state$?max_size@?$_Default_allocator_traits@V?$allocator@D@std@@@std@@SA_KAEBV?$allocator@D@2@@Z
	DD	060H
	DD	00H
	DD	05H
CONST	ENDS
;	COMDAT xdata
xdata	SEGMENT
$unwind$?max_size@?$_Default_allocator_traits@V?$allocator@D@std@@@std@@SA_KAEBV?$allocator@D@2@@Z DD 025031719H
	DD	0d20a230fH
	DD	05006H
	DD	imagerel __CxxFrameHandler3
	DD	imagerel $cppxdata$?max_size@?$_Default_allocator_traits@V?$allocator@D@std@@@std@@SA_KAEBV?$allocator@D@2@@Z
xdata	ENDS
;	COMDAT xdata
xdata	SEGMENT
$unwind$?allocate@?$allocator@D@std@@QEAAPEAD_K@Z DD 025031401H
	DD	0b20f2314H
	DD	0500bH
xdata	ENDS
;	COMDAT xdata
xdata	SEGMENT
$unwind$?deallocate@?$allocator@D@std@@QEAAXQEAD_K@Z DD 025031901H
	DD	0b2142319H
	DD	05010H
xdata	ENDS
;	COMDAT xdata
xdata	SEGMENT
$ip2state$??0?$allocator@D@std@@QEAA@XZ DD imagerel ??0?$allocator@D@std@@QEAA@XZ
	DD	0ffffffffH
xdata	ENDS
;	COMDAT CONST
CONST	SEGMENT
$cppxdata$??0?$allocator@D@std@@QEAA@XZ DD 019930522H
	DD	00H
	DD	00H
	DD	00H
	DD	00H
	DD	01H
	DD	imagerel $ip2state$??0?$allocator@D@std@@QEAA@XZ
	DD	060H
	DD	00H
	DD	05H
CONST	ENDS
;	COMDAT xdata
xdata	SEGMENT
$unwind$??0?$allocator@D@std@@QEAA@XZ DD 025031719H
	DD	0d20a230fH
	DD	05006H
	DD	imagerel __CxxFrameHandler3
	DD	imagerel $cppxdata$??0?$allocator@D@std@@QEAA@XZ
xdata	ENDS
;	COMDAT xdata
xdata	SEGMENT
$ip2state$??$_Min_value@_K@std@@YAAEB_KAEB_K0@Z DD imagerel ??$_Min_value@_K@std@@YAAEB_KAEB_K0@Z
	DD	0ffffffffH
xdata	ENDS
;	COMDAT CONST
CONST	SEGMENT
$cppxdata$??$_Min_value@_K@std@@YAAEB_KAEB_K0@Z DD 019930522H
	DD	00H
	DD	00H
	DD	00H
	DD	00H
	DD	01H
	DD	imagerel $ip2state$??$_Min_value@_K@std@@YAAEB_KAEB_K0@Z
	DD	068H
	DD	00H
	DD	05H
CONST	ENDS
;	COMDAT xdata
xdata	SEGMENT
$unwind$??$_Min_value@_K@std@@YAAEB_KAEB_K0@Z DD 025031f19H
	DD	0f2122317H
	DD	0500bH
	DD	imagerel __CxxFrameHandler3
	DD	imagerel $cppxdata$??$_Min_value@_K@std@@YAAEB_KAEB_K0@Z
xdata	ENDS
;	COMDAT xdata
xdata	SEGMENT
$unwind$??$_Convert_size@_K@std@@YA_K_K@Z DD 025030f01H
	DD	0b20a230fH
	DD	05006H
xdata	ENDS
;	COMDAT xdata
xdata	SEGMENT
$unwind$?_Adjust_manually_vector_aligned@std@@YAXAEAPEAXAEA_K@Z DD 035041701H
	DD	01123317H
	DD	0500b0012H
xdata	ENDS
;	COMDAT xdata
xdata	SEGMENT
$unwind$?_Allocate@_Default_allocate_traits@std@@SAPEAX_K@Z DD 025030f01H
	DD	0b20a230fH
	DD	05006H
xdata	ENDS
;	COMDAT xdata
xdata	SEGMENT
$unwind$??$_Get_size_of_n@$00@std@@YA_K_K@Z DD 025030f01H
	DD	0b20a230fH
	DD	05006H
xdata	ENDS
;	COMDAT xdata
xdata	SEGMENT
$ip2state$?_Orphan_all@_Container_base12@std@@QEAAXXZ DD imagerel ?_Orphan_all@_Container_base12@std@@QEAAXXZ
	DD	0ffffffffH
xdata	ENDS
;	COMDAT CONST
CONST	SEGMENT
$cppxdata$?_Orphan_all@_Container_base12@std@@QEAAXXZ DD 019930522H
	DD	00H
	DD	00H
	DD	00H
	DD	00H
	DD	01H
	DD	imagerel $ip2state$?_Orphan_all@_Container_base12@std@@QEAAXXZ
	DD	070H
	DD	00H
	DD	05H
CONST	ENDS
;	COMDAT xdata
xdata	SEGMENT
$unwind$?_Orphan_all@_Container_base12@std@@QEAAXXZ DD 025032819H
	DD	0f20d2312H
	DD	05006H
	DD	imagerel __GSHandlerCheck_EH
	DD	imagerel $cppxdata$?_Orphan_all@_Container_base12@std@@QEAAXXZ
	DD	07bH
xdata	ENDS
;	COMDAT xdata
xdata	SEGMENT
$unwind$??0_Container_base12@std@@QEAA@XZ DD 025030f01H
	DD	0b20a230fH
	DD	05006H
xdata	ENDS
;	COMDAT xdata
xdata	SEGMENT
$ip2state$??0_Container_proxy@std@@QEAA@XZ DD imagerel ??0_Container_proxy@std@@QEAA@XZ
	DD	0ffffffffH
xdata	ENDS
;	COMDAT CONST
CONST	SEGMENT
$cppxdata$??0_Container_proxy@std@@QEAA@XZ DD 019930522H
	DD	00H
	DD	00H
	DD	00H
	DD	00H
	DD	01H
	DD	imagerel $ip2state$??0_Container_proxy@std@@QEAA@XZ
	DD	060H
	DD	00H
	DD	05H
CONST	ENDS
;	COMDAT xdata
xdata	SEGMENT
$unwind$??0_Container_proxy@std@@QEAA@XZ DD 025031719H
	DD	0d20a230fH
	DD	05006H
	DD	imagerel __CxxFrameHandler3
	DD	imagerel $cppxdata$??0_Container_proxy@std@@QEAA@XZ
xdata	ENDS
;	COMDAT xdata
xdata	SEGMENT
$ip2state$?assign@?$char_traits@D@std@@SAXAEADAEBD@Z DD imagerel ?assign@?$char_traits@D@std@@SAXAEADAEBD@Z
	DD	0ffffffffH
xdata	ENDS
;	COMDAT CONST
CONST	SEGMENT
$cppxdata$?assign@?$char_traits@D@std@@SAXAEADAEBD@Z DD 019930522H
	DD	00H
	DD	00H
	DD	00H
	DD	00H
	DD	01H
	DD	imagerel $ip2state$?assign@?$char_traits@D@std@@SAXAEADAEBD@Z
	DD	060H
	DD	00H
	DD	05H
CONST	ENDS
;	COMDAT xdata
xdata	SEGMENT
$unwind$?assign@?$char_traits@D@std@@SAXAEADAEBD@Z DD 025031c19H
	DD	0d20f2314H
	DD	0500bH
	DD	imagerel __CxxFrameHandler3
	DD	imagerel $cppxdata$?assign@?$char_traits@D@std@@SAXAEADAEBD@Z
xdata	ENDS
;	COMDAT xdata
xdata	SEGMENT
$ip2state$?move@?$char_traits@D@std@@SAPEADQEADQEBD_K@Z DD imagerel ?move@?$char_traits@D@std@@SAPEADQEADQEBD_K@Z
	DD	0ffffffffH
xdata	ENDS
;	COMDAT CONST
CONST	SEGMENT
$cppxdata$?move@?$char_traits@D@std@@SAPEADQEADQEBD_K@Z DD 019930522H
	DD	00H
	DD	00H
	DD	00H
	DD	00H
	DD	01H
	DD	imagerel $ip2state$?move@?$char_traits@D@std@@SAPEADQEADQEBD_K@Z
	DD	060H
	DD	00H
	DD	05H
CONST	ENDS
;	COMDAT xdata
xdata	SEGMENT
$unwind$?move@?$char_traits@D@std@@SAPEADQEADQEBD_K@Z DD 025032119H
	DD	0d2142319H
	DD	05010H
	DD	imagerel __CxxFrameHandler3
	DD	imagerel $cppxdata$?move@?$char_traits@D@std@@SAPEADQEADQEBD_K@Z
xdata	ENDS
;	COMDAT xdata
xdata	SEGMENT
$ip2state$?copy@?$char_traits@D@std@@SAPEADQEADQEBD_K@Z DD imagerel ?copy@?$char_traits@D@std@@SAPEADQEADQEBD_K@Z
	DD	0ffffffffH
xdata	ENDS
;	COMDAT CONST
CONST	SEGMENT
$cppxdata$?copy@?$char_traits@D@std@@SAPEADQEADQEBD_K@Z DD 019930522H
	DD	00H
	DD	00H
	DD	00H
	DD	00H
	DD	01H
	DD	imagerel $ip2state$?copy@?$char_traits@D@std@@SAPEADQEADQEBD_K@Z
	DD	060H
	DD	00H
	DD	05H
CONST	ENDS
;	COMDAT xdata
xdata	SEGMENT
$unwind$?copy@?$char_traits@D@std@@SAPEADQEADQEBD_K@Z DD 025032119H
	DD	0d2142319H
	DD	05010H
	DD	imagerel __CxxFrameHandler3
	DD	imagerel $cppxdata$?copy@?$char_traits@D@std@@SAPEADQEADQEBD_K@Z
xdata	ENDS
;	COMDAT xdata
xdata	SEGMENT
$ip2state$?length@?$char_traits@D@std@@SA_KQEBD@Z DD imagerel ?length@?$char_traits@D@std@@SA_KQEBD@Z
	DD	0ffffffffH
xdata	ENDS
;	COMDAT CONST
CONST	SEGMENT
$cppxdata$?length@?$char_traits@D@std@@SA_KQEBD@Z DD 019930522H
	DD	00H
	DD	00H
	DD	00H
	DD	00H
	DD	01H
	DD	imagerel $ip2state$?length@?$char_traits@D@std@@SA_KQEBD@Z
	DD	060H
	DD	00H
	DD	05H
CONST	ENDS
;	COMDAT xdata
xdata	SEGMENT
$unwind$?length@?$char_traits@D@std@@SA_KQEBD@Z DD 025031719H
	DD	0d20a230fH
	DD	05006H
	DD	imagerel __CxxFrameHandler3
	DD	imagerel $cppxdata$?length@?$char_traits@D@std@@SA_KQEBD@Z
xdata	ENDS
;	COMDAT xdata
xdata	SEGMENT
$unwind$?getPosition@Renderable2D@graphics@core@@QEBAAEBU?$tvec4@M$0A@@glm@@XZ DD 025030f01H
	DD	0b20a230fH
	DD	05006H
xdata	ENDS
;	COMDAT xdata
xdata	SEGMENT
$unwind$??0?$tvec2@M$0A@@glm@@QEAA@XZ DD 025030f01H
	DD	0b20a230fH
	DD	05006H
xdata	ENDS
;	COMDAT xdata
xdata	SEGMENT
$unwind$??0?$tvec4@M$0A@@glm@@QEAA@MMMM@Z DD 025032101H
	DD	0b21c2321H
	DD	05018H
xdata	ENDS
;	COMDAT xdata
xdata	SEGMENT
$unwind$??0?$tvec4@M$0A@@glm@@QEAA@XZ DD 025030f01H
	DD	0b20a230fH
	DD	05006H
xdata	ENDS
;	COMDAT xdata
xdata	SEGMENT
$ip2state$?max@?$numeric_limits@_J@std@@SA_JXZ DD imagerel ?max@?$numeric_limits@_J@std@@SA_JXZ
	DD	0ffffffffH
xdata	ENDS
;	COMDAT CONST
CONST	SEGMENT
$cppxdata$?max@?$numeric_limits@_J@std@@SA_JXZ DD 019930522H
	DD	00H
	DD	00H
	DD	00H
	DD	00H
	DD	01H
	DD	imagerel $ip2state$?max@?$numeric_limits@_J@std@@SA_JXZ
	DD	060H
	DD	00H
	DD	05H
CONST	ENDS
;	COMDAT xdata
xdata	SEGMENT
$unwind$?max@?$numeric_limits@_J@std@@SA_JXZ DD 025031319H
	DD	0d206230bH
	DD	05002H
	DD	imagerel __CxxFrameHandler3
	DD	imagerel $cppxdata$?max@?$numeric_limits@_J@std@@SA_JXZ
xdata	ENDS
;	COMDAT xdata
xdata	SEGMENT
$ip2state$??2@YAPEAX_KPEAX@Z DD imagerel ??2@YAPEAX_KPEAX@Z
	DD	0ffffffffH
xdata	ENDS
;	COMDAT CONST
CONST	SEGMENT
$cppxdata$??2@YAPEAX_KPEAX@Z DD 019930522H
	DD	00H
	DD	00H
	DD	00H
	DD	00H
	DD	01H
	DD	imagerel $ip2state$??2@YAPEAX_KPEAX@Z
	DD	060H
	DD	00H
	DD	05H
CONST	ENDS
;	COMDAT xdata
xdata	SEGMENT
$unwind$??2@YAPEAX_KPEAX@Z DD 025031c19H
	DD	0d20f2314H
	DD	0500bH
	DD	imagerel __CxxFrameHandler3
	DD	imagerel $cppxdata$??2@YAPEAX_KPEAX@Z
xdata	ENDS
;	COMDAT xdata
xdata	SEGMENT
$unwind$?__empty_global_delete@@YAXPEAX_K@Z DD 025031401H
	DD	0b20f2314H
	DD	0500bH
xdata	ENDS
;	COMDAT xdata
xdata	SEGMENT
$unwind$?__empty_global_delete@@YAXPEAX@Z DD 025030f01H
	DD	0b20a230fH
	DD	05006H
xdata	ENDS
;	COMDAT xdata
xdata	SEGMENT
$unwind$??_H@YAXPEAX_K1P6APEAX0@Z@Z DD 025031e01H
	DD	0d219231eH
	DD	05015H
xdata	ENDS
; Function compile flags: /Odtp /RTCu /ZI
; File l:\dev\featherfallengine\depends\install\include\glm\detail\type_vec4.inl
;	COMDAT ??$?0HHHN@?$tvec4@N$0A@@glm@@QEAA@HHHN@Z
_TEXT	SEGMENT
this$ = 80
a$ = 88
b$ = 96
c$ = 104
d$ = 112
??$?0HHHN@?$tvec4@N$0A@@glm@@QEAA@HHHN@Z PROC		; glm::tvec4<double,0>::tvec4<double,0><int,int,int,double>, COMDAT

; 204  : 	{}

$LN3:
	mov	DWORD PTR [rsp+32], r9d
	mov	DWORD PTR [rsp+24], r8d
	mov	DWORD PTR [rsp+16], edx
	mov	QWORD PTR [rsp+8], rcx
	push	rbp
	sub	rsp, 96					; 00000060H
	lea	rbp, QWORD PTR [rsp+32]
	lea	rcx, OFFSET FLAT:__A0704DDA_type_vec4.inl
	call	__CheckForDebuggerJustMyCode

; 200  : 		x(static_cast<T>(a)),

	cvtsi2sd xmm0, DWORD PTR a$[rbp]
	mov	rax, QWORD PTR this$[rbp]
	movsd	QWORD PTR [rax], xmm0

; 201  : 		y(static_cast<T>(b)),

	cvtsi2sd xmm0, DWORD PTR b$[rbp]
	mov	rax, QWORD PTR this$[rbp]
	movsd	QWORD PTR [rax+8], xmm0

; 202  : 		z(static_cast<T>(c)),

	cvtsi2sd xmm0, DWORD PTR c$[rbp]
	mov	rax, QWORD PTR this$[rbp]
	movsd	QWORD PTR [rax+16], xmm0

; 203  : 		w(static_cast<T>(d))

	mov	rax, QWORD PTR this$[rbp]
	movsd	xmm0, QWORD PTR d$[rbp]
	movsd	QWORD PTR [rax+24], xmm0

; 204  : 	{}

	mov	rax, QWORD PTR this$[rbp]
	lea	rsp, QWORD PTR [rbp+64]
	pop	rbp
	ret	0
??$?0HHHN@?$tvec4@N$0A@@glm@@QEAA@HHHN@Z ENDP		; glm::tvec4<double,0>::tvec4<double,0><int,int,int,double>
_TEXT	ENDS
; Function compile flags: /Odtp /RTCu /ZI
; File l:\dev\featherfallengine\depends\install\include\glm\detail\type_vec4.inl
;	COMDAT ??$?0HHNH@?$tvec4@N$0A@@glm@@QEAA@HHNH@Z
_TEXT	SEGMENT
this$ = 80
a$ = 88
b$ = 96
c$ = 104
d$ = 112
??$?0HHNH@?$tvec4@N$0A@@glm@@QEAA@HHNH@Z PROC		; glm::tvec4<double,0>::tvec4<double,0><int,int,double,int>, COMDAT

; 204  : 	{}

$LN3:
	movsd	QWORD PTR [rsp+32], xmm3
	mov	DWORD PTR [rsp+24], r8d
	mov	DWORD PTR [rsp+16], edx
	mov	QWORD PTR [rsp+8], rcx
	push	rbp
	sub	rsp, 96					; 00000060H
	lea	rbp, QWORD PTR [rsp+32]
	lea	rcx, OFFSET FLAT:__A0704DDA_type_vec4.inl
	call	__CheckForDebuggerJustMyCode

; 200  : 		x(static_cast<T>(a)),

	cvtsi2sd xmm0, DWORD PTR a$[rbp]
	mov	rax, QWORD PTR this$[rbp]
	movsd	QWORD PTR [rax], xmm0

; 201  : 		y(static_cast<T>(b)),

	cvtsi2sd xmm0, DWORD PTR b$[rbp]
	mov	rax, QWORD PTR this$[rbp]
	movsd	QWORD PTR [rax+8], xmm0

; 202  : 		z(static_cast<T>(c)),

	mov	rax, QWORD PTR this$[rbp]
	movsd	xmm0, QWORD PTR c$[rbp]
	movsd	QWORD PTR [rax+16], xmm0

; 203  : 		w(static_cast<T>(d))

	cvtsi2sd xmm0, DWORD PTR d$[rbp]
	mov	rax, QWORD PTR this$[rbp]
	movsd	QWORD PTR [rax+24], xmm0

; 204  : 	{}

	mov	rax, QWORD PTR this$[rbp]
	lea	rsp, QWORD PTR [rbp+64]
	pop	rbp
	ret	0
??$?0HHNH@?$tvec4@N$0A@@glm@@QEAA@HHNH@Z ENDP		; glm::tvec4<double,0>::tvec4<double,0><int,int,double,int>
_TEXT	ENDS
; Function compile flags: /Odtp /RTCu /ZI
; File l:\dev\featherfallengine\depends\install\include\glm\detail\type_vec4.inl
;	COMDAT ??$?0HNHH@?$tvec4@N$0A@@glm@@QEAA@HNHH@Z
_TEXT	SEGMENT
this$ = 80
a$ = 88
b$ = 96
c$ = 104
d$ = 112
??$?0HNHH@?$tvec4@N$0A@@glm@@QEAA@HNHH@Z PROC		; glm::tvec4<double,0>::tvec4<double,0><int,double,int,int>, COMDAT

; 204  : 	{}

$LN3:
	mov	DWORD PTR [rsp+32], r9d
	movsd	QWORD PTR [rsp+24], xmm2
	mov	DWORD PTR [rsp+16], edx
	mov	QWORD PTR [rsp+8], rcx
	push	rbp
	sub	rsp, 96					; 00000060H
	lea	rbp, QWORD PTR [rsp+32]
	lea	rcx, OFFSET FLAT:__A0704DDA_type_vec4.inl
	call	__CheckForDebuggerJustMyCode

; 200  : 		x(static_cast<T>(a)),

	cvtsi2sd xmm0, DWORD PTR a$[rbp]
	mov	rax, QWORD PTR this$[rbp]
	movsd	QWORD PTR [rax], xmm0

; 201  : 		y(static_cast<T>(b)),

	mov	rax, QWORD PTR this$[rbp]
	movsd	xmm0, QWORD PTR b$[rbp]
	movsd	QWORD PTR [rax+8], xmm0

; 202  : 		z(static_cast<T>(c)),

	cvtsi2sd xmm0, DWORD PTR c$[rbp]
	mov	rax, QWORD PTR this$[rbp]
	movsd	QWORD PTR [rax+16], xmm0

; 203  : 		w(static_cast<T>(d))

	cvtsi2sd xmm0, DWORD PTR d$[rbp]
	mov	rax, QWORD PTR this$[rbp]
	movsd	QWORD PTR [rax+24], xmm0

; 204  : 	{}

	mov	rax, QWORD PTR this$[rbp]
	lea	rsp, QWORD PTR [rbp+64]
	pop	rbp
	ret	0
??$?0HNHH@?$tvec4@N$0A@@glm@@QEAA@HNHH@Z ENDP		; glm::tvec4<double,0>::tvec4<double,0><int,double,int,int>
_TEXT	ENDS
; Function compile flags: /Odtp /RTCu /ZI
; File l:\dev\featherfallengine\depends\install\include\glm\detail\type_vec4.inl
;	COMDAT ??$?0NHHH@?$tvec4@N$0A@@glm@@QEAA@NHHH@Z
_TEXT	SEGMENT
this$ = 80
a$ = 88
b$ = 96
c$ = 104
d$ = 112
??$?0NHHH@?$tvec4@N$0A@@glm@@QEAA@NHHH@Z PROC		; glm::tvec4<double,0>::tvec4<double,0><double,int,int,int>, COMDAT

; 204  : 	{}

$LN3:
	mov	DWORD PTR [rsp+32], r9d
	mov	DWORD PTR [rsp+24], r8d
	movsd	QWORD PTR [rsp+16], xmm1
	mov	QWORD PTR [rsp+8], rcx
	push	rbp
	sub	rsp, 96					; 00000060H
	lea	rbp, QWORD PTR [rsp+32]
	lea	rcx, OFFSET FLAT:__A0704DDA_type_vec4.inl
	call	__CheckForDebuggerJustMyCode

; 200  : 		x(static_cast<T>(a)),

	mov	rax, QWORD PTR this$[rbp]
	movsd	xmm0, QWORD PTR a$[rbp]
	movsd	QWORD PTR [rax], xmm0

; 201  : 		y(static_cast<T>(b)),

	cvtsi2sd xmm0, DWORD PTR b$[rbp]
	mov	rax, QWORD PTR this$[rbp]
	movsd	QWORD PTR [rax+8], xmm0

; 202  : 		z(static_cast<T>(c)),

	cvtsi2sd xmm0, DWORD PTR c$[rbp]
	mov	rax, QWORD PTR this$[rbp]
	movsd	QWORD PTR [rax+16], xmm0

; 203  : 		w(static_cast<T>(d))

	cvtsi2sd xmm0, DWORD PTR d$[rbp]
	mov	rax, QWORD PTR this$[rbp]
	movsd	QWORD PTR [rax+24], xmm0

; 204  : 	{}

	mov	rax, QWORD PTR this$[rbp]
	lea	rsp, QWORD PTR [rbp+64]
	pop	rbp
	ret	0
??$?0NHHH@?$tvec4@N$0A@@glm@@QEAA@NHHH@Z ENDP		; glm::tvec4<double,0>::tvec4<double,0><double,int,int,int>
_TEXT	ENDS
; Function compile flags: /Odtp /RTCu /ZI
; File c:\program files (x86)\microsoft visual studio\2017\enterprise\vc\tools\msvc\14.15.26726\include\type_traits
;	COMDAT ??$forward@U_Container_proxy@std@@@std@@YA$$QEAU_Container_proxy@0@AEAU10@@Z
_TEXT	SEGMENT
$T1 = 64
_Arg$ = 96
??$forward@U_Container_proxy@std@@@std@@YA$$QEAU_Container_proxy@0@AEAU10@@Z PROC ; std::forward<std::_Container_proxy>, COMDAT

; 1573 : 	{	// forward an lvalue as either an lvalue or an rvalue

$LN3:
	mov	QWORD PTR [rsp+8], rcx
	push	rbp
	sub	rsp, 112				; 00000070H
	lea	rbp, QWORD PTR [rsp+32]
	mov	QWORD PTR $T1[rbp], -2
	lea	rcx, OFFSET FLAT:__6C905C6A_type_traits
	call	__CheckForDebuggerJustMyCode
	npad	1

; 1574 : 	return (static_cast<_Ty&&>(_Arg));

	mov	rax, QWORD PTR _Arg$[rbp]

; 1575 : 	}

	lea	rsp, QWORD PTR [rbp+80]
	pop	rbp
	ret	0
??$forward@U_Container_proxy@std@@@std@@YA$$QEAU_Container_proxy@0@AEAU10@@Z ENDP ; std::forward<std::_Container_proxy>
_TEXT	ENDS
; Function compile flags: /Odtp /RTCu /ZI
; File c:\program files (x86)\microsoft visual studio\2017\enterprise\vc\tools\msvc\14.15.26726\include\xmemory0
;	COMDAT ??$_Allocate_manually_vector_aligned@U_Default_allocate_traits@std@@@std@@YAPEAX_K@Z
_TEXT	SEGMENT
_Block_size$ = 0
_Ptr_container$ = 8
_Ptr$ = 16
_Bytes$ = 112
??$_Allocate_manually_vector_aligned@U_Default_allocate_traits@std@@@std@@YAPEAX_K@Z PROC ; std::_Allocate_manually_vector_aligned<std::_Default_allocate_traits>, COMDAT

; 92   : 	{	// allocate _Bytes manually aligned to at least _Big_allocation_alignment

$LN13:
	mov	QWORD PTR [rsp+8], rcx
	push	rbp
	sub	rsp, 144				; 00000090H
	lea	rbp, QWORD PTR [rsp+48]
	lea	rcx, OFFSET FLAT:__39AEDAD7_xmemory0
	call	__CheckForDebuggerJustMyCode

; 93   : 	size_t _Block_size = _Non_user_size + _Bytes;

	mov	rax, QWORD PTR _Bytes$[rbp]
	add	rax, 47					; 0000002fH
	mov	QWORD PTR _Block_size$[rbp], rax

; 94   : 	if (_Block_size <= _Bytes)

	mov	rax, QWORD PTR _Bytes$[rbp]
	cmp	QWORD PTR _Block_size$[rbp], rax
	ja	SHORT $LN8@Allocate_m

; 95   : 		{	// add overflow, try allocating all of memory and assume the
; 96   : 			// allocation function will throw bad_alloc
; 97   : 		_Block_size = static_cast<size_t>(-1);

	mov	QWORD PTR _Block_size$[rbp], -1
$LN8@Allocate_m:

; 98   : 		}
; 99   : 
; 100  : 	const uintptr_t _Ptr_container = reinterpret_cast<uintptr_t>(_Traits::_Allocate(_Block_size));

	mov	rcx, QWORD PTR _Block_size$[rbp]
	call	?_Allocate@_Default_allocate_traits@std@@SAPEAX_K@Z ; std::_Default_allocate_traits::_Allocate
	mov	QWORD PTR _Ptr_container$[rbp], rax
$LN4@Allocate_m:

; 101  : 	_STL_VERIFY(_Ptr_container != 0, "invalid argument");	// validate even in release since we're doing p[-1]

	cmp	QWORD PTR _Ptr_container$[rbp], 0
	je	SHORT $LN9@Allocate_m
	jmp	SHORT $LN10@Allocate_m
$LN9@Allocate_m:
$LN7@Allocate_m:
	lea	rax, OFFSET FLAT:??_C@_0BB@FCMFBGOM@invalid?5argument@
	mov	QWORD PTR [rsp+40], rax
	lea	rax, OFFSET FLAT:??_C@_02DKCKIIND@?$CFs@
	mov	QWORD PTR [rsp+32], rax
	xor	r9d, r9d
	mov	r8d, 101				; 00000065H
	lea	rdx, OFFSET FLAT:??_C@_0GK@FKLKIKPD@c?3?2program?5files?5?$CIx86?$CJ?2microsof@
	mov	ecx, 2
	call	QWORD PTR __imp__CrtDbgReport
	cmp	eax, 1
	jne	SHORT $LN12@Allocate_m
	int	3
	xor	eax, eax
$LN12@Allocate_m:
	mov	QWORD PTR [rsp+32], 0
	mov	r9d, 101				; 00000065H
	lea	r8, OFFSET FLAT:??_C@_1NE@MCNNPIKO@?$AAc?$AA?3?$AA?2?$AAp?$AAr?$AAo?$AAg?$AAr?$AAa?$AAm?$AA?5?$AAf?$AAi?$AAl?$AAe@
	lea	rdx, OFFSET FLAT:??_C@_1EO@GFNCMDLA@?$AAs?$AAt?$AAd?$AA?3?$AA?3?$AA_?$AAA?$AAl?$AAl?$AAo?$AAc?$AAa?$AAt?$AAe?$AA_@
	lea	rcx, OFFSET FLAT:??_C@_1CG@JNLFBNGN@?$AA?$CC?$AAi?$AAn?$AAv?$AAa?$AAl?$AAi?$AAd?$AA?5?$AAa?$AAr?$AAg?$AAu?$AAm?$AAe@
	call	QWORD PTR __imp__invalid_parameter
	xor	eax, eax
	test	eax, eax
	jne	SHORT $LN7@Allocate_m
$LN10@Allocate_m:
	xor	eax, eax
	test	eax, eax
	jne	SHORT $LN4@Allocate_m

; 102  : 	void * const _Ptr = reinterpret_cast<void *>((_Ptr_container + _Non_user_size)
; 103  : 		& ~(_Big_allocation_alignment - 1));

	mov	rax, QWORD PTR _Ptr_container$[rbp]
	add	rax, 47					; 0000002fH
	and	rax, -32				; ffffffffffffffe0H
	mov	QWORD PTR _Ptr$[rbp], rax

; 104  : 	static_cast<uintptr_t *>(_Ptr)[-1] = _Ptr_container;

	mov	eax, 8
	imul	rax, rax, -1
	mov	rcx, QWORD PTR _Ptr$[rbp]
	mov	rdx, QWORD PTR _Ptr_container$[rbp]
	mov	QWORD PTR [rcx+rax], rdx

; 105  : 
; 106  :   #ifdef _DEBUG
; 107  : 	static_cast<uintptr_t *>(_Ptr)[-2] = _Big_allocation_sentinel;

	mov	eax, 8
	imul	rax, rax, -2
	mov	rcx, QWORD PTR _Ptr$[rbp]
	mov	rdx, -361700864190383366		; fafafafafafafafaH
	mov	QWORD PTR [rcx+rax], rdx

; 108  :   #endif /* _DEBUG */
; 109  : 	return (_Ptr);

	mov	rax, QWORD PTR _Ptr$[rbp]

; 110  : 	}

	lea	rsp, QWORD PTR [rbp+96]
	pop	rbp
	ret	0
??$_Allocate_manually_vector_aligned@U_Default_allocate_traits@std@@@std@@YAPEAX_K@Z ENDP ; std::_Allocate_manually_vector_aligned<std::_Default_allocate_traits>
_TEXT	ENDS
; Function compile flags: /Odtp /RTCu /ZI
; File c:\program files (x86)\microsoft visual studio\2017\enterprise\vc\tools\msvc\14.15.26726\include\type_traits
;	COMDAT ??$forward@AEBQEAD@std@@YAAEBQEADAEBQEAD@Z
_TEXT	SEGMENT
$T1 = 64
_Arg$ = 96
??$forward@AEBQEAD@std@@YAAEBQEADAEBQEAD@Z PROC		; std::forward<char * const &>, COMDAT

; 1573 : 	{	// forward an lvalue as either an lvalue or an rvalue

$LN3:
	mov	QWORD PTR [rsp+8], rcx
	push	rbp
	sub	rsp, 112				; 00000070H
	lea	rbp, QWORD PTR [rsp+32]
	mov	QWORD PTR $T1[rbp], -2
	lea	rcx, OFFSET FLAT:__6C905C6A_type_traits
	call	__CheckForDebuggerJustMyCode
	npad	1

; 1574 : 	return (static_cast<_Ty&&>(_Arg));

	mov	rax, QWORD PTR _Arg$[rbp]

; 1575 : 	}

	lea	rsp, QWORD PTR [rbp+80]
	pop	rbp
	ret	0
??$forward@AEBQEAD@std@@YAAEBQEADAEBQEAD@Z ENDP		; std::forward<char * const &>
_TEXT	ENDS
; Function compile flags: /Odtp /RTCu /ZI
; File l:\dev\featherfallengine\depends\install\include\glm\detail\type_vec4.inl
;	COMDAT ??$?0N$0A@@?$tvec4@M$0A@@glm@@QEAA@AEBU?$tvec4@N$0A@@1@@Z
_TEXT	SEGMENT
this$ = 80
v$ = 88
??$?0N$0A@@?$tvec4@M$0A@@glm@@QEAA@AEBU?$tvec4@N$0A@@1@@Z PROC ; glm::tvec4<float,0>::tvec4<float,0><double,0>, COMDAT

; 323  : 	{}

$LN3:
	mov	QWORD PTR [rsp+16], rdx
	mov	QWORD PTR [rsp+8], rcx
	push	rbp
	sub	rsp, 96					; 00000060H
	lea	rbp, QWORD PTR [rsp+32]
	lea	rcx, OFFSET FLAT:__A0704DDA_type_vec4.inl
	call	__CheckForDebuggerJustMyCode

; 319  : 		x(static_cast<T>(v.x)),

	mov	rax, QWORD PTR v$[rbp]
	cvtsd2ss xmm0, QWORD PTR [rax]
	mov	rax, QWORD PTR this$[rbp]
	movss	DWORD PTR [rax], xmm0

; 320  : 		y(static_cast<T>(v.y)),

	mov	rax, QWORD PTR v$[rbp]
	cvtsd2ss xmm0, QWORD PTR [rax+8]
	mov	rax, QWORD PTR this$[rbp]
	movss	DWORD PTR [rax+4], xmm0

; 321  : 		z(static_cast<T>(v.z)),

	mov	rax, QWORD PTR v$[rbp]
	cvtsd2ss xmm0, QWORD PTR [rax+16]
	mov	rax, QWORD PTR this$[rbp]
	movss	DWORD PTR [rax+8], xmm0

; 322  : 		w(static_cast<T>(v.w))

	mov	rax, QWORD PTR v$[rbp]
	cvtsd2ss xmm0, QWORD PTR [rax+24]
	mov	rax, QWORD PTR this$[rbp]
	movss	DWORD PTR [rax+12], xmm0

; 323  : 	{}

	mov	rax, QWORD PTR this$[rbp]
	lea	rsp, QWORD PTR [rbp+64]
	pop	rbp
	ret	0
??$?0N$0A@@?$tvec4@M$0A@@glm@@QEAA@AEBU?$tvec4@N$0A@@1@@Z ENDP ; glm::tvec4<float,0>::tvec4<float,0><double,0>
_TEXT	ENDS
; Function compile flags: /Odtp /RTCu /ZI
; File l:\dev\featherfallengine\depends\install\include\glm\gtc\matrix_transform.inl
;	COMDAT ??$orthoRH@N@glm@@YA?AU?$tmat4x4@N$0A@@0@NNNNNN@Z
_TEXT	SEGMENT
Result$ = 0
$T1 = 192
tv154 = 200
tv143 = 200
tv135 = 200
tv92 = 200
tv81 = 200
tv73 = 200
__$ArrayPad$ = 208
__$ReturnUdt$ = 256
left$ = 264
right$ = 272
bottom$ = 280
top$ = 288
zNear$ = 296
zFar$ = 304
??$orthoRH@N@glm@@YA?AU?$tmat4x4@N$0A@@0@NNNNNN@Z PROC	; glm::orthoRH<double>, COMDAT

; 146  : 	{

$LN3:
	movsd	QWORD PTR [rsp+32], xmm3
	movsd	QWORD PTR [rsp+24], xmm2
	movsd	QWORD PTR [rsp+16], xmm1
	mov	QWORD PTR [rsp+8], rcx
	push	rbp
	push	rsi
	push	rdi
	sub	rsp, 256				; 00000100H
	lea	rbp, QWORD PTR [rsp+32]
	mov	rax, QWORD PTR __security_cookie
	xor	rax, rbp
	mov	QWORD PTR __$ArrayPad$[rbp], rax
	lea	rcx, OFFSET FLAT:__B60C3EDD_matrix_transform.inl
	call	__CheckForDebuggerJustMyCode

; 147  : 		tmat4x4<T, defaultp> Result(1);

	movsd	xmm0, QWORD PTR __real@3ff0000000000000
	movsd	QWORD PTR $T1[rbp], xmm0
	lea	rdx, QWORD PTR $T1[rbp]
	lea	rcx, QWORD PTR Result$[rbp]
	call	??0?$tmat4x4@N$0A@@glm@@QEAA@AEBN@Z	; glm::tmat4x4<double,0>::tmat4x4<double,0>

; 148  : 		Result[0][0] = static_cast<T>(2) / (right - left);

	movsd	xmm0, QWORD PTR right$[rbp]
	subsd	xmm0, QWORD PTR left$[rbp]
	movsd	xmm1, QWORD PTR __real@4000000000000000
	divsd	xmm1, xmm0
	movaps	xmm0, xmm1
	movsd	QWORD PTR tv73[rbp], xmm0
	xor	edx, edx
	lea	rcx, QWORD PTR Result$[rbp]
	call	??A?$tmat4x4@N$0A@@glm@@QEAAAEAU?$tvec4@N$0A@@1@H@Z ; glm::tmat4x4<double,0>::operator[]
	xor	edx, edx
	mov	rcx, rax
	call	??A?$tvec4@N$0A@@glm@@QEAAAEANH@Z	; glm::tvec4<double,0>::operator[]
	movsd	xmm0, QWORD PTR tv73[rbp]
	movsd	QWORD PTR [rax], xmm0

; 149  : 		Result[1][1] = static_cast<T>(2) / (top - bottom);

	movsd	xmm0, QWORD PTR top$[rbp]
	subsd	xmm0, QWORD PTR bottom$[rbp]
	movsd	xmm1, QWORD PTR __real@4000000000000000
	divsd	xmm1, xmm0
	movaps	xmm0, xmm1
	movsd	QWORD PTR tv81[rbp], xmm0
	mov	edx, 1
	lea	rcx, QWORD PTR Result$[rbp]
	call	??A?$tmat4x4@N$0A@@glm@@QEAAAEAU?$tvec4@N$0A@@1@H@Z ; glm::tmat4x4<double,0>::operator[]
	mov	edx, 1
	mov	rcx, rax
	call	??A?$tvec4@N$0A@@glm@@QEAAAEANH@Z	; glm::tvec4<double,0>::operator[]
	movsd	xmm0, QWORD PTR tv81[rbp]
	movsd	QWORD PTR [rax], xmm0

; 150  : 		Result[3][0] = - (right + left) / (right - left);

	movsd	xmm0, QWORD PTR right$[rbp]
	addsd	xmm0, QWORD PTR left$[rbp]
	xorps	xmm0, QWORD PTR __xmm@80000000000000008000000000000000
	movsd	xmm1, QWORD PTR right$[rbp]
	subsd	xmm1, QWORD PTR left$[rbp]
	divsd	xmm0, xmm1
	movsd	QWORD PTR tv92[rbp], xmm0
	mov	edx, 3
	lea	rcx, QWORD PTR Result$[rbp]
	call	??A?$tmat4x4@N$0A@@glm@@QEAAAEAU?$tvec4@N$0A@@1@H@Z ; glm::tmat4x4<double,0>::operator[]
	xor	edx, edx
	mov	rcx, rax
	call	??A?$tvec4@N$0A@@glm@@QEAAAEANH@Z	; glm::tvec4<double,0>::operator[]
	movsd	xmm0, QWORD PTR tv92[rbp]
	movsd	QWORD PTR [rax], xmm0

; 151  : 		Result[3][1] = - (top + bottom) / (top - bottom);

	movsd	xmm0, QWORD PTR top$[rbp]
	addsd	xmm0, QWORD PTR bottom$[rbp]
	xorps	xmm0, QWORD PTR __xmm@80000000000000008000000000000000
	movsd	xmm1, QWORD PTR top$[rbp]
	subsd	xmm1, QWORD PTR bottom$[rbp]
	divsd	xmm0, xmm1
	movsd	QWORD PTR tv135[rbp], xmm0
	mov	edx, 3
	lea	rcx, QWORD PTR Result$[rbp]
	call	??A?$tmat4x4@N$0A@@glm@@QEAAAEAU?$tvec4@N$0A@@1@H@Z ; glm::tmat4x4<double,0>::operator[]
	mov	edx, 1
	mov	rcx, rax
	call	??A?$tvec4@N$0A@@glm@@QEAAAEANH@Z	; glm::tvec4<double,0>::operator[]
	movsd	xmm0, QWORD PTR tv135[rbp]
	movsd	QWORD PTR [rax], xmm0

; 152  : 
; 153  : #		if GLM_DEPTH_CLIP_SPACE == GLM_DEPTH_ZERO_TO_ONE
; 154  : 			Result[2][2] = - static_cast<T>(1) / (zFar - zNear);
; 155  : 			Result[3][2] = - zNear / (zFar - zNear);
; 156  : #		else
; 157  : 			Result[2][2] = - static_cast<T>(2) / (zFar - zNear);

	movsd	xmm0, QWORD PTR zFar$[rbp]
	subsd	xmm0, QWORD PTR zNear$[rbp]
	movsd	xmm1, QWORD PTR __real@c000000000000000
	divsd	xmm1, xmm0
	movaps	xmm0, xmm1
	movsd	QWORD PTR tv143[rbp], xmm0
	mov	edx, 2
	lea	rcx, QWORD PTR Result$[rbp]
	call	??A?$tmat4x4@N$0A@@glm@@QEAAAEAU?$tvec4@N$0A@@1@H@Z ; glm::tmat4x4<double,0>::operator[]
	mov	edx, 2
	mov	rcx, rax
	call	??A?$tvec4@N$0A@@glm@@QEAAAEANH@Z	; glm::tvec4<double,0>::operator[]
	movsd	xmm0, QWORD PTR tv143[rbp]
	movsd	QWORD PTR [rax], xmm0

; 158  : 			Result[3][2] = - (zFar + zNear) / (zFar - zNear);

	movsd	xmm0, QWORD PTR zFar$[rbp]
	addsd	xmm0, QWORD PTR zNear$[rbp]
	xorps	xmm0, QWORD PTR __xmm@80000000000000008000000000000000
	movsd	xmm1, QWORD PTR zFar$[rbp]
	subsd	xmm1, QWORD PTR zNear$[rbp]
	divsd	xmm0, xmm1
	movsd	QWORD PTR tv154[rbp], xmm0
	mov	edx, 3
	lea	rcx, QWORD PTR Result$[rbp]
	call	??A?$tmat4x4@N$0A@@glm@@QEAAAEAU?$tvec4@N$0A@@1@H@Z ; glm::tmat4x4<double,0>::operator[]
	mov	edx, 2
	mov	rcx, rax
	call	??A?$tvec4@N$0A@@glm@@QEAAAEANH@Z	; glm::tvec4<double,0>::operator[]
	movsd	xmm0, QWORD PTR tv154[rbp]
	movsd	QWORD PTR [rax], xmm0

; 159  : #		endif
; 160  : 
; 161  : 		return Result;

	lea	rax, QWORD PTR Result$[rbp]
	mov	rdi, QWORD PTR __$ReturnUdt$[rbp]
	mov	rsi, rax
	mov	ecx, 128				; 00000080H
	rep movsb
	mov	rax, QWORD PTR __$ReturnUdt$[rbp]

; 162  : 	}

	mov	rcx, QWORD PTR __$ArrayPad$[rbp]
	xor	rcx, rbp
	call	__security_check_cookie
	lea	rsp, QWORD PTR [rbp+224]
	pop	rdi
	pop	rsi
	pop	rbp
	ret	0
??$orthoRH@N@glm@@YA?AU?$tmat4x4@N$0A@@0@NNNNNN@Z ENDP	; glm::orthoRH<double>
_TEXT	ENDS
; Function compile flags: /Odtp /RTCu /ZI
; File c:\program files (x86)\microsoft visual studio\2017\enterprise\vc\tools\msvc\14.15.26726\include\xmemory0
;	COMDAT ??$_Get_size_of_n@$0BA@@std@@YA_K_K@Z
_TEXT	SEGMENT
_Max_possible$ = 0
_Result$ = 8
_Count$ = 96
??$_Get_size_of_n@$0BA@@std@@YA_K_K@Z PROC		; std::_Get_size_of_n<16>, COMDAT

; 23   : 	{	// gets the size of _Count copies of a type sized _Ty_size

$LN4:
	mov	QWORD PTR [rsp+8], rcx
	push	rbp
	sub	rsp, 112				; 00000070H
	lea	rbp, QWORD PTR [rsp+32]
	lea	rcx, OFFSET FLAT:__39AEDAD7_xmemory0
	call	__CheckForDebuggerJustMyCode

; 24   : 	constexpr size_t _Max_possible = static_cast<size_t>(-1) / _Ty_size;

	mov	rax, 1152921504606846975		; 0fffffffffffffffH
	mov	QWORD PTR _Max_possible$[rbp], rax

; 25   : 	size_t _Result = _Count * _Ty_size;

	imul	rax, QWORD PTR _Count$[rbp], 16
	mov	QWORD PTR _Result$[rbp], rax

; 26   : 	if (_Max_possible < _Count)

	mov	rax, 1152921504606846975		; 0fffffffffffffffH
	cmp	QWORD PTR _Count$[rbp], rax
	jbe	SHORT $LN2@Get_size_o

; 27   : 		{	// multiply overflow, try allocating all of memory and assume the
; 28   : 			// allocation function will throw bad_alloc
; 29   : 		_Result = static_cast<size_t>(-1);

	mov	QWORD PTR _Result$[rbp], -1
$LN2@Get_size_o:

; 30   : 		}
; 31   : 
; 32   : 	return (_Result);

	mov	rax, QWORD PTR _Result$[rbp]

; 33   : 	}

	lea	rsp, QWORD PTR [rbp+80]
	pop	rbp
	ret	0
??$_Get_size_of_n@$0BA@@std@@YA_K_K@Z ENDP		; std::_Get_size_of_n<16>
_TEXT	ENDS
; Function compile flags: /Odtp /RTCu /ZI
; File c:\program files (x86)\microsoft visual studio\2017\enterprise\vc\tools\msvc\14.15.26726\include\xmemory0
;	COMDAT ??$?0D@?$allocator@U_Container_proxy@std@@@std@@QEAA@AEBV?$allocator@D@1@@Z
_TEXT	SEGMENT
$T1 = 64
this$ = 96
__formal$ = 104
??$?0D@?$allocator@U_Container_proxy@std@@@std@@QEAA@AEBV?$allocator@D@1@@Z PROC ; std::allocator<std::_Container_proxy>::allocator<std::_Container_proxy><char>, COMDAT

; 986  : 		{	// construct from a related allocator (do nothing)

$LN3:
	mov	QWORD PTR [rsp+16], rdx
	mov	QWORD PTR [rsp+8], rcx
	push	rbp
	sub	rsp, 112				; 00000070H
	lea	rbp, QWORD PTR [rsp+32]
	mov	QWORD PTR $T1[rbp], -2
	lea	rcx, OFFSET FLAT:__39AEDAD7_xmemory0
	call	__CheckForDebuggerJustMyCode
	npad	1

; 987  : 		}

	mov	rax, QWORD PTR this$[rbp]
	lea	rsp, QWORD PTR [rbp+80]
	pop	rbp
	ret	0
??$?0D@?$allocator@U_Container_proxy@std@@@std@@QEAA@AEBV?$allocator@D@1@@Z ENDP ; std::allocator<std::_Container_proxy>::allocator<std::_Container_proxy><char>
_TEXT	ENDS
; Function compile flags: /Odtp /RTCu /ZI
; File c:\program files (x86)\microsoft visual studio\2017\enterprise\vc\tools\msvc\14.15.26726\include\xmemory0
;	COMDAT ??$construct@U_Container_proxy@std@@U12@@?$_Default_allocator_traits@V?$allocator@U_Container_proxy@std@@@std@@@std@@SAXAEAV?$allocator@U_Container_proxy@std@@@1@QEAU_Container_proxy@1@$$QEAU31@@Z
_TEXT	SEGMENT
$T1 = 64
__formal$ = 112
_Ptr$ = 120
<_Args_0>$ = 128
??$construct@U_Container_proxy@std@@U12@@?$_Default_allocator_traits@V?$allocator@U_Container_proxy@std@@@std@@@std@@SAXAEAV?$allocator@U_Container_proxy@std@@@1@QEAU_Container_proxy@1@$$QEAU31@@Z PROC ; std::_Default_allocator_traits<std::allocator<std::_Container_proxy> >::construct<std::_Container_proxy,std::_Container_proxy>, COMDAT

; 879  : 		{	// construct _Objty(_Types...) at _Ptr

$LN3:
	mov	QWORD PTR [rsp+24], r8
	mov	QWORD PTR [rsp+16], rdx
	mov	QWORD PTR [rsp+8], rcx
	push	rbp
	push	rsi
	push	rdi
	sub	rsp, 112				; 00000070H
	lea	rbp, QWORD PTR [rsp+32]
	lea	rcx, OFFSET FLAT:__39AEDAD7_xmemory0
	call	__CheckForDebuggerJustMyCode
	mov	rdx, QWORD PTR _Ptr$[rbp]
	mov	ecx, 16
	call	??2@YAPEAX_KPEAX@Z			; operator new
	mov	QWORD PTR $T1[rbp], rax
	mov	rcx, QWORD PTR <_Args_0>$[rbp]
	call	??$forward@U_Container_proxy@std@@@std@@YA$$QEAU_Container_proxy@0@AEAU10@@Z ; std::forward<std::_Container_proxy>
	mov	rdi, QWORD PTR $T1[rbp]
	mov	rsi, rax
	mov	ecx, 16
	rep movsb

; 880  : 		::new (const_cast<void *>(static_cast<const volatile void *>(_Ptr)))
; 881  : 			_Objty(_STD forward<_Types>(_Args)...);
; 882  : 		}

	lea	rsp, QWORD PTR [rbp+80]
	pop	rdi
	pop	rsi
	pop	rbp
	ret	0
??$construct@U_Container_proxy@std@@U12@@?$_Default_allocator_traits@V?$allocator@U_Container_proxy@std@@@std@@@std@@SAXAEAV?$allocator@U_Container_proxy@std@@@1@QEAU_Container_proxy@1@$$QEAU31@@Z ENDP ; std::_Default_allocator_traits<std::allocator<std::_Container_proxy> >::construct<std::_Container_proxy,std::_Container_proxy>
_TEXT	ENDS
; Function compile flags: /Odtp /RTCu /ZI
; File c:\program files (x86)\microsoft visual studio\2017\enterprise\vc\tools\msvc\14.15.26726\include\xstddef
;	COMDAT ??$_Unfancy@U_Container_proxy@std@@@std@@YAPEAU_Container_proxy@0@PEAU10@@Z
_TEXT	SEGMENT
_Ptr$ = 80
??$_Unfancy@U_Container_proxy@std@@@std@@YAPEAU_Container_proxy@0@PEAU10@@Z PROC ; std::_Unfancy<std::_Container_proxy>, COMDAT

; 345  : 	{	// do nothing for plain pointers

$LN3:
	mov	QWORD PTR [rsp+8], rcx
	push	rbp
	sub	rsp, 96					; 00000060H
	lea	rbp, QWORD PTR [rsp+32]
	lea	rcx, OFFSET FLAT:__30E3E102_xstddef
	call	__CheckForDebuggerJustMyCode

; 346  : 	return (_Ptr);

	mov	rax, QWORD PTR _Ptr$[rbp]

; 347  : 	}

	lea	rsp, QWORD PTR [rbp+64]
	pop	rbp
	ret	0
??$_Unfancy@U_Container_proxy@std@@@std@@YAPEAU_Container_proxy@0@PEAU10@@Z ENDP ; std::_Unfancy<std::_Container_proxy>
_TEXT	ENDS
; Function compile flags: /Odtp /RTCu /ZI
; File c:\program files (x86)\microsoft visual studio\2017\enterprise\vc\tools\msvc\14.15.26726\include\xmemory0
;	COMDAT ??$_Deallocate_plain@V?$allocator@U_Container_proxy@std@@@std@@$0A@@std@@YAXAEAV?$allocator@U_Container_proxy@std@@@0@QEAU_Container_proxy@0@@Z
_TEXT	SEGMENT
_Al$ = 80
_Ptr$ = 88
??$_Deallocate_plain@V?$allocator@U_Container_proxy@std@@@std@@$0A@@std@@YAXAEAV?$allocator@U_Container_proxy@std@@@0@QEAU_Container_proxy@0@@Z PROC ; std::_Deallocate_plain<std::allocator<std::_Container_proxy>,0>, COMDAT

; 1212 : 	{	// deallocate a plain pointer using an allocator, non-fancy pointers special case

$LN3:
	mov	QWORD PTR [rsp+16], rdx
	mov	QWORD PTR [rsp+8], rcx
	push	rbp
	sub	rsp, 96					; 00000060H
	lea	rbp, QWORD PTR [rsp+32]
	lea	rcx, OFFSET FLAT:__39AEDAD7_xmemory0
	call	__CheckForDebuggerJustMyCode

; 1213 : 	allocator_traits<_Alloc>::deallocate(_Al, _Ptr, 1);

	mov	r8d, 1
	mov	rdx, QWORD PTR _Ptr$[rbp]
	mov	rcx, QWORD PTR _Al$[rbp]
	call	?deallocate@?$_Default_allocator_traits@V?$allocator@U_Container_proxy@std@@@std@@@std@@SAXAEAV?$allocator@U_Container_proxy@std@@@2@QEAU_Container_proxy@2@_K@Z ; std::_Default_allocator_traits<std::allocator<std::_Container_proxy> >::deallocate

; 1214 : 	}

	lea	rsp, QWORD PTR [rbp+64]
	pop	rbp
	ret	0
??$_Deallocate_plain@V?$allocator@U_Container_proxy@std@@@std@@$0A@@std@@YAXAEAV?$allocator@U_Container_proxy@std@@@0@QEAU_Container_proxy@0@@Z ENDP ; std::_Deallocate_plain<std::allocator<std::_Container_proxy>,0>
_TEXT	ENDS
; Function compile flags: /Odtp /RTCu /ZI
; File c:\program files (x86)\microsoft visual studio\2017\enterprise\vc\tools\msvc\14.15.26726\include\xmemory0
;	COMDAT ??$destroy@U_Container_proxy@std@@@?$_Default_allocator_traits@V?$allocator@U_Container_proxy@std@@@std@@@std@@SAXAEAV?$allocator@U_Container_proxy@std@@@1@QEAU_Container_proxy@1@@Z
_TEXT	SEGMENT
__formal$ = 80
_Ptr$ = 88
??$destroy@U_Container_proxy@std@@@?$_Default_allocator_traits@V?$allocator@U_Container_proxy@std@@@std@@@std@@SAXAEAV?$allocator@U_Container_proxy@std@@@1@QEAU_Container_proxy@1@@Z PROC ; std::_Default_allocator_traits<std::allocator<std::_Container_proxy> >::destroy<std::_Container_proxy>, COMDAT

; 886  : 		{	// destroy object at _Ptr

$LN3:
	mov	QWORD PTR [rsp+16], rdx
	mov	QWORD PTR [rsp+8], rcx
	push	rbp
	sub	rsp, 96					; 00000060H
	lea	rbp, QWORD PTR [rsp+32]
	lea	rcx, OFFSET FLAT:__39AEDAD7_xmemory0
	call	__CheckForDebuggerJustMyCode

; 887  : 		_Ptr->~_Uty();
; 888  : 		}

	lea	rsp, QWORD PTR [rbp+64]
	pop	rbp
	ret	0
??$destroy@U_Container_proxy@std@@@?$_Default_allocator_traits@V?$allocator@U_Container_proxy@std@@@std@@@std@@SAXAEAV?$allocator@U_Container_proxy@std@@@1@QEAU_Container_proxy@1@@Z ENDP ; std::_Default_allocator_traits<std::allocator<std::_Container_proxy> >::destroy<std::_Container_proxy>
_TEXT	ENDS
; Function compile flags: /Odtp /RTCu /ZI
; File c:\program files (x86)\microsoft visual studio\2017\enterprise\vc\tools\msvc\14.15.26726\include\xmemory0
;	COMDAT ?deallocate@?$_Default_allocator_traits@V?$allocator@U_Container_proxy@std@@@std@@@std@@SAXAEAV?$allocator@U_Container_proxy@std@@@2@QEAU_Container_proxy@2@_K@Z
_TEXT	SEGMENT
__formal$ = 80
_Ptr$ = 88
_Count$ = 96
?deallocate@?$_Default_allocator_traits@V?$allocator@U_Container_proxy@std@@@std@@@std@@SAXAEAV?$allocator@U_Container_proxy@std@@@2@QEAU_Container_proxy@2@_K@Z PROC ; std::_Default_allocator_traits<std::allocator<std::_Container_proxy> >::deallocate, COMDAT

; 871  : 		{	// deallocate _Count elements at _Ptr

$LN3:
	mov	QWORD PTR [rsp+24], r8
	mov	QWORD PTR [rsp+16], rdx
	mov	QWORD PTR [rsp+8], rcx
	push	rbp
	sub	rsp, 96					; 00000060H
	lea	rbp, QWORD PTR [rsp+32]
	lea	rcx, OFFSET FLAT:__39AEDAD7_xmemory0
	call	__CheckForDebuggerJustMyCode

; 872  : 		// no overflow check on the following multiply; we assume _Allocate did that check
; 873  : 		_Deallocate<_New_alignof<value_type>>(_Ptr, sizeof(value_type) * _Count);

	imul	rax, QWORD PTR _Count$[rbp], 16
	mov	rdx, rax
	mov	rcx, QWORD PTR _Ptr$[rbp]
	call	??$_Deallocate@$0BA@$0A@@std@@YAXPEAX_K@Z ; std::_Deallocate<16,0>

; 874  : 		}

	lea	rsp, QWORD PTR [rbp+64]
	pop	rbp
	ret	0
?deallocate@?$_Default_allocator_traits@V?$allocator@U_Container_proxy@std@@@std@@@std@@SAXAEAV?$allocator@U_Container_proxy@std@@@2@QEAU_Container_proxy@2@_K@Z ENDP ; std::_Default_allocator_traits<std::allocator<std::_Container_proxy> >::deallocate
_TEXT	ENDS
; Function compile flags: /Odtp /RTCu /ZI
; File c:\program files (x86)\microsoft visual studio\2017\enterprise\vc\tools\msvc\14.15.26726\include\xmemory0
;	COMDAT ?allocate@?$allocator@U_Container_proxy@std@@@std@@QEAAPEAU_Container_proxy@2@_K@Z
_TEXT	SEGMENT
this$ = 80
_Count$ = 88
?allocate@?$allocator@U_Container_proxy@std@@@std@@QEAAPEAU_Container_proxy@2@_K@Z PROC ; std::allocator<std::_Container_proxy>::allocate, COMDAT

; 996  : 		{	// allocate array of _Count elements

$LN3:
	mov	QWORD PTR [rsp+16], rdx
	mov	QWORD PTR [rsp+8], rcx
	push	rbp
	sub	rsp, 96					; 00000060H
	lea	rbp, QWORD PTR [rsp+32]
	lea	rcx, OFFSET FLAT:__39AEDAD7_xmemory0
	call	__CheckForDebuggerJustMyCode

; 997  : 		return (static_cast<_Ty *>(_Allocate<_New_alignof<_Ty>>(_Get_size_of_n<sizeof(_Ty)>(_Count))));

	mov	rcx, QWORD PTR _Count$[rbp]
	call	??$_Get_size_of_n@$0BA@@std@@YA_K_K@Z	; std::_Get_size_of_n<16>
	mov	rcx, rax
	call	??$_Allocate@$0BA@U_Default_allocate_traits@std@@$0A@@std@@YAPEAX_K@Z ; std::_Allocate<16,std::_Default_allocate_traits,0>

; 998  : 		}

	lea	rsp, QWORD PTR [rbp+64]
	pop	rbp
	ret	0
?allocate@?$allocator@U_Container_proxy@std@@@std@@QEAAPEAU_Container_proxy@2@_K@Z ENDP ; std::allocator<std::_Container_proxy>::allocate
_TEXT	ENDS
; Function compile flags: /Odtp /RTCu /ZI
; File c:\program files (x86)\microsoft visual studio\2017\enterprise\vc\tools\msvc\14.15.26726\include\xmemory0
;	COMDAT ??$_Deallocate@$0BA@$0A@@std@@YAXPEAX_K@Z
_TEXT	SEGMENT
_Ptr$ = 80
_Bytes$ = 88
??$_Deallocate@$0BA@$0A@@std@@YAXPEAX_K@Z PROC		; std::_Deallocate<16,0>, COMDAT

; 199  : 	{	// deallocate storage allocated by _Allocate when !_HAS_ALIGNED_NEW || _Align <= __STDCPP_DEFAULT_NEW_ALIGNMENT__

$LN4:
	mov	QWORD PTR [rsp+16], rdx
	mov	QWORD PTR [rsp+8], rcx
	push	rbp
	sub	rsp, 96					; 00000060H
	lea	rbp, QWORD PTR [rsp+32]
	lea	rcx, OFFSET FLAT:__39AEDAD7_xmemory0
	call	__CheckForDebuggerJustMyCode

; 200  :  #if defined(_M_IX86) || defined(_M_X64)
; 201  : 	if (_Bytes >= _Big_allocation_threshold)

	cmp	QWORD PTR _Bytes$[rbp], 4096		; 00001000H
	jb	SHORT $LN2@Deallocate

; 202  : 		{	// boost the alignment of big allocations to help autovectorization
; 203  : 		_Adjust_manually_vector_aligned(_Ptr, _Bytes);

	lea	rdx, QWORD PTR _Bytes$[rbp]
	lea	rcx, QWORD PTR _Ptr$[rbp]
	call	?_Adjust_manually_vector_aligned@std@@YAXAEAPEAXAEA_K@Z ; std::_Adjust_manually_vector_aligned
$LN2@Deallocate:

; 204  : 		}
; 205  :  #endif /* defined(_M_IX86) || defined(_M_X64) */
; 206  : 
; 207  : 	::operator delete(_Ptr, _Bytes);

	mov	rdx, QWORD PTR _Bytes$[rbp]
	mov	rcx, QWORD PTR _Ptr$[rbp]
	call	??3@YAXPEAX_K@Z				; operator delete

; 208  : 	}

	lea	rsp, QWORD PTR [rbp+64]
	pop	rbp
	ret	0
??$_Deallocate@$0BA@$0A@@std@@YAXPEAX_K@Z ENDP		; std::_Deallocate<16,0>
_TEXT	ENDS
; Function compile flags: /Odtp /RTCu /ZI
; File c:\program files (x86)\microsoft visual studio\2017\enterprise\vc\tools\msvc\14.15.26726\include\xmemory0
;	COMDAT ??$_Allocate@$0BA@U_Default_allocate_traits@std@@$0A@@std@@YAPEAX_K@Z
_TEXT	SEGMENT
_Bytes$ = 80
??$_Allocate@$0BA@U_Default_allocate_traits@std@@$0A@@std@@YAPEAX_K@Z PROC ; std::_Allocate<16,std::_Default_allocate_traits,0>, COMDAT

; 180  : 	{	// allocate _Bytes when !_HAS_ALIGNED_NEW || _Align <= __STDCPP_DEFAULT_NEW_ALIGNMENT__

$LN5:
	mov	QWORD PTR [rsp+8], rcx
	push	rbp
	sub	rsp, 96					; 00000060H
	lea	rbp, QWORD PTR [rsp+32]
	lea	rcx, OFFSET FLAT:__39AEDAD7_xmemory0
	call	__CheckForDebuggerJustMyCode

; 181  :  #if defined(_M_IX86) || defined(_M_X64)
; 182  : 	if (_Bytes >= _Big_allocation_threshold)

	cmp	QWORD PTR _Bytes$[rbp], 4096		; 00001000H
	jb	SHORT $LN2@Allocate

; 183  : 		{	// boost the alignment of big allocations to help autovectorization
; 184  : 		return (_Allocate_manually_vector_aligned<_Traits>(_Bytes));

	mov	rcx, QWORD PTR _Bytes$[rbp]
	call	??$_Allocate_manually_vector_aligned@U_Default_allocate_traits@std@@@std@@YAPEAX_K@Z ; std::_Allocate_manually_vector_aligned<std::_Default_allocate_traits>
	jmp	SHORT $LN1@Allocate
$LN2@Allocate:

; 185  : 		}
; 186  :  #endif /* defined(_M_IX86) || defined(_M_X64) */
; 187  : 
; 188  : 	if (_Bytes != 0)

	cmp	QWORD PTR _Bytes$[rbp], 0
	je	SHORT $LN3@Allocate

; 189  : 		{
; 190  : 		return (_Traits::_Allocate(_Bytes));

	mov	rcx, QWORD PTR _Bytes$[rbp]
	call	?_Allocate@_Default_allocate_traits@std@@SAPEAX_K@Z ; std::_Default_allocate_traits::_Allocate
	jmp	SHORT $LN1@Allocate
$LN3@Allocate:

; 191  : 		}
; 192  : 
; 193  : 	return (nullptr);

	xor	eax, eax
$LN1@Allocate:

; 194  : 	}

	lea	rsp, QWORD PTR [rbp+64]
	pop	rbp
	ret	0
??$_Allocate@$0BA@U_Default_allocate_traits@std@@$0A@@std@@YAPEAX_K@Z ENDP ; std::_Allocate<16,std::_Default_allocate_traits,0>
_TEXT	ENDS
; Function compile flags: /Odtp /RTCu /ZI
; File c:\program files (x86)\microsoft visual studio\2017\enterprise\vc\tools\msvc\14.15.26726\include\xstddef
;	COMDAT ??$addressof@V?$_String_val@U?$_Simple_types@D@std@@@std@@@std@@YAPEAV?$_String_val@U?$_Simple_types@D@std@@@0@AEAV10@@Z
_TEXT	SEGMENT
$T1 = 64
_Val$ = 96
??$addressof@V?$_String_val@U?$_Simple_types@D@std@@@std@@@std@@YAPEAV?$_String_val@U?$_Simple_types@D@std@@@0@AEAV10@@Z PROC ; std::addressof<std::_String_val<std::_Simple_types<char> > >, COMDAT

; 329  : 	{	// return address of _Val

$LN3:
	mov	QWORD PTR [rsp+8], rcx
	push	rbp
	sub	rsp, 112				; 00000070H
	lea	rbp, QWORD PTR [rsp+32]
	mov	QWORD PTR $T1[rbp], -2
	lea	rcx, OFFSET FLAT:__30E3E102_xstddef
	call	__CheckForDebuggerJustMyCode
	npad	1

; 330  : 	return (__builtin_addressof(_Val));

	mov	rax, QWORD PTR _Val$[rbp]

; 331  : 	}

	lea	rsp, QWORD PTR [rbp+80]
	pop	rbp
	ret	0
??$addressof@V?$_String_val@U?$_Simple_types@D@std@@@std@@@std@@YAPEAV?$_String_val@U?$_Simple_types@D@std@@@0@AEAV10@@Z ENDP ; std::addressof<std::_String_val<std::_Simple_types<char> > >
_TEXT	ENDS
; Function compile flags: /Odtp /RTCu /ZI
; File c:\program files (x86)\microsoft visual studio\2017\enterprise\vc\tools\msvc\14.15.26726\include\xmemory0
;	COMDAT ??$construct@PEADAEBQEAD@?$_Default_allocator_traits@V?$allocator@D@std@@@std@@SAXAEAV?$allocator@D@1@QEAPEADAEBQEAD@Z
_TEXT	SEGMENT
$T1 = 64
__formal$ = 96
_Ptr$ = 104
<_Args_0>$ = 112
??$construct@PEADAEBQEAD@?$_Default_allocator_traits@V?$allocator@D@std@@@std@@SAXAEAV?$allocator@D@1@QEAPEADAEBQEAD@Z PROC ; std::_Default_allocator_traits<std::allocator<char> >::construct<char *,char * const &>, COMDAT

; 879  : 		{	// construct _Objty(_Types...) at _Ptr

$LN3:
	mov	QWORD PTR [rsp+24], r8
	mov	QWORD PTR [rsp+16], rdx
	mov	QWORD PTR [rsp+8], rcx
	push	rbp
	sub	rsp, 112				; 00000070H
	lea	rbp, QWORD PTR [rsp+32]
	lea	rcx, OFFSET FLAT:__39AEDAD7_xmemory0
	call	__CheckForDebuggerJustMyCode
	mov	rdx, QWORD PTR _Ptr$[rbp]
	mov	ecx, 8
	call	??2@YAPEAX_KPEAX@Z			; operator new
	mov	QWORD PTR $T1[rbp], rax
	mov	rcx, QWORD PTR <_Args_0>$[rbp]
	call	??$forward@AEBQEAD@std@@YAAEBQEADAEBQEAD@Z ; std::forward<char * const &>
	mov	rcx, QWORD PTR $T1[rbp]
	mov	rax, QWORD PTR [rax]
	mov	QWORD PTR [rcx], rax

; 880  : 		::new (const_cast<void *>(static_cast<const volatile void *>(_Ptr)))
; 881  : 			_Objty(_STD forward<_Types>(_Args)...);
; 882  : 		}

	lea	rsp, QWORD PTR [rbp+80]
	pop	rbp
	ret	0
??$construct@PEADAEBQEAD@?$_Default_allocator_traits@V?$allocator@D@std@@@std@@SAXAEAV?$allocator@D@1@QEAPEADAEBQEAD@Z ENDP ; std::_Default_allocator_traits<std::allocator<char> >::construct<char *,char * const &>
_TEXT	ENDS
; Function compile flags: /Odtp /RTCu /ZI
; File c:\program files (x86)\microsoft visual studio\2017\enterprise\vc\tools\msvc\14.15.26726\include\xstring
;	COMDAT ??$_Reallocate_for@V<lambda_66f57f934f28d61049862f64df852ff0>@@PEBD@?$basic_string@DU?$char_traits@D@std@@V?$allocator@D@2@@std@@QEAAAEAV01@_KV<lambda_66f57f934f28d61049862f64df852ff0>@@PEBD@Z
_TEXT	SEGMENT
_My_data$ = 0
_Old_capacity$ = 8
_New_capacity$ = 16
_Al$ = 24
_New_ptr$ = 32
__$ArrayPad$ = 104
this$ = 128
_New_size$ = 136
_Fn$ = 144
<_Args_0>$ = 152
??$_Reallocate_for@V<lambda_66f57f934f28d61049862f64df852ff0>@@PEBD@?$basic_string@DU?$char_traits@D@std@@V?$allocator@D@2@@std@@QEAAAEAV01@_KV<lambda_66f57f934f28d61049862f64df852ff0>@@PEBD@Z PROC ; std::basic_string<char,std::char_traits<char>,std::allocator<char> >::_Reallocate_for<<lambda_66f57f934f28d61049862f64df852ff0>,char const *>, COMDAT

; 3887 : 		{	// reallocate to store exactly _New_size elements, new buffer prepared by

	mov	QWORD PTR [rsp+32], r9
	mov	BYTE PTR [rsp+24], r8b
	mov	QWORD PTR [rsp+16], rdx
	mov	QWORD PTR [rsp+8], rcx
	push	rbp
	sub	rsp, 144				; 00000090H
	lea	rbp, QWORD PTR [rsp+32]
	mov	rax, QWORD PTR __security_cookie
	xor	rax, rbp
	mov	QWORD PTR __$ArrayPad$[rbp], rax
	lea	rcx, OFFSET FLAT:__D9BA934F_xstring
	call	__CheckForDebuggerJustMyCode

; 3888 : 			// _Fn(_New_ptr, _New_size, _Args...)
; 3889 : 		if (_New_size > max_size())

	mov	rcx, QWORD PTR this$[rbp]
	call	?max_size@?$basic_string@DU?$char_traits@D@std@@V?$allocator@D@2@@std@@QEBA_KXZ ; std::basic_string<char,std::char_traits<char>,std::allocator<char> >::max_size
	cmp	QWORD PTR _New_size$[rbp], rax
	jbe	SHORT $LN2@Reallocate

; 3890 : 			{
; 3891 : 			_Xlen();	// result too long

	call	?_Xlen@?$basic_string@DU?$char_traits@D@std@@V?$allocator@D@2@@std@@SAXXZ ; std::basic_string<char,std::char_traits<char>,std::allocator<char> >::_Xlen
$LN2@Reallocate:

; 3892 : 			}
; 3893 : 
; 3894 : 		auto& _My_data = this->_Get_data();

	mov	rcx, QWORD PTR this$[rbp]
	call	?_Get_data@?$_String_alloc@U?$_String_base_types@DV?$allocator@D@std@@@std@@@std@@QEAAAEAV?$_String_val@U?$_Simple_types@D@std@@@2@XZ ; std::_String_alloc<std::_String_base_types<char,std::allocator<char> > >::_Get_data
	mov	QWORD PTR _My_data$[rbp], rax

; 3895 : 		const size_type _Old_capacity = _My_data._Myres;

	mov	rax, QWORD PTR _My_data$[rbp]
	mov	rax, QWORD PTR [rax+32]
	mov	QWORD PTR _Old_capacity$[rbp], rax

; 3896 : 		const size_type _New_capacity = _Calculate_growth(_New_size);

	mov	rdx, QWORD PTR _New_size$[rbp]
	mov	rcx, QWORD PTR this$[rbp]
	call	?_Calculate_growth@?$basic_string@DU?$char_traits@D@std@@V?$allocator@D@2@@std@@QEBA_K_K@Z ; std::basic_string<char,std::char_traits<char>,std::allocator<char> >::_Calculate_growth
	mov	QWORD PTR _New_capacity$[rbp], rax

; 3897 : 		auto& _Al = this->_Getal();

	mov	rcx, QWORD PTR this$[rbp]
	call	?_Getal@?$_String_alloc@U?$_String_base_types@DV?$allocator@D@std@@@std@@@std@@QEAAAEAV?$allocator@D@2@XZ ; std::_String_alloc<std::_String_base_types<char,std::allocator<char> > >::_Getal
	mov	QWORD PTR _Al$[rbp], rax

; 3898 : 		const pointer _New_ptr = _Al.allocate(_New_capacity + 1); // throws

	mov	rax, QWORD PTR _New_capacity$[rbp]
	add	rax, 1
	mov	rcx, -1
	cmovb	rax, rcx
	mov	rdx, rax
	mov	rcx, QWORD PTR _Al$[rbp]
	call	?allocate@?$allocator@D@std@@QEAAPEAD_K@Z ; std::allocator<char>::allocate
	mov	QWORD PTR _New_ptr$[rbp], rax

; 3899 : 		_My_data._Orphan_all();

	mov	rcx, QWORD PTR _My_data$[rbp]
	call	?_Orphan_all@_Container_base12@std@@QEAAXXZ ; std::_Container_base12::_Orphan_all

; 3900 : 		_My_data._Mysize = _New_size;

	mov	rax, QWORD PTR _My_data$[rbp]
	mov	rcx, QWORD PTR _New_size$[rbp]
	mov	QWORD PTR [rax+24], rcx

; 3901 : 		_My_data._Myres = _New_capacity;

	mov	rax, QWORD PTR _My_data$[rbp]
	mov	rcx, QWORD PTR _New_capacity$[rbp]
	mov	QWORD PTR [rax+32], rcx

; 3902 : 		_Fn(_Unfancy(_New_ptr), _New_size, _Args...);

	mov	rcx, QWORD PTR _New_ptr$[rbp]
	call	??$_Unfancy@D@std@@YAPEADPEAD@Z		; std::_Unfancy<char>
	mov	r9, QWORD PTR <_Args_0>$[rbp]
	mov	r8, QWORD PTR _New_size$[rbp]
	mov	rdx, rax
	lea	rcx, QWORD PTR _Fn$[rbp]
	call	??R<lambda_66f57f934f28d61049862f64df852ff0>@@QEBAXQEAD_KQEBD@Z ; <lambda_66f57f934f28d61049862f64df852ff0>::operator()

; 3903 : 		if (this->_BUF_SIZE <= _Old_capacity)

	cmp	QWORD PTR _Old_capacity$[rbp], 16
	jb	SHORT $LN3@Reallocate

; 3904 : 			{
; 3905 : 			_Al.deallocate(_My_data._Bx._Ptr, _Old_capacity + 1);

	mov	rax, QWORD PTR _Old_capacity$[rbp]
	inc	rax
	mov	r8, rax
	mov	rax, QWORD PTR _My_data$[rbp]
	mov	rdx, QWORD PTR [rax+8]
	mov	rcx, QWORD PTR _Al$[rbp]
	call	?deallocate@?$allocator@D@std@@QEAAXQEAD_K@Z ; std::allocator<char>::deallocate

; 3906 : 			_My_data._Bx._Ptr = _New_ptr;

	mov	rax, QWORD PTR _My_data$[rbp]
	mov	rcx, QWORD PTR _New_ptr$[rbp]
	mov	QWORD PTR [rax+8], rcx

; 3907 : 			}
; 3908 : 		else

	jmp	SHORT $LN4@Reallocate
$LN3@Reallocate:

; 3909 : 			{
; 3910 : 			_Alty_traits::construct(_Al, _STD addressof(_My_data._Bx._Ptr), _New_ptr);

	mov	rax, QWORD PTR _My_data$[rbp]
	add	rax, 8
	mov	rcx, rax
	call	??$addressof@PEAD@std@@YAPEAPEADAEAPEAD@Z ; std::addressof<char *>
	lea	r8, QWORD PTR _New_ptr$[rbp]
	mov	rdx, rax
	mov	rcx, QWORD PTR _Al$[rbp]
	call	??$construct@PEADAEBQEAD@?$_Default_allocator_traits@V?$allocator@D@std@@@std@@SAXAEAV?$allocator@D@1@QEAPEADAEBQEAD@Z ; std::_Default_allocator_traits<std::allocator<char> >::construct<char *,char * const &>
$LN4@Reallocate:

; 3911 : 			}
; 3912 : 
; 3913 : 		return (*this);

	mov	rax, QWORD PTR this$[rbp]
$LN5@Reallocate:

; 3914 : 		}

	mov	rcx, QWORD PTR __$ArrayPad$[rbp]
	xor	rcx, rbp
	call	__security_check_cookie
	lea	rsp, QWORD PTR [rbp+112]
	pop	rbp
	ret	0
??$_Reallocate_for@V<lambda_66f57f934f28d61049862f64df852ff0>@@PEBD@?$basic_string@DU?$char_traits@D@std@@V?$allocator@D@2@@std@@QEAAAEAV01@_KV<lambda_66f57f934f28d61049862f64df852ff0>@@PEBD@Z ENDP ; std::basic_string<char,std::char_traits<char>,std::allocator<char> >::_Reallocate_for<<lambda_66f57f934f28d61049862f64df852ff0>,char const *>
_TEXT	ENDS
; Function compile flags: /Odtp /RTCu /ZI
; File c:\program files (x86)\microsoft visual studio\2017\enterprise\vc\tools\msvc\14.15.26726\include\xstring
;	COMDAT ??R<lambda_66f57f934f28d61049862f64df852ff0>@@QEBAXQEAD_KQEBD@Z
_TEXT	SEGMENT
$T1 = 64
this$ = 96
_New_ptr$ = 104
_Count$ = 112
_Ptr$ = 120
??R<lambda_66f57f934f28d61049862f64df852ff0>@@QEBAXQEAD_KQEBD@Z PROC ; <lambda_66f57f934f28d61049862f64df852ff0>::operator(), COMDAT

; 2668 : 		return (_Reallocate_for(_Count, [](_Elem * const _New_ptr, const size_type _Count, const _Elem * const _Ptr) {

	mov	QWORD PTR [rsp+32], r9
	mov	QWORD PTR [rsp+24], r8
	mov	QWORD PTR [rsp+16], rdx
	mov	QWORD PTR [rsp+8], rcx
	push	rbp
	sub	rsp, 112				; 00000070H
	lea	rbp, QWORD PTR [rsp+32]
	lea	rcx, OFFSET FLAT:__D9BA934F_xstring
	call	__CheckForDebuggerJustMyCode

; 2669 : 			_Traits::copy(_New_ptr, _Ptr, _Count);

	mov	r8, QWORD PTR _Count$[rbp]
	mov	rdx, QWORD PTR _Ptr$[rbp]
	mov	rcx, QWORD PTR _New_ptr$[rbp]
	call	?copy@?$char_traits@D@std@@SAPEADQEADQEBD_K@Z ; std::char_traits<char>::copy

; 2670 : 			_Traits::assign(_New_ptr[_Count], _Elem());

	mov	BYTE PTR $T1[rbp], 0
	mov	rax, QWORD PTR _Count$[rbp]
	mov	rcx, QWORD PTR _New_ptr$[rbp]
	add	rcx, rax
	mov	rax, rcx
	lea	rdx, QWORD PTR $T1[rbp]
	mov	rcx, rax
	call	?assign@?$char_traits@D@std@@SAXAEADAEBD@Z ; std::char_traits<char>::assign

; 2671 : 			}, _Ptr));

	lea	rsp, QWORD PTR [rbp+80]
	pop	rbp
	ret	0
??R<lambda_66f57f934f28d61049862f64df852ff0>@@QEBAXQEAD_KQEBD@Z ENDP ; <lambda_66f57f934f28d61049862f64df852ff0>::operator()
_TEXT	ENDS
; Function compile flags: /Odtp /RTCu /ZI
; File c:\program files (x86)\microsoft visual studio\2017\enterprise\vc\tools\msvc\14.15.26726\include\utility
;	COMDAT ??$_Max_value@_K@std@@YAAEB_KAEB_K0@Z
_TEXT	SEGMENT
$T1 = 64
$T2 = 72
tv65 = 80
_Left$ = 112
_Right$ = 120
??$_Max_value@_K@std@@YAAEB_KAEB_K0@Z PROC		; std::_Max_value<unsigned __int64>, COMDAT

; 32   : 	{	// return larger of _Left and _Right

$LN5:
	mov	QWORD PTR [rsp+16], rdx
	mov	QWORD PTR [rsp+8], rcx
	push	rbp
	sub	rsp, 128				; 00000080H
	lea	rbp, QWORD PTR [rsp+32]
	mov	QWORD PTR $T2[rbp], -2
	lea	rcx, OFFSET FLAT:__C7FC7610_utility
	call	__CheckForDebuggerJustMyCode
	npad	1

; 33   : 	return (_Left < _Right ? _Right : _Left);

	mov	rax, QWORD PTR _Left$[rbp]
	mov	rcx, QWORD PTR _Right$[rbp]
	mov	rcx, QWORD PTR [rcx]
	cmp	QWORD PTR [rax], rcx
	jae	SHORT $LN3@Max_value
	mov	rax, QWORD PTR _Right$[rbp]
	mov	QWORD PTR tv65[rbp], rax
	jmp	SHORT $LN4@Max_value
$LN3@Max_value:
	mov	rax, QWORD PTR _Left$[rbp]
	mov	QWORD PTR tv65[rbp], rax
$LN4@Max_value:
	mov	rax, QWORD PTR tv65[rbp]
	mov	QWORD PTR $T1[rbp], rax
	mov	rax, QWORD PTR $T1[rbp]

; 34   : 	}

	lea	rsp, QWORD PTR [rbp+96]
	pop	rbp
	ret	0
??$_Max_value@_K@std@@YAAEB_KAEB_K0@Z ENDP		; std::_Max_value<unsigned __int64>
_TEXT	ENDS
; Function compile flags: /Odtp /RTCu /ZI
; File c:\program files (x86)\microsoft visual studio\2017\enterprise\vc\tools\msvc\14.15.26726\include\xmemory0
;	COMDAT ??$destroy@PEAD@?$_Default_allocator_traits@V?$allocator@D@std@@@std@@SAXAEAV?$allocator@D@1@QEAPEAD@Z
_TEXT	SEGMENT
__formal$ = 80
_Ptr$ = 88
??$destroy@PEAD@?$_Default_allocator_traits@V?$allocator@D@std@@@std@@SAXAEAV?$allocator@D@1@QEAPEAD@Z PROC ; std::_Default_allocator_traits<std::allocator<char> >::destroy<char *>, COMDAT

; 886  : 		{	// destroy object at _Ptr

$LN3:
	mov	QWORD PTR [rsp+16], rdx
	mov	QWORD PTR [rsp+8], rcx
	push	rbp
	sub	rsp, 96					; 00000060H
	lea	rbp, QWORD PTR [rsp+32]
	lea	rcx, OFFSET FLAT:__39AEDAD7_xmemory0
	call	__CheckForDebuggerJustMyCode

; 887  : 		_Ptr->~_Uty();
; 888  : 		}

	lea	rsp, QWORD PTR [rbp+64]
	pop	rbp
	ret	0
??$destroy@PEAD@?$_Default_allocator_traits@V?$allocator@D@std@@@std@@SAXAEAV?$allocator@D@1@QEAPEAD@Z ENDP ; std::_Default_allocator_traits<std::allocator<char> >::destroy<char *>
_TEXT	ENDS
; Function compile flags: /Odtp /RTCu /ZI
; File c:\program files (x86)\microsoft visual studio\2017\enterprise\vc\tools\msvc\14.15.26726\include\xstddef
;	COMDAT ??$addressof@PEAD@std@@YAPEAPEADAEAPEAD@Z
_TEXT	SEGMENT
$T1 = 64
_Val$ = 96
??$addressof@PEAD@std@@YAPEAPEADAEAPEAD@Z PROC		; std::addressof<char *>, COMDAT

; 329  : 	{	// return address of _Val

$LN3:
	mov	QWORD PTR [rsp+8], rcx
	push	rbp
	sub	rsp, 112				; 00000070H
	lea	rbp, QWORD PTR [rsp+32]
	mov	QWORD PTR $T1[rbp], -2
	lea	rcx, OFFSET FLAT:__30E3E102_xstddef
	call	__CheckForDebuggerJustMyCode
	npad	1

; 330  : 	return (__builtin_addressof(_Val));

	mov	rax, QWORD PTR _Val$[rbp]

; 331  : 	}

	lea	rsp, QWORD PTR [rbp+80]
	pop	rbp
	ret	0
??$addressof@PEAD@std@@YAPEAPEADAEAPEAD@Z ENDP		; std::addressof<char *>
_TEXT	ENDS
; Function compile flags: /Odtp /RTCu /ZI
; File c:\program files (x86)\microsoft visual studio\2017\enterprise\vc\tools\msvc\14.15.26726\include\xutility
;	COMDAT ??$?0$$V@?$_Compressed_pair@V?$allocator@D@std@@V?$_String_val@U?$_Simple_types@D@std@@@2@$00@std@@QEAA@U_Zero_then_variadic_args_t@1@@Z
_TEXT	SEGMENT
this$ = 80
__formal$ = 88
??$?0$$V@?$_Compressed_pair@V?$allocator@D@std@@V?$_String_val@U?$_Simple_types@D@std@@@2@$00@std@@QEAA@U_Zero_then_variadic_args_t@1@@Z PROC ; std::_Compressed_pair<std::allocator<char>,std::_String_val<std::_Simple_types<char> >,1>::_Compressed_pair<std::allocator<char>,std::_String_val<std::_Simple_types<char> >,1><>, COMDAT

; 277  : 		: _Ty1(), _Myval2(_STD forward<_Other2>(_Val2)...)

$LN4:
	mov	BYTE PTR [rsp+16], dl
	mov	QWORD PTR [rsp+8], rcx
	push	rbp
	sub	rsp, 96					; 00000060H
	lea	rbp, QWORD PTR [rsp+32]
	lea	rcx, OFFSET FLAT:__E8FD1B86_xutility
	call	__CheckForDebuggerJustMyCode
	mov	rcx, QWORD PTR this$[rbp]
	call	??0?$allocator@D@std@@QEAA@XZ		; std::allocator<char>::allocator<char>
	mov	rax, QWORD PTR this$[rbp]
	mov	rcx, rax
	call	??0?$_String_val@U?$_Simple_types@D@std@@@std@@QEAA@XZ ; std::_String_val<std::_Simple_types<char> >::_String_val<std::_Simple_types<char> >

; 278  : 		{	// construct from forwarded values
; 279  : 		}

	mov	rax, QWORD PTR this$[rbp]
	lea	rsp, QWORD PTR [rbp+64]
	pop	rbp
	ret	0
??$?0$$V@?$_Compressed_pair@V?$allocator@D@std@@V?$_String_val@U?$_Simple_types@D@std@@@2@$00@std@@QEAA@U_Zero_then_variadic_args_t@1@@Z ENDP ; std::_Compressed_pair<std::allocator<char>,std::_String_val<std::_Simple_types<char> >,1>::_Compressed_pair<std::allocator<char>,std::_String_val<std::_Simple_types<char> >,1><>
_TEXT	ENDS
; Function compile flags: /Odtp /RTCu /ZI
; File c:\program files (x86)\microsoft visual studio\2017\enterprise\vc\tools\msvc\14.15.26726\include\xstddef
;	COMDAT ??$_Unfancy@D@std@@YAPEADPEAD@Z
_TEXT	SEGMENT
_Ptr$ = 80
??$_Unfancy@D@std@@YAPEADPEAD@Z PROC			; std::_Unfancy<char>, COMDAT

; 345  : 	{	// do nothing for plain pointers

$LN3:
	mov	QWORD PTR [rsp+8], rcx
	push	rbp
	sub	rsp, 96					; 00000060H
	lea	rbp, QWORD PTR [rsp+32]
	lea	rcx, OFFSET FLAT:__30E3E102_xstddef
	call	__CheckForDebuggerJustMyCode

; 346  : 	return (_Ptr);

	mov	rax, QWORD PTR _Ptr$[rbp]

; 347  : 	}

	lea	rsp, QWORD PTR [rbp+64]
	pop	rbp
	ret	0
??$_Unfancy@D@std@@YAPEADPEAD@Z ENDP			; std::_Unfancy<char>
_TEXT	ENDS
; Function compile flags: /Odtp /RTCu /ZI
; File l:\dev\featherfallengine\depends\install\include\glm\detail\type_vec2.inl
;	COMDAT ??$?0M$0A@@?$tvec2@M$0A@@glm@@QEAA@AEBU?$tvec4@M$0A@@1@@Z
_TEXT	SEGMENT
this$ = 80
v$ = 88
??$?0M$0A@@?$tvec2@M$0A@@glm@@QEAA@AEBU?$tvec4@M$0A@@1@@Z PROC ; glm::tvec2<float,0>::tvec2<float,0><float,0>, COMDAT

; 96   : 	{}

$LN3:
	mov	QWORD PTR [rsp+16], rdx
	mov	QWORD PTR [rsp+8], rcx
	push	rbp
	sub	rsp, 96					; 00000060H
	lea	rbp, QWORD PTR [rsp+32]
	lea	rcx, OFFSET FLAT:__2F30B87A_type_vec2.inl
	call	__CheckForDebuggerJustMyCode

; 94   : 		: x(static_cast<T>(v.x))

	mov	rax, QWORD PTR this$[rbp]
	mov	rcx, QWORD PTR v$[rbp]
	movss	xmm0, DWORD PTR [rcx]
	movss	DWORD PTR [rax], xmm0

; 95   : 		, y(static_cast<T>(v.y))

	mov	rax, QWORD PTR this$[rbp]
	mov	rcx, QWORD PTR v$[rbp]
	movss	xmm0, DWORD PTR [rcx+4]
	movss	DWORD PTR [rax+4], xmm0

; 96   : 	{}

	mov	rax, QWORD PTR this$[rbp]
	lea	rsp, QWORD PTR [rbp+64]
	pop	rbp
	ret	0
??$?0M$0A@@?$tvec2@M$0A@@glm@@QEAA@AEBU?$tvec4@M$0A@@1@@Z ENDP ; glm::tvec2<float,0>::tvec2<float,0><float,0>
_TEXT	ENDS
; Function compile flags: /Odtp /RTCu /ZI
; File l:\dev\featherfallengine\depends\install\include\glm\detail\type_mat4x4.inl
;	COMDAT ??$?0N$0A@@?$tmat4x4@M$0A@@glm@@QEAA@AEBU?$tmat4x4@N$0A@@1@@Z
_TEXT	SEGMENT
$T1 = 64
$T2 = 80
$T3 = 96
$T4 = 112
this$ = 160
m$ = 168
??$?0N$0A@@?$tmat4x4@M$0A@@glm@@QEAA@AEBU?$tmat4x4@N$0A@@1@@Z PROC ; glm::tmat4x4<float,0>::tmat4x4<float,0><double,0>, COMDAT

; 93   : 	{

$LN3:
	mov	QWORD PTR [rsp+16], rdx
	mov	QWORD PTR [rsp+8], rcx
	push	rbp
	push	rsi
	push	rdi
	sub	rsp, 160				; 000000a0H
	lea	rbp, QWORD PTR [rsp+32]
	lea	rcx, OFFSET FLAT:__BF97B2F5_type_mat4x4.inl
	call	__CheckForDebuggerJustMyCode
	lea	r9, OFFSET FLAT:??0?$tvec4@M$0A@@glm@@QEAA@XZ ; glm::tvec4<float,0>::tvec4<float,0>
	mov	r8d, 4
	mov	edx, 16
	mov	rcx, QWORD PTR this$[rbp]
	call	??_H@YAXPEAX_K1P6APEAX0@Z@Z

; 94   : 		this->value[0] = col_type(m[0]);

	xor	edx, edx
	mov	rcx, QWORD PTR m$[rbp]
	call	??A?$tmat4x4@N$0A@@glm@@QEBAAEBU?$tvec4@N$0A@@1@H@Z ; glm::tmat4x4<double,0>::operator[]
	mov	rdx, rax
	lea	rcx, QWORD PTR $T1[rbp]
	call	??$?0N$0A@@?$tvec4@M$0A@@glm@@QEAA@AEBU?$tvec4@N$0A@@1@@Z ; glm::tvec4<float,0>::tvec4<float,0><double,0>
	mov	ecx, 16
	imul	rcx, rcx, 0
	mov	rdx, QWORD PTR this$[rbp]
	lea	rdi, QWORD PTR [rdx+rcx]
	mov	rsi, rax
	mov	ecx, 16
	rep movsb

; 95   : 		this->value[1] = col_type(m[1]);

	mov	edx, 1
	mov	rcx, QWORD PTR m$[rbp]
	call	??A?$tmat4x4@N$0A@@glm@@QEBAAEBU?$tvec4@N$0A@@1@H@Z ; glm::tmat4x4<double,0>::operator[]
	mov	rdx, rax
	lea	rcx, QWORD PTR $T2[rbp]
	call	??$?0N$0A@@?$tvec4@M$0A@@glm@@QEAA@AEBU?$tvec4@N$0A@@1@@Z ; glm::tvec4<float,0>::tvec4<float,0><double,0>
	mov	ecx, 16
	imul	rcx, rcx, 1
	mov	rdx, QWORD PTR this$[rbp]
	lea	rdi, QWORD PTR [rdx+rcx]
	mov	rsi, rax
	mov	ecx, 16
	rep movsb

; 96   : 		this->value[2] = col_type(m[2]);

	mov	edx, 2
	mov	rcx, QWORD PTR m$[rbp]
	call	??A?$tmat4x4@N$0A@@glm@@QEBAAEBU?$tvec4@N$0A@@1@H@Z ; glm::tmat4x4<double,0>::operator[]
	mov	rdx, rax
	lea	rcx, QWORD PTR $T3[rbp]
	call	??$?0N$0A@@?$tvec4@M$0A@@glm@@QEAA@AEBU?$tvec4@N$0A@@1@@Z ; glm::tvec4<float,0>::tvec4<float,0><double,0>
	mov	ecx, 16
	imul	rcx, rcx, 2
	mov	rdx, QWORD PTR this$[rbp]
	lea	rdi, QWORD PTR [rdx+rcx]
	mov	rsi, rax
	mov	ecx, 16
	rep movsb

; 97   : 		this->value[3] = col_type(m[3]);

	mov	edx, 3
	mov	rcx, QWORD PTR m$[rbp]
	call	??A?$tmat4x4@N$0A@@glm@@QEBAAEBU?$tvec4@N$0A@@1@H@Z ; glm::tmat4x4<double,0>::operator[]
	mov	rdx, rax
	lea	rcx, QWORD PTR $T4[rbp]
	call	??$?0N$0A@@?$tvec4@M$0A@@glm@@QEAA@AEBU?$tvec4@N$0A@@1@@Z ; glm::tvec4<float,0>::tvec4<float,0><double,0>
	mov	ecx, 16
	imul	rcx, rcx, 3
	mov	rdx, QWORD PTR this$[rbp]
	lea	rdi, QWORD PTR [rdx+rcx]
	mov	rsi, rax
	mov	ecx, 16
	rep movsb

; 98   : 	}

	mov	rax, QWORD PTR this$[rbp]
	lea	rsp, QWORD PTR [rbp+128]
	pop	rdi
	pop	rsi
	pop	rbp
	ret	0
??$?0N$0A@@?$tmat4x4@M$0A@@glm@@QEAA@AEBU?$tmat4x4@N$0A@@1@@Z ENDP ; glm::tmat4x4<float,0>::tmat4x4<float,0><double,0>
_TEXT	ENDS
; Function compile flags: /Odtp /RTCu /ZI
; File l:\dev\featherfallengine\depends\install\include\glm\detail\type_mat4x4.inl
;	COMDAT ??A?$tmat4x4@N$0A@@glm@@QEBAAEBU?$tvec4@N$0A@@1@H@Z
_TEXT	SEGMENT
this$ = 80
i$ = 88
??A?$tmat4x4@N$0A@@glm@@QEBAAEBU?$tvec4@N$0A@@1@H@Z PROC ; glm::tmat4x4<double,0>::operator[], COMDAT

; 248  : 	{

$LN4:
	mov	DWORD PTR [rsp+16], edx
	mov	QWORD PTR [rsp+8], rcx
	push	rbp
	sub	rsp, 96					; 00000060H
	lea	rbp, QWORD PTR [rsp+32]
	lea	rcx, OFFSET FLAT:__BF97B2F5_type_mat4x4.inl
	call	__CheckForDebuggerJustMyCode

; 249  : 		assert(i < this->length());

	call	?length@?$tmat4x4@N$0A@@glm@@SAHXZ	; glm::tmat4x4<double,0>::length
	cmp	DWORD PTR i$[rbp], eax
	jl	SHORT $LN3@operator
	mov	r8d, 249				; 000000f9H
	lea	rdx, OFFSET FLAT:??_C@_1JI@BDACPION@?$AAl?$AA?3?$AA?2?$AAd?$AAe?$AAv?$AA?2?$AAf?$AAe?$AAa?$AAt?$AAh?$AAe?$AAr?$AAf@
	lea	rcx, OFFSET FLAT:??_C@_1CG@KOFHLCJL@?$AAi?$AA?5?$AA?$DM?$AA?5?$AAt?$AAh?$AAi?$AAs?$AA?9?$AA?$DO?$AAl?$AAe?$AAn?$AAg?$AAt@
	call	QWORD PTR __imp__wassert
	xor	eax, eax
$LN3@operator:

; 250  : 		return this->value[i];

	movsxd	rax, DWORD PTR i$[rbp]
	imul	rax, rax, 32				; 00000020H
	mov	rcx, QWORD PTR this$[rbp]
	add	rcx, rax
	mov	rax, rcx

; 251  : 	}

	lea	rsp, QWORD PTR [rbp+64]
	pop	rbp
	ret	0
??A?$tmat4x4@N$0A@@glm@@QEBAAEBU?$tvec4@N$0A@@1@H@Z ENDP ; glm::tmat4x4<double,0>::operator[]
_TEXT	ENDS
; Function compile flags: /Odtp /RTCu /ZI
; File l:\dev\featherfallengine\depends\install\include\glm\detail\type_mat4x4.inl
;	COMDAT ??A?$tmat4x4@N$0A@@glm@@QEAAAEAU?$tvec4@N$0A@@1@H@Z
_TEXT	SEGMENT
this$ = 80
i$ = 88
??A?$tmat4x4@N$0A@@glm@@QEAAAEAU?$tvec4@N$0A@@1@H@Z PROC ; glm::tmat4x4<double,0>::operator[], COMDAT

; 241  : 	{

$LN4:
	mov	DWORD PTR [rsp+16], edx
	mov	QWORD PTR [rsp+8], rcx
	push	rbp
	sub	rsp, 96					; 00000060H
	lea	rbp, QWORD PTR [rsp+32]
	lea	rcx, OFFSET FLAT:__BF97B2F5_type_mat4x4.inl
	call	__CheckForDebuggerJustMyCode

; 242  : 		assert(i < this->length());

	call	?length@?$tmat4x4@N$0A@@glm@@SAHXZ	; glm::tmat4x4<double,0>::length
	cmp	DWORD PTR i$[rbp], eax
	jl	SHORT $LN3@operator
	mov	r8d, 242				; 000000f2H
	lea	rdx, OFFSET FLAT:??_C@_1JI@BDACPION@?$AAl?$AA?3?$AA?2?$AAd?$AAe?$AAv?$AA?2?$AAf?$AAe?$AAa?$AAt?$AAh?$AAe?$AAr?$AAf@
	lea	rcx, OFFSET FLAT:??_C@_1CG@KOFHLCJL@?$AAi?$AA?5?$AA?$DM?$AA?5?$AAt?$AAh?$AAi?$AAs?$AA?9?$AA?$DO?$AAl?$AAe?$AAn?$AAg?$AAt@
	call	QWORD PTR __imp__wassert
	xor	eax, eax
$LN3@operator:

; 243  : 		return this->value[i];

	movsxd	rax, DWORD PTR i$[rbp]
	imul	rax, rax, 32				; 00000020H
	mov	rcx, QWORD PTR this$[rbp]
	add	rcx, rax
	mov	rax, rcx

; 244  : 	}

	lea	rsp, QWORD PTR [rbp+64]
	pop	rbp
	ret	0
??A?$tmat4x4@N$0A@@glm@@QEAAAEAU?$tvec4@N$0A@@1@H@Z ENDP ; glm::tmat4x4<double,0>::operator[]
_TEXT	ENDS
; Function compile flags: /Odtp /RTCu /ZI
; File l:\dev\featherfallengine\depends\install\include\glm\detail\type_mat4x4.hpp
;	COMDAT ?length@?$tmat4x4@N$0A@@glm@@SAHXZ
_TEXT	SEGMENT
?length@?$tmat4x4@N$0A@@glm@@SAHXZ PROC			; glm::tmat4x4<double,0>::length, COMDAT

; 84   : 		GLM_FUNC_DECL static length_type length(){return 4;}

$LN3:
	push	rbp
	sub	rsp, 96					; 00000060H
	lea	rbp, QWORD PTR [rsp+32]
	lea	rcx, OFFSET FLAT:__7E15BB52_type_mat4x4.hpp
	call	__CheckForDebuggerJustMyCode
	mov	eax, 4
	lea	rsp, QWORD PTR [rbp+64]
	pop	rbp
	ret	0
?length@?$tmat4x4@N$0A@@glm@@SAHXZ ENDP			; glm::tmat4x4<double,0>::length
_TEXT	ENDS
; Function compile flags: /Odtp /RTCu /ZI
; File l:\dev\featherfallengine\depends\install\include\glm\detail\type_mat4x4.inl
;	COMDAT ??0?$tmat4x4@N$0A@@glm@@QEAA@AEBN@Z
_TEXT	SEGMENT
$T1 = 64
$T2 = 96
$T3 = 128
$T4 = 160
this$ = 224
s$ = 232
??0?$tmat4x4@N$0A@@glm@@QEAA@AEBN@Z PROC		; glm::tmat4x4<double,0>::tmat4x4<double,0>, COMDAT

; 50   : 	{

$LN3:
	mov	QWORD PTR [rsp+16], rdx
	mov	QWORD PTR [rsp+8], rcx
	push	rbp
	push	rsi
	push	rdi
	sub	rsp, 240				; 000000f0H
	lea	rbp, QWORD PTR [rsp+48]
	lea	rcx, OFFSET FLAT:__BF97B2F5_type_mat4x4.inl
	call	__CheckForDebuggerJustMyCode
	lea	r9, OFFSET FLAT:??0?$tvec4@N$0A@@glm@@QEAA@XZ ; glm::tvec4<double,0>::tvec4<double,0>
	mov	r8d, 4
	mov	edx, 32					; 00000020H
	mov	rcx, QWORD PTR this$[rbp]
	call	??_H@YAXPEAX_K1P6APEAX0@Z@Z

; 51   : 		this->value[0] = col_type(s, 0, 0, 0);

	mov	DWORD PTR [rsp+32], 0
	xor	r9d, r9d
	xor	r8d, r8d
	mov	rax, QWORD PTR s$[rbp]
	movsd	xmm1, QWORD PTR [rax]
	lea	rcx, QWORD PTR $T1[rbp]
	call	??$?0NHHH@?$tvec4@N$0A@@glm@@QEAA@NHHH@Z ; glm::tvec4<double,0>::tvec4<double,0><double,int,int,int>
	mov	ecx, 32					; 00000020H
	imul	rcx, rcx, 0
	mov	rdx, QWORD PTR this$[rbp]
	lea	rdi, QWORD PTR [rdx+rcx]
	mov	rsi, rax
	mov	ecx, 32					; 00000020H
	rep movsb

; 52   : 		this->value[1] = col_type(0, s, 0, 0);

	mov	DWORD PTR [rsp+32], 0
	xor	r9d, r9d
	mov	rax, QWORD PTR s$[rbp]
	movsd	xmm2, QWORD PTR [rax]
	xor	edx, edx
	lea	rcx, QWORD PTR $T2[rbp]
	call	??$?0HNHH@?$tvec4@N$0A@@glm@@QEAA@HNHH@Z ; glm::tvec4<double,0>::tvec4<double,0><int,double,int,int>
	mov	ecx, 32					; 00000020H
	imul	rcx, rcx, 1
	mov	rdx, QWORD PTR this$[rbp]
	lea	rdi, QWORD PTR [rdx+rcx]
	mov	rsi, rax
	mov	ecx, 32					; 00000020H
	rep movsb

; 53   : 		this->value[2] = col_type(0, 0, s, 0);

	mov	DWORD PTR [rsp+32], 0
	mov	rax, QWORD PTR s$[rbp]
	movsd	xmm3, QWORD PTR [rax]
	xor	r8d, r8d
	xor	edx, edx
	lea	rcx, QWORD PTR $T3[rbp]
	call	??$?0HHNH@?$tvec4@N$0A@@glm@@QEAA@HHNH@Z ; glm::tvec4<double,0>::tvec4<double,0><int,int,double,int>
	mov	ecx, 32					; 00000020H
	imul	rcx, rcx, 2
	mov	rdx, QWORD PTR this$[rbp]
	lea	rdi, QWORD PTR [rdx+rcx]
	mov	rsi, rax
	mov	ecx, 32					; 00000020H
	rep movsb

; 54   : 		this->value[3] = col_type(0, 0, 0, s);

	mov	rax, QWORD PTR s$[rbp]
	movsd	xmm0, QWORD PTR [rax]
	movsd	QWORD PTR [rsp+32], xmm0
	xor	r9d, r9d
	xor	r8d, r8d
	xor	edx, edx
	lea	rcx, QWORD PTR $T4[rbp]
	call	??$?0HHHN@?$tvec4@N$0A@@glm@@QEAA@HHHN@Z ; glm::tvec4<double,0>::tvec4<double,0><int,int,int,double>
	mov	ecx, 32					; 00000020H
	imul	rcx, rcx, 3
	mov	rdx, QWORD PTR this$[rbp]
	lea	rdi, QWORD PTR [rdx+rcx]
	mov	rsi, rax
	mov	ecx, 32					; 00000020H
	rep movsb

; 55   : 	}

	mov	rax, QWORD PTR this$[rbp]
	lea	rsp, QWORD PTR [rbp+192]
	pop	rdi
	pop	rsi
	pop	rbp
	ret	0
??0?$tmat4x4@N$0A@@glm@@QEAA@AEBN@Z ENDP		; glm::tmat4x4<double,0>::tmat4x4<double,0>
_TEXT	ENDS
; Function compile flags: /Odtp /RTCu /ZI
; File l:\dev\featherfallengine\depends\install\include\glm\detail\type_vec4.inl
;	COMDAT ??0?$tvec4@N$0A@@glm@@QEAA@XZ
_TEXT	SEGMENT
this$ = 80
??0?$tvec4@N$0A@@glm@@QEAA@XZ PROC			; glm::tvec4<double,0>::tvec4<double,0>, COMDAT

; 163  : 		{}

$LN3:
	mov	QWORD PTR [rsp+8], rcx
	push	rbp
	sub	rsp, 96					; 00000060H
	lea	rbp, QWORD PTR [rsp+32]
	lea	rcx, OFFSET FLAT:__A0704DDA_type_vec4.inl
	call	__CheckForDebuggerJustMyCode

; 161  : 				: x(0), y(0), z(0), w(0)

	mov	rax, QWORD PTR this$[rbp]
	xorps	xmm0, xmm0
	movsd	QWORD PTR [rax], xmm0
	mov	rax, QWORD PTR this$[rbp]
	xorps	xmm0, xmm0
	movsd	QWORD PTR [rax+8], xmm0
	mov	rax, QWORD PTR this$[rbp]
	xorps	xmm0, xmm0
	movsd	QWORD PTR [rax+16], xmm0
	mov	rax, QWORD PTR this$[rbp]
	xorps	xmm0, xmm0
	movsd	QWORD PTR [rax+24], xmm0

; 163  : 		{}

	mov	rax, QWORD PTR this$[rbp]
	lea	rsp, QWORD PTR [rbp+64]
	pop	rbp
	ret	0
??0?$tvec4@N$0A@@glm@@QEAA@XZ ENDP			; glm::tvec4<double,0>::tvec4<double,0>
_TEXT	ENDS
; Function compile flags: /Odtp /RTCu /ZI
; File l:\dev\featherfallengine\depends\install\include\glm\detail\type_vec4.inl
;	COMDAT ??A?$tvec4@N$0A@@glm@@QEAAAEANH@Z
_TEXT	SEGMENT
this$ = 80
i$ = 88
??A?$tvec4@N$0A@@glm@@QEAAAEANH@Z PROC			; glm::tvec4<double,0>::operator[], COMDAT

; 329  : 	{

$LN5:
	mov	DWORD PTR [rsp+16], edx
	mov	QWORD PTR [rsp+8], rcx
	push	rbp
	sub	rsp, 96					; 00000060H
	lea	rbp, QWORD PTR [rsp+32]
	lea	rcx, OFFSET FLAT:__A0704DDA_type_vec4.inl
	call	__CheckForDebuggerJustMyCode

; 330  : 		assert(i >= 0 && i < this->length());

	cmp	DWORD PTR i$[rbp], 0
	jl	SHORT $LN3@operator
	call	?length@?$tvec4@N$0A@@glm@@SAHXZ	; glm::tvec4<double,0>::length
	cmp	DWORD PTR i$[rbp], eax
	jl	SHORT $LN4@operator
$LN3@operator:
	mov	r8d, 330				; 0000014aH
	lea	rdx, OFFSET FLAT:??_C@_1JE@JLGGFMIE@?$AAl?$AA?3?$AA?2?$AAd?$AAe?$AAv?$AA?2?$AAf?$AAe?$AAa?$AAt?$AAh?$AAe?$AAr?$AAf@
	lea	rcx, OFFSET FLAT:??_C@_1DK@BGNCJAPL@?$AAi?$AA?5?$AA?$DO?$AA?$DN?$AA?5?$AA0?$AA?5?$AA?$CG?$AA?$CG?$AA?5?$AAi?$AA?5?$AA?$DM?$AA?5?$AAt@
	call	QWORD PTR __imp__wassert
	xor	eax, eax
$LN4@operator:

; 331  : 		return (&x)[i];

	movsxd	rax, DWORD PTR i$[rbp]
	mov	rcx, QWORD PTR this$[rbp]
	lea	rax, QWORD PTR [rcx+rax*8]

; 332  : 	}

	lea	rsp, QWORD PTR [rbp+64]
	pop	rbp
	ret	0
??A?$tvec4@N$0A@@glm@@QEAAAEANH@Z ENDP			; glm::tvec4<double,0>::operator[]
_TEXT	ENDS
; Function compile flags: /Odtp /RTCu /ZI
; File l:\dev\featherfallengine\depends\install\include\glm\detail\type_vec4.hpp
;	COMDAT ?length@?$tvec4@N$0A@@glm@@SAHXZ
_TEXT	SEGMENT
?length@?$tvec4@N$0A@@glm@@SAHXZ PROC			; glm::tvec4<double,0>::length, COMDAT

; 85   : 		GLM_FUNC_DECL static length_type length(){return 4;}

$LN3:
	push	rbp
	sub	rsp, 96					; 00000060H
	lea	rbp, QWORD PTR [rsp+32]
	lea	rcx, OFFSET FLAT:__61F2447D_type_vec4.hpp
	call	__CheckForDebuggerJustMyCode
	mov	eax, 4
	lea	rsp, QWORD PTR [rbp+64]
	pop	rbp
	ret	0
?length@?$tvec4@N$0A@@glm@@SAHXZ ENDP			; glm::tvec4<double,0>::length
_TEXT	ENDS
; Function compile flags: /Odtp /RTCu /ZI
; File l:\dev\featherfallengine\depends\install\include\glm\gtc\matrix_transform.inl
;	COMDAT ??$ortho@N@glm@@YA?AU?$tmat4x4@N$0A@@0@NNNNNN@Z
_TEXT	SEGMENT
__$ReturnUdt$ = 80
left$ = 88
right$ = 96
bottom$ = 104
top$ = 112
zNear$ = 120
zFar$ = 128
??$ortho@N@glm@@YA?AU?$tmat4x4@N$0A@@0@NNNNNN@Z PROC	; glm::ortho<double>, COMDAT

; 106  : 	{

$LN3:
	movsd	QWORD PTR [rsp+32], xmm3
	movsd	QWORD PTR [rsp+24], xmm2
	movsd	QWORD PTR [rsp+16], xmm1
	mov	QWORD PTR [rsp+8], rcx
	push	rbp
	sub	rsp, 128				; 00000080H
	lea	rbp, QWORD PTR [rsp+64]
	lea	rcx, OFFSET FLAT:__B60C3EDD_matrix_transform.inl
	call	__CheckForDebuggerJustMyCode

; 107  : #		if GLM_COORDINATE_SYSTEM == GLM_LEFT_HANDED
; 108  : 			return orthoLH(left, right, bottom, top, zNear, zFar);
; 109  : #		else
; 110  : 			return orthoRH(left, right, bottom, top, zNear, zFar);

	movsd	xmm0, QWORD PTR zFar$[rbp]
	movsd	QWORD PTR [rsp+48], xmm0
	movsd	xmm0, QWORD PTR zNear$[rbp]
	movsd	QWORD PTR [rsp+40], xmm0
	movsd	xmm0, QWORD PTR top$[rbp]
	movsd	QWORD PTR [rsp+32], xmm0
	movsd	xmm3, QWORD PTR bottom$[rbp]
	movsd	xmm2, QWORD PTR right$[rbp]
	movsd	xmm1, QWORD PTR left$[rbp]
	mov	rcx, QWORD PTR __$ReturnUdt$[rbp]
	call	??$orthoRH@N@glm@@YA?AU?$tmat4x4@N$0A@@0@NNNNNN@Z ; glm::orthoRH<double>
	mov	rax, QWORD PTR __$ReturnUdt$[rbp]

; 111  : #		endif
; 112  : 	}

	lea	rsp, QWORD PTR [rbp+64]
	pop	rbp
	ret	0
??$ortho@N@glm@@YA?AU?$tmat4x4@N$0A@@0@NNNNNN@Z ENDP	; glm::ortho<double>
_TEXT	ENDS
; Function compile flags: /Odtp /RTCu /ZI
;	COMDAT ??_GSandboxScene@Scene@Application@@UEAAPEAXI@Z
_TEXT	SEGMENT
this$ = 80
__flags$ = 88
??_GSandboxScene@Scene@Application@@UEAAPEAXI@Z PROC	; Application::Scene::SandboxScene::`scalar deleting destructor', COMDAT
$LN4:
	mov	DWORD PTR [rsp+16], edx
	mov	QWORD PTR [rsp+8], rcx
	push	rbp
	sub	rsp, 96					; 00000060H
	lea	rbp, QWORD PTR [rsp+32]
	mov	rcx, QWORD PTR this$[rbp]
	call	??1SandboxScene@Scene@Application@@UEAA@XZ ; Application::Scene::SandboxScene::~SandboxScene
	mov	eax, DWORD PTR __flags$[rbp]
	and	eax, 1
	test	eax, eax
	je	SHORT $LN2@scalar
	mov	edx, 312				; 00000138H
	mov	rcx, QWORD PTR this$[rbp]
	call	??3@YAXPEAX_K@Z				; operator delete
$LN2@scalar:
	mov	rax, QWORD PTR this$[rbp]
	lea	rsp, QWORD PTR [rbp+64]
	pop	rbp
	ret	0
??_GSandboxScene@Scene@Application@@UEAAPEAXI@Z ENDP	; Application::Scene::SandboxScene::`scalar deleting destructor'
_TEXT	ENDS
; Function compile flags: /Odtp /RTCu /ZI
; File l:\dev\featherfallengine\featherfall-examples\src\scene\sandboxscene.cpp
;	COMDAT ?OnImGuiRender@SandboxScene@Scene@Application@@UEAAXXZ
_TEXT	SEGMENT
this$ = 80
?OnImGuiRender@SandboxScene@Scene@Application@@UEAAXXZ PROC ; Application::Scene::SandboxScene::OnImGuiRender, COMDAT

; 98   : 	{

$LN3:
	mov	QWORD PTR [rsp+8], rcx
	push	rbp
	sub	rsp, 96					; 00000060H
	lea	rbp, QWORD PTR [rsp+32]
	lea	rcx, OFFSET FLAT:__4013777C_sandboxscene.cpp
	call	__CheckForDebuggerJustMyCode

; 99   : 	
; 100  : 		ImGui::Text("This is the Sandbox!");

	lea	rcx, OFFSET FLAT:??_C@_0BF@FEFAANEH@This?5is?5the?5Sandbox?$CB@
	call	?Text@ImGui@@YAXPEBDZZ			; ImGui::Text

; 101  : 		ImGui::Text("Light Position: %.1f, %.1f", mousePos.x, mousePos.y);

	mov	rax, QWORD PTR this$[rbp]
	cvtss2sd xmm0, DWORD PTR [rax+304]
	mov	rax, QWORD PTR this$[rbp]
	cvtss2sd xmm1, DWORD PTR [rax+300]
	movaps	xmm2, xmm0
	movq	r8, xmm2
	movq	rdx, xmm1
	lea	rcx, OFFSET FLAT:??_C@_0BL@CKFJBINN@Light?5Position?3?5?$CF?41f?0?5?$CF?41f@
	call	?Text@ImGui@@YAXPEBDZZ			; ImGui::Text

; 102  : 
; 103  : 
; 104  : 	}

	lea	rsp, QWORD PTR [rbp+64]
	pop	rbp
	ret	0
?OnImGuiRender@SandboxScene@Scene@Application@@UEAAXXZ ENDP ; Application::Scene::SandboxScene::OnImGuiRender
_TEXT	ENDS
; Function compile flags: /Odtp /RTCu /ZI
; File l:\dev\featherfallengine\featherfall-examples\src\scene\sandboxscene.cpp
;	COMDAT ?OnRender@SandboxScene@Scene@Application@@UEAAXXZ
_TEXT	SEGMENT
$T1 = 64
tv170 = 72
tv169 = 72
tv168 = 72
tv167 = 72
tv84 = 72
this$ = 96
?OnRender@SandboxScene@Scene@Application@@UEAAXXZ PROC	; Application::Scene::SandboxScene::OnRender, COMDAT

; 81   : 	{

$LN3:
	mov	QWORD PTR [rsp+8], rcx
	push	rbp
	sub	rsp, 112				; 00000070H
	lea	rbp, QWORD PTR [rsp+32]
	lea	rcx, OFFSET FLAT:__4013777C_sandboxscene.cpp
	call	__CheckForDebuggerJustMyCode

; 82   : 
; 83   : 		//Set uniforms here
; 84   : 		shader.setUniformVec2("playerPos", playerSprite.getPosition());//glm::vec4(mousePos, 0.0f, 1.0f));

	mov	rax, QWORD PTR this$[rbp]
	add	rax, 8
	mov	rcx, rax
	call	?getPosition@Renderable2D@graphics@core@@QEBAAEBU?$tvec4@M$0A@@glm@@XZ ; core::graphics::Renderable2D::getPosition
	mov	rdx, rax
	lea	rcx, QWORD PTR $T1[rbp]
	call	??$?0M$0A@@?$tvec2@M$0A@@glm@@QEAA@AEBU?$tvec4@M$0A@@1@@Z ; glm::tvec2<float,0>::tvec2<float,0><float,0>
	mov	rax, QWORD PTR this$[rbp]
	add	rax, 232				; 000000e8H
	lea	r8, QWORD PTR $T1[rbp]
	lea	rdx, OFFSET FLAT:??_C@_09GCGFNBLA@playerPos@
	mov	rcx, rax
	call	?setUniformVec2@Shader@graphics@core@@QEAAXPEBDAEBU?$tvec2@M$0A@@glm@@@Z ; core::graphics::Shader::setUniformVec2

; 85   : 
; 86   : 		renderer.begin();

	mov	rax, QWORD PTR this$[rbp]
	add	rax, 104				; 00000068H
	mov	rcx, QWORD PTR this$[rbp]
	mov	rcx, QWORD PTR [rcx+104]
	mov	QWORD PTR tv84[rbp], rcx
	mov	rcx, rax
	mov	rax, QWORD PTR tv84[rbp]
	call	QWORD PTR [rax]

; 87   : 
; 88   : 		renderer.submit(&playerSprite);

	mov	rax, QWORD PTR this$[rbp]
	add	rax, 8
	mov	rcx, QWORD PTR this$[rbp]
	add	rcx, 104				; 00000068H
	mov	rdx, QWORD PTR this$[rbp]
	mov	rdx, QWORD PTR [rdx+104]
	mov	QWORD PTR tv170[rbp], rdx
	mov	rdx, rax
	mov	rax, QWORD PTR tv170[rbp]
	call	QWORD PTR [rax+8]

; 89   : 		renderer.submit(&groundSprite);

	mov	rax, QWORD PTR this$[rbp]
	add	rax, 56					; 00000038H
	mov	rcx, QWORD PTR this$[rbp]
	add	rcx, 104				; 00000068H
	mov	rdx, QWORD PTR this$[rbp]
	mov	rdx, QWORD PTR [rdx+104]
	mov	QWORD PTR tv169[rbp], rdx
	mov	rdx, rax
	mov	rax, QWORD PTR tv169[rbp]
	call	QWORD PTR [rax+8]

; 90   : 
; 91   : 		renderer.end();

	mov	rax, QWORD PTR this$[rbp]
	add	rax, 104				; 00000068H
	mov	rcx, QWORD PTR this$[rbp]
	mov	rcx, QWORD PTR [rcx+104]
	mov	QWORD PTR tv168[rbp], rcx
	mov	rcx, rax
	mov	rax, QWORD PTR tv168[rbp]
	call	QWORD PTR [rax+24]

; 92   : 
; 93   : 		renderer.flush();

	mov	rax, QWORD PTR this$[rbp]
	add	rax, 104				; 00000068H
	mov	rcx, QWORD PTR this$[rbp]
	mov	rcx, QWORD PTR [rcx+104]
	mov	QWORD PTR tv167[rbp], rcx
	mov	rcx, rax
	mov	rax, QWORD PTR tv167[rbp]
	call	QWORD PTR [rax+16]

; 94   : 
; 95   : 	}

	lea	rsp, QWORD PTR [rbp+80]
	pop	rbp
	ret	0
?OnRender@SandboxScene@Scene@Application@@UEAAXXZ ENDP	; Application::Scene::SandboxScene::OnRender
_TEXT	ENDS
; Function compile flags: /Odtp /RTCu /ZI
; File l:\dev\featherfallengine\featherfall-examples\src\scene\sandboxscene.cpp
;	COMDAT ?OnUpdate@SandboxScene@Scene@Application@@UEAAXM@Z
_TEXT	SEGMENT
windowSize$ = 0
input_start$ = 8
input_end$ = 12
output_start$ = 16
output_end$ = 20
$T1 = 88
$T2 = 96
__$ArrayPad$ = 104
this$ = 128
deltaTime$ = 136
?OnUpdate@SandboxScene@Scene@Application@@UEAAXM@Z PROC	; Application::Scene::SandboxScene::OnUpdate, COMDAT

; 24   : 	{

$LN3:
	movss	DWORD PTR [rsp+16], xmm1
	mov	QWORD PTR [rsp+8], rcx
	push	rbp
	sub	rsp, 144				; 00000090H
	lea	rbp, QWORD PTR [rsp+32]
	mov	rax, QWORD PTR __security_cookie
	xor	rax, rbp
	mov	QWORD PTR __$ArrayPad$[rbp], rax
	lea	rcx, OFFSET FLAT:__4013777C_sandboxscene.cpp
	call	__CheckForDebuggerJustMyCode

; 25   : 	
; 26   : 		mousePos.x = ImGui::GetMousePos().x;

	lea	rcx, QWORD PTR $T1[rbp]
	call	?GetMousePos@ImGui@@YA?AUImVec2@@XZ	; ImGui::GetMousePos
	mov	rcx, QWORD PTR this$[rbp]
	movss	xmm0, DWORD PTR [rax]
	movss	DWORD PTR [rcx+300], xmm0

; 27   : 		mousePos.y = ImGui::GetMousePos().y;

	lea	rcx, QWORD PTR $T2[rbp]
	call	?GetMousePos@ImGui@@YA?AUImVec2@@XZ	; ImGui::GetMousePos
	mov	rcx, QWORD PTR this$[rbp]
	movss	xmm0, DWORD PTR [rax+4]
	movss	DWORD PTR [rcx+304], xmm0

; 28   : 
; 29   : 		glm::vec2 windowSize = core::graphics::Window::getWindowSize_s();

	call	?getWindowSize_s@Window@graphics@core@@SAAEBU?$tvec2@M$0A@@glm@@XZ ; core::graphics::Window::getWindowSize_s
	mov	rax, QWORD PTR [rax]
	mov	QWORD PTR windowSize$[rbp], rax

; 30   : 
; 31   : 		//translate range 0 to windowSize.x -> a range between othro::left and ortho::right
; 32   : 		float input_start = 0;

	xorps	xmm0, xmm0
	movss	DWORD PTR input_start$[rbp], xmm0

; 33   : 		float input_end = windowSize.x;

	movss	xmm0, DWORD PTR windowSize$[rbp]
	movss	DWORD PTR input_end$[rbp], xmm0

; 34   : 		float output_start = -16.0;

	movss	xmm0, DWORD PTR __real@c1800000
	movss	DWORD PTR output_start$[rbp], xmm0

; 35   : 		float output_end = 16.0;

	movss	xmm0, DWORD PTR __real@41800000
	movss	DWORD PTR output_end$[rbp], xmm0

; 36   : 
; 37   : 		mousePos.x = (mousePos.x - input_start) * (output_end - output_start) / (input_end - input_start) + output_start;

	mov	rax, QWORD PTR this$[rbp]
	movss	xmm0, DWORD PTR [rax+300]
	subss	xmm0, DWORD PTR input_start$[rbp]
	movss	xmm1, DWORD PTR output_end$[rbp]
	subss	xmm1, DWORD PTR output_start$[rbp]
	mulss	xmm0, xmm1
	movss	xmm1, DWORD PTR input_end$[rbp]
	subss	xmm1, DWORD PTR input_start$[rbp]
	divss	xmm0, xmm1
	addss	xmm0, DWORD PTR output_start$[rbp]
	mov	rax, QWORD PTR this$[rbp]
	movss	DWORD PTR [rax+300], xmm0

; 38   : 
; 39   : 		output_start = -9.0;

	movss	xmm0, DWORD PTR __real@c1100000
	movss	DWORD PTR output_start$[rbp], xmm0

; 40   : 		output_end = 9.0;

	movss	xmm0, DWORD PTR __real@41100000
	movss	DWORD PTR output_end$[rbp], xmm0

; 41   : 		input_end = windowSize.y;

	movss	xmm0, DWORD PTR windowSize$[rbp+4]
	movss	DWORD PTR input_end$[rbp], xmm0

; 42   : 
; 43   : 		mousePos.y = (mousePos.y - input_start) * (output_end - output_start) / (input_end - input_start) + output_start;

	mov	rax, QWORD PTR this$[rbp]
	movss	xmm0, DWORD PTR [rax+304]
	subss	xmm0, DWORD PTR input_start$[rbp]
	movss	xmm1, DWORD PTR output_end$[rbp]
	subss	xmm1, DWORD PTR output_start$[rbp]
	mulss	xmm0, xmm1
	movss	xmm1, DWORD PTR input_end$[rbp]
	subss	xmm1, DWORD PTR input_start$[rbp]
	divss	xmm0, xmm1
	addss	xmm0, DWORD PTR output_start$[rbp]
	mov	rax, QWORD PTR this$[rbp]
	movss	DWORD PTR [rax+304], xmm0

; 44   : 
; 45   : 		mousePos.x = 0.0f;

	mov	rax, QWORD PTR this$[rbp]
	xorps	xmm0, xmm0
	movss	DWORD PTR [rax+300], xmm0

; 46   : 		mousePos.y = 0.0f;

	mov	rax, QWORD PTR this$[rbp]
	xorps	xmm0, xmm0
	movss	DWORD PTR [rax+304], xmm0

; 47   : 
; 48   : 		// #Dev_Note: when architechting the movement system, 
; 49   : 		//            set it up similar to the rendering system.
; 50   : 		//            it could be used a lot like the rendering API,
; 51   : 		//            where you will submit "movables" to the system,
; 52   : 		//            and the system will "flush" its buffer and update,
; 53   : 		//            all submitted "movables".
; 54   : 		//
; 55   : 		//            i.e.
; 56   : 		// 
; 57   : 		//            MotionSystem->submit(Movable2D);
; 58   : 		//            MotionSystem->flush();
; 59   : 		//
; 60   : 		//            P.S. - if its constructed this way. would it be
; 61   : 		//                   possible to map the position data to a buffer
; 62   : 		//                   on the GPU and get the updates rendered from 
; 63   : 		//                   a compute shader? (one problem with this is 
; 64   : 		//                   you will have to copy data into GPU and then
; 65   : 		//                   back out every frame?)
; 66   : 		//           
; 67   : 		//            P.P.S - if you could submit all the sprites that need
; 68   : 		//                    to be updated every frame at the setup of the
; 69   : 		//                    scene, you might not have to take that data off
; 70   : 		//                    of the GPU, and could instead just use texture
; 71   : 		//                    data to store and read vertex positions directly
; 72   : 		//                    on the GPU. which has the added benefit of not
; 73   : 		//                    needing to pass the position data to the renderer
; 74   : 		//                    every frame, right?
; 75   : 
; 76   : 
; 77   : 
; 78   : 	}

	mov	rcx, QWORD PTR __$ArrayPad$[rbp]
	xor	rcx, rbp
	call	__security_check_cookie
	lea	rsp, QWORD PTR [rbp+112]
	pop	rbp
	ret	0
?OnUpdate@SandboxScene@Scene@Application@@UEAAXM@Z ENDP	; Application::Scene::SandboxScene::OnUpdate
_TEXT	ENDS
; Function compile flags: /Odtp /RTCu /ZI
; File l:\dev\featherfallengine\featherfall-examples\src\scene\sandboxscene.cpp
;	COMDAT ??1SandboxScene@Scene@Application@@UEAA@XZ
_TEXT	SEGMENT
$T1 = 64
this$ = 96
??1SandboxScene@Scene@Application@@UEAA@XZ PROC		; Application::Scene::SandboxScene::~SandboxScene, COMDAT

; 21   : 	SandboxScene::~SandboxScene() {}

$LN3:
	mov	QWORD PTR [rsp+8], rcx
	push	rbp
	sub	rsp, 112				; 00000070H
	lea	rbp, QWORD PTR [rsp+32]
	mov	QWORD PTR $T1[rbp], -2
	lea	rcx, OFFSET FLAT:__4013777C_sandboxscene.cpp
	call	__CheckForDebuggerJustMyCode
	npad	1
	mov	rax, QWORD PTR this$[rbp]
	lea	rcx, OFFSET FLAT:??_7SandboxScene@Scene@Application@@6B@
	mov	QWORD PTR [rax], rcx
	mov	rax, QWORD PTR this$[rbp]
	add	rax, 232				; 000000e8H
	mov	rcx, rax
	call	??1Shader@graphics@core@@QEAA@XZ	; core::graphics::Shader::~Shader
	npad	1
	mov	rax, QWORD PTR this$[rbp]
	add	rax, 104				; 00000068H
	mov	rcx, rax
	call	??1BatchRenderer2D@graphics@core@@QEAA@XZ ; core::graphics::BatchRenderer2D::~BatchRenderer2D
	npad	1
	mov	rax, QWORD PTR this$[rbp]
	add	rax, 56					; 00000038H
	mov	rcx, rax
	call	??1Sprite@graphics@core@@UEAA@XZ
	npad	1
	mov	rax, QWORD PTR this$[rbp]
	add	rax, 8
	mov	rcx, rax
	call	??1Sprite@graphics@core@@UEAA@XZ
	npad	1
	mov	rcx, QWORD PTR this$[rbp]
	call	??1Scene@0Application@@UEAA@XZ		; Application::Scene::Scene::~Scene
	npad	1
	lea	rsp, QWORD PTR [rbp+80]
	pop	rbp
	ret	0
??1SandboxScene@Scene@Application@@UEAA@XZ ENDP		; Application::Scene::SandboxScene::~SandboxScene
_TEXT	ENDS
; Function compile flags: /Odtp /RTCu /ZI
; File l:\dev\featherfallengine\featherfall-examples\src\scene\sandboxscene.cpp
;	COMDAT ??0SandboxScene@Scene@Application@@QEAA@XZ
_TEXT	SEGMENT
$T1 = 64
$T2 = 80
$T3 = 96
$T4 = 144
$T5 = 272
this$ = 304
??0SandboxScene@Scene@Application@@QEAA@XZ PROC		; Application::Scene::SandboxScene::SandboxScene, COMDAT

; 16   : 	{

$LN9:
	mov	QWORD PTR [rsp+8], rcx
	push	rbp
	sub	rsp, 352				; 00000160H
	lea	rbp, QWORD PTR [rsp+64]
	mov	QWORD PTR $T5[rbp], -2
	lea	rcx, OFFSET FLAT:__4013777C_sandboxscene.cpp
	call	__CheckForDebuggerJustMyCode
	mov	rcx, QWORD PTR this$[rbp]
	call	??0Scene@0Application@@QEAA@XZ		; Application::Scene::Scene::Scene
	npad	1
	mov	rax, QWORD PTR this$[rbp]
	lea	rcx, OFFSET FLAT:??_7SandboxScene@Scene@Application@@6B@
	mov	QWORD PTR [rax], rcx

; 12   : 		: playerSprite(-1.5, 0, 3, 3, glm::vec4(1.0f, 1.0f, 1.0f, 1.0f)),

	movss	xmm0, DWORD PTR __real@3f800000
	movss	DWORD PTR [rsp+32], xmm0
	movss	xmm3, DWORD PTR __real@3f800000
	movss	xmm2, DWORD PTR __real@3f800000
	movss	xmm1, DWORD PTR __real@3f800000
	lea	rcx, QWORD PTR $T1[rbp]
	call	??0?$tvec4@M$0A@@glm@@QEAA@MMMM@Z	; glm::tvec4<float,0>::tvec4<float,0>
	mov	rcx, QWORD PTR this$[rbp]
	add	rcx, 8
	mov	QWORD PTR [rsp+40], rax
	movss	xmm0, DWORD PTR __real@40400000
	movss	DWORD PTR [rsp+32], xmm0
	movss	xmm3, DWORD PTR __real@40400000
	xorps	xmm2, xmm2
	movss	xmm1, DWORD PTR __real@bfc00000
	call	??0Sprite@graphics@core@@QEAA@MMMMAEBU?$tvec4@M$0A@@glm@@@Z ; core::graphics::Sprite::Sprite
	npad	1

; 13   : 		  groundSprite(-16, -9, 32, 8, glm::vec4(1.0f, 0.0f, 0.0f, 1.0f)),

	movss	xmm0, DWORD PTR __real@3f800000
	movss	DWORD PTR [rsp+32], xmm0
	xorps	xmm3, xmm3
	xorps	xmm2, xmm2
	movss	xmm1, DWORD PTR __real@3f800000
	lea	rcx, QWORD PTR $T2[rbp]
	call	??0?$tvec4@M$0A@@glm@@QEAA@MMMM@Z	; glm::tvec4<float,0>::tvec4<float,0>
	mov	rcx, QWORD PTR this$[rbp]
	add	rcx, 56					; 00000038H
	mov	QWORD PTR [rsp+40], rax
	movss	xmm0, DWORD PTR __real@41000000
	movss	DWORD PTR [rsp+32], xmm0
	movss	xmm3, DWORD PTR __real@42000000
	movss	xmm2, DWORD PTR __real@c1100000
	movss	xmm1, DWORD PTR __real@c1800000
	call	??0Sprite@graphics@core@@QEAA@MMMMAEBU?$tvec4@M$0A@@glm@@@Z ; core::graphics::Sprite::Sprite
	npad	1

; 16   : 	{

	mov	rax, QWORD PTR this$[rbp]
	add	rax, 104				; 00000068H
	mov	rcx, rax
	call	??0BatchRenderer2D@graphics@core@@QEAA@XZ ; core::graphics::BatchRenderer2D::BatchRenderer2D
	npad	1

; 14   : 		  shader("res/shaders/Sandbox.shader"),

	lea	rdx, OFFSET FLAT:??_C@_0BL@OOFMDA@res?1shaders?1Sandbox?4shader@
	lea	rcx, QWORD PTR $T3[rbp]
	call	??0?$basic_string@DU?$char_traits@D@std@@V?$allocator@D@2@@std@@QEAA@QEBD@Z ; std::basic_string<char,std::char_traits<char>,std::allocator<char> >::basic_string<char,std::char_traits<char>,std::allocator<char> >
	npad	1
	mov	rax, QWORD PTR this$[rbp]
	add	rax, 232				; 000000e8H
	lea	rdx, QWORD PTR $T3[rbp]
	mov	rcx, rax
	call	??0Shader@graphics@core@@QEAA@AEBV?$basic_string@DU?$char_traits@D@std@@V?$allocator@D@2@@std@@@Z ; core::graphics::Shader::Shader
	npad	1
	lea	rcx, QWORD PTR $T3[rbp]
	call	??1?$basic_string@DU?$char_traits@D@std@@V?$allocator@D@2@@std@@QEAA@XZ ; std::basic_string<char,std::char_traits<char>,std::allocator<char> >::~basic_string<char,std::char_traits<char>,std::allocator<char> >

; 15   : 		  ortho(glm::ortho(-16.0, 16.0, -9.0, 9.0, -1.0, 1.0))

	movsd	xmm0, QWORD PTR __real@3ff0000000000000
	movsd	QWORD PTR [rsp+48], xmm0
	movsd	xmm0, QWORD PTR __real@bff0000000000000
	movsd	QWORD PTR [rsp+40], xmm0
	movsd	xmm0, QWORD PTR __real@4022000000000000
	movsd	QWORD PTR [rsp+32], xmm0
	movsd	xmm3, QWORD PTR __real@c022000000000000
	movsd	xmm2, QWORD PTR __real@4030000000000000
	movsd	xmm1, QWORD PTR __real@c030000000000000
	lea	rcx, QWORD PTR $T4[rbp]
	call	??$ortho@N@glm@@YA?AU?$tmat4x4@N$0A@@0@NNNNNN@Z ; glm::ortho<double>
	mov	rcx, QWORD PTR this$[rbp]
	add	rcx, 236				; 000000ecH
	mov	rdx, rax
	call	??$?0N$0A@@?$tmat4x4@M$0A@@glm@@QEAA@AEBU?$tmat4x4@N$0A@@1@@Z ; glm::tmat4x4<float,0>::tmat4x4<float,0><double,0>

; 16   : 	{

	mov	rax, QWORD PTR this$[rbp]
	add	rax, 300				; 0000012cH
	mov	rcx, rax
	call	??0?$tvec2@M$0A@@glm@@QEAA@XZ		; glm::tvec2<float,0>::tvec2<float,0>

; 17   : 		shader.bind();

	mov	rax, QWORD PTR this$[rbp]
	add	rax, 232				; 000000e8H
	mov	rcx, rax
	call	?bind@Shader@graphics@core@@QEBAXXZ	; core::graphics::Shader::bind

; 18   : 		shader.setUniformMat4("prMatrix", ortho);

	mov	rax, QWORD PTR this$[rbp]
	add	rax, 236				; 000000ecH
	mov	rcx, QWORD PTR this$[rbp]
	add	rcx, 232				; 000000e8H
	mov	r8, rax
	lea	rdx, OFFSET FLAT:??_C@_08IMNAFLGG@prMatrix@
	call	?setUniformMat4@Shader@graphics@core@@QEAAXPEBDAEBU?$tmat4x4@M$0A@@glm@@@Z ; core::graphics::Shader::setUniformMat4
	npad	1

; 19   : 	}

	mov	rax, QWORD PTR this$[rbp]
	lea	rsp, QWORD PTR [rbp+288]
	pop	rbp
	ret	0
??0SandboxScene@Scene@Application@@QEAA@XZ ENDP		; Application::Scene::SandboxScene::SandboxScene
_TEXT	ENDS
;	COMDAT text$x
text$x	SEGMENT
$T1 = 64
$T2 = 80
$T3 = 96
$T4 = 144
$T5 = 272
this$ = 304
?dtor$0@?0???0SandboxScene@Scene@Application@@QEAA@XZ@4HA PROC ; `Application::Scene::SandboxScene::SandboxScene'::`1'::dtor$0
	push	rbp
	sub	rsp, 32					; 00000020H
	lea	rbp, QWORD PTR [rdx+64]
	mov	rcx, QWORD PTR this$[rbp]
	call	??1Scene@0Application@@UEAA@XZ		; Application::Scene::Scene::~Scene
	add	rsp, 32					; 00000020H
	pop	rbp
	ret	0
?dtor$0@?0???0SandboxScene@Scene@Application@@QEAA@XZ@4HA ENDP ; `Application::Scene::SandboxScene::SandboxScene'::`1'::dtor$0
text$x	ENDS
;	COMDAT text$x
text$x	SEGMENT
$T1 = 64
$T2 = 80
$T3 = 96
$T4 = 144
$T5 = 272
this$ = 304
?dtor$1@?0???0SandboxScene@Scene@Application@@QEAA@XZ@4HA PROC ; `Application::Scene::SandboxScene::SandboxScene'::`1'::dtor$1
	push	rbp
	sub	rsp, 32					; 00000020H
	lea	rbp, QWORD PTR [rdx+64]
	mov	rcx, QWORD PTR this$[rbp]
	add	rcx, 8
	call	??1Sprite@graphics@core@@UEAA@XZ
	add	rsp, 32					; 00000020H
	pop	rbp
	ret	0
?dtor$1@?0???0SandboxScene@Scene@Application@@QEAA@XZ@4HA ENDP ; `Application::Scene::SandboxScene::SandboxScene'::`1'::dtor$1
text$x	ENDS
;	COMDAT text$x
text$x	SEGMENT
$T1 = 64
$T2 = 80
$T3 = 96
$T4 = 144
$T5 = 272
this$ = 304
?dtor$2@?0???0SandboxScene@Scene@Application@@QEAA@XZ@4HA PROC ; `Application::Scene::SandboxScene::SandboxScene'::`1'::dtor$2
	push	rbp
	sub	rsp, 32					; 00000020H
	lea	rbp, QWORD PTR [rdx+64]
	mov	rcx, QWORD PTR this$[rbp]
	add	rcx, 56					; 00000038H
	call	??1Sprite@graphics@core@@UEAA@XZ
	add	rsp, 32					; 00000020H
	pop	rbp
	ret	0
?dtor$2@?0???0SandboxScene@Scene@Application@@QEAA@XZ@4HA ENDP ; `Application::Scene::SandboxScene::SandboxScene'::`1'::dtor$2
text$x	ENDS
;	COMDAT text$x
text$x	SEGMENT
$T1 = 64
$T2 = 80
$T3 = 96
$T4 = 144
$T5 = 272
this$ = 304
?dtor$3@?0???0SandboxScene@Scene@Application@@QEAA@XZ@4HA PROC ; `Application::Scene::SandboxScene::SandboxScene'::`1'::dtor$3
	push	rbp
	sub	rsp, 32					; 00000020H
	lea	rbp, QWORD PTR [rdx+64]
	mov	rcx, QWORD PTR this$[rbp]
	add	rcx, 104				; 00000068H
	call	??1BatchRenderer2D@graphics@core@@QEAA@XZ ; core::graphics::BatchRenderer2D::~BatchRenderer2D
	add	rsp, 32					; 00000020H
	pop	rbp
	ret	0
?dtor$3@?0???0SandboxScene@Scene@Application@@QEAA@XZ@4HA ENDP ; `Application::Scene::SandboxScene::SandboxScene'::`1'::dtor$3
text$x	ENDS
;	COMDAT text$x
text$x	SEGMENT
$T1 = 64
$T2 = 80
$T3 = 96
$T4 = 144
$T5 = 272
this$ = 304
?dtor$4@?0???0SandboxScene@Scene@Application@@QEAA@XZ@4HA PROC ; `Application::Scene::SandboxScene::SandboxScene'::`1'::dtor$4
	push	rbp
	sub	rsp, 32					; 00000020H
	lea	rbp, QWORD PTR [rdx+64]
	lea	rcx, QWORD PTR $T3[rbp]
	call	??1?$basic_string@DU?$char_traits@D@std@@V?$allocator@D@2@@std@@QEAA@XZ ; std::basic_string<char,std::char_traits<char>,std::allocator<char> >::~basic_string<char,std::char_traits<char>,std::allocator<char> >
	add	rsp, 32					; 00000020H
	pop	rbp
	ret	0
?dtor$4@?0???0SandboxScene@Scene@Application@@QEAA@XZ@4HA ENDP ; `Application::Scene::SandboxScene::SandboxScene'::`1'::dtor$4
text$x	ENDS
;	COMDAT text$x
text$x	SEGMENT
$T1 = 64
$T2 = 80
$T3 = 96
$T4 = 144
$T5 = 272
this$ = 304
?dtor$5@?0???0SandboxScene@Scene@Application@@QEAA@XZ@4HA PROC ; `Application::Scene::SandboxScene::SandboxScene'::`1'::dtor$5
	push	rbp
	sub	rsp, 32					; 00000020H
	lea	rbp, QWORD PTR [rdx+64]
	mov	rcx, QWORD PTR this$[rbp]
	add	rcx, 232				; 000000e8H
	call	??1Shader@graphics@core@@QEAA@XZ	; core::graphics::Shader::~Shader
	add	rsp, 32					; 00000020H
	pop	rbp
	ret	0
?dtor$5@?0???0SandboxScene@Scene@Application@@QEAA@XZ@4HA ENDP ; `Application::Scene::SandboxScene::SandboxScene'::`1'::dtor$5
text$x	ENDS
; Function compile flags: /Odtp /RTCu /ZI
;	COMDAT text$x
text$x	SEGMENT
$T1 = 64
$T2 = 80
$T3 = 96
$T4 = 144
$T5 = 272
this$ = 304
?dtor$0@?0???0SandboxScene@Scene@Application@@QEAA@XZ@4HA PROC ; `Application::Scene::SandboxScene::SandboxScene'::`1'::dtor$0
	push	rbp
	sub	rsp, 32					; 00000020H
	lea	rbp, QWORD PTR [rdx+64]
	mov	rcx, QWORD PTR this$[rbp]
	call	??1Scene@0Application@@UEAA@XZ		; Application::Scene::Scene::~Scene
	add	rsp, 32					; 00000020H
	pop	rbp
	ret	0
?dtor$0@?0???0SandboxScene@Scene@Application@@QEAA@XZ@4HA ENDP ; `Application::Scene::SandboxScene::SandboxScene'::`1'::dtor$0
text$x	ENDS
; Function compile flags: /Odtp /RTCu /ZI
;	COMDAT text$x
text$x	SEGMENT
$T1 = 64
$T2 = 80
$T3 = 96
$T4 = 144
$T5 = 272
this$ = 304
?dtor$1@?0???0SandboxScene@Scene@Application@@QEAA@XZ@4HA PROC ; `Application::Scene::SandboxScene::SandboxScene'::`1'::dtor$1
	push	rbp
	sub	rsp, 32					; 00000020H
	lea	rbp, QWORD PTR [rdx+64]
	mov	rcx, QWORD PTR this$[rbp]
	add	rcx, 8
	call	??1Sprite@graphics@core@@UEAA@XZ
	add	rsp, 32					; 00000020H
	pop	rbp
	ret	0
?dtor$1@?0???0SandboxScene@Scene@Application@@QEAA@XZ@4HA ENDP ; `Application::Scene::SandboxScene::SandboxScene'::`1'::dtor$1
text$x	ENDS
; Function compile flags: /Odtp /RTCu /ZI
;	COMDAT text$x
text$x	SEGMENT
$T1 = 64
$T2 = 80
$T3 = 96
$T4 = 144
$T5 = 272
this$ = 304
?dtor$2@?0???0SandboxScene@Scene@Application@@QEAA@XZ@4HA PROC ; `Application::Scene::SandboxScene::SandboxScene'::`1'::dtor$2
	push	rbp
	sub	rsp, 32					; 00000020H
	lea	rbp, QWORD PTR [rdx+64]
	mov	rcx, QWORD PTR this$[rbp]
	add	rcx, 56					; 00000038H
	call	??1Sprite@graphics@core@@UEAA@XZ
	add	rsp, 32					; 00000020H
	pop	rbp
	ret	0
?dtor$2@?0???0SandboxScene@Scene@Application@@QEAA@XZ@4HA ENDP ; `Application::Scene::SandboxScene::SandboxScene'::`1'::dtor$2
text$x	ENDS
; Function compile flags: /Odtp /RTCu /ZI
;	COMDAT text$x
text$x	SEGMENT
$T1 = 64
$T2 = 80
$T3 = 96
$T4 = 144
$T5 = 272
this$ = 304
?dtor$3@?0???0SandboxScene@Scene@Application@@QEAA@XZ@4HA PROC ; `Application::Scene::SandboxScene::SandboxScene'::`1'::dtor$3
	push	rbp
	sub	rsp, 32					; 00000020H
	lea	rbp, QWORD PTR [rdx+64]
	mov	rcx, QWORD PTR this$[rbp]
	add	rcx, 104				; 00000068H
	call	??1BatchRenderer2D@graphics@core@@QEAA@XZ ; core::graphics::BatchRenderer2D::~BatchRenderer2D
	add	rsp, 32					; 00000020H
	pop	rbp
	ret	0
?dtor$3@?0???0SandboxScene@Scene@Application@@QEAA@XZ@4HA ENDP ; `Application::Scene::SandboxScene::SandboxScene'::`1'::dtor$3
text$x	ENDS
; Function compile flags: /Odtp /RTCu /ZI
;	COMDAT text$x
text$x	SEGMENT
$T1 = 64
$T2 = 80
$T3 = 96
$T4 = 144
$T5 = 272
this$ = 304
?dtor$4@?0???0SandboxScene@Scene@Application@@QEAA@XZ@4HA PROC ; `Application::Scene::SandboxScene::SandboxScene'::`1'::dtor$4
	push	rbp
	sub	rsp, 32					; 00000020H
	lea	rbp, QWORD PTR [rdx+64]
	lea	rcx, QWORD PTR $T3[rbp]
	call	??1?$basic_string@DU?$char_traits@D@std@@V?$allocator@D@2@@std@@QEAA@XZ ; std::basic_string<char,std::char_traits<char>,std::allocator<char> >::~basic_string<char,std::char_traits<char>,std::allocator<char> >
	add	rsp, 32					; 00000020H
	pop	rbp
	ret	0
?dtor$4@?0???0SandboxScene@Scene@Application@@QEAA@XZ@4HA ENDP ; `Application::Scene::SandboxScene::SandboxScene'::`1'::dtor$4
text$x	ENDS
; Function compile flags: /Odtp /RTCu /ZI
;	COMDAT text$x
text$x	SEGMENT
$T1 = 64
$T2 = 80
$T3 = 96
$T4 = 144
$T5 = 272
this$ = 304
?dtor$5@?0???0SandboxScene@Scene@Application@@QEAA@XZ@4HA PROC ; `Application::Scene::SandboxScene::SandboxScene'::`1'::dtor$5
	push	rbp
	sub	rsp, 32					; 00000020H
	lea	rbp, QWORD PTR [rdx+64]
	mov	rcx, QWORD PTR this$[rbp]
	add	rcx, 232				; 000000e8H
	call	??1Shader@graphics@core@@QEAA@XZ	; core::graphics::Shader::~Shader
	add	rsp, 32					; 00000020H
	pop	rbp
	ret	0
?dtor$5@?0???0SandboxScene@Scene@Application@@QEAA@XZ@4HA ENDP ; `Application::Scene::SandboxScene::SandboxScene'::`1'::dtor$5
text$x	ENDS
; Function compile flags: /Odtp /RTCu /ZI
;	COMDAT ??1Sprite@graphics@core@@UEAA@XZ
_TEXT	SEGMENT
this$ = 80
??1Sprite@graphics@core@@UEAA@XZ PROC			; core::graphics::Sprite::~Sprite, COMDAT
$LN3:
	mov	QWORD PTR [rsp+8], rcx
	push	rbp
	sub	rsp, 96					; 00000060H
	lea	rbp, QWORD PTR [rsp+32]
	mov	rcx, QWORD PTR this$[rbp]
	call	??1Renderable2D@graphics@core@@UEAA@XZ	; core::graphics::Renderable2D::~Renderable2D
	lea	rsp, QWORD PTR [rbp+64]
	pop	rbp
	ret	0
??1Sprite@graphics@core@@UEAA@XZ ENDP			; core::graphics::Sprite::~Sprite
_TEXT	ENDS
; Function compile flags: /Odtp /RTCu /ZI
; File c:\program files (x86)\microsoft visual studio\2017\enterprise\vc\tools\msvc\14.15.26726\include\xstring
;	COMDAT ?_Xlen@?$basic_string@DU?$char_traits@D@std@@V?$allocator@D@2@@std@@SAXXZ
_TEXT	SEGMENT
?_Xlen@?$basic_string@DU?$char_traits@D@std@@V?$allocator@D@2@@std@@SAXXZ PROC ; std::basic_string<char,std::char_traits<char>,std::allocator<char> >::_Xlen, COMDAT

; 4003 : 		{	// report a length_error

$LN3:
	push	rbp
	sub	rsp, 96					; 00000060H
	lea	rbp, QWORD PTR [rsp+32]
	lea	rcx, OFFSET FLAT:__D9BA934F_xstring
	call	__CheckForDebuggerJustMyCode

; 4004 : 		_Xlength_error("string too long");

	lea	rcx, OFFSET FLAT:??_C@_0BA@JFNIOLAK@string?5too?5long@
	call	?_Xlength_error@std@@YAXPEBD@Z		; std::_Xlength_error
$LN2@Xlen:

; 4005 : 		}

	lea	rsp, QWORD PTR [rbp+64]
	pop	rbp
	ret	0
?_Xlen@?$basic_string@DU?$char_traits@D@std@@V?$allocator@D@2@@std@@SAXXZ ENDP ; std::basic_string<char,std::char_traits<char>,std::allocator<char> >::_Xlen
_TEXT	ENDS
; Function compile flags: /Odtp /RTCu /ZI
; File c:\program files (x86)\microsoft visual studio\2017\enterprise\vc\tools\msvc\14.15.26726\include\xstring
;	COMDAT ?_Tidy_deallocate@?$basic_string@DU?$char_traits@D@std@@V?$allocator@D@2@@std@@QEAAXXZ
_TEXT	SEGMENT
_My_data$ = 0
_Ptr$1 = 8
_Al$2 = 16
$T3 = 88
this$ = 112
?_Tidy_deallocate@?$basic_string@DU?$char_traits@D@std@@V?$allocator@D@2@@std@@QEAAXXZ PROC ; std::basic_string<char,std::char_traits<char>,std::allocator<char> >::_Tidy_deallocate, COMDAT

; 3984 : 		{	// initialize buffer, deallocating any storage

$LN4:
	mov	QWORD PTR [rsp+8], rcx
	push	rbp
	sub	rsp, 128				; 00000080H
	lea	rbp, QWORD PTR [rsp+32]
	lea	rcx, OFFSET FLAT:__D9BA934F_xstring
	call	__CheckForDebuggerJustMyCode

; 3985 : 		this->_Orphan_all();

	mov	rcx, QWORD PTR this$[rbp]
	call	?_Orphan_all@?$_String_alloc@U?$_String_base_types@DV?$allocator@D@std@@@std@@@std@@QEAAXXZ ; std::_String_alloc<std::_String_base_types<char,std::allocator<char> > >::_Orphan_all

; 3986 : 		auto& _My_data = this->_Get_data();

	mov	rcx, QWORD PTR this$[rbp]
	call	?_Get_data@?$_String_alloc@U?$_String_base_types@DV?$allocator@D@std@@@std@@@std@@QEAAAEAV?$_String_val@U?$_Simple_types@D@std@@@2@XZ ; std::_String_alloc<std::_String_base_types<char,std::allocator<char> > >::_Get_data
	mov	QWORD PTR _My_data$[rbp], rax

; 3987 : 		if (_My_data._Large_string_engaged())

	mov	rcx, QWORD PTR _My_data$[rbp]
	call	?_Large_string_engaged@?$_String_val@U?$_Simple_types@D@std@@@std@@QEBA_NXZ ; std::_String_val<std::_Simple_types<char> >::_Large_string_engaged
	movzx	eax, al
	test	eax, eax
	je	SHORT $LN2@Tidy_deall

; 3988 : 			{
; 3989 : 			const pointer _Ptr = _My_data._Bx._Ptr;

	mov	rax, QWORD PTR _My_data$[rbp]
	mov	rax, QWORD PTR [rax+8]
	mov	QWORD PTR _Ptr$1[rbp], rax

; 3990 : 			auto& _Al = this->_Getal();

	mov	rcx, QWORD PTR this$[rbp]
	call	?_Getal@?$_String_alloc@U?$_String_base_types@DV?$allocator@D@std@@@std@@@std@@QEAAAEAV?$allocator@D@2@XZ ; std::_String_alloc<std::_String_base_types<char,std::allocator<char> > >::_Getal
	mov	QWORD PTR _Al$2[rbp], rax

; 3991 : 			_Alty_traits::destroy(_Al, _STD addressof(_My_data._Bx._Ptr));

	mov	rax, QWORD PTR _My_data$[rbp]
	add	rax, 8
	mov	rcx, rax
	call	??$addressof@PEAD@std@@YAPEAPEADAEAPEAD@Z ; std::addressof<char *>
	mov	rdx, rax
	mov	rcx, QWORD PTR _Al$2[rbp]
	call	??$destroy@PEAD@?$_Default_allocator_traits@V?$allocator@D@std@@@std@@SAXAEAV?$allocator@D@1@QEAPEAD@Z ; std::_Default_allocator_traits<std::allocator<char> >::destroy<char *>

; 3992 : 			_Al.deallocate(_Ptr, _My_data._Myres + 1);

	mov	rax, QWORD PTR _My_data$[rbp]
	mov	rax, QWORD PTR [rax+32]
	inc	rax
	mov	r8, rax
	mov	rdx, QWORD PTR _Ptr$1[rbp]
	mov	rcx, QWORD PTR _Al$2[rbp]
	call	?deallocate@?$allocator@D@std@@QEAAXQEAD_K@Z ; std::allocator<char>::deallocate
$LN2@Tidy_deall:

; 3993 : 			}
; 3994 : 
; 3995 : 		_My_data._Mysize = 0;

	mov	rax, QWORD PTR _My_data$[rbp]
	mov	QWORD PTR [rax+24], 0

; 3996 : 		_My_data._Myres = this->_BUF_SIZE - 1;

	mov	rax, QWORD PTR _My_data$[rbp]
	mov	QWORD PTR [rax+32], 15

; 3997 : 		// the _Traits::assign is last so the codegen doesn't think the char
; 3998 : 		// write can alias this
; 3999 : 		_Traits::assign(_My_data._Bx._Buf[0], _Elem());

	mov	BYTE PTR $T3[rbp], 0
	mov	eax, 1
	imul	rax, rax, 0
	mov	rcx, QWORD PTR _My_data$[rbp]
	lea	rax, QWORD PTR [rcx+rax+8]
	lea	rdx, QWORD PTR $T3[rbp]
	mov	rcx, rax
	call	?assign@?$char_traits@D@std@@SAXAEADAEBD@Z ; std::char_traits<char>::assign

; 4000 : 		}

	lea	rsp, QWORD PTR [rbp+96]
	pop	rbp
	ret	0
?_Tidy_deallocate@?$basic_string@DU?$char_traits@D@std@@V?$allocator@D@2@@std@@QEAAXXZ ENDP ; std::basic_string<char,std::char_traits<char>,std::allocator<char> >::_Tidy_deallocate
_TEXT	ENDS
; Function compile flags: /Odtp /RTCu /ZI
; File c:\program files (x86)\microsoft visual studio\2017\enterprise\vc\tools\msvc\14.15.26726\include\xstring
;	COMDAT ?_Tidy_init@?$basic_string@DU?$char_traits@D@std@@V?$allocator@D@2@@std@@QEAAXXZ
_TEXT	SEGMENT
_My_data$ = 0
$T1 = 72
this$ = 96
?_Tidy_init@?$basic_string@DU?$char_traits@D@std@@V?$allocator@D@2@@std@@QEAAXXZ PROC ; std::basic_string<char,std::char_traits<char>,std::allocator<char> >::_Tidy_init, COMDAT

; 3974 : 		{	// initialize basic_string data members

$LN3:
	mov	QWORD PTR [rsp+8], rcx
	push	rbp
	sub	rsp, 112				; 00000070H
	lea	rbp, QWORD PTR [rsp+32]
	lea	rcx, OFFSET FLAT:__D9BA934F_xstring
	call	__CheckForDebuggerJustMyCode

; 3975 : 		auto& _My_data = this->_Get_data();

	mov	rcx, QWORD PTR this$[rbp]
	call	?_Get_data@?$_String_alloc@U?$_String_base_types@DV?$allocator@D@std@@@std@@@std@@QEAAAEAV?$_String_val@U?$_Simple_types@D@std@@@2@XZ ; std::_String_alloc<std::_String_base_types<char,std::allocator<char> > >::_Get_data
	mov	QWORD PTR _My_data$[rbp], rax

; 3976 : 		_My_data._Mysize = 0;

	mov	rax, QWORD PTR _My_data$[rbp]
	mov	QWORD PTR [rax+24], 0

; 3977 : 		_My_data._Myres = this->_BUF_SIZE - 1;

	mov	rax, QWORD PTR _My_data$[rbp]
	mov	QWORD PTR [rax+32], 15

; 3978 : 		// the _Traits::assign is last so the codegen doesn't think the char
; 3979 : 		// write can alias this
; 3980 : 		_Traits::assign(_My_data._Bx._Buf[0], _Elem());

	mov	BYTE PTR $T1[rbp], 0
	mov	eax, 1
	imul	rax, rax, 0
	mov	rcx, QWORD PTR _My_data$[rbp]
	lea	rax, QWORD PTR [rcx+rax+8]
	lea	rdx, QWORD PTR $T1[rbp]
	mov	rcx, rax
	call	?assign@?$char_traits@D@std@@SAXAEADAEBD@Z ; std::char_traits<char>::assign

; 3981 : 		}

	lea	rsp, QWORD PTR [rbp+80]
	pop	rbp
	ret	0
?_Tidy_init@?$basic_string@DU?$char_traits@D@std@@V?$allocator@D@2@@std@@QEAAXXZ ENDP ; std::basic_string<char,std::char_traits<char>,std::allocator<char> >::_Tidy_init
_TEXT	ENDS
; Function compile flags: /Odtp /RTCu /ZI
; File c:\program files (x86)\microsoft visual studio\2017\enterprise\vc\tools\msvc\14.15.26726\include\xstring
;	COMDAT ?_Calculate_growth@?$basic_string@DU?$char_traits@D@std@@V?$allocator@D@2@@std@@QEBA_K_K@Z
_TEXT	SEGMENT
_Max$ = 0
_My_data$ = 8
_Masked$ = 16
_Old$ = 24
$T1 = 96
__$ArrayPad$ = 104
this$ = 128
_Requested$ = 136
?_Calculate_growth@?$basic_string@DU?$char_traits@D@std@@V?$allocator@D@2@@std@@QEBA_K_K@Z PROC ; std::basic_string<char,std::char_traits<char>,std::allocator<char> >::_Calculate_growth, COMDAT

; 3866 : 		{	// determines the next array size to allocate

$LN5:
	mov	QWORD PTR [rsp+16], rdx
	mov	QWORD PTR [rsp+8], rcx
	push	rbp
	sub	rsp, 144				; 00000090H
	lea	rbp, QWORD PTR [rsp+32]
	mov	rax, QWORD PTR __security_cookie
	xor	rax, rbp
	mov	QWORD PTR __$ArrayPad$[rbp], rax
	lea	rcx, OFFSET FLAT:__D9BA934F_xstring
	call	__CheckForDebuggerJustMyCode

; 3867 : 		const size_type _Max = max_size();

	mov	rcx, QWORD PTR this$[rbp]
	call	?max_size@?$basic_string@DU?$char_traits@D@std@@V?$allocator@D@2@@std@@QEBA_KXZ ; std::basic_string<char,std::char_traits<char>,std::allocator<char> >::max_size
	mov	QWORD PTR _Max$[rbp], rax

; 3868 : 		auto& _My_data = this->_Get_data();

	mov	rcx, QWORD PTR this$[rbp]
	call	?_Get_data@?$_String_alloc@U?$_String_base_types@DV?$allocator@D@std@@@std@@@std@@QEBAAEBV?$_String_val@U?$_Simple_types@D@std@@@2@XZ ; std::_String_alloc<std::_String_base_types<char,std::allocator<char> > >::_Get_data
	mov	QWORD PTR _My_data$[rbp], rax

; 3869 : 		const size_type _Masked = _Requested | this->_ALLOC_MASK;

	mov	rax, QWORD PTR _Requested$[rbp]
	or	rax, 15
	mov	QWORD PTR _Masked$[rbp], rax

; 3870 : 		if (_Masked > _Max)

	mov	rax, QWORD PTR _Max$[rbp]
	cmp	QWORD PTR _Masked$[rbp], rax
	jbe	SHORT $LN2@Calculate_

; 3871 : 			{	// the mask overflows, settle for max_size()
; 3872 : 			return (_Max);

	mov	rax, QWORD PTR _Max$[rbp]
	jmp	SHORT $LN1@Calculate_
$LN2@Calculate_:

; 3873 : 			}
; 3874 : 
; 3875 : 		const size_type _Old = _My_data._Myres;

	mov	rax, QWORD PTR _My_data$[rbp]
	mov	rax, QWORD PTR [rax+32]
	mov	QWORD PTR _Old$[rbp], rax

; 3876 : 		if (_Old > _Max - _Old / 2)

	xor	edx, edx
	mov	rax, QWORD PTR _Old$[rbp]
	mov	ecx, 2
	div	rcx
	mov	rcx, QWORD PTR _Max$[rbp]
	sub	rcx, rax
	mov	rax, rcx
	cmp	QWORD PTR _Old$[rbp], rax
	jbe	SHORT $LN3@Calculate_

; 3877 : 			{	// similarly, geometric overflows
; 3878 : 			return (_Max);

	mov	rax, QWORD PTR _Max$[rbp]
	jmp	SHORT $LN1@Calculate_
$LN3@Calculate_:

; 3879 : 			}
; 3880 : 
; 3881 : 		return (_Max_value(_Masked, _Old + _Old / 2));

	xor	edx, edx
	mov	rax, QWORD PTR _Old$[rbp]
	mov	ecx, 2
	div	rcx
	mov	rcx, QWORD PTR _Old$[rbp]
	add	rcx, rax
	mov	rax, rcx
	mov	QWORD PTR $T1[rbp], rax
	lea	rdx, QWORD PTR $T1[rbp]
	lea	rcx, QWORD PTR _Masked$[rbp]
	call	??$_Max_value@_K@std@@YAAEB_KAEB_K0@Z	; std::_Max_value<unsigned __int64>
	mov	rax, QWORD PTR [rax]
$LN1@Calculate_:

; 3882 : 		}

	mov	rcx, QWORD PTR __$ArrayPad$[rbp]
	xor	rcx, rbp
	call	__security_check_cookie
	lea	rsp, QWORD PTR [rbp+112]
	pop	rbp
	ret	0
?_Calculate_growth@?$basic_string@DU?$char_traits@D@std@@V?$allocator@D@2@@std@@QEBA_K_K@Z ENDP ; std::basic_string<char,std::char_traits<char>,std::allocator<char> >::_Calculate_growth
_TEXT	ENDS
; Function compile flags: /Odtp /RTCu /ZI
; File c:\program files (x86)\microsoft visual studio\2017\enterprise\vc\tools\msvc\14.15.26726\include\xstring
;	COMDAT ?max_size@?$basic_string@DU?$char_traits@D@std@@V?$allocator@D@2@@std@@QEBA_KXZ
_TEXT	SEGMENT
_Alloc_max$ = 0
_Storage_max$ = 8
$T1 = 80
$T2 = 88
$T3 = 96
$T4 = 104
__$ArrayPad$ = 112
this$ = 144
?max_size@?$basic_string@DU?$char_traits@D@std@@V?$allocator@D@2@@std@@QEBA_KXZ PROC ; std::basic_string<char,std::char_traits<char>,std::allocator<char> >::max_size, COMDAT

; 3306 : 		{	// return maximum possible length of sequence

$LN3:
	mov	QWORD PTR [rsp+8], rcx
	push	rbp
	sub	rsp, 160				; 000000a0H
	lea	rbp, QWORD PTR [rsp+32]
	mov	QWORD PTR $T4[rbp], -2
	mov	rax, QWORD PTR __security_cookie
	xor	rax, rbp
	mov	QWORD PTR __$ArrayPad$[rbp], rax
	lea	rcx, OFFSET FLAT:__D9BA934F_xstring
	call	__CheckForDebuggerJustMyCode
	npad	1

; 3307 : 		const size_type _Alloc_max = _Alty_traits::max_size(this->_Getal());

	mov	rcx, QWORD PTR this$[rbp]
	call	?_Getal@?$_String_alloc@U?$_String_base_types@DV?$allocator@D@std@@@std@@@std@@QEBAAEBV?$allocator@D@2@XZ ; std::_String_alloc<std::_String_base_types<char,std::allocator<char> > >::_Getal
	npad	1
	mov	rcx, rax
	call	?max_size@?$_Default_allocator_traits@V?$allocator@D@std@@@std@@SA_KAEBV?$allocator@D@2@@Z ; std::_Default_allocator_traits<std::allocator<char> >::max_size
	npad	1
	mov	QWORD PTR _Alloc_max$[rbp], rax

; 3308 : 		const size_type _Storage_max = // can always store small string
; 3309 : 			_Max_value(_Alloc_max, static_cast<size_type>(this->_BUF_SIZE));

	mov	QWORD PTR $T1[rbp], 16
	lea	rdx, QWORD PTR $T1[rbp]
	lea	rcx, QWORD PTR _Alloc_max$[rbp]
	call	??$_Max_value@_K@std@@YAAEB_KAEB_K0@Z	; std::_Max_value<unsigned __int64>
	npad	1
	mov	rax, QWORD PTR [rax]
	mov	QWORD PTR _Storage_max$[rbp], rax

; 3310 : 		return (_Min_value(

	mov	rax, QWORD PTR _Storage_max$[rbp]
	dec	rax
	mov	QWORD PTR $T2[rbp], rax
	call	?max@?$numeric_limits@_J@std@@SA_JXZ	; std::numeric_limits<__int64>::max
	npad	1
	mov	QWORD PTR $T3[rbp], rax
	lea	rdx, QWORD PTR $T2[rbp]
	lea	rcx, QWORD PTR $T3[rbp]
	call	??$_Min_value@_K@std@@YAAEB_KAEB_K0@Z	; std::_Min_value<unsigned __int64>
	npad	1
	mov	rax, QWORD PTR [rax]

; 3311 : 			static_cast<size_type>((numeric_limits<difference_type>::max)()),
; 3312 : 			_Storage_max - 1 // -1 is for null terminator and/or npos
; 3313 : 			));
; 3314 : 
; 3315 : 		}

	mov	rcx, QWORD PTR __$ArrayPad$[rbp]
	xor	rcx, rbp
	call	__security_check_cookie
	npad	1
	lea	rsp, QWORD PTR [rbp+128]
	pop	rbp
	ret	0
?max_size@?$basic_string@DU?$char_traits@D@std@@V?$allocator@D@2@@std@@QEBA_KXZ ENDP ; std::basic_string<char,std::char_traits<char>,std::allocator<char> >::max_size
_TEXT	ENDS
; Function compile flags: /Odtp /RTCu /ZI
; File c:\program files (x86)\microsoft visual studio\2017\enterprise\vc\tools\msvc\14.15.26726\include\xstring
;	COMDAT ?assign@?$basic_string@DU?$char_traits@D@std@@V?$allocator@D@2@@std@@QEAAAEAV12@QEBD@Z
_TEXT	SEGMENT
this$ = 80
_Ptr$ = 88
?assign@?$basic_string@DU?$char_traits@D@std@@V?$allocator@D@2@@std@@QEAAAEAV12@QEBD@Z PROC ; std::basic_string<char,std::char_traits<char>,std::allocator<char> >::assign, COMDAT

; 2675 : 		{	// assign [_Ptr, <null>)

$LN3:
	mov	QWORD PTR [rsp+16], rdx
	mov	QWORD PTR [rsp+8], rcx
	push	rbp
	sub	rsp, 96					; 00000060H
	lea	rbp, QWORD PTR [rsp+32]
	lea	rcx, OFFSET FLAT:__D9BA934F_xstring
	call	__CheckForDebuggerJustMyCode

; 2676 : 		return (assign(_Ptr, _Convert_size<size_type>(_Traits::length(_Ptr))));

	mov	rcx, QWORD PTR _Ptr$[rbp]
	call	?length@?$char_traits@D@std@@SA_KQEBD@Z	; std::char_traits<char>::length
	mov	rcx, rax
	call	??$_Convert_size@_K@std@@YA_K_K@Z	; std::_Convert_size<unsigned __int64>
	mov	r8, rax
	mov	rdx, QWORD PTR _Ptr$[rbp]
	mov	rcx, QWORD PTR this$[rbp]
	call	?assign@?$basic_string@DU?$char_traits@D@std@@V?$allocator@D@2@@std@@QEAAAEAV12@QEBD_K@Z ; std::basic_string<char,std::char_traits<char>,std::allocator<char> >::assign

; 2677 : 		}

	lea	rsp, QWORD PTR [rbp+64]
	pop	rbp
	ret	0
?assign@?$basic_string@DU?$char_traits@D@std@@V?$allocator@D@2@@std@@QEAAAEAV12@QEBD@Z ENDP ; std::basic_string<char,std::char_traits<char>,std::allocator<char> >::assign
_TEXT	ENDS
; Function compile flags: /Odtp /RTCu /ZI
; File c:\program files (x86)\microsoft visual studio\2017\enterprise\vc\tools\msvc\14.15.26726\include\xstring
;	COMDAT ?assign@?$basic_string@DU?$char_traits@D@std@@V?$allocator@D@2@@std@@QEAAAEAV12@QEBD_K@Z
_TEXT	SEGMENT
_My_data$ = 0
_Old_ptr$1 = 8
$T2 = 80
$T3 = 81
this$ = 128
_Ptr$ = 136
_Count$ = 144
?assign@?$basic_string@DU?$char_traits@D@std@@V?$allocator@D@2@@std@@QEAAAEAV12@QEBD_K@Z PROC ; std::basic_string<char,std::char_traits<char>,std::allocator<char> >::assign, COMDAT

; 2657 : 		{	// assign [_Ptr, _Ptr + _Count)

$LN4:
	mov	QWORD PTR [rsp+24], r8
	mov	QWORD PTR [rsp+16], rdx
	mov	QWORD PTR [rsp+8], rcx
	push	rbp
	push	rdi
	sub	rsp, 136				; 00000088H
	lea	rbp, QWORD PTR [rsp+32]
	lea	rcx, OFFSET FLAT:__D9BA934F_xstring
	call	__CheckForDebuggerJustMyCode

; 2658 : 		auto& _My_data = this->_Get_data();

	mov	rcx, QWORD PTR this$[rbp]
	call	?_Get_data@?$_String_alloc@U?$_String_base_types@DV?$allocator@D@std@@@std@@@std@@QEAAAEAV?$_String_val@U?$_Simple_types@D@std@@@2@XZ ; std::_String_alloc<std::_String_base_types<char,std::allocator<char> > >::_Get_data
	mov	QWORD PTR _My_data$[rbp], rax

; 2659 : 		if (_Count <= _My_data._Myres)

	mov	rax, QWORD PTR _My_data$[rbp]
	mov	rax, QWORD PTR [rax+32]
	cmp	QWORD PTR _Count$[rbp], rax
	ja	SHORT $LN2@assign

; 2660 : 			{
; 2661 : 			_Elem * const _Old_ptr = _My_data._Myptr();

	mov	rcx, QWORD PTR _My_data$[rbp]
	call	?_Myptr@?$_String_val@U?$_Simple_types@D@std@@@std@@QEAAPEADXZ ; std::_String_val<std::_Simple_types<char> >::_Myptr
	mov	QWORD PTR _Old_ptr$1[rbp], rax

; 2662 : 			_My_data._Mysize = _Count;

	mov	rax, QWORD PTR _My_data$[rbp]
	mov	rcx, QWORD PTR _Count$[rbp]
	mov	QWORD PTR [rax+24], rcx

; 2663 : 			_Traits::move(_Old_ptr, _Ptr, _Count);

	mov	r8, QWORD PTR _Count$[rbp]
	mov	rdx, QWORD PTR _Ptr$[rbp]
	mov	rcx, QWORD PTR _Old_ptr$1[rbp]
	call	?move@?$char_traits@D@std@@SAPEADQEADQEBD_K@Z ; std::char_traits<char>::move

; 2664 : 			_Traits::assign(_Old_ptr[_Count], _Elem());

	mov	BYTE PTR $T2[rbp], 0
	mov	rax, QWORD PTR _Count$[rbp]
	mov	rcx, QWORD PTR _Old_ptr$1[rbp]
	add	rcx, rax
	mov	rax, rcx
	lea	rdx, QWORD PTR $T2[rbp]
	mov	rcx, rax
	call	?assign@?$char_traits@D@std@@SAXAEADAEBD@Z ; std::char_traits<char>::assign

; 2665 : 			return (*this);

	mov	rax, QWORD PTR this$[rbp]
	jmp	SHORT $LN1@assign
$LN2@assign:

; 2666 : 			}
; 2667 : 
; 2668 : 		return (_Reallocate_for(_Count, [](_Elem * const _New_ptr, const size_type _Count, const _Elem * const _Ptr) {

	lea	rax, QWORD PTR $T3[rbp]
	mov	rdi, rax
	xor	eax, eax
	mov	ecx, 1
	rep stosb
	mov	r9, QWORD PTR _Ptr$[rbp]
	movzx	r8d, BYTE PTR $T3[rbp]
	mov	rdx, QWORD PTR _Count$[rbp]
	mov	rcx, QWORD PTR this$[rbp]
	call	??$_Reallocate_for@V<lambda_66f57f934f28d61049862f64df852ff0>@@PEBD@?$basic_string@DU?$char_traits@D@std@@V?$allocator@D@2@@std@@QEAAAEAV01@_KV<lambda_66f57f934f28d61049862f64df852ff0>@@PEBD@Z ; std::basic_string<char,std::char_traits<char>,std::allocator<char> >::_Reallocate_for<<lambda_66f57f934f28d61049862f64df852ff0>,char const *>
$LN1@assign:

; 2669 : 			_Traits::copy(_New_ptr, _Ptr, _Count);
; 2670 : 			_Traits::assign(_New_ptr[_Count], _Elem());
; 2671 : 			}, _Ptr));
; 2672 : 		}

	lea	rsp, QWORD PTR [rbp+104]
	pop	rdi
	pop	rbp
	ret	0
?assign@?$basic_string@DU?$char_traits@D@std@@V?$allocator@D@2@@std@@QEAAAEAV12@QEBD_K@Z ENDP ; std::basic_string<char,std::char_traits<char>,std::allocator<char> >::assign
_TEXT	ENDS
; Function compile flags: /Odtp /RTCu /ZI
; File c:\program files (x86)\microsoft visual studio\2017\enterprise\vc\tools\msvc\14.15.26726\include\xstring
;	COMDAT ??1?$basic_string@DU?$char_traits@D@std@@V?$allocator@D@2@@std@@QEAA@XZ
_TEXT	SEGMENT
$T1 = 64
this$ = 96
??1?$basic_string@DU?$char_traits@D@std@@V?$allocator@D@2@@std@@QEAA@XZ PROC ; std::basic_string<char,std::char_traits<char>,std::allocator<char> >::~basic_string<char,std::char_traits<char>,std::allocator<char> >, COMDAT

; 2459 : 		{	// destroy the string

$LN3:
	mov	QWORD PTR [rsp+8], rcx
	push	rbp
	sub	rsp, 112				; 00000070H
	lea	rbp, QWORD PTR [rsp+32]
	mov	QWORD PTR $T1[rbp], -2
	lea	rcx, OFFSET FLAT:__D9BA934F_xstring
	call	__CheckForDebuggerJustMyCode
	npad	1

; 2460 : 		_Tidy_deallocate();

	mov	rcx, QWORD PTR this$[rbp]
	call	?_Tidy_deallocate@?$basic_string@DU?$char_traits@D@std@@V?$allocator@D@2@@std@@QEAAXXZ ; std::basic_string<char,std::char_traits<char>,std::allocator<char> >::_Tidy_deallocate
	npad	1

; 2461 : 		}

	mov	rcx, QWORD PTR this$[rbp]
	call	??1?$_String_alloc@U?$_String_base_types@DV?$allocator@D@std@@@std@@@std@@QEAA@XZ ; std::_String_alloc<std::_String_base_types<char,std::allocator<char> > >::~_String_alloc<std::_String_base_types<char,std::allocator<char> > >
	npad	1
	lea	rsp, QWORD PTR [rbp+80]
	pop	rbp
	ret	0
??1?$basic_string@DU?$char_traits@D@std@@V?$allocator@D@2@@std@@QEAA@XZ ENDP ; std::basic_string<char,std::char_traits<char>,std::allocator<char> >::~basic_string<char,std::char_traits<char>,std::allocator<char> >
_TEXT	ENDS
; Function compile flags: /Odtp /RTCu /ZI
; File c:\program files (x86)\microsoft visual studio\2017\enterprise\vc\tools\msvc\14.15.26726\include\xstring
;	COMDAT ??0?$basic_string@DU?$char_traits@D@std@@V?$allocator@D@2@@std@@QEAA@QEBD@Z
_TEXT	SEGMENT
$T1 = 64
this$ = 96
_Ptr$ = 104
??0?$basic_string@DU?$char_traits@D@std@@V?$allocator@D@2@@std@@QEAA@QEBD@Z PROC ; std::basic_string<char,std::char_traits<char>,std::allocator<char> >::basic_string<char,std::char_traits<char>,std::allocator<char> >, COMDAT

; 2183 : 		{	// construct from [_Ptr, <null>)

$LN4:
	mov	QWORD PTR [rsp+16], rdx
	mov	QWORD PTR [rsp+8], rcx
	push	rbp
	sub	rsp, 112				; 00000070H
	lea	rbp, QWORD PTR [rsp+32]
	mov	QWORD PTR $T1[rbp], -2
	lea	rcx, OFFSET FLAT:__D9BA934F_xstring
	call	__CheckForDebuggerJustMyCode

; 2182 : 		: _Mybase()

	mov	rcx, QWORD PTR this$[rbp]
	call	??0?$_String_alloc@U?$_String_base_types@DV?$allocator@D@std@@@std@@@std@@QEAA@XZ ; std::_String_alloc<std::_String_base_types<char,std::allocator<char> > >::_String_alloc<std::_String_base_types<char,std::allocator<char> > >
	npad	1

; 2184 : 		_Tidy_init();

	mov	rcx, QWORD PTR this$[rbp]
	call	?_Tidy_init@?$basic_string@DU?$char_traits@D@std@@V?$allocator@D@2@@std@@QEAAXXZ ; std::basic_string<char,std::char_traits<char>,std::allocator<char> >::_Tidy_init

; 2185 : 		assign(_Ptr);

	mov	rdx, QWORD PTR _Ptr$[rbp]
	mov	rcx, QWORD PTR this$[rbp]
	call	?assign@?$basic_string@DU?$char_traits@D@std@@V?$allocator@D@2@@std@@QEAAAEAV12@QEBD@Z ; std::basic_string<char,std::char_traits<char>,std::allocator<char> >::assign
	npad	1

; 2186 : 		}

	mov	rax, QWORD PTR this$[rbp]
	lea	rsp, QWORD PTR [rbp+80]
	pop	rbp
	ret	0
??0?$basic_string@DU?$char_traits@D@std@@V?$allocator@D@2@@std@@QEAA@QEBD@Z ENDP ; std::basic_string<char,std::char_traits<char>,std::allocator<char> >::basic_string<char,std::char_traits<char>,std::allocator<char> >
_TEXT	ENDS
;	COMDAT text$x
text$x	SEGMENT
$T1 = 64
this$ = 96
_Ptr$ = 104
?dtor$0@?0???0?$basic_string@DU?$char_traits@D@std@@V?$allocator@D@2@@std@@QEAA@QEBD@Z@4HA PROC ; `std::basic_string<char,std::char_traits<char>,std::allocator<char> >::basic_string<char,std::char_traits<char>,std::allocator<char> >'::`1'::dtor$0
	push	rbp
	sub	rsp, 32					; 00000020H
	lea	rbp, QWORD PTR [rdx+32]
	mov	rcx, QWORD PTR this$[rbp]
	call	??1?$_String_alloc@U?$_String_base_types@DV?$allocator@D@std@@@std@@@std@@QEAA@XZ ; std::_String_alloc<std::_String_base_types<char,std::allocator<char> > >::~_String_alloc<std::_String_base_types<char,std::allocator<char> > >
	add	rsp, 32					; 00000020H
	pop	rbp
	ret	0
?dtor$0@?0???0?$basic_string@DU?$char_traits@D@std@@V?$allocator@D@2@@std@@QEAA@QEBD@Z@4HA ENDP ; `std::basic_string<char,std::char_traits<char>,std::allocator<char> >::basic_string<char,std::char_traits<char>,std::allocator<char> >'::`1'::dtor$0
text$x	ENDS
; Function compile flags: /Odtp /RTCu /ZI
;	COMDAT text$x
text$x	SEGMENT
$T1 = 64
this$ = 96
_Ptr$ = 104
?dtor$0@?0???0?$basic_string@DU?$char_traits@D@std@@V?$allocator@D@2@@std@@QEAA@QEBD@Z@4HA PROC ; `std::basic_string<char,std::char_traits<char>,std::allocator<char> >::basic_string<char,std::char_traits<char>,std::allocator<char> >'::`1'::dtor$0
	push	rbp
	sub	rsp, 32					; 00000020H
	lea	rbp, QWORD PTR [rdx+32]
	mov	rcx, QWORD PTR this$[rbp]
	call	??1?$_String_alloc@U?$_String_base_types@DV?$allocator@D@std@@@std@@@std@@QEAA@XZ ; std::_String_alloc<std::_String_base_types<char,std::allocator<char> > >::~_String_alloc<std::_String_base_types<char,std::allocator<char> > >
	add	rsp, 32					; 00000020H
	pop	rbp
	ret	0
?dtor$0@?0???0?$basic_string@DU?$char_traits@D@std@@V?$allocator@D@2@@std@@QEAA@QEBD@Z@4HA ENDP ; `std::basic_string<char,std::char_traits<char>,std::allocator<char> >::basic_string<char,std::char_traits<char>,std::allocator<char> >'::`1'::dtor$0
text$x	ENDS
; Function compile flags: /Odtp /RTCu /ZI
;	COMDAT ??1?$_Compressed_pair@V?$allocator@D@std@@V?$_String_val@U?$_Simple_types@D@std@@@2@$00@std@@QEAA@XZ
_TEXT	SEGMENT
this$ = 80
??1?$_Compressed_pair@V?$allocator@D@std@@V?$_String_val@U?$_Simple_types@D@std@@@2@$00@std@@QEAA@XZ PROC ; std::_Compressed_pair<std::allocator<char>,std::_String_val<std::_Simple_types<char> >,1>::~_Compressed_pair<std::allocator<char>,std::_String_val<std::_Simple_types<char> >,1>, COMDAT
$LN3:
	mov	QWORD PTR [rsp+8], rcx
	push	rbp
	sub	rsp, 96					; 00000060H
	lea	rbp, QWORD PTR [rsp+32]
	mov	rax, QWORD PTR this$[rbp]
	mov	rcx, rax
	call	??1?$_String_val@U?$_Simple_types@D@std@@@std@@QEAA@XZ
	lea	rsp, QWORD PTR [rbp+64]
	pop	rbp
	ret	0
??1?$_Compressed_pair@V?$allocator@D@std@@V?$_String_val@U?$_Simple_types@D@std@@@2@$00@std@@QEAA@XZ ENDP ; std::_Compressed_pair<std::allocator<char>,std::_String_val<std::_Simple_types<char> >,1>::~_Compressed_pair<std::allocator<char>,std::_String_val<std::_Simple_types<char> >,1>
_TEXT	ENDS
; Function compile flags: /Odtp /RTCu /ZI
; File c:\program files (x86)\microsoft visual studio\2017\enterprise\vc\tools\msvc\14.15.26726\include\xutility
;	COMDAT ?_Get_second@?$_Compressed_pair@V?$allocator@D@std@@V?$_String_val@U?$_Simple_types@D@std@@@2@$00@std@@QEBAAEBV?$_String_val@U?$_Simple_types@D@std@@@2@XZ
_TEXT	SEGMENT
$T1 = 64
this$ = 96
?_Get_second@?$_Compressed_pair@V?$allocator@D@std@@V?$_String_val@U?$_Simple_types@D@std@@@2@$00@std@@QEBAAEBV?$_String_val@U?$_Simple_types@D@std@@@2@XZ PROC ; std::_Compressed_pair<std::allocator<char>,std::_String_val<std::_Simple_types<char> >,1>::_Get_second, COMDAT

; 306  : 		{	// return const reference to second

$LN3:
	mov	QWORD PTR [rsp+8], rcx
	push	rbp
	sub	rsp, 112				; 00000070H
	lea	rbp, QWORD PTR [rsp+32]
	mov	QWORD PTR $T1[rbp], -2
	lea	rcx, OFFSET FLAT:__E8FD1B86_xutility
	call	__CheckForDebuggerJustMyCode
	npad	1

; 307  : 		return (_Myval2);

	mov	rax, QWORD PTR this$[rbp]

; 308  : 		}

	lea	rsp, QWORD PTR [rbp+80]
	pop	rbp
	ret	0
?_Get_second@?$_Compressed_pair@V?$allocator@D@std@@V?$_String_val@U?$_Simple_types@D@std@@@2@$00@std@@QEBAAEBV?$_String_val@U?$_Simple_types@D@std@@@2@XZ ENDP ; std::_Compressed_pair<std::allocator<char>,std::_String_val<std::_Simple_types<char> >,1>::_Get_second
_TEXT	ENDS
; Function compile flags: /Odtp /RTCu /ZI
; File c:\program files (x86)\microsoft visual studio\2017\enterprise\vc\tools\msvc\14.15.26726\include\xutility
;	COMDAT ?_Get_second@?$_Compressed_pair@V?$allocator@D@std@@V?$_String_val@U?$_Simple_types@D@std@@@2@$00@std@@QEAAAEAV?$_String_val@U?$_Simple_types@D@std@@@2@XZ
_TEXT	SEGMENT
$T1 = 64
this$ = 96
?_Get_second@?$_Compressed_pair@V?$allocator@D@std@@V?$_String_val@U?$_Simple_types@D@std@@@2@$00@std@@QEAAAEAV?$_String_val@U?$_Simple_types@D@std@@@2@XZ PROC ; std::_Compressed_pair<std::allocator<char>,std::_String_val<std::_Simple_types<char> >,1>::_Get_second, COMDAT

; 301  : 		{	// return reference to second

$LN3:
	mov	QWORD PTR [rsp+8], rcx
	push	rbp
	sub	rsp, 112				; 00000070H
	lea	rbp, QWORD PTR [rsp+32]
	mov	QWORD PTR $T1[rbp], -2
	lea	rcx, OFFSET FLAT:__E8FD1B86_xutility
	call	__CheckForDebuggerJustMyCode
	npad	1

; 302  : 		return (_Myval2);

	mov	rax, QWORD PTR this$[rbp]

; 303  : 		}

	lea	rsp, QWORD PTR [rbp+80]
	pop	rbp
	ret	0
?_Get_second@?$_Compressed_pair@V?$allocator@D@std@@V?$_String_val@U?$_Simple_types@D@std@@@2@$00@std@@QEAAAEAV?$_String_val@U?$_Simple_types@D@std@@@2@XZ ENDP ; std::_Compressed_pair<std::allocator<char>,std::_String_val<std::_Simple_types<char> >,1>::_Get_second
_TEXT	ENDS
; Function compile flags: /Odtp /RTCu /ZI
; File c:\program files (x86)\microsoft visual studio\2017\enterprise\vc\tools\msvc\14.15.26726\include\xutility
;	COMDAT ?_Get_first@?$_Compressed_pair@V?$allocator@D@std@@V?$_String_val@U?$_Simple_types@D@std@@@2@$00@std@@QEBAAEBV?$allocator@D@2@XZ
_TEXT	SEGMENT
$T1 = 64
this$ = 96
?_Get_first@?$_Compressed_pair@V?$allocator@D@std@@V?$_String_val@U?$_Simple_types@D@std@@@2@$00@std@@QEBAAEBV?$allocator@D@2@XZ PROC ; std::_Compressed_pair<std::allocator<char>,std::_String_val<std::_Simple_types<char> >,1>::_Get_first, COMDAT

; 296  : 		{	// return const reference to first

$LN3:
	mov	QWORD PTR [rsp+8], rcx
	push	rbp
	sub	rsp, 112				; 00000070H
	lea	rbp, QWORD PTR [rsp+32]
	mov	QWORD PTR $T1[rbp], -2
	lea	rcx, OFFSET FLAT:__E8FD1B86_xutility
	call	__CheckForDebuggerJustMyCode
	npad	1

; 297  : 		return (*this);

	mov	rax, QWORD PTR this$[rbp]

; 298  : 		}

	lea	rsp, QWORD PTR [rbp+80]
	pop	rbp
	ret	0
?_Get_first@?$_Compressed_pair@V?$allocator@D@std@@V?$_String_val@U?$_Simple_types@D@std@@@2@$00@std@@QEBAAEBV?$allocator@D@2@XZ ENDP ; std::_Compressed_pair<std::allocator<char>,std::_String_val<std::_Simple_types<char> >,1>::_Get_first
_TEXT	ENDS
; Function compile flags: /Odtp /RTCu /ZI
; File c:\program files (x86)\microsoft visual studio\2017\enterprise\vc\tools\msvc\14.15.26726\include\xutility
;	COMDAT ?_Get_first@?$_Compressed_pair@V?$allocator@D@std@@V?$_String_val@U?$_Simple_types@D@std@@@2@$00@std@@QEAAAEAV?$allocator@D@2@XZ
_TEXT	SEGMENT
$T1 = 64
this$ = 96
?_Get_first@?$_Compressed_pair@V?$allocator@D@std@@V?$_String_val@U?$_Simple_types@D@std@@@2@$00@std@@QEAAAEAV?$allocator@D@2@XZ PROC ; std::_Compressed_pair<std::allocator<char>,std::_String_val<std::_Simple_types<char> >,1>::_Get_first, COMDAT

; 291  : 		{	// return reference to first

$LN3:
	mov	QWORD PTR [rsp+8], rcx
	push	rbp
	sub	rsp, 112				; 00000070H
	lea	rbp, QWORD PTR [rsp+32]
	mov	QWORD PTR $T1[rbp], -2
	lea	rcx, OFFSET FLAT:__E8FD1B86_xutility
	call	__CheckForDebuggerJustMyCode
	npad	1

; 292  : 		return (*this);

	mov	rax, QWORD PTR this$[rbp]

; 293  : 		}

	lea	rsp, QWORD PTR [rbp+80]
	pop	rbp
	ret	0
?_Get_first@?$_Compressed_pair@V?$allocator@D@std@@V?$_String_val@U?$_Simple_types@D@std@@@2@$00@std@@QEAAAEAV?$allocator@D@2@XZ ENDP ; std::_Compressed_pair<std::allocator<char>,std::_String_val<std::_Simple_types<char> >,1>::_Get_first
_TEXT	ENDS
; Function compile flags: /Odtp /RTCu /ZI
; File c:\program files (x86)\microsoft visual studio\2017\enterprise\vc\tools\msvc\14.15.26726\include\xstring
;	COMDAT ?_Get_data@?$_String_alloc@U?$_String_base_types@DV?$allocator@D@std@@@std@@@std@@QEBAAEBV?$_String_val@U?$_Simple_types@D@std@@@2@XZ
_TEXT	SEGMENT
$T1 = 64
this$ = 96
?_Get_data@?$_String_alloc@U?$_String_base_types@DV?$allocator@D@std@@@std@@@std@@QEBAAEBV?$_String_val@U?$_Simple_types@D@std@@@2@XZ PROC ; std::_String_alloc<std::_String_base_types<char,std::allocator<char> > >::_Get_data, COMDAT

; 2047 : 		{	// return const reference to _String_val

$LN3:
	mov	QWORD PTR [rsp+8], rcx
	push	rbp
	sub	rsp, 112				; 00000070H
	lea	rbp, QWORD PTR [rsp+32]
	mov	QWORD PTR $T1[rbp], -2
	lea	rcx, OFFSET FLAT:__D9BA934F_xstring
	call	__CheckForDebuggerJustMyCode
	npad	1

; 2048 : 		return (_Mypair._Get_second());

	mov	rax, QWORD PTR this$[rbp]
	mov	rcx, rax
	call	?_Get_second@?$_Compressed_pair@V?$allocator@D@std@@V?$_String_val@U?$_Simple_types@D@std@@@2@$00@std@@QEBAAEBV?$_String_val@U?$_Simple_types@D@std@@@2@XZ ; std::_Compressed_pair<std::allocator<char>,std::_String_val<std::_Simple_types<char> >,1>::_Get_second
	npad	1

; 2049 : 		}

	lea	rsp, QWORD PTR [rbp+80]
	pop	rbp
	ret	0
?_Get_data@?$_String_alloc@U?$_String_base_types@DV?$allocator@D@std@@@std@@@std@@QEBAAEBV?$_String_val@U?$_Simple_types@D@std@@@2@XZ ENDP ; std::_String_alloc<std::_String_base_types<char,std::allocator<char> > >::_Get_data
_TEXT	ENDS
; Function compile flags: /Odtp /RTCu /ZI
; File c:\program files (x86)\microsoft visual studio\2017\enterprise\vc\tools\msvc\14.15.26726\include\xstring
;	COMDAT ?_Get_data@?$_String_alloc@U?$_String_base_types@DV?$allocator@D@std@@@std@@@std@@QEAAAEAV?$_String_val@U?$_Simple_types@D@std@@@2@XZ
_TEXT	SEGMENT
$T1 = 64
this$ = 96
?_Get_data@?$_String_alloc@U?$_String_base_types@DV?$allocator@D@std@@@std@@@std@@QEAAAEAV?$_String_val@U?$_Simple_types@D@std@@@2@XZ PROC ; std::_String_alloc<std::_String_base_types<char,std::allocator<char> > >::_Get_data, COMDAT

; 2042 : 		{	// return reference to _String_val

$LN3:
	mov	QWORD PTR [rsp+8], rcx
	push	rbp
	sub	rsp, 112				; 00000070H
	lea	rbp, QWORD PTR [rsp+32]
	mov	QWORD PTR $T1[rbp], -2
	lea	rcx, OFFSET FLAT:__D9BA934F_xstring
	call	__CheckForDebuggerJustMyCode
	npad	1

; 2043 : 		return (_Mypair._Get_second());

	mov	rax, QWORD PTR this$[rbp]
	mov	rcx, rax
	call	?_Get_second@?$_Compressed_pair@V?$allocator@D@std@@V?$_String_val@U?$_Simple_types@D@std@@@2@$00@std@@QEAAAEAV?$_String_val@U?$_Simple_types@D@std@@@2@XZ ; std::_Compressed_pair<std::allocator<char>,std::_String_val<std::_Simple_types<char> >,1>::_Get_second
	npad	1

; 2044 : 		}

	lea	rsp, QWORD PTR [rbp+80]
	pop	rbp
	ret	0
?_Get_data@?$_String_alloc@U?$_String_base_types@DV?$allocator@D@std@@@std@@@std@@QEAAAEAV?$_String_val@U?$_Simple_types@D@std@@@2@XZ ENDP ; std::_String_alloc<std::_String_base_types<char,std::allocator<char> > >::_Get_data
_TEXT	ENDS
; Function compile flags: /Odtp /RTCu /ZI
; File c:\program files (x86)\microsoft visual studio\2017\enterprise\vc\tools\msvc\14.15.26726\include\xstring
;	COMDAT ?_Getal@?$_String_alloc@U?$_String_base_types@DV?$allocator@D@std@@@std@@@std@@QEBAAEBV?$allocator@D@2@XZ
_TEXT	SEGMENT
$T1 = 64
this$ = 96
?_Getal@?$_String_alloc@U?$_String_base_types@DV?$allocator@D@std@@@std@@@std@@QEBAAEBV?$allocator@D@2@XZ PROC ; std::_String_alloc<std::_String_base_types<char,std::allocator<char> > >::_Getal, COMDAT

; 2037 : 		{	// return const reference to allocator

$LN3:
	mov	QWORD PTR [rsp+8], rcx
	push	rbp
	sub	rsp, 112				; 00000070H
	lea	rbp, QWORD PTR [rsp+32]
	mov	QWORD PTR $T1[rbp], -2
	lea	rcx, OFFSET FLAT:__D9BA934F_xstring
	call	__CheckForDebuggerJustMyCode
	npad	1

; 2038 : 		return (_Mypair._Get_first());

	mov	rax, QWORD PTR this$[rbp]
	mov	rcx, rax
	call	?_Get_first@?$_Compressed_pair@V?$allocator@D@std@@V?$_String_val@U?$_Simple_types@D@std@@@2@$00@std@@QEBAAEBV?$allocator@D@2@XZ ; std::_Compressed_pair<std::allocator<char>,std::_String_val<std::_Simple_types<char> >,1>::_Get_first
	npad	1

; 2039 : 		}

	lea	rsp, QWORD PTR [rbp+80]
	pop	rbp
	ret	0
?_Getal@?$_String_alloc@U?$_String_base_types@DV?$allocator@D@std@@@std@@@std@@QEBAAEBV?$allocator@D@2@XZ ENDP ; std::_String_alloc<std::_String_base_types<char,std::allocator<char> > >::_Getal
_TEXT	ENDS
; Function compile flags: /Odtp /RTCu /ZI
; File c:\program files (x86)\microsoft visual studio\2017\enterprise\vc\tools\msvc\14.15.26726\include\xstring
;	COMDAT ?_Getal@?$_String_alloc@U?$_String_base_types@DV?$allocator@D@std@@@std@@@std@@QEAAAEAV?$allocator@D@2@XZ
_TEXT	SEGMENT
$T1 = 64
this$ = 96
?_Getal@?$_String_alloc@U?$_String_base_types@DV?$allocator@D@std@@@std@@@std@@QEAAAEAV?$allocator@D@2@XZ PROC ; std::_String_alloc<std::_String_base_types<char,std::allocator<char> > >::_Getal, COMDAT

; 2032 : 		{	// return reference to allocator

$LN3:
	mov	QWORD PTR [rsp+8], rcx
	push	rbp
	sub	rsp, 112				; 00000070H
	lea	rbp, QWORD PTR [rsp+32]
	mov	QWORD PTR $T1[rbp], -2
	lea	rcx, OFFSET FLAT:__D9BA934F_xstring
	call	__CheckForDebuggerJustMyCode
	npad	1

; 2033 : 		return (_Mypair._Get_first());

	mov	rax, QWORD PTR this$[rbp]
	mov	rcx, rax
	call	?_Get_first@?$_Compressed_pair@V?$allocator@D@std@@V?$_String_val@U?$_Simple_types@D@std@@@2@$00@std@@QEAAAEAV?$allocator@D@2@XZ ; std::_Compressed_pair<std::allocator<char>,std::_String_val<std::_Simple_types<char> >,1>::_Get_first
	npad	1

; 2034 : 		}

	lea	rsp, QWORD PTR [rbp+80]
	pop	rbp
	ret	0
?_Getal@?$_String_alloc@U?$_String_base_types@DV?$allocator@D@std@@@std@@@std@@QEAAAEAV?$allocator@D@2@XZ ENDP ; std::_String_alloc<std::_String_base_types<char,std::allocator<char> > >::_Getal
_TEXT	ENDS
; Function compile flags: /Odtp /RTCu /ZI
; File c:\program files (x86)\microsoft visual studio\2017\enterprise\vc\tools\msvc\14.15.26726\include\xstring
;	COMDAT ?_Orphan_all@?$_String_alloc@U?$_String_base_types@DV?$allocator@D@std@@@std@@@std@@QEAAXXZ
_TEXT	SEGMENT
this$ = 80
?_Orphan_all@?$_String_alloc@U?$_String_base_types@DV?$allocator@D@std@@@std@@@std@@QEAAXXZ PROC ; std::_String_alloc<std::_String_base_types<char,std::allocator<char> > >::_Orphan_all, COMDAT

; 2022 : 		{	// orphan all iterators

$LN3:
	mov	QWORD PTR [rsp+8], rcx
	push	rbp
	sub	rsp, 96					; 00000060H
	lea	rbp, QWORD PTR [rsp+32]
	lea	rcx, OFFSET FLAT:__D9BA934F_xstring
	call	__CheckForDebuggerJustMyCode

; 2023 : 		_Get_data()._Orphan_all();

	mov	rcx, QWORD PTR this$[rbp]
	call	?_Get_data@?$_String_alloc@U?$_String_base_types@DV?$allocator@D@std@@@std@@@std@@QEAAAEAV?$_String_val@U?$_Simple_types@D@std@@@2@XZ ; std::_String_alloc<std::_String_base_types<char,std::allocator<char> > >::_Get_data
	mov	rcx, rax
	call	?_Orphan_all@_Container_base12@std@@QEAAXXZ ; std::_Container_base12::_Orphan_all

; 2024 : 		}

	lea	rsp, QWORD PTR [rbp+64]
	pop	rbp
	ret	0
?_Orphan_all@?$_String_alloc@U?$_String_base_types@DV?$allocator@D@std@@@std@@@std@@QEAAXXZ ENDP ; std::_String_alloc<std::_String_base_types<char,std::allocator<char> > >::_Orphan_all
_TEXT	ENDS
; Function compile flags: /Odtp /RTCu /ZI
; File c:\program files (x86)\microsoft visual studio\2017\enterprise\vc\tools\msvc\14.15.26726\include\xstring
;	COMDAT ?_Myproxy@?$_String_alloc@U?$_String_base_types@DV?$allocator@D@std@@@std@@@std@@QEAAAEAPEAU_Container_proxy@2@XZ
_TEXT	SEGMENT
$T1 = 64
this$ = 96
?_Myproxy@?$_String_alloc@U?$_String_base_types@DV?$allocator@D@std@@@std@@@std@@QEAAAEAPEAU_Container_proxy@2@XZ PROC ; std::_String_alloc<std::_String_base_types<char,std::allocator<char> > >::_Myproxy, COMDAT

; 2011 : 		{	// return reference to _Myproxy

$LN3:
	mov	QWORD PTR [rsp+8], rcx
	push	rbp
	sub	rsp, 112				; 00000070H
	lea	rbp, QWORD PTR [rsp+32]
	mov	QWORD PTR $T1[rbp], -2
	lea	rcx, OFFSET FLAT:__D9BA934F_xstring
	call	__CheckForDebuggerJustMyCode
	npad	1

; 2012 : 		return (_Get_data()._Myproxy);

	mov	rcx, QWORD PTR this$[rbp]
	call	?_Get_data@?$_String_alloc@U?$_String_base_types@DV?$allocator@D@std@@@std@@@std@@QEAAAEAV?$_String_val@U?$_Simple_types@D@std@@@2@XZ ; std::_String_alloc<std::_String_base_types<char,std::allocator<char> > >::_Get_data
	npad	1

; 2013 : 		}

	lea	rsp, QWORD PTR [rbp+80]
	pop	rbp
	ret	0
?_Myproxy@?$_String_alloc@U?$_String_base_types@DV?$allocator@D@std@@@std@@@std@@QEAAAEAPEAU_Container_proxy@2@XZ ENDP ; std::_String_alloc<std::_String_base_types<char,std::allocator<char> > >::_Myproxy
_TEXT	ENDS
; Function compile flags: /Odtp /RTCu /ZI
; File c:\program files (x86)\microsoft visual studio\2017\enterprise\vc\tools\msvc\14.15.26726\include\xstring
;	COMDAT ?_Free_proxy@?$_String_alloc@U?$_String_base_types@DV?$allocator@D@std@@@std@@@std@@QEAAXXZ
_TEXT	SEGMENT
_Proxy_allocator$ = 0
__$ArrayPad$ = 72
this$ = 96
?_Free_proxy@?$_String_alloc@U?$_String_base_types@DV?$allocator@D@std@@@std@@@std@@QEAAXXZ PROC ; std::_String_alloc<std::_String_base_types<char,std::allocator<char> > >::_Free_proxy, COMDAT

; 1997 : 		{	// destroy proxy

$LN3:
	mov	QWORD PTR [rsp+8], rcx
	push	rbp
	sub	rsp, 112				; 00000070H
	lea	rbp, QWORD PTR [rsp+32]
	mov	rax, QWORD PTR __security_cookie
	xor	rax, rbp
	mov	QWORD PTR __$ArrayPad$[rbp], rax
	lea	rcx, OFFSET FLAT:__D9BA934F_xstring
	call	__CheckForDebuggerJustMyCode

; 1998 : 		_Alproxy _Proxy_allocator(_Getal());

	mov	rcx, QWORD PTR this$[rbp]
	call	?_Getal@?$_String_alloc@U?$_String_base_types@DV?$allocator@D@std@@@std@@@std@@QEAAAEAV?$allocator@D@2@XZ ; std::_String_alloc<std::_String_base_types<char,std::allocator<char> > >::_Getal
	mov	rdx, rax
	lea	rcx, QWORD PTR _Proxy_allocator$[rbp]
	call	??$?0D@?$allocator@U_Container_proxy@std@@@std@@QEAA@AEBV?$allocator@D@1@@Z ; std::allocator<std::_Container_proxy>::allocator<std::_Container_proxy><char>

; 1999 : 		_Orphan_all();

	mov	rcx, QWORD PTR this$[rbp]
	call	?_Orphan_all@?$_String_alloc@U?$_String_base_types@DV?$allocator@D@std@@@std@@@std@@QEAAXXZ ; std::_String_alloc<std::_String_base_types<char,std::allocator<char> > >::_Orphan_all

; 2000 : 		_Alproxy_traits::destroy(_Proxy_allocator, _Myproxy());

	mov	rcx, QWORD PTR this$[rbp]
	call	?_Myproxy@?$_String_alloc@U?$_String_base_types@DV?$allocator@D@std@@@std@@@std@@QEAAAEAPEAU_Container_proxy@2@XZ ; std::_String_alloc<std::_String_base_types<char,std::allocator<char> > >::_Myproxy
	mov	rdx, QWORD PTR [rax]
	lea	rcx, QWORD PTR _Proxy_allocator$[rbp]
	call	??$destroy@U_Container_proxy@std@@@?$_Default_allocator_traits@V?$allocator@U_Container_proxy@std@@@std@@@std@@SAXAEAV?$allocator@U_Container_proxy@std@@@1@QEAU_Container_proxy@1@@Z ; std::_Default_allocator_traits<std::allocator<std::_Container_proxy> >::destroy<std::_Container_proxy>

; 2001 : 		_Deallocate_plain(_Proxy_allocator, _Myproxy());

	mov	rcx, QWORD PTR this$[rbp]
	call	?_Myproxy@?$_String_alloc@U?$_String_base_types@DV?$allocator@D@std@@@std@@@std@@QEAAAEAPEAU_Container_proxy@2@XZ ; std::_String_alloc<std::_String_base_types<char,std::allocator<char> > >::_Myproxy
	mov	rdx, QWORD PTR [rax]
	lea	rcx, QWORD PTR _Proxy_allocator$[rbp]
	call	??$_Deallocate_plain@V?$allocator@U_Container_proxy@std@@@std@@$0A@@std@@YAXAEAV?$allocator@U_Container_proxy@std@@@0@QEAU_Container_proxy@0@@Z ; std::_Deallocate_plain<std::allocator<std::_Container_proxy>,0>

; 2002 : 		_Myproxy() = nullptr;

	mov	rcx, QWORD PTR this$[rbp]
	call	?_Myproxy@?$_String_alloc@U?$_String_base_types@DV?$allocator@D@std@@@std@@@std@@QEAAAEAPEAU_Container_proxy@2@XZ ; std::_String_alloc<std::_String_base_types<char,std::allocator<char> > >::_Myproxy
	mov	QWORD PTR [rax], 0

; 2003 : 		}

	mov	rcx, QWORD PTR __$ArrayPad$[rbp]
	xor	rcx, rbp
	call	__security_check_cookie
	lea	rsp, QWORD PTR [rbp+80]
	pop	rbp
	ret	0
?_Free_proxy@?$_String_alloc@U?$_String_base_types@DV?$allocator@D@std@@@std@@@std@@QEAAXXZ ENDP ; std::_String_alloc<std::_String_base_types<char,std::allocator<char> > >::_Free_proxy
_TEXT	ENDS
; Function compile flags: /Odtp /RTCu /ZI
; File c:\program files (x86)\microsoft visual studio\2017\enterprise\vc\tools\msvc\14.15.26726\include\xstring
;	COMDAT ?_Alloc_proxy@?$_String_alloc@U?$_String_base_types@DV?$allocator@D@std@@@std@@@std@@QEAAXXZ
_TEXT	SEGMENT
_Proxy_allocator$ = 0
$T1 = 72
tv91 = 88
tv79 = 88
tv70 = 88
__$ArrayPad$ = 96
this$ = 128
?_Alloc_proxy@?$_String_alloc@U?$_String_base_types@DV?$allocator@D@std@@@std@@@std@@QEAAXXZ PROC ; std::_String_alloc<std::_String_base_types<char,std::allocator<char> > >::_Alloc_proxy, COMDAT

; 1989 : 		{	// construct proxy

$LN3:
	mov	QWORD PTR [rsp+8], rcx
	push	rbp
	sub	rsp, 144				; 00000090H
	lea	rbp, QWORD PTR [rsp+32]
	mov	rax, QWORD PTR __security_cookie
	xor	rax, rbp
	mov	QWORD PTR __$ArrayPad$[rbp], rax
	lea	rcx, OFFSET FLAT:__D9BA934F_xstring
	call	__CheckForDebuggerJustMyCode

; 1990 : 		_Alproxy _Proxy_allocator(_Getal());

	mov	rcx, QWORD PTR this$[rbp]
	call	?_Getal@?$_String_alloc@U?$_String_base_types@DV?$allocator@D@std@@@std@@@std@@QEAAAEAV?$allocator@D@2@XZ ; std::_String_alloc<std::_String_base_types<char,std::allocator<char> > >::_Getal
	mov	rdx, rax
	lea	rcx, QWORD PTR _Proxy_allocator$[rbp]
	call	??$?0D@?$allocator@U_Container_proxy@std@@@std@@QEAA@AEBV?$allocator@D@1@@Z ; std::allocator<std::_Container_proxy>::allocator<std::_Container_proxy><char>

; 1991 : 		_Myproxy() = _Unfancy(_Proxy_allocator.allocate(1));

	mov	edx, 1
	lea	rcx, QWORD PTR _Proxy_allocator$[rbp]
	call	?allocate@?$allocator@U_Container_proxy@std@@@std@@QEAAPEAU_Container_proxy@2@_K@Z ; std::allocator<std::_Container_proxy>::allocate
	mov	rcx, rax
	call	??$_Unfancy@U_Container_proxy@std@@@std@@YAPEAU_Container_proxy@0@PEAU10@@Z ; std::_Unfancy<std::_Container_proxy>
	mov	QWORD PTR tv70[rbp], rax
	mov	rcx, QWORD PTR this$[rbp]
	call	?_Myproxy@?$_String_alloc@U?$_String_base_types@DV?$allocator@D@std@@@std@@@std@@QEAAAEAPEAU_Container_proxy@2@XZ ; std::_String_alloc<std::_String_base_types<char,std::allocator<char> > >::_Myproxy
	mov	rcx, QWORD PTR tv70[rbp]
	mov	QWORD PTR [rax], rcx

; 1992 : 		_Alproxy_traits::construct(_Proxy_allocator, _Myproxy(), _Container_proxy());

	lea	rcx, QWORD PTR $T1[rbp]
	call	??0_Container_proxy@std@@QEAA@XZ	; std::_Container_proxy::_Container_proxy
	mov	QWORD PTR tv79[rbp], rax
	mov	rcx, QWORD PTR this$[rbp]
	call	?_Myproxy@?$_String_alloc@U?$_String_base_types@DV?$allocator@D@std@@@std@@@std@@QEAAAEAPEAU_Container_proxy@2@XZ ; std::_String_alloc<std::_String_base_types<char,std::allocator<char> > >::_Myproxy
	mov	rcx, QWORD PTR tv79[rbp]
	mov	r8, rcx
	mov	rdx, QWORD PTR [rax]
	lea	rcx, QWORD PTR _Proxy_allocator$[rbp]
	call	??$construct@U_Container_proxy@std@@U12@@?$_Default_allocator_traits@V?$allocator@U_Container_proxy@std@@@std@@@std@@SAXAEAV?$allocator@U_Container_proxy@std@@@1@QEAU_Container_proxy@1@$$QEAU31@@Z ; std::_Default_allocator_traits<std::allocator<std::_Container_proxy> >::construct<std::_Container_proxy,std::_Container_proxy>

; 1993 : 		_Myproxy()->_Mycont = _STD addressof(_Get_data());

	mov	rcx, QWORD PTR this$[rbp]
	call	?_Get_data@?$_String_alloc@U?$_String_base_types@DV?$allocator@D@std@@@std@@@std@@QEAAAEAV?$_String_val@U?$_Simple_types@D@std@@@2@XZ ; std::_String_alloc<std::_String_base_types<char,std::allocator<char> > >::_Get_data
	mov	rcx, rax
	call	??$addressof@V?$_String_val@U?$_Simple_types@D@std@@@std@@@std@@YAPEAV?$_String_val@U?$_Simple_types@D@std@@@0@AEAV10@@Z ; std::addressof<std::_String_val<std::_Simple_types<char> > >
	mov	QWORD PTR tv91[rbp], rax
	mov	rcx, QWORD PTR this$[rbp]
	call	?_Myproxy@?$_String_alloc@U?$_String_base_types@DV?$allocator@D@std@@@std@@@std@@QEAAAEAPEAU_Container_proxy@2@XZ ; std::_String_alloc<std::_String_base_types<char,std::allocator<char> > >::_Myproxy
	mov	rax, QWORD PTR [rax]
	mov	rcx, QWORD PTR tv91[rbp]
	mov	QWORD PTR [rax], rcx

; 1994 : 		}

	mov	rcx, QWORD PTR __$ArrayPad$[rbp]
	xor	rcx, rbp
	call	__security_check_cookie
	lea	rsp, QWORD PTR [rbp+112]
	pop	rbp
	ret	0
?_Alloc_proxy@?$_String_alloc@U?$_String_base_types@DV?$allocator@D@std@@@std@@@std@@QEAAXXZ ENDP ; std::_String_alloc<std::_String_base_types<char,std::allocator<char> > >::_Alloc_proxy
_TEXT	ENDS
; Function compile flags: /Odtp /RTCu /ZI
; File c:\program files (x86)\microsoft visual studio\2017\enterprise\vc\tools\msvc\14.15.26726\include\xstring
;	COMDAT ??1?$_String_alloc@U?$_String_base_types@DV?$allocator@D@std@@@std@@@std@@QEAA@XZ
_TEXT	SEGMENT
$T1 = 64
this$ = 96
??1?$_String_alloc@U?$_String_base_types@DV?$allocator@D@std@@@std@@@std@@QEAA@XZ PROC ; std::_String_alloc<std::_String_base_types<char,std::allocator<char> > >::~_String_alloc<std::_String_base_types<char,std::allocator<char> > >, COMDAT

; 1948 : 		{	// destroy the object

$LN3:
	mov	QWORD PTR [rsp+8], rcx
	push	rbp
	sub	rsp, 112				; 00000070H
	lea	rbp, QWORD PTR [rsp+32]
	mov	QWORD PTR $T1[rbp], -2
	lea	rcx, OFFSET FLAT:__D9BA934F_xstring
	call	__CheckForDebuggerJustMyCode
	npad	1

; 1949 : 		_Free_proxy();

	mov	rcx, QWORD PTR this$[rbp]
	call	?_Free_proxy@?$_String_alloc@U?$_String_base_types@DV?$allocator@D@std@@@std@@@std@@QEAAXXZ ; std::_String_alloc<std::_String_base_types<char,std::allocator<char> > >::_Free_proxy
	npad	1

; 1950 : 		}

	mov	rax, QWORD PTR this$[rbp]
	mov	rcx, rax
	call	??1?$_Compressed_pair@V?$allocator@D@std@@V?$_String_val@U?$_Simple_types@D@std@@@2@$00@std@@QEAA@XZ
	npad	1
	lea	rsp, QWORD PTR [rbp+80]
	pop	rbp
	ret	0
??1?$_String_alloc@U?$_String_base_types@DV?$allocator@D@std@@@std@@@std@@QEAA@XZ ENDP ; std::_String_alloc<std::_String_base_types<char,std::allocator<char> > >::~_String_alloc<std::_String_base_types<char,std::allocator<char> > >
_TEXT	ENDS
; Function compile flags: /Odtp /RTCu /ZI
; File c:\program files (x86)\microsoft visual studio\2017\enterprise\vc\tools\msvc\14.15.26726\include\xstring
;	COMDAT ??0?$_String_alloc@U?$_String_base_types@DV?$allocator@D@std@@@std@@@std@@QEAA@XZ
_TEXT	SEGMENT
$T1 = 64
$T2 = 72
this$ = 96
??0?$_String_alloc@U?$_String_base_types@DV?$allocator@D@std@@@std@@@std@@QEAA@XZ PROC ; std::_String_alloc<std::_String_base_types<char,std::allocator<char> > >::_String_alloc<std::_String_base_types<char,std::allocator<char> > >, COMDAT

; 1934 : 		{	// default construct allocator

$LN4:
	mov	QWORD PTR [rsp+8], rcx
	push	rbp
	sub	rsp, 112				; 00000070H
	lea	rbp, QWORD PTR [rsp+32]
	mov	QWORD PTR $T2[rbp], -2
	lea	rcx, OFFSET FLAT:__D9BA934F_xstring
	call	__CheckForDebuggerJustMyCode

; 1933 : 		: _Mypair(_Zero_then_variadic_args_t())

	mov	rax, QWORD PTR this$[rbp]
	movzx	edx, BYTE PTR $T1[rbp]
	mov	rcx, rax
	call	??$?0$$V@?$_Compressed_pair@V?$allocator@D@std@@V?$_String_val@U?$_Simple_types@D@std@@@2@$00@std@@QEAA@U_Zero_then_variadic_args_t@1@@Z ; std::_Compressed_pair<std::allocator<char>,std::_String_val<std::_Simple_types<char> >,1>::_Compressed_pair<std::allocator<char>,std::_String_val<std::_Simple_types<char> >,1><>
	npad	1

; 1935 : 		_Alloc_proxy();

	mov	rcx, QWORD PTR this$[rbp]
	call	?_Alloc_proxy@?$_String_alloc@U?$_String_base_types@DV?$allocator@D@std@@@std@@@std@@QEAAXXZ ; std::_String_alloc<std::_String_base_types<char,std::allocator<char> > >::_Alloc_proxy
	npad	1

; 1936 : 		}

	mov	rax, QWORD PTR this$[rbp]
	lea	rsp, QWORD PTR [rbp+80]
	pop	rbp
	ret	0
??0?$_String_alloc@U?$_String_base_types@DV?$allocator@D@std@@@std@@@std@@QEAA@XZ ENDP ; std::_String_alloc<std::_String_base_types<char,std::allocator<char> > >::_String_alloc<std::_String_base_types<char,std::allocator<char> > >
_TEXT	ENDS
;	COMDAT text$x
text$x	SEGMENT
$T1 = 64
$T2 = 72
this$ = 96
?dtor$0@?0???0?$_String_alloc@U?$_String_base_types@DV?$allocator@D@std@@@std@@@std@@QEAA@XZ@4HA PROC ; `std::_String_alloc<std::_String_base_types<char,std::allocator<char> > >::_String_alloc<std::_String_base_types<char,std::allocator<char> > >'::`1'::dtor$0
	push	rbp
	sub	rsp, 32					; 00000020H
	lea	rbp, QWORD PTR [rdx+32]
	mov	rcx, QWORD PTR this$[rbp]
	call	??1?$_Compressed_pair@V?$allocator@D@std@@V?$_String_val@U?$_Simple_types@D@std@@@2@$00@std@@QEAA@XZ
	add	rsp, 32					; 00000020H
	pop	rbp
	ret	0
?dtor$0@?0???0?$_String_alloc@U?$_String_base_types@DV?$allocator@D@std@@@std@@@std@@QEAA@XZ@4HA ENDP ; `std::_String_alloc<std::_String_base_types<char,std::allocator<char> > >::_String_alloc<std::_String_base_types<char,std::allocator<char> > >'::`1'::dtor$0
text$x	ENDS
; Function compile flags: /Odtp /RTCu /ZI
;	COMDAT text$x
text$x	SEGMENT
$T1 = 64
$T2 = 72
this$ = 96
?dtor$0@?0???0?$_String_alloc@U?$_String_base_types@DV?$allocator@D@std@@@std@@@std@@QEAA@XZ@4HA PROC ; `std::_String_alloc<std::_String_base_types<char,std::allocator<char> > >::_String_alloc<std::_String_base_types<char,std::allocator<char> > >'::`1'::dtor$0
	push	rbp
	sub	rsp, 32					; 00000020H
	lea	rbp, QWORD PTR [rdx+32]
	mov	rcx, QWORD PTR this$[rbp]
	call	??1?$_Compressed_pair@V?$allocator@D@std@@V?$_String_val@U?$_Simple_types@D@std@@@2@$00@std@@QEAA@XZ
	add	rsp, 32					; 00000020H
	pop	rbp
	ret	0
?dtor$0@?0???0?$_String_alloc@U?$_String_base_types@DV?$allocator@D@std@@@std@@@std@@QEAA@XZ@4HA ENDP ; `std::_String_alloc<std::_String_base_types<char,std::allocator<char> > >::_String_alloc<std::_String_base_types<char,std::allocator<char> > >'::`1'::dtor$0
text$x	ENDS
; Function compile flags: /Odtp /RTCu /ZI
;	COMDAT ??1?$_String_val@U?$_Simple_types@D@std@@@std@@QEAA@XZ
_TEXT	SEGMENT
this$ = 80
??1?$_String_val@U?$_Simple_types@D@std@@@std@@QEAA@XZ PROC ; std::_String_val<std::_Simple_types<char> >::~_String_val<std::_Simple_types<char> >, COMDAT
$LN3:
	mov	QWORD PTR [rsp+8], rcx
	push	rbp
	sub	rsp, 96					; 00000060H
	lea	rbp, QWORD PTR [rsp+32]
	mov	rax, QWORD PTR this$[rbp]
	add	rax, 8
	mov	rcx, rax
	call	??1_Bxty@?$_String_val@U?$_Simple_types@D@std@@@std@@QEAA@XZ ; std::_String_val<std::_Simple_types<char> >::_Bxty::~_Bxty
	lea	rsp, QWORD PTR [rbp+64]
	pop	rbp
	ret	0
??1?$_String_val@U?$_Simple_types@D@std@@@std@@QEAA@XZ ENDP ; std::_String_val<std::_Simple_types<char> >::~_String_val<std::_Simple_types<char> >
_TEXT	ENDS
; Function compile flags: /Odtp /RTCu /ZI
; File c:\program files (x86)\microsoft visual studio\2017\enterprise\vc\tools\msvc\14.15.26726\include\xstring
;	COMDAT ??1_Bxty@?$_String_val@U?$_Simple_types@D@std@@@std@@QEAA@XZ
_TEXT	SEGMENT
$T1 = 64
this$ = 96
??1_Bxty@?$_String_val@U?$_Simple_types@D@std@@@std@@QEAA@XZ PROC ; std::_String_val<std::_Simple_types<char> >::_Bxty::~_Bxty, COMDAT

; 1861 : 			{	// user-provided, for fancy pointers

$LN3:
	mov	QWORD PTR [rsp+8], rcx
	push	rbp
	sub	rsp, 112				; 00000070H
	lea	rbp, QWORD PTR [rsp+32]
	mov	QWORD PTR $T1[rbp], -2
	lea	rcx, OFFSET FLAT:__D9BA934F_xstring
	call	__CheckForDebuggerJustMyCode
	npad	1

; 1862 : 			}

	lea	rsp, QWORD PTR [rbp+80]
	pop	rbp
	ret	0
??1_Bxty@?$_String_val@U?$_Simple_types@D@std@@@std@@QEAA@XZ ENDP ; std::_String_val<std::_Simple_types<char> >::_Bxty::~_Bxty
_TEXT	ENDS
; Function compile flags: /Odtp /RTCu /ZI
; File c:\program files (x86)\microsoft visual studio\2017\enterprise\vc\tools\msvc\14.15.26726\include\xstring
;	COMDAT ??0_Bxty@?$_String_val@U?$_Simple_types@D@std@@@std@@QEAA@XZ
_TEXT	SEGMENT
this$ = 80
??0_Bxty@?$_String_val@U?$_Simple_types@D@std@@@std@@QEAA@XZ PROC ; std::_String_val<std::_Simple_types<char> >::_Bxty::_Bxty, COMDAT

; 1856 : 		_Bxty()

$LN3:
	mov	QWORD PTR [rsp+8], rcx
	push	rbp
	sub	rsp, 96					; 00000060H
	lea	rbp, QWORD PTR [rsp+32]
	lea	rcx, OFFSET FLAT:__D9BA934F_xstring
	call	__CheckForDebuggerJustMyCode

; 1857 : 			{	// user-provided, for fancy pointers
; 1858 : 			}

	mov	rax, QWORD PTR this$[rbp]
	lea	rsp, QWORD PTR [rbp+64]
	pop	rbp
	ret	0
??0_Bxty@?$_String_val@U?$_Simple_types@D@std@@@std@@QEAA@XZ ENDP ; std::_String_val<std::_Simple_types<char> >::_Bxty::_Bxty
_TEXT	ENDS
; Function compile flags: /Odtp /RTCu /ZI
; File c:\program files (x86)\microsoft visual studio\2017\enterprise\vc\tools\msvc\14.15.26726\include\xstring
;	COMDAT ?_Large_string_engaged@?$_String_val@U?$_Simple_types@D@std@@@std@@QEBA_NXZ
_TEXT	SEGMENT
tv66 = 64
this$ = 96
?_Large_string_engaged@?$_String_val@U?$_Simple_types@D@std@@@std@@QEBA_NXZ PROC ; std::_String_val<std::_Simple_types<char> >::_Large_string_engaged, COMDAT

; 1824 : 		{	// returns whether the large string mode (allocated memory) is engaged

$LN5:
	mov	QWORD PTR [rsp+8], rcx
	push	rbp
	sub	rsp, 112				; 00000070H
	lea	rbp, QWORD PTR [rsp+32]
	lea	rcx, OFFSET FLAT:__D9BA934F_xstring
	call	__CheckForDebuggerJustMyCode

; 1825 : 		return (_BUF_SIZE <= _Myres);

	mov	rax, QWORD PTR this$[rbp]
	cmp	QWORD PTR [rax+32], 16
	jb	SHORT $LN3@Large_stri
	mov	DWORD PTR tv66[rbp], 1
	jmp	SHORT $LN4@Large_stri
$LN3@Large_stri:
	mov	DWORD PTR tv66[rbp], 0
$LN4@Large_stri:
	movzx	eax, BYTE PTR tv66[rbp]

; 1826 : 		}

	lea	rsp, QWORD PTR [rbp+80]
	pop	rbp
	ret	0
?_Large_string_engaged@?$_String_val@U?$_Simple_types@D@std@@@std@@QEBA_NXZ ENDP ; std::_String_val<std::_Simple_types<char> >::_Large_string_engaged
_TEXT	ENDS
; Function compile flags: /Odtp /RTCu /ZI
; File c:\program files (x86)\microsoft visual studio\2017\enterprise\vc\tools\msvc\14.15.26726\include\xstring
;	COMDAT ?_Myptr@?$_String_val@U?$_Simple_types@D@std@@@std@@QEAAPEADXZ
_TEXT	SEGMENT
_Result$ = 0
this$ = 96
?_Myptr@?$_String_val@U?$_Simple_types@D@std@@@std@@QEAAPEADXZ PROC ; std::_String_val<std::_Simple_types<char> >::_Myptr, COMDAT

; 1802 : 		{	// determine current pointer to buffer for mutable string

$LN4:
	mov	QWORD PTR [rsp+8], rcx
	push	rbp
	sub	rsp, 112				; 00000070H
	lea	rbp, QWORD PTR [rsp+32]
	lea	rcx, OFFSET FLAT:__D9BA934F_xstring
	call	__CheckForDebuggerJustMyCode

; 1803 : 		value_type * _Result = _Bx._Buf;

	mov	rax, QWORD PTR this$[rbp]
	add	rax, 8
	mov	QWORD PTR _Result$[rbp], rax

; 1804 : 		if (_Large_string_engaged())

	mov	rcx, QWORD PTR this$[rbp]
	call	?_Large_string_engaged@?$_String_val@U?$_Simple_types@D@std@@@std@@QEBA_NXZ ; std::_String_val<std::_Simple_types<char> >::_Large_string_engaged
	movzx	eax, al
	test	eax, eax
	je	SHORT $LN2@Myptr

; 1805 : 			{
; 1806 : 			_Result = _Unfancy(_Bx._Ptr);

	mov	rax, QWORD PTR this$[rbp]
	mov	rcx, QWORD PTR [rax+8]
	call	??$_Unfancy@D@std@@YAPEADPEAD@Z		; std::_Unfancy<char>
	mov	QWORD PTR _Result$[rbp], rax
$LN2@Myptr:

; 1807 : 			}
; 1808 : 
; 1809 : 		return (_Result);

	mov	rax, QWORD PTR _Result$[rbp]

; 1810 : 		}

	lea	rsp, QWORD PTR [rbp+80]
	pop	rbp
	ret	0
?_Myptr@?$_String_val@U?$_Simple_types@D@std@@@std@@QEAAPEADXZ ENDP ; std::_String_val<std::_Simple_types<char> >::_Myptr
_TEXT	ENDS
; Function compile flags: /Odtp /RTCu /ZI
; File c:\program files (x86)\microsoft visual studio\2017\enterprise\vc\tools\msvc\14.15.26726\include\xstring
;	COMDAT ??0?$_String_val@U?$_Simple_types@D@std@@@std@@QEAA@XZ
_TEXT	SEGMENT
this$ = 80
??0?$_String_val@U?$_Simple_types@D@std@@@std@@QEAA@XZ PROC ; std::_String_val<std::_Simple_types<char> >::_String_val<std::_Simple_types<char> >, COMDAT

; 1786 : 		{	// initialize values

$LN4:
	mov	QWORD PTR [rsp+8], rcx
	push	rbp
	sub	rsp, 96					; 00000060H
	lea	rbp, QWORD PTR [rsp+32]
	lea	rcx, OFFSET FLAT:__D9BA934F_xstring
	call	__CheckForDebuggerJustMyCode
	mov	rcx, QWORD PTR this$[rbp]
	call	??0_Container_base12@std@@QEAA@XZ	; std::_Container_base12::_Container_base12

; 1783 : 		: _Bx(),

	mov	rax, QWORD PTR this$[rbp]
	add	rax, 8
	mov	rcx, rax
	call	??0_Bxty@?$_String_val@U?$_Simple_types@D@std@@@std@@QEAA@XZ ; std::_String_val<std::_Simple_types<char> >::_Bxty::_Bxty

; 1784 : 		_Mysize(0),

	mov	rax, QWORD PTR this$[rbp]
	mov	QWORD PTR [rax+24], 0

; 1785 : 		_Myres(0)

	mov	rax, QWORD PTR this$[rbp]
	mov	QWORD PTR [rax+32], 0

; 1787 : 		}

	mov	rax, QWORD PTR this$[rbp]
	lea	rsp, QWORD PTR [rbp+64]
	pop	rbp
	ret	0
??0?$_String_val@U?$_Simple_types@D@std@@@std@@QEAA@XZ ENDP ; std::_String_val<std::_Simple_types<char> >::_String_val<std::_Simple_types<char> >
_TEXT	ENDS
; Function compile flags: /Odtp /RTCu /ZI
; File c:\program files (x86)\microsoft visual studio\2017\enterprise\vc\tools\msvc\14.15.26726\include\xmemory0
;	COMDAT ?max_size@?$_Default_allocator_traits@V?$allocator@D@std@@@std@@SA_KAEBV?$allocator@D@2@@Z
_TEXT	SEGMENT
$T1 = 64
__formal$ = 96
?max_size@?$_Default_allocator_traits@V?$allocator@D@std@@@std@@SA_KAEBV?$allocator@D@2@@Z PROC ; std::_Default_allocator_traits<std::allocator<char> >::max_size, COMDAT

; 891  : 		{	// get maximum size

$LN3:
	mov	QWORD PTR [rsp+8], rcx
	push	rbp
	sub	rsp, 112				; 00000070H
	lea	rbp, QWORD PTR [rsp+32]
	mov	QWORD PTR $T1[rbp], -2
	lea	rcx, OFFSET FLAT:__39AEDAD7_xmemory0
	call	__CheckForDebuggerJustMyCode
	npad	1

; 892  : 		return (static_cast<size_t>(-1) / sizeof(value_type));

	mov	rax, -1

; 893  : 		}

	lea	rsp, QWORD PTR [rbp+80]
	pop	rbp
	ret	0
?max_size@?$_Default_allocator_traits@V?$allocator@D@std@@@std@@SA_KAEBV?$allocator@D@2@@Z ENDP ; std::_Default_allocator_traits<std::allocator<char> >::max_size
_TEXT	ENDS
; Function compile flags: /Odtp /RTCu /ZI
; File c:\program files (x86)\microsoft visual studio\2017\enterprise\vc\tools\msvc\14.15.26726\include\xmemory0
;	COMDAT ?allocate@?$allocator@D@std@@QEAAPEAD_K@Z
_TEXT	SEGMENT
this$ = 80
_Count$ = 88
?allocate@?$allocator@D@std@@QEAAPEAD_K@Z PROC		; std::allocator<char>::allocate, COMDAT

; 996  : 		{	// allocate array of _Count elements

$LN3:
	mov	QWORD PTR [rsp+16], rdx
	mov	QWORD PTR [rsp+8], rcx
	push	rbp
	sub	rsp, 96					; 00000060H
	lea	rbp, QWORD PTR [rsp+32]
	lea	rcx, OFFSET FLAT:__39AEDAD7_xmemory0
	call	__CheckForDebuggerJustMyCode

; 997  : 		return (static_cast<_Ty *>(_Allocate<_New_alignof<_Ty>>(_Get_size_of_n<sizeof(_Ty)>(_Count))));

	mov	rcx, QWORD PTR _Count$[rbp]
	call	??$_Get_size_of_n@$00@std@@YA_K_K@Z	; std::_Get_size_of_n<1>
	mov	rcx, rax
	call	??$_Allocate@$0BA@U_Default_allocate_traits@std@@$0A@@std@@YAPEAX_K@Z ; std::_Allocate<16,std::_Default_allocate_traits,0>

; 998  : 		}

	lea	rsp, QWORD PTR [rbp+64]
	pop	rbp
	ret	0
?allocate@?$allocator@D@std@@QEAAPEAD_K@Z ENDP		; std::allocator<char>::allocate
_TEXT	ENDS
; Function compile flags: /Odtp /RTCu /ZI
; File c:\program files (x86)\microsoft visual studio\2017\enterprise\vc\tools\msvc\14.15.26726\include\xmemory0
;	COMDAT ?deallocate@?$allocator@D@std@@QEAAXQEAD_K@Z
_TEXT	SEGMENT
this$ = 80
_Ptr$ = 88
_Count$ = 96
?deallocate@?$allocator@D@std@@QEAAXQEAD_K@Z PROC	; std::allocator<char>::deallocate, COMDAT

; 990  : 		{	// deallocate object at _Ptr

$LN3:
	mov	QWORD PTR [rsp+24], r8
	mov	QWORD PTR [rsp+16], rdx
	mov	QWORD PTR [rsp+8], rcx
	push	rbp
	sub	rsp, 96					; 00000060H
	lea	rbp, QWORD PTR [rsp+32]
	lea	rcx, OFFSET FLAT:__39AEDAD7_xmemory0
	call	__CheckForDebuggerJustMyCode

; 991  : 		// no overflow check on the following multiply; we assume _Allocate did that check
; 992  : 		_Deallocate<_New_alignof<_Ty>>(_Ptr, sizeof(_Ty) * _Count);

	mov	rdx, QWORD PTR _Count$[rbp]
	mov	rcx, QWORD PTR _Ptr$[rbp]
	call	??$_Deallocate@$0BA@$0A@@std@@YAXPEAX_K@Z ; std::_Deallocate<16,0>

; 993  : 		}

	lea	rsp, QWORD PTR [rbp+64]
	pop	rbp
	ret	0
?deallocate@?$allocator@D@std@@QEAAXQEAD_K@Z ENDP	; std::allocator<char>::deallocate
_TEXT	ENDS
; Function compile flags: /Odtp /RTCu /ZI
; File c:\program files (x86)\microsoft visual studio\2017\enterprise\vc\tools\msvc\14.15.26726\include\xmemory0
;	COMDAT ??0?$allocator@D@std@@QEAA@XZ
_TEXT	SEGMENT
$T1 = 64
this$ = 96
??0?$allocator@D@std@@QEAA@XZ PROC			; std::allocator<char>::allocator<char>, COMDAT

; 979  : 	constexpr allocator() noexcept

$LN3:
	mov	QWORD PTR [rsp+8], rcx
	push	rbp
	sub	rsp, 112				; 00000070H
	lea	rbp, QWORD PTR [rsp+32]
	mov	QWORD PTR $T1[rbp], -2
	lea	rcx, OFFSET FLAT:__39AEDAD7_xmemory0
	call	__CheckForDebuggerJustMyCode
	npad	1

; 980  : 		{	// construct default allocator (do nothing)
; 981  : 		}

	mov	rax, QWORD PTR this$[rbp]
	lea	rsp, QWORD PTR [rbp+80]
	pop	rbp
	ret	0
??0?$allocator@D@std@@QEAA@XZ ENDP			; std::allocator<char>::allocator<char>
_TEXT	ENDS
; Function compile flags: /Odtp /RTCu /ZI
; File c:\program files (x86)\microsoft visual studio\2017\enterprise\vc\tools\msvc\14.15.26726\include\utility
;	COMDAT ??$_Min_value@_K@std@@YAAEB_KAEB_K0@Z
_TEXT	SEGMENT
$T1 = 64
$T2 = 72
tv65 = 80
_Left$ = 112
_Right$ = 120
??$_Min_value@_K@std@@YAAEB_KAEB_K0@Z PROC		; std::_Min_value<unsigned __int64>, COMDAT

; 23   : 	{	// return smaller of _Left and _Right

$LN5:
	mov	QWORD PTR [rsp+16], rdx
	mov	QWORD PTR [rsp+8], rcx
	push	rbp
	sub	rsp, 128				; 00000080H
	lea	rbp, QWORD PTR [rsp+32]
	mov	QWORD PTR $T2[rbp], -2
	lea	rcx, OFFSET FLAT:__C7FC7610_utility
	call	__CheckForDebuggerJustMyCode
	npad	1

; 24   : 	return (_Right < _Left ? _Right : _Left);

	mov	rax, QWORD PTR _Right$[rbp]
	mov	rcx, QWORD PTR _Left$[rbp]
	mov	rcx, QWORD PTR [rcx]
	cmp	QWORD PTR [rax], rcx
	jae	SHORT $LN3@Min_value
	mov	rax, QWORD PTR _Right$[rbp]
	mov	QWORD PTR tv65[rbp], rax
	jmp	SHORT $LN4@Min_value
$LN3@Min_value:
	mov	rax, QWORD PTR _Left$[rbp]
	mov	QWORD PTR tv65[rbp], rax
$LN4@Min_value:
	mov	rax, QWORD PTR tv65[rbp]
	mov	QWORD PTR $T1[rbp], rax
	mov	rax, QWORD PTR $T1[rbp]

; 25   : 	}

	lea	rsp, QWORD PTR [rbp+96]
	pop	rbp
	ret	0
??$_Min_value@_K@std@@YAAEB_KAEB_K0@Z ENDP		; std::_Min_value<unsigned __int64>
_TEXT	ENDS
; Function compile flags: /Odtp /RTCu /ZI
; File c:\program files (x86)\microsoft visual studio\2017\enterprise\vc\tools\msvc\14.15.26726\include\xmemory0
;	COMDAT ??$_Convert_size@_K@std@@YA_K_K@Z
_TEXT	SEGMENT
_Len$ = 80
??$_Convert_size@_K@std@@YA_K_K@Z PROC			; std::_Convert_size<unsigned __int64>, COMDAT

; 1203 : 	{	// convert size_t to size_t, unchanged

$LN3:
	mov	QWORD PTR [rsp+8], rcx
	push	rbp
	sub	rsp, 96					; 00000060H
	lea	rbp, QWORD PTR [rsp+32]
	lea	rcx, OFFSET FLAT:__39AEDAD7_xmemory0
	call	__CheckForDebuggerJustMyCode

; 1204 : 	return (_Len);

	mov	rax, QWORD PTR _Len$[rbp]

; 1205 : 	}

	lea	rsp, QWORD PTR [rbp+64]
	pop	rbp
	ret	0
??$_Convert_size@_K@std@@YA_K_K@Z ENDP			; std::_Convert_size<unsigned __int64>
_TEXT	ENDS
; Function compile flags: /Odtp /RTCu /ZI
; File c:\program files (x86)\microsoft visual studio\2017\enterprise\vc\tools\msvc\14.15.26726\include\xmemory0
;	COMDAT ?_Adjust_manually_vector_aligned@std@@YAXAEAPEAXAEA_K@Z
_TEXT	SEGMENT
_Ptr_user$ = 0
_Ptr_container$ = 8
_Min_back_shift$ = 16
_Back_shift$ = 24
_Ptr$ = 112
_Bytes$ = 120
?_Adjust_manually_vector_aligned@std@@YAXAEAPEAXAEA_K@Z PROC ; std::_Adjust_manually_vector_aligned, COMDAT

; 114  : 	{	// adjust parameters from _Allocate_manually_vector_aligned to pass to operator delete

$LN21:
	mov	QWORD PTR [rsp+16], rdx
	mov	QWORD PTR [rsp+8], rcx
	push	rbp
	sub	rsp, 144				; 00000090H
	lea	rbp, QWORD PTR [rsp+48]
	lea	rcx, OFFSET FLAT:__39AEDAD7_xmemory0
	call	__CheckForDebuggerJustMyCode

; 115  : 	_Bytes += _Non_user_size;

	mov	rax, QWORD PTR _Bytes$[rbp]
	mov	rax, QWORD PTR [rax]
	add	rax, 47					; 0000002fH
	mov	rcx, QWORD PTR _Bytes$[rbp]
	mov	QWORD PTR [rcx], rax

; 116  : 
; 117  : 	const uintptr_t * const _Ptr_user = reinterpret_cast<uintptr_t *>(_Ptr);

	mov	rax, QWORD PTR _Ptr$[rbp]
	mov	rax, QWORD PTR [rax]
	mov	QWORD PTR _Ptr_user$[rbp], rax

; 118  : 	const uintptr_t _Ptr_container = _Ptr_user[-1];

	mov	eax, 8
	imul	rax, rax, -1
	mov	rcx, QWORD PTR _Ptr_user$[rbp]
	mov	rax, QWORD PTR [rcx+rax]
	mov	QWORD PTR _Ptr_container$[rbp], rax
$LN4@Adjust_man:

; 119  : 
; 120  : 	// If the following asserts, it likely means that we are performing
; 121  : 	// an aligned delete on memory coming from an unaligned allocation.
; 122  : 	_STL_ASSERT(_Ptr_user[-2] == _Big_allocation_sentinel, "invalid argument");

	mov	eax, 8
	imul	rax, rax, -2
	mov	rcx, QWORD PTR _Ptr_user$[rbp]
	mov	rdx, -361700864190383366		; fafafafafafafafaH
	cmp	QWORD PTR [rcx+rax], rdx
	jne	SHORT $LN14@Adjust_man
	jmp	SHORT $LN15@Adjust_man
$LN14@Adjust_man:
$LN7@Adjust_man:
	mov	eax, DWORD PTR ?__LINE__Var@?0??_Adjust_manually_vector_aligned@std@@YAXAEAPEAXAEA_K@Z@4JA
	add	eax, 8
	lea	rcx, OFFSET FLAT:??_C@_0BB@FCMFBGOM@invalid?5argument@
	mov	QWORD PTR [rsp+40], rcx
	lea	rcx, OFFSET FLAT:??_C@_02DKCKIIND@?$CFs@
	mov	QWORD PTR [rsp+32], rcx
	xor	r9d, r9d
	mov	r8d, eax
	lea	rdx, OFFSET FLAT:??_C@_0GK@FKLKIKPD@c?3?2program?5files?5?$CIx86?$CJ?2microsof@
	mov	ecx, 2
	call	QWORD PTR __imp__CrtDbgReport
	cmp	eax, 1
	jne	SHORT $LN19@Adjust_man
	int	3
	xor	eax, eax
$LN19@Adjust_man:
	mov	eax, DWORD PTR ?__LINE__Var@?0??_Adjust_manually_vector_aligned@std@@YAXAEAPEAXAEA_K@Z@4JA
	add	eax, 8
	mov	QWORD PTR [rsp+32], 0
	mov	r9d, eax
	lea	r8, OFFSET FLAT:??_C@_1NE@MCNNPIKO@?$AAc?$AA?3?$AA?2?$AAp?$AAr?$AAo?$AAg?$AAr?$AAa?$AAm?$AA?5?$AAf?$AAi?$AAl?$AAe@
	lea	rdx, OFFSET FLAT:??_C@_1EK@NIFDJFDG@?$AAs?$AAt?$AAd?$AA?3?$AA?3?$AA_?$AAA?$AAd?$AAj?$AAu?$AAs?$AAt?$AA_?$AAm?$AAa@
	lea	rcx, OFFSET FLAT:??_C@_1CG@JNLFBNGN@?$AA?$CC?$AAi?$AAn?$AAv?$AAa?$AAl?$AAi?$AAd?$AA?5?$AAa?$AAr?$AAg?$AAu?$AAm?$AAe@
	call	QWORD PTR __imp__invalid_parameter
	xor	eax, eax
	test	eax, eax
	jne	SHORT $LN7@Adjust_man
$LN15@Adjust_man:
	xor	eax, eax
	test	eax, eax
	jne	$LN4@Adjust_man

; 123  : 
; 124  : 	// Extra paranoia on aligned allocation/deallocation; ensure _Ptr_container is
; 125  : 	// in range [_Min_back_shift, _Non_user_size]
; 126  :   #ifdef _DEBUG
; 127  : 	constexpr uintptr_t _Min_back_shift = 2 * sizeof(void *);

	mov	QWORD PTR _Min_back_shift$[rbp], 16

; 128  :   #else /* ^^^ _DEBUG ^^^ // vvv !_DEBUG vvv */
; 129  : 	constexpr uintptr_t _Min_back_shift = sizeof(void *);
; 130  :   #endif /* _DEBUG */
; 131  : 	const uintptr_t _Back_shift = reinterpret_cast<uintptr_t>(_Ptr) - _Ptr_container;

	mov	rax, QWORD PTR _Ptr$[rbp]
	mov	rcx, QWORD PTR _Ptr_container$[rbp]
	mov	rax, QWORD PTR [rax]
	sub	rax, rcx
	mov	QWORD PTR _Back_shift$[rbp], rax
$LN10@Adjust_man:

; 132  : 	_STL_VERIFY(_Back_shift >= _Min_back_shift && _Back_shift <= _Non_user_size, "invalid argument");

	cmp	QWORD PTR _Back_shift$[rbp], 16
	jb	SHORT $LN16@Adjust_man
	cmp	QWORD PTR _Back_shift$[rbp], 47		; 0000002fH
	ja	SHORT $LN16@Adjust_man
	jmp	SHORT $LN17@Adjust_man
$LN16@Adjust_man:
$LN13@Adjust_man:
	mov	eax, DWORD PTR ?__LINE__Var@?0??_Adjust_manually_vector_aligned@std@@YAXAEAPEAXAEA_K@Z@4JA
	add	eax, 18
	lea	rcx, OFFSET FLAT:??_C@_0BB@FCMFBGOM@invalid?5argument@
	mov	QWORD PTR [rsp+40], rcx
	lea	rcx, OFFSET FLAT:??_C@_02DKCKIIND@?$CFs@
	mov	QWORD PTR [rsp+32], rcx
	xor	r9d, r9d
	mov	r8d, eax
	lea	rdx, OFFSET FLAT:??_C@_0GK@FKLKIKPD@c?3?2program?5files?5?$CIx86?$CJ?2microsof@
	mov	ecx, 2
	call	QWORD PTR __imp__CrtDbgReport
	cmp	eax, 1
	jne	SHORT $LN20@Adjust_man
	int	3
	xor	eax, eax
$LN20@Adjust_man:
	mov	eax, DWORD PTR ?__LINE__Var@?0??_Adjust_manually_vector_aligned@std@@YAXAEAPEAXAEA_K@Z@4JA
	add	eax, 18
	mov	QWORD PTR [rsp+32], 0
	mov	r9d, eax
	lea	r8, OFFSET FLAT:??_C@_1NE@MCNNPIKO@?$AAc?$AA?3?$AA?2?$AAp?$AAr?$AAo?$AAg?$AAr?$AAa?$AAm?$AA?5?$AAf?$AAi?$AAl?$AAe@
	lea	rdx, OFFSET FLAT:??_C@_1EK@NIFDJFDG@?$AAs?$AAt?$AAd?$AA?3?$AA?3?$AA_?$AAA?$AAd?$AAj?$AAu?$AAs?$AAt?$AA_?$AAm?$AAa@
	lea	rcx, OFFSET FLAT:??_C@_1CG@JNLFBNGN@?$AA?$CC?$AAi?$AAn?$AAv?$AAa?$AAl?$AAi?$AAd?$AA?5?$AAa?$AAr?$AAg?$AAu?$AAm?$AAe@
	call	QWORD PTR __imp__invalid_parameter
	xor	eax, eax
	test	eax, eax
	jne	SHORT $LN13@Adjust_man
$LN17@Adjust_man:
	xor	eax, eax
	test	eax, eax
	jne	$LN10@Adjust_man

; 133  : 	_Ptr = reinterpret_cast<void *>(_Ptr_container);

	mov	rax, QWORD PTR _Ptr$[rbp]
	mov	rcx, QWORD PTR _Ptr_container$[rbp]
	mov	QWORD PTR [rax], rcx

; 134  : 	}

	lea	rsp, QWORD PTR [rbp+96]
	pop	rbp
	ret	0
?_Adjust_manually_vector_aligned@std@@YAXAEAPEAXAEA_K@Z ENDP ; std::_Adjust_manually_vector_aligned
_TEXT	ENDS
; Function compile flags: /Odtp /RTCu /ZI
; File c:\program files (x86)\microsoft visual studio\2017\enterprise\vc\tools\msvc\14.15.26726\include\xmemory0
;	COMDAT ?_Allocate@_Default_allocate_traits@std@@SAPEAX_K@Z
_TEXT	SEGMENT
_Bytes$ = 80
?_Allocate@_Default_allocate_traits@std@@SAPEAX_K@Z PROC ; std::_Default_allocate_traits::_Allocate, COMDAT

; 51   : 		{

$LN3:
	mov	QWORD PTR [rsp+8], rcx
	push	rbp
	sub	rsp, 96					; 00000060H
	lea	rbp, QWORD PTR [rsp+32]
	lea	rcx, OFFSET FLAT:__39AEDAD7_xmemory0
	call	__CheckForDebuggerJustMyCode

; 52   : 		return (::operator new(_Bytes));

	mov	rcx, QWORD PTR _Bytes$[rbp]
	call	??2@YAPEAX_K@Z				; operator new

; 53   : 		}

	lea	rsp, QWORD PTR [rbp+64]
	pop	rbp
	ret	0
?_Allocate@_Default_allocate_traits@std@@SAPEAX_K@Z ENDP ; std::_Default_allocate_traits::_Allocate
_TEXT	ENDS
; Function compile flags: /Odtp /RTCu /ZI
; File c:\program files (x86)\microsoft visual studio\2017\enterprise\vc\tools\msvc\14.15.26726\include\xmemory0
;	COMDAT ??$_Get_size_of_n@$00@std@@YA_K_K@Z
_TEXT	SEGMENT
_Count$ = 80
??$_Get_size_of_n@$00@std@@YA_K_K@Z PROC		; std::_Get_size_of_n<1>, COMDAT

; 37   : 	{	// gets the size of _Count copies of a type with size 1

$LN3:
	mov	QWORD PTR [rsp+8], rcx
	push	rbp
	sub	rsp, 96					; 00000060H
	lea	rbp, QWORD PTR [rsp+32]
	lea	rcx, OFFSET FLAT:__39AEDAD7_xmemory0
	call	__CheckForDebuggerJustMyCode

; 38   : 	return (_Count);

	mov	rax, QWORD PTR _Count$[rbp]

; 39   : 	}

	lea	rsp, QWORD PTR [rbp+64]
	pop	rbp
	ret	0
??$_Get_size_of_n@$00@std@@YA_K_K@Z ENDP		; std::_Get_size_of_n<1>
_TEXT	ENDS
; Function compile flags: /Odtp /RTCu /ZI
; File c:\program files (x86)\microsoft visual studio\2017\enterprise\vc\tools\msvc\14.15.26726\include\xutility
;	COMDAT ?_Orphan_all@_Container_base12@std@@QEAAXXZ
_TEXT	SEGMENT
_Lock$1 = 0
_Pnext$2 = 8
$T3 = 80
__$ArrayPad$ = 88
this$ = 112
?_Orphan_all@_Container_base12@std@@QEAAXXZ PROC	; std::_Container_base12::_Orphan_all, COMDAT

; 214  : 	{	// orphan all iterators

$LN7:
	mov	QWORD PTR [rsp+8], rcx
	push	rbp
	sub	rsp, 128				; 00000080H
	lea	rbp, QWORD PTR [rsp+32]
	mov	QWORD PTR $T3[rbp], -2
	mov	rax, QWORD PTR __security_cookie
	xor	rax, rbp
	mov	QWORD PTR __$ArrayPad$[rbp], rax
	lea	rcx, OFFSET FLAT:__E8FD1B86_xutility
	call	__CheckForDebuggerJustMyCode
	npad	1

; 215  :  #if _ITERATOR_DEBUG_LEVEL == 2
; 216  : 	if (_Myproxy != nullptr)

	mov	rax, QWORD PTR this$[rbp]
	cmp	QWORD PTR [rax], 0
	je	SHORT $LN5@Orphan_all

; 217  : 		{	// proxy allocated, drain it
; 218  : 		_Lockit _Lock(_LOCK_DEBUG);

	mov	edx, 3
	lea	rcx, QWORD PTR _Lock$1[rbp]
	call	QWORD PTR __imp_??0_Lockit@std@@QEAA@H@Z
	npad	1

; 219  : 
; 220  : 		for (_Iterator_base12 **_Pnext = &_Myproxy->_Myfirstiter;

	mov	rax, QWORD PTR this$[rbp]
	mov	rax, QWORD PTR [rax]
	add	rax, 8
	mov	QWORD PTR _Pnext$2[rbp], rax
	jmp	SHORT $LN4@Orphan_all
$LN2@Orphan_all:

; 221  : 			*_Pnext != nullptr; *_Pnext = (*_Pnext)->_Mynextiter)

	mov	rax, QWORD PTR _Pnext$2[rbp]
	mov	rax, QWORD PTR [rax]
	mov	rcx, QWORD PTR _Pnext$2[rbp]
	mov	rax, QWORD PTR [rax+8]
	mov	QWORD PTR [rcx], rax
$LN4@Orphan_all:
	mov	rax, QWORD PTR _Pnext$2[rbp]
	cmp	QWORD PTR [rax], 0
	je	SHORT $LN3@Orphan_all

; 222  : 			(*_Pnext)->_Myproxy = nullptr;

	mov	rax, QWORD PTR _Pnext$2[rbp]
	mov	rax, QWORD PTR [rax]
	mov	QWORD PTR [rax], 0
	jmp	SHORT $LN2@Orphan_all
$LN3@Orphan_all:

; 223  : 		_Myproxy->_Myfirstiter = nullptr;

	mov	rax, QWORD PTR this$[rbp]
	mov	rax, QWORD PTR [rax]
	mov	QWORD PTR [rax+8], 0

; 224  : 		}

	lea	rcx, QWORD PTR _Lock$1[rbp]
	call	QWORD PTR __imp_??1_Lockit@std@@QEAA@XZ
	npad	1
$LN5@Orphan_all:

; 225  :  #endif /* _ITERATOR_DEBUG_LEVEL == 2 */
; 226  : 	}

	mov	rcx, QWORD PTR __$ArrayPad$[rbp]
	xor	rcx, rbp
	call	__security_check_cookie
	npad	1
	lea	rsp, QWORD PTR [rbp+96]
	pop	rbp
	ret	0
?_Orphan_all@_Container_base12@std@@QEAAXXZ ENDP	; std::_Container_base12::_Orphan_all
_TEXT	ENDS
; Function compile flags: /Odtp /RTCu /ZI
; File c:\program files (x86)\microsoft visual studio\2017\enterprise\vc\tools\msvc\14.15.26726\include\xutility
;	COMDAT ??0_Container_base12@std@@QEAA@XZ
_TEXT	SEGMENT
this$ = 80
??0_Container_base12@std@@QEAA@XZ PROC			; std::_Container_base12::_Container_base12, COMDAT

; 81   : 		{	// construct childless container

$LN3:
	mov	QWORD PTR [rsp+8], rcx
	push	rbp
	sub	rsp, 96					; 00000060H
	lea	rbp, QWORD PTR [rsp+32]
	lea	rcx, OFFSET FLAT:__E8FD1B86_xutility
	call	__CheckForDebuggerJustMyCode

; 80   : 		: _Myproxy(nullptr)

	mov	rax, QWORD PTR this$[rbp]
	mov	QWORD PTR [rax], 0

; 82   : 		}

	mov	rax, QWORD PTR this$[rbp]
	lea	rsp, QWORD PTR [rbp+64]
	pop	rbp
	ret	0
??0_Container_base12@std@@QEAA@XZ ENDP			; std::_Container_base12::_Container_base12
_TEXT	ENDS
; Function compile flags: /Odtp /RTCu /ZI
; File c:\program files (x86)\microsoft visual studio\2017\enterprise\vc\tools\msvc\14.15.26726\include\xutility
;	COMDAT ??0_Container_proxy@std@@QEAA@XZ
_TEXT	SEGMENT
$T1 = 64
this$ = 96
??0_Container_proxy@std@@QEAA@XZ PROC			; std::_Container_proxy::_Container_proxy, COMDAT

; 69   : 		{	// construct from pointers

$LN3:
	mov	QWORD PTR [rsp+8], rcx
	push	rbp
	sub	rsp, 112				; 00000070H
	lea	rbp, QWORD PTR [rsp+32]
	mov	QWORD PTR $T1[rbp], -2
	lea	rcx, OFFSET FLAT:__E8FD1B86_xutility
	call	__CheckForDebuggerJustMyCode
	npad	1

; 68   : 		: _Mycont(nullptr), _Myfirstiter(nullptr)

	mov	rax, QWORD PTR this$[rbp]
	mov	QWORD PTR [rax], 0
	mov	rax, QWORD PTR this$[rbp]
	mov	QWORD PTR [rax+8], 0

; 70   : 		}

	mov	rax, QWORD PTR this$[rbp]
	lea	rsp, QWORD PTR [rbp+80]
	pop	rbp
	ret	0
??0_Container_proxy@std@@QEAA@XZ ENDP			; std::_Container_proxy::_Container_proxy
_TEXT	ENDS
; Function compile flags: /Odtp /RTCu /ZI
; File c:\program files (x86)\microsoft visual studio\2017\enterprise\vc\tools\msvc\14.15.26726\include\iosfwd
;	COMDAT ?assign@?$char_traits@D@std@@SAXAEADAEBD@Z
_TEXT	SEGMENT
$T1 = 64
_Left$ = 96
_Right$ = 104
?assign@?$char_traits@D@std@@SAXAEADAEBD@Z PROC		; std::char_traits<char>::assign, COMDAT

; 505  : 		{	// assign an element

$LN3:
	mov	QWORD PTR [rsp+16], rdx
	mov	QWORD PTR [rsp+8], rcx
	push	rbp
	sub	rsp, 112				; 00000070H
	lea	rbp, QWORD PTR [rsp+32]
	mov	QWORD PTR $T1[rbp], -2
	lea	rcx, OFFSET FLAT:__B33FDDE7_iosfwd
	call	__CheckForDebuggerJustMyCode
	npad	1

; 506  : 		_Left = _Right;

	mov	rax, QWORD PTR _Left$[rbp]
	mov	rcx, QWORD PTR _Right$[rbp]
	movzx	ecx, BYTE PTR [rcx]
	mov	BYTE PTR [rax], cl

; 507  : 		}

	lea	rsp, QWORD PTR [rbp+80]
	pop	rbp
	ret	0
?assign@?$char_traits@D@std@@SAXAEADAEBD@Z ENDP		; std::char_traits<char>::assign
_TEXT	ENDS
; Function compile flags: /Odtp /RTCu /ZI
; File c:\program files (x86)\microsoft visual studio\2017\enterprise\vc\tools\msvc\14.15.26726\include\iosfwd
;	COMDAT ?move@?$char_traits@D@std@@SAPEADQEADQEBD_K@Z
_TEXT	SEGMENT
$T1 = 64
_First1$ = 96
_First2$ = 104
_Count$ = 112
?move@?$char_traits@D@std@@SAPEADQEADQEBD_K@Z PROC	; std::char_traits<char>::move, COMDAT

; 494  : 		{	// copy [_First2, _First2 + _Count) to [_First1, ...)

$LN3:
	mov	QWORD PTR [rsp+24], r8
	mov	QWORD PTR [rsp+16], rdx
	mov	QWORD PTR [rsp+8], rcx
	push	rbp
	sub	rsp, 112				; 00000070H
	lea	rbp, QWORD PTR [rsp+32]
	mov	QWORD PTR $T1[rbp], -2
	lea	rcx, OFFSET FLAT:__B33FDDE7_iosfwd
	call	__CheckForDebuggerJustMyCode
	npad	1

; 495  : 		return (static_cast<char *>(_CSTD memmove(_First1, _First2, _Count)));

	mov	r8, QWORD PTR _Count$[rbp]
	mov	rdx, QWORD PTR _First2$[rbp]
	mov	rcx, QWORD PTR _First1$[rbp]
	call	memmove
	npad	1

; 496  : 		}

	lea	rsp, QWORD PTR [rbp+80]
	pop	rbp
	ret	0
?move@?$char_traits@D@std@@SAPEADQEADQEBD_K@Z ENDP	; std::char_traits<char>::move
_TEXT	ENDS
; Function compile flags: /Odtp /RTCu /ZI
; File c:\program files (x86)\microsoft visual studio\2017\enterprise\vc\tools\msvc\14.15.26726\include\iosfwd
;	COMDAT ?copy@?$char_traits@D@std@@SAPEADQEADQEBD_K@Z
_TEXT	SEGMENT
$T1 = 64
_First1$ = 96
_First2$ = 104
_Count$ = 112
?copy@?$char_traits@D@std@@SAPEADQEADQEBD_K@Z PROC	; std::char_traits<char>::copy, COMDAT

; 470  : 		{	// copy [_First2, _First2 + _Count) to [_First1, ...)

$LN3:
	mov	QWORD PTR [rsp+24], r8
	mov	QWORD PTR [rsp+16], rdx
	mov	QWORD PTR [rsp+8], rcx
	push	rbp
	sub	rsp, 112				; 00000070H
	lea	rbp, QWORD PTR [rsp+32]
	mov	QWORD PTR $T1[rbp], -2
	lea	rcx, OFFSET FLAT:__B33FDDE7_iosfwd
	call	__CheckForDebuggerJustMyCode
	npad	1

; 471  : 		return (static_cast<char *>(_CSTD memcpy(_First1, _First2, _Count)));

	mov	r8, QWORD PTR _Count$[rbp]
	mov	rdx, QWORD PTR _First2$[rbp]
	mov	rcx, QWORD PTR _First1$[rbp]
	call	memcpy
	npad	1

; 472  : 		}

	lea	rsp, QWORD PTR [rbp+80]
	pop	rbp
	ret	0
?copy@?$char_traits@D@std@@SAPEADQEADQEBD_K@Z ENDP	; std::char_traits<char>::copy
_TEXT	ENDS
; Function compile flags: /Odtp /RTCu /ZI
; File c:\program files (x86)\microsoft visual studio\2017\enterprise\vc\tools\msvc\14.15.26726\include\iosfwd
;	COMDAT ?length@?$char_traits@D@std@@SA_KQEBD@Z
_TEXT	SEGMENT
$T1 = 64
_First$ = 96
?length@?$char_traits@D@std@@SA_KQEBD@Z PROC		; std::char_traits<char>::length, COMDAT

; 460  : 		{	// find length of null-terminated string

$LN3:
	mov	QWORD PTR [rsp+8], rcx
	push	rbp
	sub	rsp, 112				; 00000070H
	lea	rbp, QWORD PTR [rsp+32]
	mov	QWORD PTR $T1[rbp], -2
	lea	rcx, OFFSET FLAT:__B33FDDE7_iosfwd
	call	__CheckForDebuggerJustMyCode
	npad	1

; 461  : #if _HAS_CXX17
; 462  : 		return (__builtin_strlen(_First));
; 463  : #else /* _HAS_CXX17 */
; 464  : 		return (_CSTD strlen(_First));

	mov	rcx, QWORD PTR _First$[rbp]
	call	strlen
	npad	1

; 465  : #endif /* _HAS_CXX17 */
; 466  : 		}

	lea	rsp, QWORD PTR [rbp+80]
	pop	rbp
	ret	0
?length@?$char_traits@D@std@@SA_KQEBD@Z ENDP		; std::char_traits<char>::length
_TEXT	ENDS
; Function compile flags: /Odtp /RTCu /ZI
; File l:\dev\featherfallengine\featherfall_engine-core\src\graphics\renderable2d.h
;	COMDAT ?getPosition@Renderable2D@graphics@core@@QEBAAEBU?$tvec4@M$0A@@glm@@XZ
_TEXT	SEGMENT
this$ = 80
?getPosition@Renderable2D@graphics@core@@QEBAAEBU?$tvec4@M$0A@@glm@@XZ PROC ; core::graphics::Renderable2D::getPosition, COMDAT

; 26   : 		inline const glm::vec4& getPosition() const { return position; }

$LN3:
	mov	QWORD PTR [rsp+8], rcx
	push	rbp
	sub	rsp, 96					; 00000060H
	lea	rbp, QWORD PTR [rsp+32]
	lea	rcx, OFFSET FLAT:__A6F69866_renderable2d.h
	call	__CheckForDebuggerJustMyCode
	mov	rax, QWORD PTR this$[rbp]
	add	rax, 8
	lea	rsp, QWORD PTR [rbp+64]
	pop	rbp
	ret	0
?getPosition@Renderable2D@graphics@core@@QEBAAEBU?$tvec4@M$0A@@glm@@XZ ENDP ; core::graphics::Renderable2D::getPosition
_TEXT	ENDS
; Function compile flags: /Odtp /RTCu /ZI
; File l:\dev\featherfallengine\depends\install\include\glm\detail\type_vec2.inl
;	COMDAT ??0?$tvec2@M$0A@@glm@@QEAA@XZ
_TEXT	SEGMENT
this$ = 80
??0?$tvec2@M$0A@@glm@@QEAA@XZ PROC			; glm::tvec2<float,0>::tvec2<float,0>, COMDAT

; 27   : 		{}

$LN3:
	mov	QWORD PTR [rsp+8], rcx
	push	rbp
	sub	rsp, 96					; 00000060H
	lea	rbp, QWORD PTR [rsp+32]
	lea	rcx, OFFSET FLAT:__2F30B87A_type_vec2.inl
	call	__CheckForDebuggerJustMyCode

; 25   : 				: x(0), y(0)

	mov	rax, QWORD PTR this$[rbp]
	xorps	xmm0, xmm0
	movss	DWORD PTR [rax], xmm0
	mov	rax, QWORD PTR this$[rbp]
	xorps	xmm0, xmm0
	movss	DWORD PTR [rax+4], xmm0

; 27   : 		{}

	mov	rax, QWORD PTR this$[rbp]
	lea	rsp, QWORD PTR [rbp+64]
	pop	rbp
	ret	0
??0?$tvec2@M$0A@@glm@@QEAA@XZ ENDP			; glm::tvec2<float,0>::tvec2<float,0>
_TEXT	ENDS
; Function compile flags: /Odtp /RTCu /ZI
; File l:\dev\featherfallengine\depends\install\include\glm\detail\type_vec4.inl
;	COMDAT ??0?$tvec4@M$0A@@glm@@QEAA@MMMM@Z
_TEXT	SEGMENT
this$ = 80
a$ = 88
b$ = 96
c$ = 104
d$ = 112
??0?$tvec4@M$0A@@glm@@QEAA@MMMM@Z PROC			; glm::tvec4<float,0>::tvec4<float,0>, COMDAT

; 193  : 	{}

$LN3:
	movss	DWORD PTR [rsp+32], xmm3
	movss	DWORD PTR [rsp+24], xmm2
	movss	DWORD PTR [rsp+16], xmm1
	mov	QWORD PTR [rsp+8], rcx
	push	rbp
	sub	rsp, 96					; 00000060H
	lea	rbp, QWORD PTR [rsp+32]
	lea	rcx, OFFSET FLAT:__A0704DDA_type_vec4.inl
	call	__CheckForDebuggerJustMyCode

; 192  : 		: x(a), y(b), z(c), w(d)

	mov	rax, QWORD PTR this$[rbp]
	movss	xmm0, DWORD PTR a$[rbp]
	movss	DWORD PTR [rax], xmm0
	mov	rax, QWORD PTR this$[rbp]
	movss	xmm0, DWORD PTR b$[rbp]
	movss	DWORD PTR [rax+4], xmm0
	mov	rax, QWORD PTR this$[rbp]
	movss	xmm0, DWORD PTR c$[rbp]
	movss	DWORD PTR [rax+8], xmm0
	mov	rax, QWORD PTR this$[rbp]
	movss	xmm0, DWORD PTR d$[rbp]
	movss	DWORD PTR [rax+12], xmm0

; 193  : 	{}

	mov	rax, QWORD PTR this$[rbp]
	lea	rsp, QWORD PTR [rbp+64]
	pop	rbp
	ret	0
??0?$tvec4@M$0A@@glm@@QEAA@MMMM@Z ENDP			; glm::tvec4<float,0>::tvec4<float,0>
_TEXT	ENDS
; Function compile flags: /Odtp /RTCu /ZI
; File l:\dev\featherfallengine\depends\install\include\glm\detail\type_vec4.inl
;	COMDAT ??0?$tvec4@M$0A@@glm@@QEAA@XZ
_TEXT	SEGMENT
this$ = 80
??0?$tvec4@M$0A@@glm@@QEAA@XZ PROC			; glm::tvec4<float,0>::tvec4<float,0>, COMDAT

; 163  : 		{}

$LN3:
	mov	QWORD PTR [rsp+8], rcx
	push	rbp
	sub	rsp, 96					; 00000060H
	lea	rbp, QWORD PTR [rsp+32]
	lea	rcx, OFFSET FLAT:__A0704DDA_type_vec4.inl
	call	__CheckForDebuggerJustMyCode

; 161  : 				: x(0), y(0), z(0), w(0)

	mov	rax, QWORD PTR this$[rbp]
	xorps	xmm0, xmm0
	movss	DWORD PTR [rax], xmm0
	mov	rax, QWORD PTR this$[rbp]
	xorps	xmm0, xmm0
	movss	DWORD PTR [rax+4], xmm0
	mov	rax, QWORD PTR this$[rbp]
	xorps	xmm0, xmm0
	movss	DWORD PTR [rax+8], xmm0
	mov	rax, QWORD PTR this$[rbp]
	xorps	xmm0, xmm0
	movss	DWORD PTR [rax+12], xmm0

; 163  : 		{}

	mov	rax, QWORD PTR this$[rbp]
	lea	rsp, QWORD PTR [rbp+64]
	pop	rbp
	ret	0
??0?$tvec4@M$0A@@glm@@QEAA@XZ ENDP			; glm::tvec4<float,0>::tvec4<float,0>
_TEXT	ENDS
; Function compile flags: /Odtp /RTCu /ZI
; File c:\program files (x86)\microsoft visual studio\2017\enterprise\vc\tools\msvc\14.15.26726\include\limits
;	COMDAT ?max@?$numeric_limits@_J@std@@SA_JXZ
_TEXT	SEGMENT
$T1 = 64
?max@?$numeric_limits@_J@std@@SA_JXZ PROC		; std::numeric_limits<__int64>::max, COMDAT

; 893  : 		{	// return maximum value

$LN3:
	push	rbp
	sub	rsp, 112				; 00000070H
	lea	rbp, QWORD PTR [rsp+32]
	mov	QWORD PTR $T1[rbp], -2
	lea	rcx, OFFSET FLAT:__7FD60861_limits
	call	__CheckForDebuggerJustMyCode
	npad	1

; 894  : 		return (LLONG_MAX);

	mov	rax, 9223372036854775807		; 7fffffffffffffffH

; 895  : 		}

	lea	rsp, QWORD PTR [rbp+80]
	pop	rbp
	ret	0
?max@?$numeric_limits@_J@std@@SA_JXZ ENDP		; std::numeric_limits<__int64>::max
_TEXT	ENDS
; Function compile flags: /Odtp /RTCu /ZI
; File c:\program files (x86)\microsoft visual studio\2017\enterprise\vc\tools\msvc\14.15.26726\include\vcruntime_new.h
;	COMDAT ??2@YAPEAX_KPEAX@Z
_TEXT	SEGMENT
$T1 = 64
_Size$ = 96
_Where$ = 104
??2@YAPEAX_KPEAX@Z PROC					; operator new, COMDAT

; 185  :     {

$LN3:
	mov	QWORD PTR [rsp+16], rdx
	mov	QWORD PTR [rsp+8], rcx
	push	rbp
	sub	rsp, 112				; 00000070H
	lea	rbp, QWORD PTR [rsp+32]
	mov	QWORD PTR $T1[rbp], -2
	lea	rcx, OFFSET FLAT:__C3726024_vcruntime_new.h
	call	__CheckForDebuggerJustMyCode
	npad	1

; 186  :         (void)_Size;
; 187  :         return _Where;

	mov	rax, QWORD PTR _Where$[rbp]

; 188  :     }

	lea	rsp, QWORD PTR [rbp+80]
	pop	rbp
	ret	0
??2@YAPEAX_KPEAX@Z ENDP					; operator new
_TEXT	ENDS
; Function compile flags: /Odtp /RTCu /ZI
; File l:\dev\featherfallengine\featherfall-examples\src\scene\sandboxscene.cpp
;	COMDAT ?__empty_global_delete@@YAXPEAX_K@Z
_TEXT	SEGMENT
__formal$ = 80
__formal$ = 88
?__empty_global_delete@@YAXPEAX_K@Z PROC		; __empty_global_delete, COMDAT

$LN3:
	mov	QWORD PTR [rsp+16], rdx
	mov	QWORD PTR [rsp+8], rcx
	push	rbp
	sub	rsp, 96					; 00000060H
	lea	rbp, QWORD PTR [rsp+32]
	lea	rcx, OFFSET FLAT:__4013777C_sandboxscene.cpp
	call	__CheckForDebuggerJustMyCode
	lea	rsp, QWORD PTR [rbp+64]
	pop	rbp
	ret	0
?__empty_global_delete@@YAXPEAX_K@Z ENDP		; __empty_global_delete
_TEXT	ENDS
; Function compile flags: /Odtp /RTCu /ZI
; File l:\dev\featherfallengine\featherfall-examples\src\scene\sandboxscene.cpp
;	COMDAT ?__empty_global_delete@@YAXPEAX@Z
_TEXT	SEGMENT
__formal$ = 80
?__empty_global_delete@@YAXPEAX@Z PROC			; __empty_global_delete, COMDAT

$LN3:
	mov	QWORD PTR [rsp+8], rcx
	push	rbp
	sub	rsp, 96					; 00000060H
	lea	rbp, QWORD PTR [rsp+32]
	lea	rcx, OFFSET FLAT:__4013777C_sandboxscene.cpp
	call	__CheckForDebuggerJustMyCode
	lea	rsp, QWORD PTR [rbp+64]
	pop	rbp
	ret	0
?__empty_global_delete@@YAXPEAX@Z ENDP			; __empty_global_delete
_TEXT	ENDS
; Function compile flags: /Odtp /RTCu /ZI
;	COMDAT ??_H@YAXPEAX_K1P6APEAX0@Z@Z
_TEXT	SEGMENT
tv66 = 64
tv67 = 72
__t$ = 96
__s$ = 104
__n$ = 112
__f$ = 120
??_H@YAXPEAX_K1P6APEAX0@Z@Z PROC			; `vector constructor iterator', COMDAT
$LN7:
	mov	QWORD PTR [rsp+32], r9
	mov	QWORD PTR [rsp+24], r8
	mov	QWORD PTR [rsp+16], rdx
	mov	QWORD PTR [rsp+8], rcx
	push	rbp
	sub	rsp, 112				; 00000070H
	lea	rbp, QWORD PTR [rsp+32]
$LN2@vector:
	mov	rax, QWORD PTR __n$[rbp]
	mov	QWORD PTR tv66[rbp], rax
	mov	rax, QWORD PTR __n$[rbp]
	dec	rax
	mov	QWORD PTR __n$[rbp], rax
	cmp	QWORD PTR tv66[rbp], 0
	jbe	SHORT $LN5@vector
	mov	DWORD PTR tv67[rbp], 1
	jmp	SHORT $LN6@vector
$LN5@vector:
	mov	DWORD PTR tv67[rbp], 0
$LN6@vector:
	cmp	DWORD PTR tv67[rbp], 0
	je	SHORT $LN3@vector
	mov	rcx, QWORD PTR __t$[rbp]
	call	QWORD PTR __f$[rbp]
	mov	rax, QWORD PTR __s$[rbp]
	mov	rcx, QWORD PTR __t$[rbp]
	add	rcx, rax
	mov	rax, rcx
	mov	QWORD PTR __t$[rbp], rax
	jmp	SHORT $LN2@vector
$LN3@vector:
	lea	rsp, QWORD PTR [rbp+80]
	pop	rbp
	ret	0
??_H@YAXPEAX_K1P6APEAX0@Z@Z ENDP			; `vector constructor iterator'
_TEXT	ENDS
END
