; Listing generated by Microsoft (R) Optimizing Compiler Version 19.14.26433.0 

include listing.inc

INCLUDELIB MSVCRTD
INCLUDELIB OLDNAMES

PUBLIC	??0Scene@0Application@@QEAA@XZ			; Application::Scene::Scene::Scene
PUBLIC	??1Scene@0Application@@UEAA@XZ			; Application::Scene::Scene::~Scene
PUBLIC	?OnUpdate@Scene@1Application@@UEAAXM@Z		; Application::Scene::Scene::OnUpdate
PUBLIC	?OnRender@Scene@1Application@@UEAAXXZ		; Application::Scene::Scene::OnRender
PUBLIC	?OnImGuiRender@Scene@1Application@@UEAAXXZ	; Application::Scene::Scene::OnImGuiRender
PUBLIC	??_GScene@0Application@@UEAAPEAXI@Z		; Application::Scene::Scene::`scalar deleting destructor'
PUBLIC	??_7Scene@0Application@@6B@			; Application::Scene::Scene::`vftable'
PUBLIC	??_R4Scene@0Application@@6B@			; Application::Scene::Scene::`RTTI Complete Object Locator'
PUBLIC	??_R0?AVScene@0Application@@@8			; Application::Scene::Scene `RTTI Type Descriptor'
PUBLIC	??_R3Scene@0Application@@8			; Application::Scene::Scene::`RTTI Class Hierarchy Descriptor'
PUBLIC	??_R2Scene@0Application@@8			; Application::Scene::Scene::`RTTI Base Class Array'
PUBLIC	??_R1A@?0A@EA@Scene@0Application@@8		; Application::Scene::Scene::`RTTI Base Class Descriptor at (0,-1,0,64)'
EXTRN	??3@YAXPEAX_K@Z:PROC				; operator delete
EXTRN	??_EScene@0Application@@UEAAPEAXI@Z:PROC	; Application::Scene::Scene::`vector deleting destructor'
EXTRN	_RTC_InitBase:PROC
EXTRN	_RTC_Shutdown:PROC
EXTRN	??_7type_info@@6B@:BYTE				; type_info::`vftable'
;	COMDAT pdata
pdata	SEGMENT
$pdata$??0Scene@0Application@@QEAA@XZ DD imagerel $LN3
	DD	imagerel $LN3+37
	DD	imagerel $unwind$??0Scene@0Application@@QEAA@XZ
pdata	ENDS
;	COMDAT pdata
pdata	SEGMENT
$pdata$??1Scene@0Application@@UEAA@XZ DD imagerel $LN3
	DD	imagerel $LN3+33
	DD	imagerel $unwind$??1Scene@0Application@@UEAA@XZ
pdata	ENDS
;	COMDAT pdata
pdata	SEGMENT
$pdata$?OnUpdate@Scene@1Application@@UEAAXM@Z DD imagerel $LN3
	DD	imagerel $LN3+25
	DD	imagerel $unwind$?OnUpdate@Scene@1Application@@UEAAXM@Z
pdata	ENDS
;	COMDAT pdata
pdata	SEGMENT
$pdata$?OnRender@Scene@1Application@@UEAAXXZ DD imagerel $LN3
	DD	imagerel $LN3+19
	DD	imagerel $unwind$?OnRender@Scene@1Application@@UEAAXXZ
pdata	ENDS
;	COMDAT pdata
pdata	SEGMENT
$pdata$?OnImGuiRender@Scene@1Application@@UEAAXXZ DD imagerel $LN3
	DD	imagerel $LN3+19
	DD	imagerel $unwind$?OnImGuiRender@Scene@1Application@@UEAAXXZ
pdata	ENDS
;	COMDAT pdata
pdata	SEGMENT
$pdata$??_GScene@0Application@@UEAAPEAXI@Z DD imagerel $LN4
	DD	imagerel $LN4+62
	DD	imagerel $unwind$??_GScene@0Application@@UEAAPEAXI@Z
pdata	ENDS
;	COMDAT rtc$TMZ
rtc$TMZ	SEGMENT
_RTC_Shutdown.rtc$TMZ DQ FLAT:_RTC_Shutdown
rtc$TMZ	ENDS
;	COMDAT rtc$IMZ
rtc$IMZ	SEGMENT
_RTC_InitBase.rtc$IMZ DQ FLAT:_RTC_InitBase
rtc$IMZ	ENDS
;	COMDAT ??_R1A@?0A@EA@Scene@0Application@@8
rdata$r	SEGMENT
??_R1A@?0A@EA@Scene@0Application@@8 DD imagerel ??_R0?AVScene@0Application@@@8 ; Application::Scene::Scene::`RTTI Base Class Descriptor at (0,-1,0,64)'
	DD	00H
	DD	00H
	DD	0ffffffffH
	DD	00H
	DD	040H
	DD	imagerel ??_R3Scene@0Application@@8
rdata$r	ENDS
;	COMDAT ??_R2Scene@0Application@@8
rdata$r	SEGMENT
??_R2Scene@0Application@@8 DD imagerel ??_R1A@?0A@EA@Scene@0Application@@8 ; Application::Scene::Scene::`RTTI Base Class Array'
	ORG $+3
rdata$r	ENDS
;	COMDAT ??_R3Scene@0Application@@8
rdata$r	SEGMENT
??_R3Scene@0Application@@8 DD 00H			; Application::Scene::Scene::`RTTI Class Hierarchy Descriptor'
	DD	00H
	DD	01H
	DD	imagerel ??_R2Scene@0Application@@8
rdata$r	ENDS
;	COMDAT ??_R0?AVScene@0Application@@@8
data$r	SEGMENT
??_R0?AVScene@0Application@@@8 DQ FLAT:??_7type_info@@6B@ ; Application::Scene::Scene `RTTI Type Descriptor'
	DQ	0000000000000000H
	DB	'.?AVScene@0Application@@', 00H
data$r	ENDS
;	COMDAT ??_R4Scene@0Application@@6B@
rdata$r	SEGMENT
??_R4Scene@0Application@@6B@ DD 01H			; Application::Scene::Scene::`RTTI Complete Object Locator'
	DD	00H
	DD	00H
	DD	imagerel ??_R0?AVScene@0Application@@@8
	DD	imagerel ??_R3Scene@0Application@@8
	DD	imagerel ??_R4Scene@0Application@@6B@
rdata$r	ENDS
;	COMDAT ??_7Scene@0Application@@6B@
CONST	SEGMENT
??_7Scene@0Application@@6B@ DQ FLAT:??_R4Scene@0Application@@6B@ ; Application::Scene::Scene::`vftable'
	DQ	FLAT:??_EScene@0Application@@UEAAPEAXI@Z
	DQ	FLAT:?OnUpdate@Scene@1Application@@UEAAXM@Z
	DQ	FLAT:?OnRender@Scene@1Application@@UEAAXXZ
	DQ	FLAT:?OnImGuiRender@Scene@1Application@@UEAAXXZ
CONST	ENDS
;	COMDAT xdata
xdata	SEGMENT
$unwind$??_GScene@0Application@@UEAAPEAXI@Z DD 025031301H
	DD	0b20e2313H
	DD	0500aH
xdata	ENDS
;	COMDAT xdata
xdata	SEGMENT
$unwind$?OnImGuiRender@Scene@1Application@@UEAAXXZ DD 05030d01H
	DD	0720a030dH
	DD	05006H
xdata	ENDS
;	COMDAT xdata
xdata	SEGMENT
$unwind$?OnRender@Scene@1Application@@UEAAXXZ DD 05030d01H
	DD	0720a030dH
	DD	05006H
xdata	ENDS
;	COMDAT xdata
xdata	SEGMENT
$unwind$?OnUpdate@Scene@1Application@@UEAAXM@Z DD 05031301H
	DD	072100313H
	DD	0500cH
xdata	ENDS
;	COMDAT xdata
xdata	SEGMENT
$unwind$??1Scene@0Application@@UEAA@XZ DD 05030d01H
	DD	0720a030dH
	DD	05006H
xdata	ENDS
;	COMDAT xdata
xdata	SEGMENT
$unwind$??0Scene@0Application@@QEAA@XZ DD 05030d01H
	DD	0720a030dH
	DD	05006H
xdata	ENDS
; Function compile flags: /Odtp /RTCu /ZI
;	COMDAT ??_GScene@0Application@@UEAAPEAXI@Z
_TEXT	SEGMENT
this$ = 80
__flags$ = 88
??_GScene@0Application@@UEAAPEAXI@Z PROC		; Application::Scene::Scene::`scalar deleting destructor', COMDAT
$LN4:
	mov	DWORD PTR [rsp+16], edx
	mov	QWORD PTR [rsp+8], rcx
	push	rbp
	sub	rsp, 96					; 00000060H
	lea	rbp, QWORD PTR [rsp+32]
	mov	rcx, QWORD PTR this$[rbp]
	call	??1Scene@0Application@@UEAA@XZ		; Application::Scene::Scene::~Scene
	mov	eax, DWORD PTR __flags$[rbp]
	and	eax, 1
	test	eax, eax
	je	SHORT $LN2@scalar
	mov	edx, 8
	mov	rcx, QWORD PTR this$[rbp]
	call	??3@YAXPEAX_K@Z				; operator delete
$LN2@scalar:
	mov	rax, QWORD PTR this$[rbp]
	lea	rsp, QWORD PTR [rbp+64]
	pop	rbp
	ret	0
??_GScene@0Application@@UEAAPEAXI@Z ENDP		; Application::Scene::Scene::`scalar deleting destructor'
_TEXT	ENDS
; Function compile flags: /Odtp /RTCu /ZI
; File l:\dev\featherfallengine\featherfall-examples\src\scene\scene.cpp
;	COMDAT ?OnImGuiRender@Scene@1Application@@UEAAXXZ
_TEXT	SEGMENT
this$ = 80
?OnImGuiRender@Scene@1Application@@UEAAXXZ PROC		; Application::Scene::Scene::OnImGuiRender, COMDAT

; 10   : 	void Scene::OnImGuiRender() {}

$LN3:
	mov	QWORD PTR [rsp+8], rcx
	push	rbp
	sub	rsp, 64					; 00000040H
	mov	rbp, rsp
	lea	rsp, QWORD PTR [rbp+64]
	pop	rbp
	ret	0
?OnImGuiRender@Scene@1Application@@UEAAXXZ ENDP		; Application::Scene::Scene::OnImGuiRender
_TEXT	ENDS
; Function compile flags: /Odtp /RTCu /ZI
; File l:\dev\featherfallengine\featherfall-examples\src\scene\scene.cpp
;	COMDAT ?OnRender@Scene@1Application@@UEAAXXZ
_TEXT	SEGMENT
this$ = 80
?OnRender@Scene@1Application@@UEAAXXZ PROC		; Application::Scene::Scene::OnRender, COMDAT

; 9    : 	void Scene::OnRender() {}

$LN3:
	mov	QWORD PTR [rsp+8], rcx
	push	rbp
	sub	rsp, 64					; 00000040H
	mov	rbp, rsp
	lea	rsp, QWORD PTR [rbp+64]
	pop	rbp
	ret	0
?OnRender@Scene@1Application@@UEAAXXZ ENDP		; Application::Scene::Scene::OnRender
_TEXT	ENDS
; Function compile flags: /Odtp /RTCu /ZI
; File l:\dev\featherfallengine\featherfall-examples\src\scene\scene.cpp
;	COMDAT ?OnUpdate@Scene@1Application@@UEAAXM@Z
_TEXT	SEGMENT
this$ = 80
deltaTime$ = 88
?OnUpdate@Scene@1Application@@UEAAXM@Z PROC		; Application::Scene::Scene::OnUpdate, COMDAT

; 8    : 	void Scene::OnUpdate(float deltaTime) {}

$LN3:
	movss	DWORD PTR [rsp+16], xmm1
	mov	QWORD PTR [rsp+8], rcx
	push	rbp
	sub	rsp, 64					; 00000040H
	mov	rbp, rsp
	lea	rsp, QWORD PTR [rbp+64]
	pop	rbp
	ret	0
?OnUpdate@Scene@1Application@@UEAAXM@Z ENDP		; Application::Scene::Scene::OnUpdate
_TEXT	ENDS
; Function compile flags: /Odtp /RTCu /ZI
; File l:\dev\featherfallengine\featherfall-examples\src\scene\scene.cpp
;	COMDAT ??1Scene@0Application@@UEAA@XZ
_TEXT	SEGMENT
this$ = 80
??1Scene@0Application@@UEAA@XZ PROC			; Application::Scene::Scene::~Scene, COMDAT

; 6    : 	Scene::~Scene() {}

$LN3:
	mov	QWORD PTR [rsp+8], rcx
	push	rbp
	sub	rsp, 64					; 00000040H
	mov	rbp, rsp
	mov	rax, QWORD PTR this$[rbp]
	lea	rcx, OFFSET FLAT:??_7Scene@0Application@@6B@
	mov	QWORD PTR [rax], rcx
	lea	rsp, QWORD PTR [rbp+64]
	pop	rbp
	ret	0
??1Scene@0Application@@UEAA@XZ ENDP			; Application::Scene::Scene::~Scene
_TEXT	ENDS
; Function compile flags: /Odtp /RTCu /ZI
; File l:\dev\featherfallengine\featherfall-examples\src\scene\scene.cpp
;	COMDAT ??0Scene@0Application@@QEAA@XZ
_TEXT	SEGMENT
this$ = 80
??0Scene@0Application@@QEAA@XZ PROC			; Application::Scene::Scene::Scene, COMDAT

; 5    : 	Scene::Scene() {}

$LN3:
	mov	QWORD PTR [rsp+8], rcx
	push	rbp
	sub	rsp, 64					; 00000040H
	mov	rbp, rsp
	mov	rax, QWORD PTR this$[rbp]
	lea	rcx, OFFSET FLAT:??_7Scene@0Application@@6B@
	mov	QWORD PTR [rax], rcx
	mov	rax, QWORD PTR this$[rbp]
	lea	rsp, QWORD PTR [rbp+64]
	pop	rbp
	ret	0
??0Scene@0Application@@QEAA@XZ ENDP			; Application::Scene::Scene::Scene
_TEXT	ENDS
END
