; Listing generated by Microsoft (R) Optimizing Compiler Version 19.14.26433.0 

include listing.inc

INCLUDELIB MSVCRTD
INCLUDELIB OLDNAMES

PUBLIC	??_H@YAXPEAX_K1P6APEAX0@Z@Z			; `vector constructor iterator'
PUBLIC	??0TestScene@Scene@Application@@QEAA@XZ		; Application::Scene::TestScene::TestScene
PUBLIC	??1TestScene@Scene@Application@@UEAA@XZ		; Application::Scene::TestScene::~TestScene
PUBLIC	?OnUpdate@TestScene@Scene@Application@@UEAAXM@Z	; Application::Scene::TestScene::OnUpdate
PUBLIC	?OnRender@TestScene@Scene@Application@@UEAAXXZ	; Application::Scene::TestScene::OnRender
PUBLIC	?OnImGuiRender@TestScene@Scene@Application@@UEAAXXZ ; Application::Scene::TestScene::OnImGuiRender
PUBLIC	??_GTestScene@Scene@Application@@UEAAPEAXI@Z	; Application::Scene::TestScene::`scalar deleting destructor'
PUBLIC	??_7TestScene@Scene@Application@@6B@		; Application::Scene::TestScene::`vftable'
PUBLIC	?__LINE__Var@?0??OnRender@TestScene@Scene@Application@@UEAAXXZ@4JA ; `Application::Scene::TestScene::OnRender'::`1'::__LINE__Var
PUBLIC	??_C@_0EG@MIEMCHGK@l?3?2dev?2featherfallengine?2feather@ ; `string'
PUBLIC	??_C@_0EJ@NCIJGDFA@glClearColor?$CIclearColor?$FL0?$FN?0?5clea@ ; `string'
PUBLIC	??_C@_0M@HJNLOKEB@Clear?5Color?$AA@		; `string'
PUBLIC	??_R4TestScene@Scene@Application@@6B@		; Application::Scene::TestScene::`RTTI Complete Object Locator'
PUBLIC	??_R0?AVTestScene@Scene@Application@@@8		; Application::Scene::TestScene `RTTI Type Descriptor'
PUBLIC	??_R3TestScene@Scene@Application@@8		; Application::Scene::TestScene::`RTTI Class Hierarchy Descriptor'
PUBLIC	??_R2TestScene@Scene@Application@@8		; Application::Scene::TestScene::`RTTI Base Class Array'
PUBLIC	??_R1A@?0A@EA@TestScene@Scene@Application@@8	; Application::Scene::TestScene::`RTTI Base Class Descriptor at (0,-1,0,64)'
PUBLIC	??_R1A@?0A@EA@Scene@0Application@@8		; Application::Scene::Scene::`RTTI Base Class Descriptor at (0,-1,0,64)'
PUBLIC	??_R0?AVScene@0Application@@@8			; Application::Scene::Scene `RTTI Type Descriptor'
PUBLIC	??_R3Scene@0Application@@8			; Application::Scene::Scene::`RTTI Class Hierarchy Descriptor'
PUBLIC	??_R2Scene@0Application@@8			; Application::Scene::Scene::`RTTI Base Class Array'
PUBLIC	__real@3dcccccd
PUBLIC	__real@3e4ccccd
PUBLIC	__real@3f000000
PUBLIC	__real@3f800000
EXTRN	??3@YAXPEAX_K@Z:PROC				; operator delete
EXTRN	??0Scene@0Application@@QEAA@XZ:PROC		; Application::Scene::Scene::Scene
EXTRN	??1Scene@0Application@@UEAA@XZ:PROC		; Application::Scene::Scene::~Scene
EXTRN	??_ETestScene@Scene@Application@@UEAAPEAXI@Z:PROC ; Application::Scene::TestScene::`vector deleting destructor'
EXTRN	__imp_glClearColor:PROC
EXTRN	?ColorEdit4@ImGui@@YA_NPEBDQEAMH@Z:PROC		; ImGui::ColorEdit4
EXTRN	?GLLogError@@YA_NPEBD0H@Z:PROC			; GLLogError
EXTRN	?GLClearError@@YAXXZ:PROC			; GLClearError
EXTRN	_RTC_InitBase:PROC
EXTRN	_RTC_Shutdown:PROC
EXTRN	??_7type_info@@6B@:BYTE				; type_info::`vftable'
EXTRN	_fltused:DWORD
;	COMDAT pdata
pdata	SEGMENT
$pdata$??_H@YAXPEAX_K1P6APEAX0@Z@Z DD imagerel $LN7
	DD	imagerel $LN7+111
	DD	imagerel $unwind$??_H@YAXPEAX_K1P6APEAX0@Z@Z
pdata	ENDS
;	COMDAT pdata
pdata	SEGMENT
$pdata$??0TestScene@Scene@Application@@QEAA@XZ DD imagerel $LN4
	DD	imagerel $LN4+116
	DD	imagerel $unwind$??0TestScene@Scene@Application@@QEAA@XZ
pdata	ENDS
;	COMDAT pdata
pdata	SEGMENT
$pdata$??1TestScene@Scene@Application@@UEAA@XZ DD imagerel $LN3
	DD	imagerel $LN3+44
	DD	imagerel $unwind$??1TestScene@Scene@Application@@UEAA@XZ
pdata	ENDS
;	COMDAT pdata
pdata	SEGMENT
$pdata$?OnUpdate@TestScene@Scene@Application@@UEAAXM@Z DD imagerel $LN3
	DD	imagerel $LN3+25
	DD	imagerel $unwind$?OnUpdate@TestScene@Scene@Application@@UEAAXM@Z
pdata	ENDS
;	COMDAT pdata
pdata	SEGMENT
$pdata$?OnRender@TestScene@Scene@Application@@UEAAXXZ DD imagerel $LN4
	DD	imagerel $LN4+149
	DD	imagerel $unwind$?OnRender@TestScene@Scene@Application@@UEAAXXZ
pdata	ENDS
;	COMDAT pdata
pdata	SEGMENT
$pdata$?OnImGuiRender@TestScene@Scene@Application@@UEAAXXZ DD imagerel $LN3
	DD	imagerel $LN3+47
	DD	imagerel $unwind$?OnImGuiRender@TestScene@Scene@Application@@UEAAXXZ
pdata	ENDS
;	COMDAT pdata
pdata	SEGMENT
$pdata$??_GTestScene@Scene@Application@@UEAAPEAXI@Z DD imagerel $LN4
	DD	imagerel $LN4+62
	DD	imagerel $unwind$??_GTestScene@Scene@Application@@UEAAPEAXI@Z
pdata	ENDS
;	COMDAT __real@3f800000
CONST	SEGMENT
__real@3f800000 DD 03f800000r			; 1
CONST	ENDS
;	COMDAT __real@3f000000
CONST	SEGMENT
__real@3f000000 DD 03f000000r			; 0.5
CONST	ENDS
;	COMDAT __real@3e4ccccd
CONST	SEGMENT
__real@3e4ccccd DD 03e4ccccdr			; 0.2
CONST	ENDS
;	COMDAT __real@3dcccccd
CONST	SEGMENT
__real@3dcccccd DD 03dcccccdr			; 0.1
CONST	ENDS
;	COMDAT rtc$TMZ
rtc$TMZ	SEGMENT
_RTC_Shutdown.rtc$TMZ DQ FLAT:_RTC_Shutdown
rtc$TMZ	ENDS
;	COMDAT rtc$IMZ
rtc$IMZ	SEGMENT
_RTC_InitBase.rtc$IMZ DQ FLAT:_RTC_InitBase
rtc$IMZ	ENDS
;	COMDAT ??_R2Scene@0Application@@8
rdata$r	SEGMENT
??_R2Scene@0Application@@8 DD imagerel ??_R1A@?0A@EA@Scene@0Application@@8 ; Application::Scene::Scene::`RTTI Base Class Array'
	ORG $+3
rdata$r	ENDS
;	COMDAT ??_R3Scene@0Application@@8
rdata$r	SEGMENT
??_R3Scene@0Application@@8 DD 00H			; Application::Scene::Scene::`RTTI Class Hierarchy Descriptor'
	DD	00H
	DD	01H
	DD	imagerel ??_R2Scene@0Application@@8
rdata$r	ENDS
;	COMDAT ??_R0?AVScene@0Application@@@8
data$r	SEGMENT
??_R0?AVScene@0Application@@@8 DQ FLAT:??_7type_info@@6B@ ; Application::Scene::Scene `RTTI Type Descriptor'
	DQ	0000000000000000H
	DB	'.?AVScene@0Application@@', 00H
data$r	ENDS
;	COMDAT ??_R1A@?0A@EA@Scene@0Application@@8
rdata$r	SEGMENT
??_R1A@?0A@EA@Scene@0Application@@8 DD imagerel ??_R0?AVScene@0Application@@@8 ; Application::Scene::Scene::`RTTI Base Class Descriptor at (0,-1,0,64)'
	DD	00H
	DD	00H
	DD	0ffffffffH
	DD	00H
	DD	040H
	DD	imagerel ??_R3Scene@0Application@@8
rdata$r	ENDS
;	COMDAT ??_R1A@?0A@EA@TestScene@Scene@Application@@8
rdata$r	SEGMENT
??_R1A@?0A@EA@TestScene@Scene@Application@@8 DD imagerel ??_R0?AVTestScene@Scene@Application@@@8 ; Application::Scene::TestScene::`RTTI Base Class Descriptor at (0,-1,0,64)'
	DD	01H
	DD	00H
	DD	0ffffffffH
	DD	00H
	DD	040H
	DD	imagerel ??_R3TestScene@Scene@Application@@8
rdata$r	ENDS
;	COMDAT ??_R2TestScene@Scene@Application@@8
rdata$r	SEGMENT
??_R2TestScene@Scene@Application@@8 DD imagerel ??_R1A@?0A@EA@TestScene@Scene@Application@@8 ; Application::Scene::TestScene::`RTTI Base Class Array'
	DD	imagerel ??_R1A@?0A@EA@Scene@0Application@@8
	ORG $+3
rdata$r	ENDS
;	COMDAT ??_R3TestScene@Scene@Application@@8
rdata$r	SEGMENT
??_R3TestScene@Scene@Application@@8 DD 00H		; Application::Scene::TestScene::`RTTI Class Hierarchy Descriptor'
	DD	00H
	DD	02H
	DD	imagerel ??_R2TestScene@Scene@Application@@8
rdata$r	ENDS
;	COMDAT ??_R0?AVTestScene@Scene@Application@@@8
data$r	SEGMENT
??_R0?AVTestScene@Scene@Application@@@8 DQ FLAT:??_7type_info@@6B@ ; Application::Scene::TestScene `RTTI Type Descriptor'
	DQ	0000000000000000H
	DB	'.?AVTestScene@Scene@Application@@', 00H
data$r	ENDS
;	COMDAT ??_R4TestScene@Scene@Application@@6B@
rdata$r	SEGMENT
??_R4TestScene@Scene@Application@@6B@ DD 01H		; Application::Scene::TestScene::`RTTI Complete Object Locator'
	DD	00H
	DD	00H
	DD	imagerel ??_R0?AVTestScene@Scene@Application@@@8
	DD	imagerel ??_R3TestScene@Scene@Application@@8
	DD	imagerel ??_R4TestScene@Scene@Application@@6B@
rdata$r	ENDS
;	COMDAT ??_C@_0M@HJNLOKEB@Clear?5Color?$AA@
CONST	SEGMENT
??_C@_0M@HJNLOKEB@Clear?5Color?$AA@ DB 'Clear Color', 00H ; `string'
CONST	ENDS
;	COMDAT ??_C@_0EJ@NCIJGDFA@glClearColor?$CIclearColor?$FL0?$FN?0?5clea@
CONST	SEGMENT
??_C@_0EJ@NCIJGDFA@glClearColor?$CIclearColor?$FL0?$FN?0?5clea@ DB 'glCle'
	DB	'arColor(clearColor[0], clearColor[1], clearColor[2], clearCol'
	DB	'or[3])', 00H				; `string'
CONST	ENDS
;	COMDAT ??_C@_0EG@MIEMCHGK@l?3?2dev?2featherfallengine?2feather@
CONST	SEGMENT
??_C@_0EG@MIEMCHGK@l?3?2dev?2featherfallengine?2feather@ DB 'l:\dev\feath'
	DB	'erfallengine\featherfall-examples\src\scene\testscene.cpp', 00H ; `string'
CONST	ENDS
;	COMDAT ?__LINE__Var@?0??OnRender@TestScene@Scene@Application@@UEAAXXZ@4JA
_DATA	SEGMENT
?__LINE__Var@?0??OnRender@TestScene@Scene@Application@@UEAAXXZ@4JA DD 012H ; `Application::Scene::TestScene::OnRender'::`1'::__LINE__Var
_DATA	ENDS
;	COMDAT ??_7TestScene@Scene@Application@@6B@
CONST	SEGMENT
??_7TestScene@Scene@Application@@6B@ DQ FLAT:??_R4TestScene@Scene@Application@@6B@ ; Application::Scene::TestScene::`vftable'
	DQ	FLAT:??_ETestScene@Scene@Application@@UEAAPEAXI@Z
	DQ	FLAT:?OnUpdate@TestScene@Scene@Application@@UEAAXM@Z
	DQ	FLAT:?OnRender@TestScene@Scene@Application@@UEAAXXZ
	DQ	FLAT:?OnImGuiRender@TestScene@Scene@Application@@UEAAXXZ
CONST	ENDS
;	COMDAT xdata
xdata	SEGMENT
$unwind$??_GTestScene@Scene@Application@@UEAAPEAXI@Z DD 025031301H
	DD	0b20e2313H
	DD	0500aH
xdata	ENDS
;	COMDAT xdata
xdata	SEGMENT
$unwind$?OnImGuiRender@TestScene@Scene@Application@@UEAAXXZ DD 025030f01H
	DD	0b20a230fH
	DD	05006H
xdata	ENDS
;	COMDAT xdata
xdata	SEGMENT
$unwind$?OnRender@TestScene@Scene@Application@@UEAAXXZ DD 025030f01H
	DD	0b20a230fH
	DD	05006H
xdata	ENDS
;	COMDAT xdata
xdata	SEGMENT
$unwind$?OnUpdate@TestScene@Scene@Application@@UEAAXM@Z DD 05031301H
	DD	072100313H
	DD	0500cH
xdata	ENDS
;	COMDAT xdata
xdata	SEGMENT
$unwind$??1TestScene@Scene@Application@@UEAA@XZ DD 025030f01H
	DD	0b20a230fH
	DD	05006H
xdata	ENDS
;	COMDAT xdata
xdata	SEGMENT
$unwind$??0TestScene@Scene@Application@@QEAA@XZ DD 025030f01H
	DD	0b20a230fH
	DD	05006H
xdata	ENDS
;	COMDAT xdata
xdata	SEGMENT
$unwind$??_H@YAXPEAX_K1P6APEAX0@Z@Z DD 025031e01H
	DD	0d219231eH
	DD	05015H
xdata	ENDS
; Function compile flags: /Odtp /RTCu /ZI
;	COMDAT ??_GTestScene@Scene@Application@@UEAAPEAXI@Z
_TEXT	SEGMENT
this$ = 80
__flags$ = 88
??_GTestScene@Scene@Application@@UEAAPEAXI@Z PROC	; Application::Scene::TestScene::`scalar deleting destructor', COMDAT
$LN4:
	mov	DWORD PTR [rsp+16], edx
	mov	QWORD PTR [rsp+8], rcx
	push	rbp
	sub	rsp, 96					; 00000060H
	lea	rbp, QWORD PTR [rsp+32]
	mov	rcx, QWORD PTR this$[rbp]
	call	??1TestScene@Scene@Application@@UEAA@XZ	; Application::Scene::TestScene::~TestScene
	mov	eax, DWORD PTR __flags$[rbp]
	and	eax, 1
	test	eax, eax
	je	SHORT $LN2@scalar
	mov	edx, 24
	mov	rcx, QWORD PTR this$[rbp]
	call	??3@YAXPEAX_K@Z				; operator delete
$LN2@scalar:
	mov	rax, QWORD PTR this$[rbp]
	lea	rsp, QWORD PTR [rbp+64]
	pop	rbp
	ret	0
??_GTestScene@Scene@Application@@UEAAPEAXI@Z ENDP	; Application::Scene::TestScene::`scalar deleting destructor'
_TEXT	ENDS
; Function compile flags: /Odtp /RTCu /ZI
; File l:\dev\featherfallengine\featherfall-examples\src\scene\testscene.cpp
;	COMDAT ?OnImGuiRender@TestScene@Scene@Application@@UEAAXXZ
_TEXT	SEGMENT
this$ = 80
?OnImGuiRender@TestScene@Scene@Application@@UEAAXXZ PROC ; Application::Scene::TestScene::OnImGuiRender, COMDAT

; 22   : 	void TestScene::OnImGuiRender() {

$LN3:
	mov	QWORD PTR [rsp+8], rcx
	push	rbp
	sub	rsp, 96					; 00000060H
	lea	rbp, QWORD PTR [rsp+32]

; 23   : 
; 24   : 		ImGui::ColorEdit4("Clear Color", clearColor);

	mov	rax, QWORD PTR this$[rbp]
	add	rax, 8
	xor	r8d, r8d
	mov	rdx, rax
	lea	rcx, OFFSET FLAT:??_C@_0M@HJNLOKEB@Clear?5Color?$AA@
	call	?ColorEdit4@ImGui@@YA_NPEBDQEAMH@Z	; ImGui::ColorEdit4

; 25   : 
; 26   : 	}

	lea	rsp, QWORD PTR [rbp+64]
	pop	rbp
	ret	0
?OnImGuiRender@TestScene@Scene@Application@@UEAAXXZ ENDP ; Application::Scene::TestScene::OnImGuiRender
_TEXT	ENDS
; Function compile flags: /Odtp /RTCu /ZI
; File l:\dev\featherfallengine\featherfall-examples\src\scene\testscene.cpp
;	COMDAT ?OnRender@TestScene@Scene@Application@@UEAAXXZ
_TEXT	SEGMENT
this$ = 80
?OnRender@TestScene@Scene@Application@@UEAAXXZ PROC	; Application::Scene::TestScene::OnRender, COMDAT

; 18   : 	void TestScene::OnRender() {

$LN4:
	mov	QWORD PTR [rsp+8], rcx
	push	rbp
	sub	rsp, 96					; 00000060H
	lea	rbp, QWORD PTR [rsp+32]

; 19   : 		GLCall(glClearColor(clearColor[0], clearColor[1], clearColor[2], clearColor[3]));

	call	?GLClearError@@YAXXZ			; GLClearError
	mov	eax, 4
	imul	rax, rax, 3
	mov	ecx, 4
	imul	rcx, rcx, 2
	mov	edx, 4
	imul	rdx, rdx, 1
	mov	r8d, 4
	imul	r8, r8, 0
	mov	r9, QWORD PTR this$[rbp]
	movss	xmm3, DWORD PTR [r9+rax+8]
	mov	rax, QWORD PTR this$[rbp]
	movss	xmm2, DWORD PTR [rax+rcx+8]
	mov	rax, QWORD PTR this$[rbp]
	movss	xmm1, DWORD PTR [rax+rdx+8]
	mov	rax, QWORD PTR this$[rbp]
	movss	xmm0, DWORD PTR [rax+r8+8]
	call	QWORD PTR __imp_glClearColor
	mov	eax, DWORD PTR ?__LINE__Var@?0??OnRender@TestScene@Scene@Application@@UEAAXXZ@4JA
	inc	eax
	mov	r8d, eax
	lea	rdx, OFFSET FLAT:??_C@_0EG@MIEMCHGK@l?3?2dev?2featherfallengine?2feather@
	lea	rcx, OFFSET FLAT:??_C@_0EJ@NCIJGDFA@glClearColor?$CIclearColor?$FL0?$FN?0?5clea@
	call	?GLLogError@@YA_NPEBD0H@Z		; GLLogError
	movzx	eax, al
	test	eax, eax
	jne	SHORT $LN2@OnRender
	int	3
$LN2@OnRender:

; 20   : 	}

	lea	rsp, QWORD PTR [rbp+64]
	pop	rbp
	ret	0
?OnRender@TestScene@Scene@Application@@UEAAXXZ ENDP	; Application::Scene::TestScene::OnRender
_TEXT	ENDS
; Function compile flags: /Odtp /RTCu /ZI
; File l:\dev\featherfallengine\featherfall-examples\src\scene\testscene.cpp
;	COMDAT ?OnUpdate@TestScene@Scene@Application@@UEAAXM@Z
_TEXT	SEGMENT
this$ = 80
deltaTime$ = 88
?OnUpdate@TestScene@Scene@Application@@UEAAXM@Z PROC	; Application::Scene::TestScene::OnUpdate, COMDAT

; 16   : 	void TestScene::OnUpdate(float deltaTime) {}

$LN3:
	movss	DWORD PTR [rsp+16], xmm1
	mov	QWORD PTR [rsp+8], rcx
	push	rbp
	sub	rsp, 64					; 00000040H
	mov	rbp, rsp
	lea	rsp, QWORD PTR [rbp+64]
	pop	rbp
	ret	0
?OnUpdate@TestScene@Scene@Application@@UEAAXM@Z ENDP	; Application::Scene::TestScene::OnUpdate
_TEXT	ENDS
; Function compile flags: /Odtp /RTCu /ZI
; File l:\dev\featherfallengine\featherfall-examples\src\scene\testscene.cpp
;	COMDAT ??1TestScene@Scene@Application@@UEAA@XZ
_TEXT	SEGMENT
this$ = 80
??1TestScene@Scene@Application@@UEAA@XZ PROC		; Application::Scene::TestScene::~TestScene, COMDAT

; 14   : 	TestScene::~TestScene() {}

$LN3:
	mov	QWORD PTR [rsp+8], rcx
	push	rbp
	sub	rsp, 96					; 00000060H
	lea	rbp, QWORD PTR [rsp+32]
	mov	rax, QWORD PTR this$[rbp]
	lea	rcx, OFFSET FLAT:??_7TestScene@Scene@Application@@6B@
	mov	QWORD PTR [rax], rcx
	mov	rcx, QWORD PTR this$[rbp]
	call	??1Scene@0Application@@UEAA@XZ		; Application::Scene::Scene::~Scene
	lea	rsp, QWORD PTR [rbp+64]
	pop	rbp
	ret	0
??1TestScene@Scene@Application@@UEAA@XZ ENDP		; Application::Scene::TestScene::~TestScene
_TEXT	ENDS
; Function compile flags: /Odtp /RTCu /ZI
; File l:\dev\featherfallengine\featherfall-examples\src\scene\testscene.cpp
;	COMDAT ??0TestScene@Scene@Application@@QEAA@XZ
_TEXT	SEGMENT
this$ = 80
??0TestScene@Scene@Application@@QEAA@XZ PROC		; Application::Scene::TestScene::TestScene, COMDAT

; 10   : 	{

$LN4:
	mov	QWORD PTR [rsp+8], rcx
	push	rbp
	sub	rsp, 96					; 00000060H
	lea	rbp, QWORD PTR [rsp+32]
	mov	rcx, QWORD PTR this$[rbp]
	call	??0Scene@0Application@@QEAA@XZ		; Application::Scene::Scene::Scene
	mov	rax, QWORD PTR this$[rbp]
	lea	rcx, OFFSET FLAT:??_7TestScene@Scene@Application@@6B@
	mov	QWORD PTR [rax], rcx

; 9    : 		: clearColor { 0.2f, 0.5f, 0.1f, 1.0f }

	mov	rax, QWORD PTR this$[rbp]
	movss	xmm0, DWORD PTR __real@3e4ccccd
	movss	DWORD PTR [rax+8], xmm0
	mov	rax, QWORD PTR this$[rbp]
	movss	xmm0, DWORD PTR __real@3f000000
	movss	DWORD PTR [rax+12], xmm0
	mov	rax, QWORD PTR this$[rbp]
	movss	xmm0, DWORD PTR __real@3dcccccd
	movss	DWORD PTR [rax+16], xmm0
	mov	rax, QWORD PTR this$[rbp]
	movss	xmm0, DWORD PTR __real@3f800000
	movss	DWORD PTR [rax+20], xmm0

; 11   : 	
; 12   : 	}

	mov	rax, QWORD PTR this$[rbp]
	lea	rsp, QWORD PTR [rbp+64]
	pop	rbp
	ret	0
??0TestScene@Scene@Application@@QEAA@XZ ENDP		; Application::Scene::TestScene::TestScene
_TEXT	ENDS
; Function compile flags: /Odtp /RTCu /ZI
;	COMDAT ??_H@YAXPEAX_K1P6APEAX0@Z@Z
_TEXT	SEGMENT
tv66 = 64
tv67 = 72
__t$ = 96
__s$ = 104
__n$ = 112
__f$ = 120
??_H@YAXPEAX_K1P6APEAX0@Z@Z PROC			; `vector constructor iterator', COMDAT
$LN7:
	mov	QWORD PTR [rsp+32], r9
	mov	QWORD PTR [rsp+24], r8
	mov	QWORD PTR [rsp+16], rdx
	mov	QWORD PTR [rsp+8], rcx
	push	rbp
	sub	rsp, 112				; 00000070H
	lea	rbp, QWORD PTR [rsp+32]
$LN2@vector:
	mov	rax, QWORD PTR __n$[rbp]
	mov	QWORD PTR tv66[rbp], rax
	mov	rax, QWORD PTR __n$[rbp]
	dec	rax
	mov	QWORD PTR __n$[rbp], rax
	cmp	QWORD PTR tv66[rbp], 0
	jbe	SHORT $LN5@vector
	mov	DWORD PTR tv67[rbp], 1
	jmp	SHORT $LN6@vector
$LN5@vector:
	mov	DWORD PTR tv67[rbp], 0
$LN6@vector:
	cmp	DWORD PTR tv67[rbp], 0
	je	SHORT $LN3@vector
	mov	rcx, QWORD PTR __t$[rbp]
	call	QWORD PTR __f$[rbp]
	mov	rax, QWORD PTR __s$[rbp]
	mov	rcx, QWORD PTR __t$[rbp]
	add	rcx, rax
	mov	rax, rcx
	mov	QWORD PTR __t$[rbp], rax
	jmp	SHORT $LN2@vector
$LN3@vector:
	lea	rsp, QWORD PTR [rbp+80]
	pop	rbp
	ret	0
??_H@YAXPEAX_K1P6APEAX0@Z@Z ENDP			; `vector constructor iterator'
_TEXT	ENDS
END
