; Listing generated by Microsoft (R) Optimizing Compiler Version 19.15.26726.0 

include listing.inc

INCLUDELIB MSVCRTD
INCLUDELIB OLDNAMES

msvcjmc	SEGMENT
__C3726024_vcruntime_new.h DB 01H
__388D9910_stdlib.h DB 01H
__AF9067BE_corecrt_math.h DB 01H
__F0F1F39B_cstdlib DB 01H
__FC722CCB_xtgmath.h DB 01H
__5340138E_cmath DB 01H
__5DB10197_corecrt_memcpy_s.h DB 01H
__D40DD59F_corecrt_stdio_config.h DB 01H
__7EC77528_corecrt_wconio.h DB 01H
__5C7715BA_corecrt_wio.h DB 01H
__3AB8031F_corecrt_wstdio.h DB 01H
__7A0084B3_corecrt_wstring.h DB 01H
__8AE89E8D_corecrt_wtime.h DB 01H
__3F8BCAED_stat.h DB 01H
__5B5D5F1B_wchar.h DB 01H
__7FD60861_limits DB 01H
__6C905C6A_type_traits DB 01H
__ACA0BEE6_malloc.h DB 01H
__1AB859C2_vcruntime_exception.h DB 01H
__B20D35A8_exception DB 01H
__A57BBCE6_stdio.h DB 01H
__1F77EA16_corecrt_memory.h DB 01H
__BEFE0DB4_string.h DB 01H
__B33FDDE7_iosfwd DB 01H
__E8FD1B86_xutility DB 01H
__44F7D211_xatomic0.h DB 01H
__39AEDAD7_xmemory0 DB 01H
__3B430FF5_stdexcept DB 01H
__6DC649C7_bufferlayout.h DB 01H
__29D2B671_ibo.h DB 01H
__768210A7_vcruntime_typeinfo.h DB 01H
__7A53EED8_ctype.h DB 01H
__87AB0B57_xlocinfo DB 01H
__C37804EF_memory DB 01H
__EF3D53E0_xfacet DB 01H
__0684E77E_xlocale DB 01H
__4552C965_xcall_once.h DB 01H
__FA0FDB45_system_error DB 01H
__BE4E7C44_xiosbase DB 01H
__98038169_xlocnum DB 01H
__F5D7447A_ios DB 01H
__80B6B68A_type_vec4_simd.inl DB 01H
__E3872A82_exponential.h DB 01H
__9F28AA45_func_exponential_simd.inl DB 01H
__29A045F3_common.h DB 01H
__B7988A80_func_common.inl DB 01H
__24CAB0E6_geometric.h DB 01H
__97BCFF82_matrix.h DB 01H
__120E1A77_func_matrix_simd.inl DB 01H
__B7AB8273_string DB 01H
__96066920_texture.h DB 01H
__09AF338C_imgui.h DB 01H
__80B35CB9_texturetestscene.h DB 01H
__24B56FB6_texturetestscene.cpp DB 01H
__327B7881_vector DB 01H
__D9BA934F_xstring DB 01H
__76440880_istream DB 01H
__15943DBA_ostream DB 01H
__39E3B749_streambuf DB 01H
__C7FC7610_utility DB 01H
__30E3E102_xstddef DB 01H
__A0704DDA_type_vec4.inl DB 01H
__BF97B2F5_type_mat4x4.inl DB 01H
__7E15BB52_type_mat4x4.hpp DB 01H
__61F2447D_type_vec4.hpp DB 01H
__AD6915D3_xmemory DB 01H
msvcjmc	ENDS
PUBLIC	??_H@YAXPEAX_K1P6APEAX0@Z@Z			; `vector constructor iterator'
PUBLIC	?__empty_global_delete@@YAXPEAX@Z		; __empty_global_delete
PUBLIC	?__empty_global_delete@@YAXPEAX_K@Z		; __empty_global_delete
PUBLIC	??_GVBO@buffers@core@@QEAAPEAXI@Z		; core::buffers::VBO::`scalar deleting destructor'
PUBLIC	??2@YAPEAX_KPEAX@Z				; operator new
PUBLIC	?max@?$numeric_limits@_J@std@@SA_JXZ		; std::numeric_limits<__int64>::max
PUBLIC	?length@?$char_traits@D@std@@SA_KQEBD@Z		; std::char_traits<char>::length
PUBLIC	?copy@?$char_traits@D@std@@SAPEADQEADQEBD_K@Z	; std::char_traits<char>::copy
PUBLIC	?move@?$char_traits@D@std@@SAPEADQEADQEBD_K@Z	; std::char_traits<char>::move
PUBLIC	?assign@?$char_traits@D@std@@SAXAEADAEBD@Z	; std::char_traits<char>::assign
PUBLIC	??0_Container_proxy@std@@QEAA@XZ		; std::_Container_proxy::_Container_proxy
PUBLIC	??0_Container_base12@std@@QEAA@XZ		; std::_Container_base12::_Container_base12
PUBLIC	?_Getpfirst@_Container_base12@std@@QEBAPEAPEAU_Iterator_base12@2@XZ ; std::_Container_base12::_Getpfirst
PUBLIC	?_Orphan_all@_Container_base12@std@@QEAAXXZ	; std::_Container_base12::_Orphan_all
PUBLIC	?_Clrcont@_Iterator_base12@std@@QEAAXXZ		; std::_Iterator_base12::_Clrcont
PUBLIC	?_Getpnext@_Iterator_base12@std@@QEAAPEAPEAU12@XZ ; std::_Iterator_base12::_Getpnext
PUBLIC	??$_Get_size_of_n@$00@std@@YA_K_K@Z		; std::_Get_size_of_n<1>
PUBLIC	?_Allocate@_Default_allocate_traits@std@@SAPEAX_K@Z ; std::_Default_allocate_traits::_Allocate
PUBLIC	?_Adjust_manually_vector_aligned@std@@YAXAEAPEAXAEA_K@Z ; std::_Adjust_manually_vector_aligned
PUBLIC	??$_Convert_size@_K@std@@YA_K_K@Z		; std::_Convert_size<unsigned __int64>
PUBLIC	??$_Min_value@_K@std@@YAAEB_KAEB_K0@Z		; std::_Min_value<unsigned __int64>
PUBLIC	??0?$allocator@D@std@@QEAA@XZ			; std::allocator<char>::allocator<char>
PUBLIC	?deallocate@?$allocator@D@std@@QEAAXQEAD_K@Z	; std::allocator<char>::deallocate
PUBLIC	?allocate@?$allocator@D@std@@QEAAPEAD_K@Z	; std::allocator<char>::allocate
PUBLIC	?max_size@?$_Default_allocator_traits@V?$allocator@D@std@@@std@@SA_KAEBV?$allocator@D@2@@Z ; std::_Default_allocator_traits<std::allocator<char> >::max_size
PUBLIC	??0?$_String_val@U?$_Simple_types@D@std@@@std@@QEAA@XZ ; std::_String_val<std::_Simple_types<char> >::_String_val<std::_Simple_types<char> >
PUBLIC	?_Myptr@?$_String_val@U?$_Simple_types@D@std@@@std@@QEAAPEADXZ ; std::_String_val<std::_Simple_types<char> >::_Myptr
PUBLIC	?_Large_string_engaged@?$_String_val@U?$_Simple_types@D@std@@@std@@QEBA_NXZ ; std::_String_val<std::_Simple_types<char> >::_Large_string_engaged
PUBLIC	??0_Bxty@?$_String_val@U?$_Simple_types@D@std@@@std@@QEAA@XZ ; std::_String_val<std::_Simple_types<char> >::_Bxty::_Bxty
PUBLIC	??1_Bxty@?$_String_val@U?$_Simple_types@D@std@@@std@@QEAA@XZ ; std::_String_val<std::_Simple_types<char> >::_Bxty::~_Bxty
PUBLIC	??1?$_String_val@U?$_Simple_types@D@std@@@std@@QEAA@XZ ; std::_String_val<std::_Simple_types<char> >::~_String_val<std::_Simple_types<char> >
PUBLIC	??0?$_String_alloc@U?$_String_base_types@DV?$allocator@D@std@@@std@@@std@@QEAA@XZ ; std::_String_alloc<std::_String_base_types<char,std::allocator<char> > >::_String_alloc<std::_String_base_types<char,std::allocator<char> > >
PUBLIC	??1?$_String_alloc@U?$_String_base_types@DV?$allocator@D@std@@@std@@@std@@QEAA@XZ ; std::_String_alloc<std::_String_base_types<char,std::allocator<char> > >::~_String_alloc<std::_String_base_types<char,std::allocator<char> > >
PUBLIC	?_Alloc_proxy@?$_String_alloc@U?$_String_base_types@DV?$allocator@D@std@@@std@@@std@@QEAAXXZ ; std::_String_alloc<std::_String_base_types<char,std::allocator<char> > >::_Alloc_proxy
PUBLIC	?_Free_proxy@?$_String_alloc@U?$_String_base_types@DV?$allocator@D@std@@@std@@@std@@QEAAXXZ ; std::_String_alloc<std::_String_base_types<char,std::allocator<char> > >::_Free_proxy
PUBLIC	?_Myproxy@?$_String_alloc@U?$_String_base_types@DV?$allocator@D@std@@@std@@@std@@QEAAAEAPEAU_Container_proxy@2@XZ ; std::_String_alloc<std::_String_base_types<char,std::allocator<char> > >::_Myproxy
PUBLIC	?_Orphan_all@?$_String_alloc@U?$_String_base_types@DV?$allocator@D@std@@@std@@@std@@QEAAXXZ ; std::_String_alloc<std::_String_base_types<char,std::allocator<char> > >::_Orphan_all
PUBLIC	?_Getal@?$_String_alloc@U?$_String_base_types@DV?$allocator@D@std@@@std@@@std@@QEAAAEAV?$allocator@D@2@XZ ; std::_String_alloc<std::_String_base_types<char,std::allocator<char> > >::_Getal
PUBLIC	?_Getal@?$_String_alloc@U?$_String_base_types@DV?$allocator@D@std@@@std@@@std@@QEBAAEBV?$allocator@D@2@XZ ; std::_String_alloc<std::_String_base_types<char,std::allocator<char> > >::_Getal
PUBLIC	?_Get_data@?$_String_alloc@U?$_String_base_types@DV?$allocator@D@std@@@std@@@std@@QEAAAEAV?$_String_val@U?$_Simple_types@D@std@@@2@XZ ; std::_String_alloc<std::_String_base_types<char,std::allocator<char> > >::_Get_data
PUBLIC	?_Get_data@?$_String_alloc@U?$_String_base_types@DV?$allocator@D@std@@@std@@@std@@QEBAAEBV?$_String_val@U?$_Simple_types@D@std@@@2@XZ ; std::_String_alloc<std::_String_base_types<char,std::allocator<char> > >::_Get_data
PUBLIC	?_Get_first@?$_Compressed_pair@V?$allocator@D@std@@V?$_String_val@U?$_Simple_types@D@std@@@2@$00@std@@QEAAAEAV?$allocator@D@2@XZ ; std::_Compressed_pair<std::allocator<char>,std::_String_val<std::_Simple_types<char> >,1>::_Get_first
PUBLIC	?_Get_first@?$_Compressed_pair@V?$allocator@D@std@@V?$_String_val@U?$_Simple_types@D@std@@@2@$00@std@@QEBAAEBV?$allocator@D@2@XZ ; std::_Compressed_pair<std::allocator<char>,std::_String_val<std::_Simple_types<char> >,1>::_Get_first
PUBLIC	?_Get_second@?$_Compressed_pair@V?$allocator@D@std@@V?$_String_val@U?$_Simple_types@D@std@@@2@$00@std@@QEAAAEAV?$_String_val@U?$_Simple_types@D@std@@@2@XZ ; std::_Compressed_pair<std::allocator<char>,std::_String_val<std::_Simple_types<char> >,1>::_Get_second
PUBLIC	?_Get_second@?$_Compressed_pair@V?$allocator@D@std@@V?$_String_val@U?$_Simple_types@D@std@@@2@$00@std@@QEBAAEBV?$_String_val@U?$_Simple_types@D@std@@@2@XZ ; std::_Compressed_pair<std::allocator<char>,std::_String_val<std::_Simple_types<char> >,1>::_Get_second
PUBLIC	??1?$_Compressed_pair@V?$allocator@D@std@@V?$_String_val@U?$_Simple_types@D@std@@@2@$00@std@@QEAA@XZ ; std::_Compressed_pair<std::allocator<char>,std::_String_val<std::_Simple_types<char> >,1>::~_Compressed_pair<std::allocator<char>,std::_String_val<std::_Simple_types<char> >,1>
PUBLIC	??0?$basic_string@DU?$char_traits@D@std@@V?$allocator@D@2@@std@@QEAA@QEBD@Z ; std::basic_string<char,std::char_traits<char>,std::allocator<char> >::basic_string<char,std::char_traits<char>,std::allocator<char> >
PUBLIC	??1?$basic_string@DU?$char_traits@D@std@@V?$allocator@D@2@@std@@QEAA@XZ ; std::basic_string<char,std::char_traits<char>,std::allocator<char> >::~basic_string<char,std::char_traits<char>,std::allocator<char> >
PUBLIC	?assign@?$basic_string@DU?$char_traits@D@std@@V?$allocator@D@2@@std@@QEAAAEAV12@QEBD_K@Z ; std::basic_string<char,std::char_traits<char>,std::allocator<char> >::assign
PUBLIC	?assign@?$basic_string@DU?$char_traits@D@std@@V?$allocator@D@2@@std@@QEAAAEAV12@QEBD@Z ; std::basic_string<char,std::char_traits<char>,std::allocator<char> >::assign
PUBLIC	?max_size@?$basic_string@DU?$char_traits@D@std@@V?$allocator@D@2@@std@@QEBA_KXZ ; std::basic_string<char,std::char_traits<char>,std::allocator<char> >::max_size
PUBLIC	?_Calculate_growth@?$basic_string@DU?$char_traits@D@std@@V?$allocator@D@2@@std@@QEBA_K_K@Z ; std::basic_string<char,std::char_traits<char>,std::allocator<char> >::_Calculate_growth
PUBLIC	?_Tidy_init@?$basic_string@DU?$char_traits@D@std@@V?$allocator@D@2@@std@@QEAAXXZ ; std::basic_string<char,std::char_traits<char>,std::allocator<char> >::_Tidy_init
PUBLIC	?_Tidy_deallocate@?$basic_string@DU?$char_traits@D@std@@V?$allocator@D@2@@std@@QEAAXXZ ; std::basic_string<char,std::char_traits<char>,std::allocator<char> >::_Tidy_deallocate
PUBLIC	?_Xlen@?$basic_string@DU?$char_traits@D@std@@V?$allocator@D@2@@std@@SAXXZ ; std::basic_string<char,std::char_traits<char>,std::allocator<char> >::_Xlen
PUBLIC	?SizeOfType@BufferElement@buffers@core@@SAII@Z	; core::buffers::BufferElement::SizeOfType
PUBLIC	??0?$allocator@UBufferElement@buffers@core@@@std@@QEAA@XZ ; std::allocator<core::buffers::BufferElement>::allocator<core::buffers::BufferElement>
PUBLIC	?deallocate@?$allocator@UBufferElement@buffers@core@@@std@@QEAAXQEAUBufferElement@buffers@core@@_K@Z ; std::allocator<core::buffers::BufferElement>::deallocate
PUBLIC	?allocate@?$allocator@UBufferElement@buffers@core@@@std@@QEAAPEAUBufferElement@buffers@core@@_K@Z ; std::allocator<core::buffers::BufferElement>::allocate
PUBLIC	?max_size@?$_Default_allocator_traits@V?$allocator@UBufferElement@buffers@core@@@std@@@std@@SA_KAEBV?$allocator@UBufferElement@buffers@core@@@2@@Z ; std::_Default_allocator_traits<std::allocator<core::buffers::BufferElement> >::max_size
PUBLIC	??0?$_Vector_alloc@U?$_Vec_base_types@UBufferElement@buffers@core@@V?$allocator@UBufferElement@buffers@core@@@std@@@std@@@std@@QEAA@XZ ; std::_Vector_alloc<std::_Vec_base_types<core::buffers::BufferElement,std::allocator<core::buffers::BufferElement> > >::_Vector_alloc<std::_Vec_base_types<core::buffers::BufferElement,std::allocator<core::buffers::BufferElement> > >
PUBLIC	??1?$_Vector_alloc@U?$_Vec_base_types@UBufferElement@buffers@core@@V?$allocator@UBufferElement@buffers@core@@@std@@@std@@@std@@QEAA@XZ ; std::_Vector_alloc<std::_Vec_base_types<core::buffers::BufferElement,std::allocator<core::buffers::BufferElement> > >::~_Vector_alloc<std::_Vec_base_types<core::buffers::BufferElement,std::allocator<core::buffers::BufferElement> > >
PUBLIC	?_Alloc_proxy@?$_Vector_alloc@U?$_Vec_base_types@UBufferElement@buffers@core@@V?$allocator@UBufferElement@buffers@core@@@std@@@std@@@std@@QEAAXXZ ; std::_Vector_alloc<std::_Vec_base_types<core::buffers::BufferElement,std::allocator<core::buffers::BufferElement> > >::_Alloc_proxy
PUBLIC	?_Free_proxy@?$_Vector_alloc@U?$_Vec_base_types@UBufferElement@buffers@core@@V?$allocator@UBufferElement@buffers@core@@@std@@@std@@@std@@QEAAXXZ ; std::_Vector_alloc<std::_Vec_base_types<core::buffers::BufferElement,std::allocator<core::buffers::BufferElement> > >::_Free_proxy
PUBLIC	?_Getpfirst@?$_Vector_alloc@U?$_Vec_base_types@UBufferElement@buffers@core@@V?$allocator@UBufferElement@buffers@core@@@std@@@std@@@std@@QEBAPEAPEAU_Iterator_base12@2@XZ ; std::_Vector_alloc<std::_Vec_base_types<core::buffers::BufferElement,std::allocator<core::buffers::BufferElement> > >::_Getpfirst
PUBLIC	?_Myproxy@?$_Vector_alloc@U?$_Vec_base_types@UBufferElement@buffers@core@@V?$allocator@UBufferElement@buffers@core@@@std@@@std@@@std@@QEAAAEAPEAU_Container_proxy@2@XZ ; std::_Vector_alloc<std::_Vec_base_types<core::buffers::BufferElement,std::allocator<core::buffers::BufferElement> > >::_Myproxy
PUBLIC	?_Orphan_all@?$_Vector_alloc@U?$_Vec_base_types@UBufferElement@buffers@core@@V?$allocator@UBufferElement@buffers@core@@@std@@@std@@@std@@QEAAXXZ ; std::_Vector_alloc<std::_Vec_base_types<core::buffers::BufferElement,std::allocator<core::buffers::BufferElement> > >::_Orphan_all
PUBLIC	?_Getal@?$_Vector_alloc@U?$_Vec_base_types@UBufferElement@buffers@core@@V?$allocator@UBufferElement@buffers@core@@@std@@@std@@@std@@QEAAAEAV?$allocator@UBufferElement@buffers@core@@@2@XZ ; std::_Vector_alloc<std::_Vec_base_types<core::buffers::BufferElement,std::allocator<core::buffers::BufferElement> > >::_Getal
PUBLIC	?_Getal@?$_Vector_alloc@U?$_Vec_base_types@UBufferElement@buffers@core@@V?$allocator@UBufferElement@buffers@core@@@std@@@std@@@std@@QEBAAEBV?$allocator@UBufferElement@buffers@core@@@2@XZ ; std::_Vector_alloc<std::_Vec_base_types<core::buffers::BufferElement,std::allocator<core::buffers::BufferElement> > >::_Getal
PUBLIC	?_Get_data@?$_Vector_alloc@U?$_Vec_base_types@UBufferElement@buffers@core@@V?$allocator@UBufferElement@buffers@core@@@std@@@std@@@std@@QEAAAEAV?$_Vector_val@U?$_Simple_types@UBufferElement@buffers@core@@@std@@@2@XZ ; std::_Vector_alloc<std::_Vec_base_types<core::buffers::BufferElement,std::allocator<core::buffers::BufferElement> > >::_Get_data
PUBLIC	?_Get_data@?$_Vector_alloc@U?$_Vec_base_types@UBufferElement@buffers@core@@V?$allocator@UBufferElement@buffers@core@@@std@@@std@@@std@@QEBAAEBV?$_Vector_val@U?$_Simple_types@UBufferElement@buffers@core@@@std@@@2@XZ ; std::_Vector_alloc<std::_Vec_base_types<core::buffers::BufferElement,std::allocator<core::buffers::BufferElement> > >::_Get_data
PUBLIC	?_Myfirst@?$_Vector_alloc@U?$_Vec_base_types@UBufferElement@buffers@core@@V?$allocator@UBufferElement@buffers@core@@@std@@@std@@@std@@QEAAAEAPEAUBufferElement@buffers@core@@XZ ; std::_Vector_alloc<std::_Vec_base_types<core::buffers::BufferElement,std::allocator<core::buffers::BufferElement> > >::_Myfirst
PUBLIC	?_Myfirst@?$_Vector_alloc@U?$_Vec_base_types@UBufferElement@buffers@core@@V?$allocator@UBufferElement@buffers@core@@@std@@@std@@@std@@QEBAAEBQEAUBufferElement@buffers@core@@XZ ; std::_Vector_alloc<std::_Vec_base_types<core::buffers::BufferElement,std::allocator<core::buffers::BufferElement> > >::_Myfirst
PUBLIC	?_Mylast@?$_Vector_alloc@U?$_Vec_base_types@UBufferElement@buffers@core@@V?$allocator@UBufferElement@buffers@core@@@std@@@std@@@std@@QEAAAEAPEAUBufferElement@buffers@core@@XZ ; std::_Vector_alloc<std::_Vec_base_types<core::buffers::BufferElement,std::allocator<core::buffers::BufferElement> > >::_Mylast
PUBLIC	?_Mylast@?$_Vector_alloc@U?$_Vec_base_types@UBufferElement@buffers@core@@V?$allocator@UBufferElement@buffers@core@@@std@@@std@@@std@@QEBAAEBQEAUBufferElement@buffers@core@@XZ ; std::_Vector_alloc<std::_Vec_base_types<core::buffers::BufferElement,std::allocator<core::buffers::BufferElement> > >::_Mylast
PUBLIC	?_Myend@?$_Vector_alloc@U?$_Vec_base_types@UBufferElement@buffers@core@@V?$allocator@UBufferElement@buffers@core@@@std@@@std@@@std@@QEAAAEAPEAUBufferElement@buffers@core@@XZ ; std::_Vector_alloc<std::_Vec_base_types<core::buffers::BufferElement,std::allocator<core::buffers::BufferElement> > >::_Myend
PUBLIC	?_Myend@?$_Vector_alloc@U?$_Vec_base_types@UBufferElement@buffers@core@@V?$allocator@UBufferElement@buffers@core@@@std@@@std@@@std@@QEBAAEBQEAUBufferElement@buffers@core@@XZ ; std::_Vector_alloc<std::_Vec_base_types<core::buffers::BufferElement,std::allocator<core::buffers::BufferElement> > >::_Myend
PUBLIC	??0?$_Vector_val@U?$_Simple_types@UBufferElement@buffers@core@@@std@@@std@@QEAA@XZ ; std::_Vector_val<std::_Simple_types<core::buffers::BufferElement> >::_Vector_val<std::_Simple_types<core::buffers::BufferElement> >
PUBLIC	?_Get_first@?$_Compressed_pair@V?$allocator@UBufferElement@buffers@core@@@std@@V?$_Vector_val@U?$_Simple_types@UBufferElement@buffers@core@@@std@@@2@$00@std@@QEAAAEAV?$allocator@UBufferElement@buffers@core@@@2@XZ ; std::_Compressed_pair<std::allocator<core::buffers::BufferElement>,std::_Vector_val<std::_Simple_types<core::buffers::BufferElement> >,1>::_Get_first
PUBLIC	?_Get_first@?$_Compressed_pair@V?$allocator@UBufferElement@buffers@core@@@std@@V?$_Vector_val@U?$_Simple_types@UBufferElement@buffers@core@@@std@@@2@$00@std@@QEBAAEBV?$allocator@UBufferElement@buffers@core@@@2@XZ ; std::_Compressed_pair<std::allocator<core::buffers::BufferElement>,std::_Vector_val<std::_Simple_types<core::buffers::BufferElement> >,1>::_Get_first
PUBLIC	?_Get_second@?$_Compressed_pair@V?$allocator@UBufferElement@buffers@core@@@std@@V?$_Vector_val@U?$_Simple_types@UBufferElement@buffers@core@@@std@@@2@$00@std@@QEAAAEAV?$_Vector_val@U?$_Simple_types@UBufferElement@buffers@core@@@std@@@2@XZ ; std::_Compressed_pair<std::allocator<core::buffers::BufferElement>,std::_Vector_val<std::_Simple_types<core::buffers::BufferElement> >,1>::_Get_second
PUBLIC	?_Get_second@?$_Compressed_pair@V?$allocator@UBufferElement@buffers@core@@@std@@V?$_Vector_val@U?$_Simple_types@UBufferElement@buffers@core@@@std@@@2@$00@std@@QEBAAEBV?$_Vector_val@U?$_Simple_types@UBufferElement@buffers@core@@@std@@@2@XZ ; std::_Compressed_pair<std::allocator<core::buffers::BufferElement>,std::_Vector_val<std::_Simple_types<core::buffers::BufferElement> >,1>::_Get_second
PUBLIC	??0?$vector@UBufferElement@buffers@core@@V?$allocator@UBufferElement@buffers@core@@@std@@@std@@QEAA@XZ ; std::vector<core::buffers::BufferElement,std::allocator<core::buffers::BufferElement> >::vector<core::buffers::BufferElement,std::allocator<core::buffers::BufferElement> >
PUBLIC	??1?$vector@UBufferElement@buffers@core@@V?$allocator@UBufferElement@buffers@core@@@std@@@std@@QEAA@XZ ; std::vector<core::buffers::BufferElement,std::allocator<core::buffers::BufferElement> >::~vector<core::buffers::BufferElement,std::allocator<core::buffers::BufferElement> >
PUBLIC	?push_back@?$vector@UBufferElement@buffers@core@@V?$allocator@UBufferElement@buffers@core@@@std@@@std@@QEAAX$$QEAUBufferElement@buffers@core@@@Z ; std::vector<core::buffers::BufferElement,std::allocator<core::buffers::BufferElement> >::push_back
PUBLIC	?size@?$vector@UBufferElement@buffers@core@@V?$allocator@UBufferElement@buffers@core@@@std@@@std@@QEBA_KXZ ; std::vector<core::buffers::BufferElement,std::allocator<core::buffers::BufferElement> >::size
PUBLIC	?max_size@?$vector@UBufferElement@buffers@core@@V?$allocator@UBufferElement@buffers@core@@@std@@@std@@QEBA_KXZ ; std::vector<core::buffers::BufferElement,std::allocator<core::buffers::BufferElement> >::max_size
PUBLIC	?capacity@?$vector@UBufferElement@buffers@core@@V?$allocator@UBufferElement@buffers@core@@@std@@@std@@QEBA_KXZ ; std::vector<core::buffers::BufferElement,std::allocator<core::buffers::BufferElement> >::capacity
PUBLIC	?_Has_unused_capacity@?$vector@UBufferElement@buffers@core@@V?$allocator@UBufferElement@buffers@core@@@std@@@std@@AEBA_NXZ ; std::vector<core::buffers::BufferElement,std::allocator<core::buffers::BufferElement> >::_Has_unused_capacity
PUBLIC	?_Umove@?$vector@UBufferElement@buffers@core@@V?$allocator@UBufferElement@buffers@core@@@std@@@std@@AEAAPEAUBufferElement@buffers@core@@PEAU345@00@Z ; std::vector<core::buffers::BufferElement,std::allocator<core::buffers::BufferElement> >::_Umove
PUBLIC	?_Umove_if_noexcept1@?$vector@UBufferElement@buffers@core@@V?$allocator@UBufferElement@buffers@core@@@std@@@std@@AEAAXPEAUBufferElement@buffers@core@@00U?$integral_constant@_N$00@2@@Z ; std::vector<core::buffers::BufferElement,std::allocator<core::buffers::BufferElement> >::_Umove_if_noexcept1
PUBLIC	?_Umove_if_noexcept@?$vector@UBufferElement@buffers@core@@V?$allocator@UBufferElement@buffers@core@@@std@@@std@@AEAAXPEAUBufferElement@buffers@core@@00@Z ; std::vector<core::buffers::BufferElement,std::allocator<core::buffers::BufferElement> >::_Umove_if_noexcept
PUBLIC	?_Destroy@?$vector@UBufferElement@buffers@core@@V?$allocator@UBufferElement@buffers@core@@@std@@@std@@AEAAXPEAUBufferElement@buffers@core@@0@Z ; std::vector<core::buffers::BufferElement,std::allocator<core::buffers::BufferElement> >::_Destroy
PUBLIC	?_Calculate_growth@?$vector@UBufferElement@buffers@core@@V?$allocator@UBufferElement@buffers@core@@@std@@@std@@AEBA_K_K@Z ; std::vector<core::buffers::BufferElement,std::allocator<core::buffers::BufferElement> >::_Calculate_growth
PUBLIC	?_Change_array@?$vector@UBufferElement@buffers@core@@V?$allocator@UBufferElement@buffers@core@@@std@@@std@@AEAAXQEAUBufferElement@buffers@core@@_K1@Z ; std::vector<core::buffers::BufferElement,std::allocator<core::buffers::BufferElement> >::_Change_array
PUBLIC	?_Tidy@?$vector@UBufferElement@buffers@core@@V?$allocator@UBufferElement@buffers@core@@@std@@@std@@AEAAXXZ ; std::vector<core::buffers::BufferElement,std::allocator<core::buffers::BufferElement> >::_Tidy
PUBLIC	?_Xlength@?$vector@UBufferElement@buffers@core@@V?$allocator@UBufferElement@buffers@core@@@std@@@std@@CAXXZ ; std::vector<core::buffers::BufferElement,std::allocator<core::buffers::BufferElement> >::_Xlength
PUBLIC	?_Orphan_range@?$vector@UBufferElement@buffers@core@@V?$allocator@UBufferElement@buffers@core@@@std@@@std@@AEBAXPEAUBufferElement@buffers@core@@0@Z ; std::vector<core::buffers::BufferElement,std::allocator<core::buffers::BufferElement> >::_Orphan_range
PUBLIC	??0BufferLayout@buffers@core@@QEAA@XZ		; core::buffers::BufferLayout::BufferLayout
PUBLIC	??$push@M@BufferLayout@buffers@core@@QEAAXI@Z	; core::buffers::BufferLayout::push<float>
PUBLIC	??1BufferLayout@buffers@core@@QEAA@XZ		; core::buffers::BufferLayout::~BufferLayout
PUBLIC	?__autoclassinit2@BufferLayout@buffers@core@@QEAAX_K@Z ; core::buffers::BufferLayout::__autoclassinit2
PUBLIC	??_GBufferLayout@buffers@core@@QEAAPEAXI@Z	; core::buffers::BufferLayout::`scalar deleting destructor'
PUBLIC	??_GVAO@buffers@core@@QEAAPEAXI@Z		; core::buffers::VAO::`scalar deleting destructor'
PUBLIC	?getCount@IBO@buffers@core@@QEBAHXZ		; core::buffers::IBO::getCount
PUBLIC	??_GIBO@buffers@core@@QEAAPEAXI@Z		; core::buffers::IBO::`scalar deleting destructor'
PUBLIC	??_GShader@graphics@core@@QEAAPEAXI@Z		; core::graphics::Shader::`scalar deleting destructor'
PUBLIC	?__autoclassinit2@Texture@graphics@core@@QEAAX_K@Z ; core::graphics::Texture::__autoclassinit2
PUBLIC	??_GTexture@graphics@core@@QEAAPEAXI@Z		; core::graphics::Texture::`scalar deleting destructor'
PUBLIC	??0TextureTestScene@Scene@Application@@QEAA@XZ	; Application::Scene::TextureTestScene::TextureTestScene
PUBLIC	??1TextureTestScene@Scene@Application@@UEAA@XZ	; Application::Scene::TextureTestScene::~TextureTestScene
PUBLIC	?OnUpdate@TextureTestScene@Scene@Application@@UEAAXM@Z ; Application::Scene::TextureTestScene::OnUpdate
PUBLIC	?OnRender@TextureTestScene@Scene@Application@@UEAAXXZ ; Application::Scene::TextureTestScene::OnRender
PUBLIC	?OnImGuiRender@TextureTestScene@Scene@Application@@UEAAXXZ ; Application::Scene::TextureTestScene::OnImGuiRender
PUBLIC	??_GTextureTestScene@Scene@Application@@UEAAPEAXI@Z ; Application::Scene::TextureTestScene::`scalar deleting destructor'
PUBLIC	??$move@AEAUBufferElement@buffers@core@@@std@@YA$$QEAUBufferElement@buffers@core@@AEAU123@@Z ; std::move<core::buffers::BufferElement &>
PUBLIC	??$emplace_back@UBufferElement@buffers@core@@@?$vector@UBufferElement@buffers@core@@V?$allocator@UBufferElement@buffers@core@@@std@@@std@@QEAA@$$QEAUBufferElement@buffers@core@@@Z ; std::vector<core::buffers::BufferElement,std::allocator<core::buffers::BufferElement> >::emplace_back<core::buffers::BufferElement>
PUBLIC	??$forward@UBufferElement@buffers@core@@@std@@YA$$QEAUBufferElement@buffers@core@@AEAU123@@Z ; std::forward<core::buffers::BufferElement>
PUBLIC	??$_Emplace_back_with_unused_capacity@UBufferElement@buffers@core@@@?$vector@UBufferElement@buffers@core@@V?$allocator@UBufferElement@buffers@core@@@std@@@std@@AEAA@$$QEAUBufferElement@buffers@core@@@Z ; std::vector<core::buffers::BufferElement,std::allocator<core::buffers::BufferElement> >::_Emplace_back_with_unused_capacity<core::buffers::BufferElement>
PUBLIC	??$_Unfancy@UBufferElement@buffers@core@@@std@@YAPEAUBufferElement@buffers@core@@PEAU123@@Z ; std::_Unfancy<core::buffers::BufferElement>
PUBLIC	??$construct@UBufferElement@buffers@core@@U123@@?$_Default_allocator_traits@V?$allocator@UBufferElement@buffers@core@@@std@@@std@@SAXAEAV?$allocator@UBufferElement@buffers@core@@@1@QEAUBufferElement@buffers@core@@$$QEAU345@@Z ; std::_Default_allocator_traits<std::allocator<core::buffers::BufferElement> >::construct<core::buffers::BufferElement,core::buffers::BufferElement>
PUBLIC	??$_Emplace_reallocate@UBufferElement@buffers@core@@@?$vector@UBufferElement@buffers@core@@V?$allocator@UBufferElement@buffers@core@@@std@@@std@@QEAAPEAUBufferElement@buffers@core@@QEAU234@$$QEAU234@@Z ; std::vector<core::buffers::BufferElement,std::allocator<core::buffers::BufferElement> >::_Emplace_reallocate<core::buffers::BufferElement>
PUBLIC	??$_Unfancy@D@std@@YAPEADPEAD@Z			; std::_Unfancy<char>
PUBLIC	??$?0$$V@?$_Compressed_pair@V?$allocator@UBufferElement@buffers@core@@@std@@V?$_Vector_val@U?$_Simple_types@UBufferElement@buffers@core@@@std@@@2@$00@std@@QEAA@U_Zero_then_variadic_args_t@1@@Z ; std::_Compressed_pair<std::allocator<core::buffers::BufferElement>,std::_Vector_val<std::_Simple_types<core::buffers::BufferElement> >,1>::_Compressed_pair<std::allocator<core::buffers::BufferElement>,std::_Vector_val<std::_Simple_types<core::buffers::BufferElement> >,1><>
PUBLIC	??$?0$$V@?$_Compressed_pair@V?$allocator@D@std@@V?$_String_val@U?$_Simple_types@D@std@@@2@$00@std@@QEAA@U_Zero_then_variadic_args_t@1@@Z ; std::_Compressed_pair<std::allocator<char>,std::_String_val<std::_Simple_types<char> >,1>::_Compressed_pair<std::allocator<char>,std::_String_val<std::_Simple_types<char> >,1><>
PUBLIC	??$addressof@PEAD@std@@YAPEAPEADAEAPEAD@Z	; std::addressof<char *>
PUBLIC	??$destroy@PEAD@?$_Default_allocator_traits@V?$allocator@D@std@@@std@@SAXAEAV?$allocator@D@1@QEAPEAD@Z ; std::_Default_allocator_traits<std::allocator<char> >::destroy<char *>
PUBLIC	??$_Max_value@_K@std@@YAAEB_KAEB_K0@Z		; std::_Max_value<unsigned __int64>
PUBLIC	??$construct@PEADAEBQEAD@?$_Default_allocator_traits@V?$allocator@D@std@@@std@@SAXAEAV?$allocator@D@1@QEAPEADAEBQEAD@Z ; std::_Default_allocator_traits<std::allocator<char> >::construct<char *,char * const &>
PUBLIC	??$addressof@V?$_String_val@U?$_Simple_types@D@std@@@std@@@std@@YAPEAV?$_String_val@U?$_Simple_types@D@std@@@0@AEAV10@@Z ; std::addressof<std::_String_val<std::_Simple_types<char> > >
PUBLIC	??$_Allocate@$0BA@U_Default_allocate_traits@std@@$0A@@std@@YAPEAX_K@Z ; std::_Allocate<16,std::_Default_allocate_traits,0>
PUBLIC	??$_Deallocate@$0BA@$0A@@std@@YAXPEAX_K@Z	; std::_Deallocate<16,0>
PUBLIC	?allocate@?$allocator@U_Container_proxy@std@@@std@@QEAAPEAU_Container_proxy@2@_K@Z ; std::allocator<std::_Container_proxy>::allocate
PUBLIC	?deallocate@?$_Default_allocator_traits@V?$allocator@U_Container_proxy@std@@@std@@@std@@SAXAEAV?$allocator@U_Container_proxy@std@@@2@QEAU_Container_proxy@2@_K@Z ; std::_Default_allocator_traits<std::allocator<std::_Container_proxy> >::deallocate
PUBLIC	??$destroy@U_Container_proxy@std@@@?$_Default_allocator_traits@V?$allocator@U_Container_proxy@std@@@std@@@std@@SAXAEAV?$allocator@U_Container_proxy@std@@@1@QEAU_Container_proxy@1@@Z ; std::_Default_allocator_traits<std::allocator<std::_Container_proxy> >::destroy<std::_Container_proxy>
PUBLIC	??$_Deallocate_plain@V?$allocator@U_Container_proxy@std@@@std@@$0A@@std@@YAXAEAV?$allocator@U_Container_proxy@std@@@0@QEAU_Container_proxy@0@@Z ; std::_Deallocate_plain<std::allocator<std::_Container_proxy>,0>
PUBLIC	??$_Unfancy@U_Container_proxy@std@@@std@@YAPEAU_Container_proxy@0@PEAU10@@Z ; std::_Unfancy<std::_Container_proxy>
PUBLIC	??$construct@U_Container_proxy@std@@U12@@?$_Default_allocator_traits@V?$allocator@U_Container_proxy@std@@@std@@@std@@SAXAEAV?$allocator@U_Container_proxy@std@@@1@QEAU_Container_proxy@1@$$QEAU31@@Z ; std::_Default_allocator_traits<std::allocator<std::_Container_proxy> >::construct<std::_Container_proxy,std::_Container_proxy>
PUBLIC	??$?0UBufferElement@buffers@core@@@?$allocator@U_Container_proxy@std@@@std@@QEAA@AEBV?$allocator@UBufferElement@buffers@core@@@1@@Z ; std::allocator<std::_Container_proxy>::allocator<std::_Container_proxy><core::buffers::BufferElement>
PUBLIC	??$addressof@V?$_Vector_val@U?$_Simple_types@UBufferElement@buffers@core@@@std@@@std@@@std@@YAPEAV?$_Vector_val@U?$_Simple_types@UBufferElement@buffers@core@@@std@@@0@AEAV10@@Z ; std::addressof<std::_Vector_val<std::_Simple_types<core::buffers::BufferElement> > >
PUBLIC	??$_Destroy_range@V?$allocator@UBufferElement@buffers@core@@@std@@@std@@YAXPEAUBufferElement@buffers@core@@0AEAV?$allocator@UBufferElement@buffers@core@@@0@@Z ; std::_Destroy_range<std::allocator<core::buffers::BufferElement> >
PUBLIC	??$?0D@?$allocator@U_Container_proxy@std@@@std@@QEAA@AEBV?$allocator@D@1@@Z ; std::allocator<std::_Container_proxy>::allocator<std::_Container_proxy><char>
PUBLIC	??$_Get_size_of_n@$0BA@@std@@YA_K_K@Z		; std::_Get_size_of_n<16>
PUBLIC	??$forward@AEBQEAD@std@@YAAEBQEADAEBQEAD@Z	; std::forward<char * const &>
PUBLIC	??$_Allocate_manually_vector_aligned@U_Default_allocate_traits@std@@@std@@YAPEAX_K@Z ; std::_Allocate_manually_vector_aligned<std::_Default_allocate_traits>
PUBLIC	??$forward@U_Container_proxy@std@@@std@@YA$$QEAU_Container_proxy@0@AEAU10@@Z ; std::forward<std::_Container_proxy>
PUBLIC	??$_Destroy_range1@V?$allocator@UBufferElement@buffers@core@@@std@@@std@@YAXPEAUBufferElement@buffers@core@@0AEAV?$allocator@UBufferElement@buffers@core@@@0@U?$integral_constant@_N$00@0@@Z ; std::_Destroy_range1<std::allocator<core::buffers::BufferElement> >
PUBLIC	??$_Uninitialized_move@PEAUBufferElement@buffers@core@@PEAU123@V?$allocator@UBufferElement@buffers@core@@@std@@@std@@YAPEAUBufferElement@buffers@core@@QEAU123@0PEAU123@AEAV?$allocator@UBufferElement@buffers@core@@@0@@Z ; std::_Uninitialized_move<core::buffers::BufferElement *,core::buffers::BufferElement *,std::allocator<core::buffers::BufferElement> >
PUBLIC	??$_Get_size_of_n@$0M@@std@@YA_K_K@Z		; std::_Get_size_of_n<12>
PUBLIC	??$_Get_unwrapped@UBufferElement@buffers@core@@@std@@YAPEAUBufferElement@buffers@core@@QEAU123@@Z ; std::_Get_unwrapped<core::buffers::BufferElement>
PUBLIC	??$_Idl_distance@PEAUBufferElement@buffers@core@@PEAU123@@std@@YA@AEBQEAUBufferElement@buffers@core@@0@Z ; std::_Idl_distance<core::buffers::BufferElement *,core::buffers::BufferElement *>
PUBLIC	??$_Idl_distance1@PEAUBufferElement@buffers@core@@PEAU123@@std@@YA_JAEBQEAUBufferElement@buffers@core@@0Urandom_access_iterator_tag@0@@Z ; std::_Idl_distance1<core::buffers::BufferElement *,core::buffers::BufferElement *>
PUBLIC	??$_Get_unwrapped_n@UBufferElement@buffers@core@@_J$0A@@std@@YAPEAUBufferElement@buffers@core@@QEAU123@_J@Z ; std::_Get_unwrapped_n<core::buffers::BufferElement,__int64,0>
PUBLIC	??$_Ptr_move_cat@UBufferElement@buffers@core@@U123@@std@@YA?AU_Really_trivial_ptr_iterator_tag@0@AEBQEAUBufferElement@buffers@core@@0@Z ; std::_Ptr_move_cat<core::buffers::BufferElement,core::buffers::BufferElement>
PUBLIC	??$_Uninitialized_move_al_unchecked@UBufferElement@buffers@core@@U123@V?$allocator@UBufferElement@buffers@core@@@std@@@std@@YAPEAUBufferElement@buffers@core@@QEAU123@00AEAV?$allocator@UBufferElement@buffers@core@@@0@U_Really_trivial_ptr_iterator_tag@0@U?$integral_constant@_N$00@0@@Z ; std::_Uninitialized_move_al_unchecked<core::buffers::BufferElement,core::buffers::BufferElement,std::allocator<core::buffers::BufferElement> >
PUBLIC	??$_Seek_wrapped@UBufferElement@buffers@core@@@std@@YAXAEAPEAUBufferElement@buffers@core@@QEAU123@@Z ; std::_Seek_wrapped<core::buffers::BufferElement>
PUBLIC	??$_Copy_memmove@PEAUBufferElement@buffers@core@@PEAU123@@std@@YAPEAUBufferElement@buffers@core@@PEAU123@00@Z ; std::_Copy_memmove<core::buffers::BufferElement *,core::buffers::BufferElement *>
PUBLIC	??_C@_0BB@FCMFBGOM@invalid?5argument@		; `string'
PUBLIC	??_C@_02DKCKIIND@?$CFs@				; `string'
PUBLIC	??_C@_1CG@JNLFBNGN@?$AA?$CC?$AAi?$AAn?$AAv?$AAa?$AAl?$AAi?$AAd?$AA?5?$AAa?$AAr?$AAg?$AAu?$AAm?$AAe@ ; `string'
PUBLIC	?__LINE__Var@?0??_Adjust_manually_vector_aligned@std@@YAXAEAPEAXAEA_K@Z@4JA ; `std::_Adjust_manually_vector_aligned'::`1'::__LINE__Var
PUBLIC	??_C@_0GK@FKLKIKPD@c?3?2program?5files?5?$CIx86?$CJ?2microsof@ ; `string'
PUBLIC	??_C@_1NE@MCNNPIKO@?$AAc?$AA?3?$AA?2?$AAp?$AAr?$AAo?$AAg?$AAr?$AAa?$AAm?$AA?5?$AAf?$AAi?$AAl?$AAe@ ; `string'
PUBLIC	??_C@_1EK@NIFDJFDG@?$AAs?$AAt?$AAd?$AA?3?$AA?3?$AA_?$AAA?$AAd?$AAj?$AAu?$AAs?$AAt?$AA_?$AAm?$AAa@ ; `string'
PUBLIC	??_7TextureTestScene@Scene@Application@@6B@	; Application::Scene::TextureTestScene::`vftable'
PUBLIC	??_C@_0BP@FDJOMHHB@res?1shaders?1TextureTest?4shader@ ; `string'
PUBLIC	??_C@_0BN@MKLMCAKL@res?1textures?1TextureTest?4png@ ; `string'
PUBLIC	?__LINE__Var@?0??OnRender@TextureTestScene@Scene@Application@@UEAAXXZ@4JA ; `Application::Scene::TextureTestScene::OnRender'::`1'::__LINE__Var
PUBLIC	??_C@_08FDBNEJGE@uTexture@			; `string'
PUBLIC	??_C@_0EN@IGOIKAOF@l?3?2dev?2featherfallengine?2feathe@ ; `string'
PUBLIC	??_C@_0EI@LIJNNICP@glDrawElements?$CIGL_TRIANGLES?0?5ib@ ; `string'
PUBLIC	??_C@_0O@JGCBCHIF@Texture?5Test?$CB@		; `string'
PUBLIC	??_C@_0BD@OLBABOEK@vector?$DMT?$DO?5too?5long@	; `string'
PUBLIC	??_C@_0BA@JFNIOLAK@string?5too?5long@		; `string'
PUBLIC	??_C@_1EO@GFNCMDLA@?$AAs?$AAt?$AAd?$AA?3?$AA?3?$AA_?$AAA?$AAl?$AAl?$AAo?$AAc?$AAa?$AAt?$AAe?$AA_@ ; `string'
PUBLIC	??_R4TextureTestScene@Scene@Application@@6B@	; Application::Scene::TextureTestScene::`RTTI Complete Object Locator'
PUBLIC	??_R0?AVTextureTestScene@Scene@Application@@@8	; Application::Scene::TextureTestScene `RTTI Type Descriptor'
PUBLIC	??_R3TextureTestScene@Scene@Application@@8	; Application::Scene::TextureTestScene::`RTTI Class Hierarchy Descriptor'
PUBLIC	??_R2TextureTestScene@Scene@Application@@8	; Application::Scene::TextureTestScene::`RTTI Base Class Array'
PUBLIC	??_R1A@?0A@EA@TextureTestScene@Scene@Application@@8 ; Application::Scene::TextureTestScene::`RTTI Base Class Descriptor at (0,-1,0,64)'
PUBLIC	??_R1A@?0A@EA@Scene@0Application@@8		; Application::Scene::Scene::`RTTI Base Class Descriptor at (0,-1,0,64)'
PUBLIC	??_R0?AVScene@0Application@@@8			; Application::Scene::Scene `RTTI Type Descriptor'
PUBLIC	??_R3Scene@0Application@@8			; Application::Scene::Scene::`RTTI Class Hierarchy Descriptor'
PUBLIC	??_R2Scene@0Application@@8			; Application::Scene::Scene::`RTTI Base Class Array'
PUBLIC	__real@3f000000
PUBLIC	__real@3f800000
PUBLIC	__real@bf000000
EXTRN	??2@YAPEAX_K@Z:PROC				; operator new
EXTRN	??3@YAXPEAX_K@Z:PROC				; operator delete
EXTRN	??0Scene@0Application@@QEAA@XZ:PROC		; Application::Scene::Scene::Scene
EXTRN	??1Scene@0Application@@UEAA@XZ:PROC		; Application::Scene::Scene::~Scene
EXTRN	??0VBO@buffers@core@@QEAA@PEBXI_N@Z:PROC	; core::buffers::VBO::VBO
EXTRN	??1VBO@buffers@core@@QEAA@XZ:PROC		; core::buffers::VBO::~VBO
EXTRN	__imp__invalid_parameter:PROC
EXTRN	__imp__CrtDbgReport:PROC
EXTRN	__imp_??0_Lockit@std@@QEAA@H@Z:PROC
EXTRN	__imp_??1_Lockit@std@@QEAA@XZ:PROC
EXTRN	memcpy:PROC
EXTRN	memmove:PROC
EXTRN	strlen:PROC
EXTRN	?_Xlength_error@std@@YAXPEBD@Z:PROC		; std::_Xlength_error
EXTRN	__imp_glDrawElements:PROC
EXTRN	?GLLogError@@YA_NPEBD0H@Z:PROC			; GLLogError
EXTRN	?GLClearError@@YAXXZ:PROC			; GLClearError
EXTRN	??0VAO@buffers@core@@QEAA@XZ:PROC		; core::buffers::VAO::VAO
EXTRN	??1VAO@buffers@core@@QEAA@XZ:PROC		; core::buffers::VAO::~VAO
EXTRN	?bind@VAO@buffers@core@@QEBAXXZ:PROC		; core::buffers::VAO::bind
EXTRN	?addBuffer@VAO@buffers@core@@QEAAXAEBVVBO@23@AEBVBufferLayout@23@@Z:PROC ; core::buffers::VAO::addBuffer
EXTRN	??0IBO@buffers@core@@QEAA@PEBII_N@Z:PROC	; core::buffers::IBO::IBO
EXTRN	??1IBO@buffers@core@@QEAA@XZ:PROC		; core::buffers::IBO::~IBO
EXTRN	?bind@IBO@buffers@core@@QEBAXXZ:PROC		; core::buffers::IBO::bind
EXTRN	??0Shader@graphics@core@@QEAA@AEBV?$basic_string@DU?$char_traits@D@std@@V?$allocator@D@2@@std@@@Z:PROC ; core::graphics::Shader::Shader
EXTRN	??1Shader@graphics@core@@QEAA@XZ:PROC		; core::graphics::Shader::~Shader
EXTRN	?bind@Shader@graphics@core@@QEBAXXZ:PROC	; core::graphics::Shader::bind
EXTRN	?setUniform1i@Shader@graphics@core@@QEAAXPEBDH@Z:PROC ; core::graphics::Shader::setUniform1i
EXTRN	??0Texture@graphics@core@@QEAA@V?$basic_string@DU?$char_traits@D@std@@V?$allocator@D@2@@std@@@Z:PROC ; core::graphics::Texture::Texture
EXTRN	??1Texture@graphics@core@@QEAA@XZ:PROC		; core::graphics::Texture::~Texture
EXTRN	?bind@Texture@graphics@core@@QEBAXI@Z:PROC	; core::graphics::Texture::bind
EXTRN	??_ETextureTestScene@Scene@Application@@UEAAPEAXI@Z:PROC ; Application::Scene::TextureTestScene::`vector deleting destructor'
EXTRN	?Text@ImGui@@YAXPEBDZZ:PROC			; ImGui::Text
EXTRN	_CxxThrowException:PROC
EXTRN	_RTC_InitBase:PROC
EXTRN	_RTC_Shutdown:PROC
EXTRN	__CheckForDebuggerJustMyCode:PROC
EXTRN	__CxxFrameHandler3:PROC
EXTRN	__GSHandlerCheck:PROC
EXTRN	__GSHandlerCheck_EH:PROC
EXTRN	__security_check_cookie:PROC
EXTRN	??_7type_info@@6B@:BYTE				; type_info::`vftable'
EXTRN	__security_cookie:QWORD
EXTRN	_fltused:DWORD
;	COMDAT pdata
pdata	SEGMENT
$pdata$??_H@YAXPEAX_K1P6APEAX0@Z@Z DD imagerel $LN7
	DD	imagerel $LN7+111
	DD	imagerel $unwind$??_H@YAXPEAX_K1P6APEAX0@Z@Z
pdata	ENDS
;	COMDAT pdata
pdata	SEGMENT
$pdata$?__empty_global_delete@@YAXPEAX@Z DD imagerel $LN3
	DD	imagerel $LN3+33
	DD	imagerel $unwind$?__empty_global_delete@@YAXPEAX@Z
pdata	ENDS
;	COMDAT pdata
pdata	SEGMENT
$pdata$?__empty_global_delete@@YAXPEAX_K@Z DD imagerel $LN3
	DD	imagerel $LN3+38
	DD	imagerel $unwind$?__empty_global_delete@@YAXPEAX_K@Z
pdata	ENDS
;	COMDAT pdata
pdata	SEGMENT
$pdata$??_GVBO@buffers@core@@QEAAPEAXI@Z DD imagerel $LN4
	DD	imagerel $LN4+62
	DD	imagerel $unwind$??_GVBO@buffers@core@@QEAAPEAXI@Z
pdata	ENDS
;	COMDAT pdata
pdata	SEGMENT
$pdata$??2@YAPEAX_KPEAX@Z DD imagerel $LN3
	DD	imagerel $LN3+51
	DD	imagerel $unwind$??2@YAPEAX_KPEAX@Z
pdata	ENDS
;	COMDAT pdata
pdata	SEGMENT
$pdata$?max@?$numeric_limits@_J@std@@SA_JXZ DD imagerel $LN3
	DD	imagerel $LN3+48
	DD	imagerel $unwind$?max@?$numeric_limits@_J@std@@SA_JXZ
pdata	ENDS
;	COMDAT pdata
pdata	SEGMENT
$pdata$?length@?$char_traits@D@std@@SA_KQEBD@Z DD imagerel $LN3
	DD	imagerel $LN3+52
	DD	imagerel $unwind$?length@?$char_traits@D@std@@SA_KQEBD@Z
pdata	ENDS
;	COMDAT pdata
pdata	SEGMENT
$pdata$?copy@?$char_traits@D@std@@SAPEADQEADQEBD_K@Z DD imagerel $LN3
	DD	imagerel $LN3+70
	DD	imagerel $unwind$?copy@?$char_traits@D@std@@SAPEADQEADQEBD_K@Z
pdata	ENDS
;	COMDAT pdata
pdata	SEGMENT
$pdata$?move@?$char_traits@D@std@@SAPEADQEADQEBD_K@Z DD imagerel $LN3
	DD	imagerel $LN3+70
	DD	imagerel $unwind$?move@?$char_traits@D@std@@SAPEADQEADQEBD_K@Z
pdata	ENDS
;	COMDAT pdata
pdata	SEGMENT
$pdata$?assign@?$char_traits@D@std@@SAXAEADAEBD@Z DD imagerel $LN3
	DD	imagerel $LN3+60
	DD	imagerel $unwind$?assign@?$char_traits@D@std@@SAXAEADAEBD@Z
pdata	ENDS
;	COMDAT pdata
pdata	SEGMENT
$pdata$??0_Container_proxy@std@@QEAA@XZ DD imagerel $LN3
	DD	imagerel $LN3+69
	DD	imagerel $unwind$??0_Container_proxy@std@@QEAA@XZ
pdata	ENDS
;	COMDAT pdata
pdata	SEGMENT
$pdata$??0_Container_base12@std@@QEAA@XZ DD imagerel $LN3
	DD	imagerel $LN3+48
	DD	imagerel $unwind$??0_Container_base12@std@@QEAA@XZ
pdata	ENDS
;	COMDAT pdata
pdata	SEGMENT
$pdata$?_Getpfirst@_Container_base12@std@@QEBAPEAPEAU_Iterator_base12@2@XZ DD imagerel $LN5
	DD	imagerel $LN5+81
	DD	imagerel $unwind$?_Getpfirst@_Container_base12@std@@QEBAPEAPEAU_Iterator_base12@2@XZ
pdata	ENDS
;	COMDAT pdata
pdata	SEGMENT
$pdata$?_Orphan_all@_Container_base12@std@@QEAAXXZ DD imagerel $LN7
	DD	imagerel $LN7+185
	DD	imagerel $unwind$?_Orphan_all@_Container_base12@std@@QEAAXXZ
pdata	ENDS
;	COMDAT pdata
pdata	SEGMENT
$pdata$?_Clrcont@_Iterator_base12@std@@QEAAXXZ DD imagerel $LN3
	DD	imagerel $LN3+53
	DD	imagerel $unwind$?_Clrcont@_Iterator_base12@std@@QEAAXXZ
pdata	ENDS
;	COMDAT pdata
pdata	SEGMENT
$pdata$?_Getpnext@_Iterator_base12@std@@QEAAPEAPEAU12@XZ DD imagerel $LN3
	DD	imagerel $LN3+50
	DD	imagerel $unwind$?_Getpnext@_Iterator_base12@std@@QEAAPEAPEAU12@XZ
pdata	ENDS
;	COMDAT pdata
pdata	SEGMENT
$pdata$??$_Get_size_of_n@$00@std@@YA_K_K@Z DD imagerel $LN3
	DD	imagerel $LN3+37
	DD	imagerel $unwind$??$_Get_size_of_n@$00@std@@YA_K_K@Z
pdata	ENDS
;	COMDAT pdata
pdata	SEGMENT
$pdata$?_Allocate@_Default_allocate_traits@std@@SAPEAX_K@Z DD imagerel $LN3
	DD	imagerel $LN3+42
	DD	imagerel $unwind$?_Allocate@_Default_allocate_traits@std@@SAPEAX_K@Z
pdata	ENDS
;	COMDAT pdata
pdata	SEGMENT
$pdata$?_Adjust_manually_vector_aligned@std@@YAXAEAPEAXAEA_K@Z DD imagerel $LN21
	DD	imagerel $LN21+433
	DD	imagerel $unwind$?_Adjust_manually_vector_aligned@std@@YAXAEAPEAXAEA_K@Z
pdata	ENDS
;	COMDAT pdata
pdata	SEGMENT
$pdata$??$_Convert_size@_K@std@@YA_K_K@Z DD imagerel $LN3
	DD	imagerel $LN3+37
	DD	imagerel $unwind$??$_Convert_size@_K@std@@YA_K_K@Z
pdata	ENDS
;	COMDAT pdata
pdata	SEGMENT
$pdata$??$_Min_value@_K@std@@YAAEB_KAEB_K0@Z DD imagerel $LN5
	DD	imagerel $LN5+96
	DD	imagerel $unwind$??$_Min_value@_K@std@@YAAEB_KAEB_K0@Z
pdata	ENDS
;	COMDAT pdata
pdata	SEGMENT
$pdata$??0?$allocator@D@std@@QEAA@XZ DD imagerel $LN3
	DD	imagerel $LN3+46
	DD	imagerel $unwind$??0?$allocator@D@std@@QEAA@XZ
pdata	ENDS
;	COMDAT pdata
pdata	SEGMENT
$pdata$?deallocate@?$allocator@D@std@@QEAAXQEAD_K@Z DD imagerel $LN3
	DD	imagerel $LN3+56
	DD	imagerel $unwind$?deallocate@?$allocator@D@std@@QEAAXQEAD_K@Z
pdata	ENDS
;	COMDAT pdata
pdata	SEGMENT
$pdata$?allocate@?$allocator@D@std@@QEAAPEAD_K@Z DD imagerel $LN3
	DD	imagerel $LN3+55
	DD	imagerel $unwind$?allocate@?$allocator@D@std@@QEAAPEAD_K@Z
pdata	ENDS
;	COMDAT pdata
pdata	SEGMENT
$pdata$?max_size@?$_Default_allocator_traits@V?$allocator@D@std@@@std@@SA_KAEBV?$allocator@D@2@@Z DD imagerel $LN3
	DD	imagerel $LN3+49
	DD	imagerel $unwind$?max_size@?$_Default_allocator_traits@V?$allocator@D@std@@@std@@SA_KAEBV?$allocator@D@2@@Z
pdata	ENDS
;	COMDAT pdata
pdata	SEGMENT
$pdata$??0?$_String_val@U?$_Simple_types@D@std@@@std@@QEAA@XZ DD imagerel $LN4
	DD	imagerel $LN4+86
	DD	imagerel $unwind$??0?$_String_val@U?$_Simple_types@D@std@@@std@@QEAA@XZ
pdata	ENDS
;	COMDAT pdata
pdata	SEGMENT
$pdata$?_Myptr@?$_String_val@U?$_Simple_types@D@std@@@std@@QEAAPEADXZ DD imagerel $LN4
	DD	imagerel $LN4+82
	DD	imagerel $unwind$?_Myptr@?$_String_val@U?$_Simple_types@D@std@@@std@@QEAAPEADXZ
pdata	ENDS
;	COMDAT pdata
pdata	SEGMENT
$pdata$?_Large_string_engaged@?$_String_val@U?$_Simple_types@D@std@@@std@@QEBA_NXZ DD imagerel $LN5
	DD	imagerel $LN5+64
	DD	imagerel $unwind$?_Large_string_engaged@?$_String_val@U?$_Simple_types@D@std@@@std@@QEBA_NXZ
pdata	ENDS
;	COMDAT pdata
pdata	SEGMENT
$pdata$??0_Bxty@?$_String_val@U?$_Simple_types@D@std@@@std@@QEAA@XZ DD imagerel $LN3
	DD	imagerel $LN3+37
	DD	imagerel $unwind$??0_Bxty@?$_String_val@U?$_Simple_types@D@std@@@std@@QEAA@XZ
pdata	ENDS
;	COMDAT pdata
pdata	SEGMENT
$pdata$??1_Bxty@?$_String_val@U?$_Simple_types@D@std@@@std@@QEAA@XZ DD imagerel $LN3
	DD	imagerel $LN3+42
	DD	imagerel $unwind$??1_Bxty@?$_String_val@U?$_Simple_types@D@std@@@std@@QEAA@XZ
pdata	ENDS
;	COMDAT pdata
pdata	SEGMENT
$pdata$??1?$_String_val@U?$_Simple_types@D@std@@@std@@QEAA@XZ DD imagerel $LN3
	DD	imagerel $LN3+37
	DD	imagerel $unwind$??1?$_String_val@U?$_Simple_types@D@std@@@std@@QEAA@XZ
pdata	ENDS
;	COMDAT pdata
pdata	SEGMENT
$pdata$??0?$_String_alloc@U?$_String_base_types@DV?$allocator@D@std@@@std@@@std@@QEAA@XZ DD imagerel $LN4
	DD	imagerel $LN4+72
	DD	imagerel $unwind$??0?$_String_alloc@U?$_String_base_types@DV?$allocator@D@std@@@std@@@std@@QEAA@XZ
pdata	ENDS
;	COMDAT pdata
pdata	SEGMENT
$pdata$?dtor$0@?0???0?$_String_alloc@U?$_String_base_types@DV?$allocator@D@std@@@std@@@std@@QEAA@XZ@4HA DD imagerel ?dtor$0@?0???0?$_String_alloc@U?$_String_base_types@DV?$allocator@D@std@@@std@@@std@@QEAA@XZ@4HA
	DD	imagerel ?dtor$0@?0???0?$_String_alloc@U?$_String_base_types@DV?$allocator@D@std@@@std@@@std@@QEAA@XZ@4HA+25
	DD	imagerel $unwind$?dtor$0@?0???0?$_String_alloc@U?$_String_base_types@DV?$allocator@D@std@@@std@@@std@@QEAA@XZ@4HA
pdata	ENDS
;	COMDAT pdata
pdata	SEGMENT
$pdata$??1?$_String_alloc@U?$_String_base_types@DV?$allocator@D@std@@@std@@@std@@QEAA@XZ DD imagerel $LN3
	DD	imagerel $LN3+65
	DD	imagerel $unwind$??1?$_String_alloc@U?$_String_base_types@DV?$allocator@D@std@@@std@@@std@@QEAA@XZ
pdata	ENDS
;	COMDAT pdata
pdata	SEGMENT
$pdata$?_Alloc_proxy@?$_String_alloc@U?$_String_base_types@DV?$allocator@D@std@@@std@@@std@@QEAAXXZ DD imagerel $LN3
	DD	imagerel $LN3+221
	DD	imagerel $unwind$?_Alloc_proxy@?$_String_alloc@U?$_String_base_types@DV?$allocator@D@std@@@std@@@std@@QEAAXXZ
pdata	ENDS
;	COMDAT pdata
pdata	SEGMENT
$pdata$?_Free_proxy@?$_String_alloc@U?$_String_base_types@DV?$allocator@D@std@@@std@@@std@@QEAAXXZ DD imagerel $LN3
	DD	imagerel $LN3+147
	DD	imagerel $unwind$?_Free_proxy@?$_String_alloc@U?$_String_base_types@DV?$allocator@D@std@@@std@@@std@@QEAAXXZ
pdata	ENDS
;	COMDAT pdata
pdata	SEGMENT
$pdata$?_Myproxy@?$_String_alloc@U?$_String_base_types@DV?$allocator@D@std@@@std@@@std@@QEAAAEAPEAU_Container_proxy@2@XZ DD imagerel $LN3
	DD	imagerel $LN3+52
	DD	imagerel $unwind$?_Myproxy@?$_String_alloc@U?$_String_base_types@DV?$allocator@D@std@@@std@@@std@@QEAAAEAPEAU_Container_proxy@2@XZ
pdata	ENDS
;	COMDAT pdata
pdata	SEGMENT
$pdata$?_Orphan_all@?$_String_alloc@U?$_String_base_types@DV?$allocator@D@std@@@std@@@std@@QEAAXXZ DD imagerel $LN3
	DD	imagerel $LN3+50
	DD	imagerel $unwind$?_Orphan_all@?$_String_alloc@U?$_String_base_types@DV?$allocator@D@std@@@std@@@std@@QEAAXXZ
pdata	ENDS
;	COMDAT pdata
pdata	SEGMENT
$pdata$?_Getal@?$_String_alloc@U?$_String_base_types@DV?$allocator@D@std@@@std@@@std@@QEAAAEAV?$allocator@D@2@XZ DD imagerel $LN3
	DD	imagerel $LN3+55
	DD	imagerel $unwind$?_Getal@?$_String_alloc@U?$_String_base_types@DV?$allocator@D@std@@@std@@@std@@QEAAAEAV?$allocator@D@2@XZ
pdata	ENDS
;	COMDAT pdata
pdata	SEGMENT
$pdata$?_Getal@?$_String_alloc@U?$_String_base_types@DV?$allocator@D@std@@@std@@@std@@QEBAAEBV?$allocator@D@2@XZ DD imagerel $LN3
	DD	imagerel $LN3+55
	DD	imagerel $unwind$?_Getal@?$_String_alloc@U?$_String_base_types@DV?$allocator@D@std@@@std@@@std@@QEBAAEBV?$allocator@D@2@XZ
pdata	ENDS
;	COMDAT pdata
pdata	SEGMENT
$pdata$?_Get_data@?$_String_alloc@U?$_String_base_types@DV?$allocator@D@std@@@std@@@std@@QEAAAEAV?$_String_val@U?$_Simple_types@D@std@@@2@XZ DD imagerel $LN3
	DD	imagerel $LN3+55
	DD	imagerel $unwind$?_Get_data@?$_String_alloc@U?$_String_base_types@DV?$allocator@D@std@@@std@@@std@@QEAAAEAV?$_String_val@U?$_Simple_types@D@std@@@2@XZ
pdata	ENDS
;	COMDAT pdata
pdata	SEGMENT
$pdata$?_Get_data@?$_String_alloc@U?$_String_base_types@DV?$allocator@D@std@@@std@@@std@@QEBAAEBV?$_String_val@U?$_Simple_types@D@std@@@2@XZ DD imagerel $LN3
	DD	imagerel $LN3+55
	DD	imagerel $unwind$?_Get_data@?$_String_alloc@U?$_String_base_types@DV?$allocator@D@std@@@std@@@std@@QEBAAEBV?$_String_val@U?$_Simple_types@D@std@@@2@XZ
pdata	ENDS
;	COMDAT pdata
pdata	SEGMENT
$pdata$?_Get_first@?$_Compressed_pair@V?$allocator@D@std@@V?$_String_val@U?$_Simple_types@D@std@@@2@$00@std@@QEAAAEAV?$allocator@D@2@XZ DD imagerel $LN3
	DD	imagerel $LN3+46
	DD	imagerel $unwind$?_Get_first@?$_Compressed_pair@V?$allocator@D@std@@V?$_String_val@U?$_Simple_types@D@std@@@2@$00@std@@QEAAAEAV?$allocator@D@2@XZ
pdata	ENDS
;	COMDAT pdata
pdata	SEGMENT
$pdata$?_Get_first@?$_Compressed_pair@V?$allocator@D@std@@V?$_String_val@U?$_Simple_types@D@std@@@2@$00@std@@QEBAAEBV?$allocator@D@2@XZ DD imagerel $LN3
	DD	imagerel $LN3+46
	DD	imagerel $unwind$?_Get_first@?$_Compressed_pair@V?$allocator@D@std@@V?$_String_val@U?$_Simple_types@D@std@@@2@$00@std@@QEBAAEBV?$allocator@D@2@XZ
pdata	ENDS
;	COMDAT pdata
pdata	SEGMENT
$pdata$?_Get_second@?$_Compressed_pair@V?$allocator@D@std@@V?$_String_val@U?$_Simple_types@D@std@@@2@$00@std@@QEAAAEAV?$_String_val@U?$_Simple_types@D@std@@@2@XZ DD imagerel $LN3
	DD	imagerel $LN3+46
	DD	imagerel $unwind$?_Get_second@?$_Compressed_pair@V?$allocator@D@std@@V?$_String_val@U?$_Simple_types@D@std@@@2@$00@std@@QEAAAEAV?$_String_val@U?$_Simple_types@D@std@@@2@XZ
pdata	ENDS
;	COMDAT pdata
pdata	SEGMENT
$pdata$?_Get_second@?$_Compressed_pair@V?$allocator@D@std@@V?$_String_val@U?$_Simple_types@D@std@@@2@$00@std@@QEBAAEBV?$_String_val@U?$_Simple_types@D@std@@@2@XZ DD imagerel $LN3
	DD	imagerel $LN3+46
	DD	imagerel $unwind$?_Get_second@?$_Compressed_pair@V?$allocator@D@std@@V?$_String_val@U?$_Simple_types@D@std@@@2@$00@std@@QEBAAEBV?$_String_val@U?$_Simple_types@D@std@@@2@XZ
pdata	ENDS
;	COMDAT pdata
pdata	SEGMENT
$pdata$??1?$_Compressed_pair@V?$allocator@D@std@@V?$_String_val@U?$_Simple_types@D@std@@@2@$00@std@@QEAA@XZ DD imagerel $LN3
	DD	imagerel $LN3+33
	DD	imagerel $unwind$??1?$_Compressed_pair@V?$allocator@D@std@@V?$_String_val@U?$_Simple_types@D@std@@@2@$00@std@@QEAA@XZ
pdata	ENDS
;	COMDAT pdata
pdata	SEGMENT
$pdata$??0?$basic_string@DU?$char_traits@D@std@@V?$allocator@D@2@@std@@QEAA@QEBD@Z DD imagerel $LN4
	DD	imagerel $LN4+83
	DD	imagerel $unwind$??0?$basic_string@DU?$char_traits@D@std@@V?$allocator@D@2@@std@@QEAA@QEBD@Z
pdata	ENDS
;	COMDAT pdata
pdata	SEGMENT
$pdata$?dtor$0@?0???0?$basic_string@DU?$char_traits@D@std@@V?$allocator@D@2@@std@@QEAA@QEBD@Z@4HA DD imagerel ?dtor$0@?0???0?$basic_string@DU?$char_traits@D@std@@V?$allocator@D@2@@std@@QEAA@QEBD@Z@4HA
	DD	imagerel ?dtor$0@?0???0?$basic_string@DU?$char_traits@D@std@@V?$allocator@D@2@@std@@QEAA@QEBD@Z@4HA+25
	DD	imagerel $unwind$?dtor$0@?0???0?$basic_string@DU?$char_traits@D@std@@V?$allocator@D@2@@std@@QEAA@QEBD@Z@4HA
pdata	ENDS
;	COMDAT pdata
pdata	SEGMENT
$pdata$??1?$basic_string@DU?$char_traits@D@std@@V?$allocator@D@2@@std@@QEAA@XZ DD imagerel $LN3
	DD	imagerel $LN3+62
	DD	imagerel $unwind$??1?$basic_string@DU?$char_traits@D@std@@V?$allocator@D@2@@std@@QEAA@XZ
pdata	ENDS
;	COMDAT pdata
pdata	SEGMENT
$pdata$?assign@?$basic_string@DU?$char_traits@D@std@@V?$allocator@D@2@@std@@QEAAAEAV12@QEBD_K@Z DD imagerel $LN4
	DD	imagerel $LN4+221
	DD	imagerel $unwind$?assign@?$basic_string@DU?$char_traits@D@std@@V?$allocator@D@2@@std@@QEAAAEAV12@QEBD_K@Z
pdata	ENDS
;	COMDAT pdata
pdata	SEGMENT
$pdata$?assign@?$basic_string@DU?$char_traits@D@std@@V?$allocator@D@2@@std@@QEAAAEAV12@QEBD@Z DD imagerel $LN3
	DD	imagerel $LN3+71
	DD	imagerel $unwind$?assign@?$basic_string@DU?$char_traits@D@std@@V?$allocator@D@2@@std@@QEAAAEAV12@QEBD@Z
pdata	ENDS
;	COMDAT pdata
pdata	SEGMENT
$pdata$?max_size@?$basic_string@DU?$char_traits@D@std@@V?$allocator@D@2@@std@@QEBA_KXZ DD imagerel $LN3
	DD	imagerel $LN3+168
	DD	imagerel $unwind$?max_size@?$basic_string@DU?$char_traits@D@std@@V?$allocator@D@2@@std@@QEBA_KXZ
pdata	ENDS
;	COMDAT pdata
pdata	SEGMENT
$pdata$?_Calculate_growth@?$basic_string@DU?$char_traits@D@std@@V?$allocator@D@2@@std@@QEBA_K_K@Z DD imagerel $LN5
	DD	imagerel $LN5+222
	DD	imagerel $unwind$?_Calculate_growth@?$basic_string@DU?$char_traits@D@std@@V?$allocator@D@2@@std@@QEBA_K_K@Z
pdata	ENDS
;	COMDAT pdata
pdata	SEGMENT
$pdata$?_Tidy_init@?$basic_string@DU?$char_traits@D@std@@V?$allocator@D@2@@std@@QEAAXXZ DD imagerel $LN3
	DD	imagerel $LN3+104
	DD	imagerel $unwind$?_Tidy_init@?$basic_string@DU?$char_traits@D@std@@V?$allocator@D@2@@std@@QEAAXXZ
pdata	ENDS
;	COMDAT pdata
pdata	SEGMENT
$pdata$?_Tidy_deallocate@?$basic_string@DU?$char_traits@D@std@@V?$allocator@D@2@@std@@QEAAXXZ DD imagerel $LN4
	DD	imagerel $LN4+212
	DD	imagerel $unwind$?_Tidy_deallocate@?$basic_string@DU?$char_traits@D@std@@V?$allocator@D@2@@std@@QEAAXXZ
pdata	ENDS
;	COMDAT pdata
pdata	SEGMENT
$pdata$?_Xlen@?$basic_string@DU?$char_traits@D@std@@V?$allocator@D@2@@std@@SAXXZ DD imagerel $LN3
	DD	imagerel $LN3+41
	DD	imagerel $unwind$?_Xlen@?$basic_string@DU?$char_traits@D@std@@V?$allocator@D@2@@std@@SAXXZ
pdata	ENDS
;	COMDAT pdata
pdata	SEGMENT
$pdata$?SizeOfType@BufferElement@buffers@core@@SAII@Z DD imagerel $LN9
	DD	imagerel $LN9+98
	DD	imagerel $unwind$?SizeOfType@BufferElement@buffers@core@@SAII@Z
pdata	ENDS
;	COMDAT pdata
pdata	SEGMENT
$pdata$??0?$allocator@UBufferElement@buffers@core@@@std@@QEAA@XZ DD imagerel $LN3
	DD	imagerel $LN3+46
	DD	imagerel $unwind$??0?$allocator@UBufferElement@buffers@core@@@std@@QEAA@XZ
pdata	ENDS
;	COMDAT pdata
pdata	SEGMENT
$pdata$?deallocate@?$allocator@UBufferElement@buffers@core@@@std@@QEAAXQEAUBufferElement@buffers@core@@_K@Z DD imagerel $LN3
	DD	imagerel $LN3+60
	DD	imagerel $unwind$?deallocate@?$allocator@UBufferElement@buffers@core@@@std@@QEAAXQEAUBufferElement@buffers@core@@_K@Z
pdata	ENDS
;	COMDAT pdata
pdata	SEGMENT
$pdata$?allocate@?$allocator@UBufferElement@buffers@core@@@std@@QEAAPEAUBufferElement@buffers@core@@_K@Z DD imagerel $LN3
	DD	imagerel $LN3+55
	DD	imagerel $unwind$?allocate@?$allocator@UBufferElement@buffers@core@@@std@@QEAAPEAUBufferElement@buffers@core@@_K@Z
pdata	ENDS
;	COMDAT pdata
pdata	SEGMENT
$pdata$?max_size@?$_Default_allocator_traits@V?$allocator@UBufferElement@buffers@core@@@std@@@std@@SA_KAEBV?$allocator@UBufferElement@buffers@core@@@2@@Z DD imagerel $LN3
	DD	imagerel $LN3+52
	DD	imagerel $unwind$?max_size@?$_Default_allocator_traits@V?$allocator@UBufferElement@buffers@core@@@std@@@std@@SA_KAEBV?$allocator@UBufferElement@buffers@core@@@2@@Z
pdata	ENDS
;	COMDAT pdata
pdata	SEGMENT
$pdata$??0?$_Vector_alloc@U?$_Vec_base_types@UBufferElement@buffers@core@@V?$allocator@UBufferElement@buffers@core@@@std@@@std@@@std@@QEAA@XZ DD imagerel $LN3
	DD	imagerel $LN3+62
	DD	imagerel $unwind$??0?$_Vector_alloc@U?$_Vec_base_types@UBufferElement@buffers@core@@V?$allocator@UBufferElement@buffers@core@@@std@@@std@@@std@@QEAA@XZ
pdata	ENDS
;	COMDAT pdata
pdata	SEGMENT
$pdata$??1?$_Vector_alloc@U?$_Vec_base_types@UBufferElement@buffers@core@@V?$allocator@UBufferElement@buffers@core@@@std@@@std@@@std@@QEAA@XZ DD imagerel $LN3
	DD	imagerel $LN3+52
	DD	imagerel $unwind$??1?$_Vector_alloc@U?$_Vec_base_types@UBufferElement@buffers@core@@V?$allocator@UBufferElement@buffers@core@@@std@@@std@@@std@@QEAA@XZ
pdata	ENDS
;	COMDAT pdata
pdata	SEGMENT
$pdata$?_Alloc_proxy@?$_Vector_alloc@U?$_Vec_base_types@UBufferElement@buffers@core@@V?$allocator@UBufferElement@buffers@core@@@std@@@std@@@std@@QEAAXXZ DD imagerel $LN3
	DD	imagerel $LN3+221
	DD	imagerel $unwind$?_Alloc_proxy@?$_Vector_alloc@U?$_Vec_base_types@UBufferElement@buffers@core@@V?$allocator@UBufferElement@buffers@core@@@std@@@std@@@std@@QEAAXXZ
pdata	ENDS
;	COMDAT pdata
pdata	SEGMENT
$pdata$?_Free_proxy@?$_Vector_alloc@U?$_Vec_base_types@UBufferElement@buffers@core@@V?$allocator@UBufferElement@buffers@core@@@std@@@std@@@std@@QEAAXXZ DD imagerel $LN3
	DD	imagerel $LN3+147
	DD	imagerel $unwind$?_Free_proxy@?$_Vector_alloc@U?$_Vec_base_types@UBufferElement@buffers@core@@V?$allocator@UBufferElement@buffers@core@@@std@@@std@@@std@@QEAAXXZ
pdata	ENDS
;	COMDAT pdata
pdata	SEGMENT
$pdata$?_Getpfirst@?$_Vector_alloc@U?$_Vec_base_types@UBufferElement@buffers@core@@V?$allocator@UBufferElement@buffers@core@@@std@@@std@@@std@@QEBAPEAPEAU_Iterator_base12@2@XZ DD imagerel $LN3
	DD	imagerel $LN3+50
	DD	imagerel $unwind$?_Getpfirst@?$_Vector_alloc@U?$_Vec_base_types@UBufferElement@buffers@core@@V?$allocator@UBufferElement@buffers@core@@@std@@@std@@@std@@QEBAPEAPEAU_Iterator_base12@2@XZ
pdata	ENDS
;	COMDAT pdata
pdata	SEGMENT
$pdata$?_Myproxy@?$_Vector_alloc@U?$_Vec_base_types@UBufferElement@buffers@core@@V?$allocator@UBufferElement@buffers@core@@@std@@@std@@@std@@QEAAAEAPEAU_Container_proxy@2@XZ DD imagerel $LN3
	DD	imagerel $LN3+52
	DD	imagerel $unwind$?_Myproxy@?$_Vector_alloc@U?$_Vec_base_types@UBufferElement@buffers@core@@V?$allocator@UBufferElement@buffers@core@@@std@@@std@@@std@@QEAAAEAPEAU_Container_proxy@2@XZ
pdata	ENDS
;	COMDAT pdata
pdata	SEGMENT
$pdata$?_Orphan_all@?$_Vector_alloc@U?$_Vec_base_types@UBufferElement@buffers@core@@V?$allocator@UBufferElement@buffers@core@@@std@@@std@@@std@@QEAAXXZ DD imagerel $LN3
	DD	imagerel $LN3+50
	DD	imagerel $unwind$?_Orphan_all@?$_Vector_alloc@U?$_Vec_base_types@UBufferElement@buffers@core@@V?$allocator@UBufferElement@buffers@core@@@std@@@std@@@std@@QEAAXXZ
pdata	ENDS
;	COMDAT pdata
pdata	SEGMENT
$pdata$?_Getal@?$_Vector_alloc@U?$_Vec_base_types@UBufferElement@buffers@core@@V?$allocator@UBufferElement@buffers@core@@@std@@@std@@@std@@QEAAAEAV?$allocator@UBufferElement@buffers@core@@@2@XZ DD imagerel $LN3
	DD	imagerel $LN3+55
	DD	imagerel $unwind$?_Getal@?$_Vector_alloc@U?$_Vec_base_types@UBufferElement@buffers@core@@V?$allocator@UBufferElement@buffers@core@@@std@@@std@@@std@@QEAAAEAV?$allocator@UBufferElement@buffers@core@@@2@XZ
pdata	ENDS
;	COMDAT pdata
pdata	SEGMENT
$pdata$?_Getal@?$_Vector_alloc@U?$_Vec_base_types@UBufferElement@buffers@core@@V?$allocator@UBufferElement@buffers@core@@@std@@@std@@@std@@QEBAAEBV?$allocator@UBufferElement@buffers@core@@@2@XZ DD imagerel $LN3
	DD	imagerel $LN3+55
	DD	imagerel $unwind$?_Getal@?$_Vector_alloc@U?$_Vec_base_types@UBufferElement@buffers@core@@V?$allocator@UBufferElement@buffers@core@@@std@@@std@@@std@@QEBAAEBV?$allocator@UBufferElement@buffers@core@@@2@XZ
pdata	ENDS
;	COMDAT pdata
pdata	SEGMENT
$pdata$?_Get_data@?$_Vector_alloc@U?$_Vec_base_types@UBufferElement@buffers@core@@V?$allocator@UBufferElement@buffers@core@@@std@@@std@@@std@@QEAAAEAV?$_Vector_val@U?$_Simple_types@UBufferElement@buffers@core@@@std@@@2@XZ DD imagerel $LN3
	DD	imagerel $LN3+55
	DD	imagerel $unwind$?_Get_data@?$_Vector_alloc@U?$_Vec_base_types@UBufferElement@buffers@core@@V?$allocator@UBufferElement@buffers@core@@@std@@@std@@@std@@QEAAAEAV?$_Vector_val@U?$_Simple_types@UBufferElement@buffers@core@@@std@@@2@XZ
pdata	ENDS
;	COMDAT pdata
pdata	SEGMENT
$pdata$?_Get_data@?$_Vector_alloc@U?$_Vec_base_types@UBufferElement@buffers@core@@V?$allocator@UBufferElement@buffers@core@@@std@@@std@@@std@@QEBAAEBV?$_Vector_val@U?$_Simple_types@UBufferElement@buffers@core@@@std@@@2@XZ DD imagerel $LN3
	DD	imagerel $LN3+55
	DD	imagerel $unwind$?_Get_data@?$_Vector_alloc@U?$_Vec_base_types@UBufferElement@buffers@core@@V?$allocator@UBufferElement@buffers@core@@@std@@@std@@@std@@QEBAAEBV?$_Vector_val@U?$_Simple_types@UBufferElement@buffers@core@@@std@@@2@XZ
pdata	ENDS
;	COMDAT pdata
pdata	SEGMENT
$pdata$?_Myfirst@?$_Vector_alloc@U?$_Vec_base_types@UBufferElement@buffers@core@@V?$allocator@UBufferElement@buffers@core@@@std@@@std@@@std@@QEAAAEAPEAUBufferElement@buffers@core@@XZ DD imagerel $LN3
	DD	imagerel $LN3+56
	DD	imagerel $unwind$?_Myfirst@?$_Vector_alloc@U?$_Vec_base_types@UBufferElement@buffers@core@@V?$allocator@UBufferElement@buffers@core@@@std@@@std@@@std@@QEAAAEAPEAUBufferElement@buffers@core@@XZ
pdata	ENDS
;	COMDAT pdata
pdata	SEGMENT
$pdata$?_Myfirst@?$_Vector_alloc@U?$_Vec_base_types@UBufferElement@buffers@core@@V?$allocator@UBufferElement@buffers@core@@@std@@@std@@@std@@QEBAAEBQEAUBufferElement@buffers@core@@XZ DD imagerel $LN3
	DD	imagerel $LN3+56
	DD	imagerel $unwind$?_Myfirst@?$_Vector_alloc@U?$_Vec_base_types@UBufferElement@buffers@core@@V?$allocator@UBufferElement@buffers@core@@@std@@@std@@@std@@QEBAAEBQEAUBufferElement@buffers@core@@XZ
pdata	ENDS
;	COMDAT pdata
pdata	SEGMENT
$pdata$?_Mylast@?$_Vector_alloc@U?$_Vec_base_types@UBufferElement@buffers@core@@V?$allocator@UBufferElement@buffers@core@@@std@@@std@@@std@@QEAAAEAPEAUBufferElement@buffers@core@@XZ DD imagerel $LN3
	DD	imagerel $LN3+56
	DD	imagerel $unwind$?_Mylast@?$_Vector_alloc@U?$_Vec_base_types@UBufferElement@buffers@core@@V?$allocator@UBufferElement@buffers@core@@@std@@@std@@@std@@QEAAAEAPEAUBufferElement@buffers@core@@XZ
pdata	ENDS
;	COMDAT pdata
pdata	SEGMENT
$pdata$?_Mylast@?$_Vector_alloc@U?$_Vec_base_types@UBufferElement@buffers@core@@V?$allocator@UBufferElement@buffers@core@@@std@@@std@@@std@@QEBAAEBQEAUBufferElement@buffers@core@@XZ DD imagerel $LN3
	DD	imagerel $LN3+56
	DD	imagerel $unwind$?_Mylast@?$_Vector_alloc@U?$_Vec_base_types@UBufferElement@buffers@core@@V?$allocator@UBufferElement@buffers@core@@@std@@@std@@@std@@QEBAAEBQEAUBufferElement@buffers@core@@XZ
pdata	ENDS
;	COMDAT pdata
pdata	SEGMENT
$pdata$?_Myend@?$_Vector_alloc@U?$_Vec_base_types@UBufferElement@buffers@core@@V?$allocator@UBufferElement@buffers@core@@@std@@@std@@@std@@QEAAAEAPEAUBufferElement@buffers@core@@XZ DD imagerel $LN3
	DD	imagerel $LN3+56
	DD	imagerel $unwind$?_Myend@?$_Vector_alloc@U?$_Vec_base_types@UBufferElement@buffers@core@@V?$allocator@UBufferElement@buffers@core@@@std@@@std@@@std@@QEAAAEAPEAUBufferElement@buffers@core@@XZ
pdata	ENDS
;	COMDAT pdata
pdata	SEGMENT
$pdata$?_Myend@?$_Vector_alloc@U?$_Vec_base_types@UBufferElement@buffers@core@@V?$allocator@UBufferElement@buffers@core@@@std@@@std@@@std@@QEBAAEBQEAUBufferElement@buffers@core@@XZ DD imagerel $LN3
	DD	imagerel $LN3+56
	DD	imagerel $unwind$?_Myend@?$_Vector_alloc@U?$_Vec_base_types@UBufferElement@buffers@core@@V?$allocator@UBufferElement@buffers@core@@@std@@@std@@@std@@QEBAAEBQEAUBufferElement@buffers@core@@XZ
pdata	ENDS
;	COMDAT pdata
pdata	SEGMENT
$pdata$??0?$_Vector_val@U?$_Simple_types@UBufferElement@buffers@core@@@std@@@std@@QEAA@XZ DD imagerel $LN3
	DD	imagerel $LN3+82
	DD	imagerel $unwind$??0?$_Vector_val@U?$_Simple_types@UBufferElement@buffers@core@@@std@@@std@@QEAA@XZ
pdata	ENDS
;	COMDAT pdata
pdata	SEGMENT
$pdata$?_Get_first@?$_Compressed_pair@V?$allocator@UBufferElement@buffers@core@@@std@@V?$_Vector_val@U?$_Simple_types@UBufferElement@buffers@core@@@std@@@2@$00@std@@QEAAAEAV?$allocator@UBufferElement@buffers@core@@@2@XZ DD imagerel $LN3
	DD	imagerel $LN3+46
	DD	imagerel $unwind$?_Get_first@?$_Compressed_pair@V?$allocator@UBufferElement@buffers@core@@@std@@V?$_Vector_val@U?$_Simple_types@UBufferElement@buffers@core@@@std@@@2@$00@std@@QEAAAEAV?$allocator@UBufferElement@buffers@core@@@2@XZ
pdata	ENDS
;	COMDAT pdata
pdata	SEGMENT
$pdata$?_Get_first@?$_Compressed_pair@V?$allocator@UBufferElement@buffers@core@@@std@@V?$_Vector_val@U?$_Simple_types@UBufferElement@buffers@core@@@std@@@2@$00@std@@QEBAAEBV?$allocator@UBufferElement@buffers@core@@@2@XZ DD imagerel $LN3
	DD	imagerel $LN3+46
	DD	imagerel $unwind$?_Get_first@?$_Compressed_pair@V?$allocator@UBufferElement@buffers@core@@@std@@V?$_Vector_val@U?$_Simple_types@UBufferElement@buffers@core@@@std@@@2@$00@std@@QEBAAEBV?$allocator@UBufferElement@buffers@core@@@2@XZ
pdata	ENDS
;	COMDAT pdata
pdata	SEGMENT
$pdata$?_Get_second@?$_Compressed_pair@V?$allocator@UBufferElement@buffers@core@@@std@@V?$_Vector_val@U?$_Simple_types@UBufferElement@buffers@core@@@std@@@2@$00@std@@QEAAAEAV?$_Vector_val@U?$_Simple_types@UBufferElement@buffers@core@@@std@@@2@XZ DD imagerel $LN3
	DD	imagerel $LN3+46
	DD	imagerel $unwind$?_Get_second@?$_Compressed_pair@V?$allocator@UBufferElement@buffers@core@@@std@@V?$_Vector_val@U?$_Simple_types@UBufferElement@buffers@core@@@std@@@2@$00@std@@QEAAAEAV?$_Vector_val@U?$_Simple_types@UBufferElement@buffers@core@@@std@@@2@XZ
pdata	ENDS
;	COMDAT pdata
pdata	SEGMENT
$pdata$?_Get_second@?$_Compressed_pair@V?$allocator@UBufferElement@buffers@core@@@std@@V?$_Vector_val@U?$_Simple_types@UBufferElement@buffers@core@@@std@@@2@$00@std@@QEBAAEBV?$_Vector_val@U?$_Simple_types@UBufferElement@buffers@core@@@std@@@2@XZ DD imagerel $LN3
	DD	imagerel $LN3+46
	DD	imagerel $unwind$?_Get_second@?$_Compressed_pair@V?$allocator@UBufferElement@buffers@core@@@std@@V?$_Vector_val@U?$_Simple_types@UBufferElement@buffers@core@@@std@@@2@$00@std@@QEBAAEBV?$_Vector_val@U?$_Simple_types@UBufferElement@buffers@core@@@std@@@2@XZ
pdata	ENDS
;	COMDAT pdata
pdata	SEGMENT
$pdata$??0?$vector@UBufferElement@buffers@core@@V?$allocator@UBufferElement@buffers@core@@@std@@@std@@QEAA@XZ DD imagerel $LN3
	DD	imagerel $LN3+56
	DD	imagerel $unwind$??0?$vector@UBufferElement@buffers@core@@V?$allocator@UBufferElement@buffers@core@@@std@@@std@@QEAA@XZ
pdata	ENDS
;	COMDAT pdata
pdata	SEGMENT
$pdata$??1?$vector@UBufferElement@buffers@core@@V?$allocator@UBufferElement@buffers@core@@@std@@@std@@QEAA@XZ DD imagerel $LN3
	DD	imagerel $LN3+62
	DD	imagerel $unwind$??1?$vector@UBufferElement@buffers@core@@V?$allocator@UBufferElement@buffers@core@@@std@@@std@@QEAA@XZ
pdata	ENDS
;	COMDAT pdata
pdata	SEGMENT
$pdata$?push_back@?$vector@UBufferElement@buffers@core@@V?$allocator@UBufferElement@buffers@core@@@std@@@std@@QEAAX$$QEAUBufferElement@buffers@core@@@Z DD imagerel $LN3
	DD	imagerel $LN3+59
	DD	imagerel $unwind$?push_back@?$vector@UBufferElement@buffers@core@@V?$allocator@UBufferElement@buffers@core@@@std@@@std@@QEAAX$$QEAUBufferElement@buffers@core@@@Z
pdata	ENDS
;	COMDAT pdata
pdata	SEGMENT
$pdata$?size@?$vector@UBufferElement@buffers@core@@V?$allocator@UBufferElement@buffers@core@@@std@@@std@@QEBA_KXZ DD imagerel $LN3
	DD	imagerel $LN3+92
	DD	imagerel $unwind$?size@?$vector@UBufferElement@buffers@core@@V?$allocator@UBufferElement@buffers@core@@@std@@@std@@QEBA_KXZ
pdata	ENDS
;	COMDAT pdata
pdata	SEGMENT
$pdata$?max_size@?$vector@UBufferElement@buffers@core@@V?$allocator@UBufferElement@buffers@core@@@std@@@std@@QEBA_KXZ DD imagerel $LN3
	DD	imagerel $LN3+95
	DD	imagerel $unwind$?max_size@?$vector@UBufferElement@buffers@core@@V?$allocator@UBufferElement@buffers@core@@@std@@@std@@QEBA_KXZ
pdata	ENDS
;	COMDAT pdata
pdata	SEGMENT
$pdata$?capacity@?$vector@UBufferElement@buffers@core@@V?$allocator@UBufferElement@buffers@core@@@std@@@std@@QEBA_KXZ DD imagerel $LN3
	DD	imagerel $LN3+92
	DD	imagerel $unwind$?capacity@?$vector@UBufferElement@buffers@core@@V?$allocator@UBufferElement@buffers@core@@@std@@@std@@QEBA_KXZ
pdata	ENDS
;	COMDAT pdata
pdata	SEGMENT
$pdata$?_Has_unused_capacity@?$vector@UBufferElement@buffers@core@@V?$allocator@UBufferElement@buffers@core@@@std@@@std@@AEBA_NXZ DD imagerel $LN5
	DD	imagerel $LN5+101
	DD	imagerel $unwind$?_Has_unused_capacity@?$vector@UBufferElement@buffers@core@@V?$allocator@UBufferElement@buffers@core@@@std@@@std@@AEBA_NXZ
pdata	ENDS
;	COMDAT pdata
pdata	SEGMENT
$pdata$?_Umove@?$vector@UBufferElement@buffers@core@@V?$allocator@UBufferElement@buffers@core@@@std@@@std@@AEAAPEAUBufferElement@buffers@core@@PEAU345@00@Z DD imagerel $LN3
	DD	imagerel $LN3+77
	DD	imagerel $unwind$?_Umove@?$vector@UBufferElement@buffers@core@@V?$allocator@UBufferElement@buffers@core@@@std@@@std@@AEAAPEAUBufferElement@buffers@core@@PEAU345@00@Z
pdata	ENDS
;	COMDAT pdata
pdata	SEGMENT
$pdata$?_Umove_if_noexcept1@?$vector@UBufferElement@buffers@core@@V?$allocator@UBufferElement@buffers@core@@@std@@@std@@AEAAXPEAUBufferElement@buffers@core@@00U?$integral_constant@_N$00@2@@Z DD imagerel $LN3
	DD	imagerel $LN3+77
	DD	imagerel $unwind$?_Umove_if_noexcept1@?$vector@UBufferElement@buffers@core@@V?$allocator@UBufferElement@buffers@core@@@std@@@std@@AEAAXPEAUBufferElement@buffers@core@@00U?$integral_constant@_N$00@2@@Z
pdata	ENDS
;	COMDAT pdata
pdata	SEGMENT
$pdata$?_Umove_if_noexcept@?$vector@UBufferElement@buffers@core@@V?$allocator@UBufferElement@buffers@core@@@std@@@std@@AEAAXPEAUBufferElement@buffers@core@@00@Z DD imagerel $LN3
	DD	imagerel $LN3+104
	DD	imagerel $unwind$?_Umove_if_noexcept@?$vector@UBufferElement@buffers@core@@V?$allocator@UBufferElement@buffers@core@@@std@@@std@@AEAAXPEAUBufferElement@buffers@core@@00@Z
pdata	ENDS
;	COMDAT pdata
pdata	SEGMENT
$pdata$?_Destroy@?$vector@UBufferElement@buffers@core@@V?$allocator@UBufferElement@buffers@core@@@std@@@std@@AEAAXPEAUBufferElement@buffers@core@@0@Z DD imagerel $LN3
	DD	imagerel $LN3+68
	DD	imagerel $unwind$?_Destroy@?$vector@UBufferElement@buffers@core@@V?$allocator@UBufferElement@buffers@core@@@std@@@std@@AEAAXPEAUBufferElement@buffers@core@@0@Z
pdata	ENDS
;	COMDAT pdata
pdata	SEGMENT
$pdata$?_Calculate_growth@?$vector@UBufferElement@buffers@core@@V?$allocator@UBufferElement@buffers@core@@@std@@@std@@AEBA_K_K@Z DD imagerel $LN5
	DD	imagerel $LN5+151
	DD	imagerel $unwind$?_Calculate_growth@?$vector@UBufferElement@buffers@core@@V?$allocator@UBufferElement@buffers@core@@@std@@@std@@AEBA_K_K@Z
pdata	ENDS
;	COMDAT pdata
pdata	SEGMENT
$pdata$?_Change_array@?$vector@UBufferElement@buffers@core@@V?$allocator@UBufferElement@buffers@core@@@std@@@std@@AEAAXQEAUBufferElement@buffers@core@@_K1@Z DD imagerel $LN4
	DD	imagerel $LN4+256
	DD	imagerel $unwind$?_Change_array@?$vector@UBufferElement@buffers@core@@V?$allocator@UBufferElement@buffers@core@@@std@@@std@@AEAAXQEAUBufferElement@buffers@core@@_K1@Z
pdata	ENDS
;	COMDAT pdata
pdata	SEGMENT
$pdata$?_Tidy@?$vector@UBufferElement@buffers@core@@V?$allocator@UBufferElement@buffers@core@@@std@@@std@@AEAAXXZ DD imagerel $LN4
	DD	imagerel $LN4+207
	DD	imagerel $unwind$?_Tidy@?$vector@UBufferElement@buffers@core@@V?$allocator@UBufferElement@buffers@core@@@std@@@std@@AEAAXXZ
pdata	ENDS
;	COMDAT pdata
pdata	SEGMENT
$pdata$?_Xlength@?$vector@UBufferElement@buffers@core@@V?$allocator@UBufferElement@buffers@core@@@std@@@std@@CAXXZ DD imagerel $LN3
	DD	imagerel $LN3+41
	DD	imagerel $unwind$?_Xlength@?$vector@UBufferElement@buffers@core@@V?$allocator@UBufferElement@buffers@core@@@std@@@std@@CAXXZ
pdata	ENDS
;	COMDAT pdata
pdata	SEGMENT
$pdata$?_Orphan_range@?$vector@UBufferElement@buffers@core@@V?$allocator@UBufferElement@buffers@core@@@std@@@std@@AEBAXPEAUBufferElement@buffers@core@@0@Z DD imagerel $LN10
	DD	imagerel $LN10+227
	DD	imagerel $unwind$?_Orphan_range@?$vector@UBufferElement@buffers@core@@V?$allocator@UBufferElement@buffers@core@@@std@@@std@@AEBAXPEAUBufferElement@buffers@core@@0@Z
pdata	ENDS
;	COMDAT pdata
pdata	SEGMENT
$pdata$?dtor$0@?0??_Orphan_range@?$vector@UBufferElement@buffers@core@@V?$allocator@UBufferElement@buffers@core@@@std@@@std@@AEBAXPEAUBufferElement@buffers@core@@0@Z@4HA DD imagerel ?dtor$0@?0??_Orphan_range@?$vector@UBufferElement@buffers@core@@V?$allocator@UBufferElement@buffers@core@@@std@@@std@@AEBAXPEAUBufferElement@buffers@core@@0@Z@4HA
	DD	imagerel ?dtor$0@?0??_Orphan_range@?$vector@UBufferElement@buffers@core@@V?$allocator@UBufferElement@buffers@core@@@std@@@std@@AEBAXPEAUBufferElement@buffers@core@@0@Z@4HA+26
	DD	imagerel $unwind$?dtor$0@?0??_Orphan_range@?$vector@UBufferElement@buffers@core@@V?$allocator@UBufferElement@buffers@core@@@std@@@std@@AEBAXPEAUBufferElement@buffers@core@@0@Z@4HA
pdata	ENDS
;	COMDAT pdata
pdata	SEGMENT
$pdata$??0BufferLayout@buffers@core@@QEAA@XZ DD imagerel $LN4
	DD	imagerel $LN4+60
	DD	imagerel $unwind$??0BufferLayout@buffers@core@@QEAA@XZ
pdata	ENDS
;	COMDAT pdata
pdata	SEGMENT
$pdata$??$push@M@BufferLayout@buffers@core@@QEAAXI@Z DD imagerel $LN3
	DD	imagerel $LN3+105
	DD	imagerel $unwind$??$push@M@BufferLayout@buffers@core@@QEAAXI@Z
pdata	ENDS
;	COMDAT pdata
pdata	SEGMENT
$pdata$??1BufferLayout@buffers@core@@QEAA@XZ DD imagerel $LN3
	DD	imagerel $LN3+33
	DD	imagerel $unwind$??1BufferLayout@buffers@core@@QEAA@XZ
pdata	ENDS
;	COMDAT pdata
pdata	SEGMENT
$pdata$?__autoclassinit2@BufferLayout@buffers@core@@QEAAX_K@Z DD imagerel $LN3
	DD	imagerel $LN3+38
	DD	imagerel $unwind$?__autoclassinit2@BufferLayout@buffers@core@@QEAAX_K@Z
pdata	ENDS
;	COMDAT pdata
pdata	SEGMENT
$pdata$??_GBufferLayout@buffers@core@@QEAAPEAXI@Z DD imagerel $LN4
	DD	imagerel $LN4+62
	DD	imagerel $unwind$??_GBufferLayout@buffers@core@@QEAAPEAXI@Z
pdata	ENDS
;	COMDAT pdata
pdata	SEGMENT
$pdata$??_GVAO@buffers@core@@QEAAPEAXI@Z DD imagerel $LN4
	DD	imagerel $LN4+62
	DD	imagerel $unwind$??_GVAO@buffers@core@@QEAAPEAXI@Z
pdata	ENDS
;	COMDAT pdata
pdata	SEGMENT
$pdata$?getCount@IBO@buffers@core@@QEBAHXZ DD imagerel $LN3
	DD	imagerel $LN3+40
	DD	imagerel $unwind$?getCount@IBO@buffers@core@@QEBAHXZ
pdata	ENDS
;	COMDAT pdata
pdata	SEGMENT
$pdata$??_GIBO@buffers@core@@QEAAPEAXI@Z DD imagerel $LN4
	DD	imagerel $LN4+62
	DD	imagerel $unwind$??_GIBO@buffers@core@@QEAAPEAXI@Z
pdata	ENDS
;	COMDAT pdata
pdata	SEGMENT
$pdata$??_GShader@graphics@core@@QEAAPEAXI@Z DD imagerel $LN4
	DD	imagerel $LN4+62
	DD	imagerel $unwind$??_GShader@graphics@core@@QEAAPEAXI@Z
pdata	ENDS
;	COMDAT pdata
pdata	SEGMENT
$pdata$?__autoclassinit2@Texture@graphics@core@@QEAAX_K@Z DD imagerel $LN3
	DD	imagerel $LN3+38
	DD	imagerel $unwind$?__autoclassinit2@Texture@graphics@core@@QEAAX_K@Z
pdata	ENDS
;	COMDAT pdata
pdata	SEGMENT
$pdata$??_GTexture@graphics@core@@QEAAPEAXI@Z DD imagerel $LN4
	DD	imagerel $LN4+62
	DD	imagerel $unwind$??_GTexture@graphics@core@@QEAAPEAXI@Z
pdata	ENDS
;	COMDAT pdata
pdata	SEGMENT
$pdata$??0TextureTestScene@Scene@Application@@QEAA@XZ DD imagerel $LN26
	DD	imagerel $LN26+1166
	DD	imagerel $unwind$??0TextureTestScene@Scene@Application@@QEAA@XZ
pdata	ENDS
;	COMDAT pdata
pdata	SEGMENT
$pdata$?dtor$0@?0???0TextureTestScene@Scene@Application@@QEAA@XZ@4HA DD imagerel ?dtor$0@?0???0TextureTestScene@Scene@Application@@QEAA@XZ@4HA
	DD	imagerel ?dtor$0@?0???0TextureTestScene@Scene@Application@@QEAA@XZ@4HA+28
	DD	imagerel $unwind$?dtor$0@?0???0TextureTestScene@Scene@Application@@QEAA@XZ@4HA
pdata	ENDS
;	COMDAT pdata
pdata	SEGMENT
$pdata$?dtor$1@?0???0TextureTestScene@Scene@Application@@QEAA@XZ@4HA DD imagerel ?dtor$1@?0???0TextureTestScene@Scene@Application@@QEAA@XZ@4HA
	DD	imagerel ?dtor$1@?0???0TextureTestScene@Scene@Application@@QEAA@XZ@4HA+33
	DD	imagerel $unwind$?dtor$1@?0???0TextureTestScene@Scene@Application@@QEAA@XZ@4HA
pdata	ENDS
;	COMDAT pdata
pdata	SEGMENT
$pdata$?dtor$2@?0???0TextureTestScene@Scene@Application@@QEAA@XZ@4HA DD imagerel ?dtor$2@?0???0TextureTestScene@Scene@Application@@QEAA@XZ@4HA
	DD	imagerel ?dtor$2@?0???0TextureTestScene@Scene@Application@@QEAA@XZ@4HA+33
	DD	imagerel $unwind$?dtor$2@?0???0TextureTestScene@Scene@Application@@QEAA@XZ@4HA
pdata	ENDS
;	COMDAT pdata
pdata	SEGMENT
$pdata$?dtor$3@?0???0TextureTestScene@Scene@Application@@QEAA@XZ@4HA DD imagerel ?dtor$3@?0???0TextureTestScene@Scene@Application@@QEAA@XZ@4HA
	DD	imagerel ?dtor$3@?0???0TextureTestScene@Scene@Application@@QEAA@XZ@4HA+33
	DD	imagerel $unwind$?dtor$3@?0???0TextureTestScene@Scene@Application@@QEAA@XZ@4HA
pdata	ENDS
;	COMDAT pdata
pdata	SEGMENT
$pdata$?dtor$4@?0???0TextureTestScene@Scene@Application@@QEAA@XZ@4HA DD imagerel ?dtor$4@?0???0TextureTestScene@Scene@Application@@QEAA@XZ@4HA
	DD	imagerel ?dtor$4@?0???0TextureTestScene@Scene@Application@@QEAA@XZ@4HA+33
	DD	imagerel $unwind$?dtor$4@?0???0TextureTestScene@Scene@Application@@QEAA@XZ@4HA
pdata	ENDS
;	COMDAT pdata
pdata	SEGMENT
$pdata$?dtor$5@?0???0TextureTestScene@Scene@Application@@QEAA@XZ@4HA DD imagerel ?dtor$5@?0???0TextureTestScene@Scene@Application@@QEAA@XZ@4HA
	DD	imagerel ?dtor$5@?0???0TextureTestScene@Scene@Application@@QEAA@XZ@4HA+33
	DD	imagerel $unwind$?dtor$5@?0???0TextureTestScene@Scene@Application@@QEAA@XZ@4HA
pdata	ENDS
;	COMDAT pdata
pdata	SEGMENT
$pdata$?dtor$6@?0???0TextureTestScene@Scene@Application@@QEAA@XZ@4HA DD imagerel ?dtor$6@?0???0TextureTestScene@Scene@Application@@QEAA@XZ@4HA
	DD	imagerel ?dtor$6@?0???0TextureTestScene@Scene@Application@@QEAA@XZ@4HA+48
	DD	imagerel $unwind$?dtor$6@?0???0TextureTestScene@Scene@Application@@QEAA@XZ@4HA
pdata	ENDS
;	COMDAT pdata
pdata	SEGMENT
$pdata$?dtor$7@?0???0TextureTestScene@Scene@Application@@QEAA@XZ@4HA DD imagerel ?dtor$7@?0???0TextureTestScene@Scene@Application@@QEAA@XZ@4HA
	DD	imagerel ?dtor$7@?0???0TextureTestScene@Scene@Application@@QEAA@XZ@4HA+33
	DD	imagerel $unwind$?dtor$7@?0???0TextureTestScene@Scene@Application@@QEAA@XZ@4HA
pdata	ENDS
;	COMDAT pdata
pdata	SEGMENT
$pdata$??1TextureTestScene@Scene@Application@@UEAA@XZ DD imagerel $LN15
	DD	imagerel $LN15+501
	DD	imagerel $unwind$??1TextureTestScene@Scene@Application@@UEAA@XZ
pdata	ENDS
;	COMDAT pdata
pdata	SEGMENT
$pdata$?OnUpdate@TextureTestScene@Scene@Application@@UEAAXM@Z DD imagerel $LN3
	DD	imagerel $LN3+39
	DD	imagerel $unwind$?OnUpdate@TextureTestScene@Scene@Application@@UEAAXM@Z
pdata	ENDS
;	COMDAT pdata
pdata	SEGMENT
$pdata$?OnRender@TextureTestScene@Scene@Application@@UEAAXXZ DD imagerel $LN4
	DD	imagerel $LN4+195
	DD	imagerel $unwind$?OnRender@TextureTestScene@Scene@Application@@UEAAXXZ
pdata	ENDS
;	COMDAT pdata
pdata	SEGMENT
$pdata$?OnImGuiRender@TextureTestScene@Scene@Application@@UEAAXXZ DD imagerel $LN3
	DD	imagerel $LN3+45
	DD	imagerel $unwind$?OnImGuiRender@TextureTestScene@Scene@Application@@UEAAXXZ
pdata	ENDS
;	COMDAT pdata
pdata	SEGMENT
$pdata$??_GTextureTestScene@Scene@Application@@UEAAPEAXI@Z DD imagerel $LN4
	DD	imagerel $LN4+62
	DD	imagerel $unwind$??_GTextureTestScene@Scene@Application@@UEAAPEAXI@Z
pdata	ENDS
;	COMDAT pdata
pdata	SEGMENT
$pdata$??$move@AEAUBufferElement@buffers@core@@@std@@YA$$QEAUBufferElement@buffers@core@@AEAU123@@Z DD imagerel $LN3
	DD	imagerel $LN3+46
	DD	imagerel $unwind$??$move@AEAUBufferElement@buffers@core@@@std@@YA$$QEAUBufferElement@buffers@core@@AEAU123@@Z
pdata	ENDS
;	COMDAT pdata
pdata	SEGMENT
$pdata$??$emplace_back@UBufferElement@buffers@core@@@?$vector@UBufferElement@buffers@core@@V?$allocator@UBufferElement@buffers@core@@@std@@@std@@QEAA@$$QEAUBufferElement@buffers@core@@@Z DD imagerel $LN4
	DD	imagerel $LN4+122
	DD	imagerel $unwind$??$emplace_back@UBufferElement@buffers@core@@@?$vector@UBufferElement@buffers@core@@V?$allocator@UBufferElement@buffers@core@@@std@@@std@@QEAA@$$QEAUBufferElement@buffers@core@@@Z
pdata	ENDS
;	COMDAT pdata
pdata	SEGMENT
$pdata$??$forward@UBufferElement@buffers@core@@@std@@YA$$QEAUBufferElement@buffers@core@@AEAU123@@Z DD imagerel $LN3
	DD	imagerel $LN3+46
	DD	imagerel $unwind$??$forward@UBufferElement@buffers@core@@@std@@YA$$QEAUBufferElement@buffers@core@@AEAU123@@Z
pdata	ENDS
;	COMDAT pdata
pdata	SEGMENT
$pdata$??$_Emplace_back_with_unused_capacity@UBufferElement@buffers@core@@@?$vector@UBufferElement@buffers@core@@V?$allocator@UBufferElement@buffers@core@@@std@@@std@@AEAA@$$QEAUBufferElement@buffers@core@@@Z DD imagerel $LN3
	DD	imagerel $LN3+194
	DD	imagerel $unwind$??$_Emplace_back_with_unused_capacity@UBufferElement@buffers@core@@@?$vector@UBufferElement@buffers@core@@V?$allocator@UBufferElement@buffers@core@@@std@@@std@@AEAA@$$QEAUBufferElement@buffers@core@@@Z
pdata	ENDS
;	COMDAT pdata
pdata	SEGMENT
$pdata$??$_Unfancy@UBufferElement@buffers@core@@@std@@YAPEAUBufferElement@buffers@core@@PEAU123@@Z DD imagerel $LN3
	DD	imagerel $LN3+37
	DD	imagerel $unwind$??$_Unfancy@UBufferElement@buffers@core@@@std@@YAPEAUBufferElement@buffers@core@@PEAU123@@Z
pdata	ENDS
;	COMDAT pdata
pdata	SEGMENT
$pdata$??$construct@UBufferElement@buffers@core@@U123@@?$_Default_allocator_traits@V?$allocator@UBufferElement@buffers@core@@@std@@@std@@SAXAEAV?$allocator@UBufferElement@buffers@core@@@1@QEAUBufferElement@buffers@core@@$$QEAU345@@Z DD imagerel $LN3
	DD	imagerel $LN3+91
	DD	imagerel $unwind$??$construct@UBufferElement@buffers@core@@U123@@?$_Default_allocator_traits@V?$allocator@UBufferElement@buffers@core@@@std@@@std@@SAXAEAV?$allocator@UBufferElement@buffers@core@@@1@QEAUBufferElement@buffers@core@@$$QEAU345@@Z
pdata	ENDS
;	COMDAT pdata
pdata	SEGMENT
$pdata$??$_Emplace_reallocate@UBufferElement@buffers@core@@@?$vector@UBufferElement@buffers@core@@V?$allocator@UBufferElement@buffers@core@@@std@@@std@@QEAAPEAUBufferElement@buffers@core@@QEAU234@$$QEAU234@@Z DD imagerel $LN13
	DD	imagerel $LN13+572
	DD	imagerel $unwind$??$_Emplace_reallocate@UBufferElement@buffers@core@@@?$vector@UBufferElement@buffers@core@@V?$allocator@UBufferElement@buffers@core@@@std@@@std@@QEAAPEAUBufferElement@buffers@core@@QEAU234@$$QEAU234@@Z
pdata	ENDS
;	COMDAT pdata
pdata	SEGMENT
$pdata$?catch$0@?0???$_Emplace_reallocate@UBufferElement@buffers@core@@@?$vector@UBufferElement@buffers@core@@V?$allocator@UBufferElement@buffers@core@@@std@@@std@@QEAAPEAUBufferElement@buffers@core@@QEAU234@$$QEAU234@@Z@4HA DD imagerel ?catch$0@?0???$_Emplace_reallocate@UBufferElement@buffers@core@@@?$vector@UBufferElement@buffers@core@@V?$allocator@UBufferElement@buffers@core@@@std@@@std@@QEAAPEAUBufferElement@buffers@core@@QEAU234@$$QEAU234@@Z@4HA
	DD	imagerel ?catch$0@?0???$_Emplace_reallocate@UBufferElement@buffers@core@@@?$vector@UBufferElement@buffers@core@@V?$allocator@UBufferElement@buffers@core@@@std@@@std@@QEAAPEAUBufferElement@buffers@core@@QEAU234@$$QEAU234@@Z@4HA+75
	DD	imagerel $unwind$?catch$0@?0???$_Emplace_reallocate@UBufferElement@buffers@core@@@?$vector@UBufferElement@buffers@core@@V?$allocator@UBufferElement@buffers@core@@@std@@@std@@QEAAPEAUBufferElement@buffers@core@@QEAU234@$$QEAU234@@Z@4HA
pdata	ENDS
;	COMDAT pdata
pdata	SEGMENT
$pdata$??$_Unfancy@D@std@@YAPEADPEAD@Z DD imagerel $LN3
	DD	imagerel $LN3+37
	DD	imagerel $unwind$??$_Unfancy@D@std@@YAPEADPEAD@Z
pdata	ENDS
;	COMDAT pdata
pdata	SEGMENT
$pdata$??$?0$$V@?$_Compressed_pair@V?$allocator@UBufferElement@buffers@core@@@std@@V?$_Vector_val@U?$_Simple_types@UBufferElement@buffers@core@@@std@@@2@$00@std@@QEAA@U_Zero_then_variadic_args_t@1@@Z DD imagerel $LN3
	DD	imagerel $LN3+62
	DD	imagerel $unwind$??$?0$$V@?$_Compressed_pair@V?$allocator@UBufferElement@buffers@core@@@std@@V?$_Vector_val@U?$_Simple_types@UBufferElement@buffers@core@@@std@@@2@$00@std@@QEAA@U_Zero_then_variadic_args_t@1@@Z
pdata	ENDS
;	COMDAT pdata
pdata	SEGMENT
$pdata$??$?0$$V@?$_Compressed_pair@V?$allocator@D@std@@V?$_String_val@U?$_Simple_types@D@std@@@2@$00@std@@QEAA@U_Zero_then_variadic_args_t@1@@Z DD imagerel $LN4
	DD	imagerel $LN4+62
	DD	imagerel $unwind$??$?0$$V@?$_Compressed_pair@V?$allocator@D@std@@V?$_String_val@U?$_Simple_types@D@std@@@2@$00@std@@QEAA@U_Zero_then_variadic_args_t@1@@Z
pdata	ENDS
;	COMDAT pdata
pdata	SEGMENT
$pdata$??$addressof@PEAD@std@@YAPEAPEADAEAPEAD@Z DD imagerel $LN3
	DD	imagerel $LN3+46
	DD	imagerel $unwind$??$addressof@PEAD@std@@YAPEAPEADAEAPEAD@Z
pdata	ENDS
;	COMDAT pdata
pdata	SEGMENT
$pdata$??$destroy@PEAD@?$_Default_allocator_traits@V?$allocator@D@std@@@std@@SAXAEAV?$allocator@D@1@QEAPEAD@Z DD imagerel $LN3
	DD	imagerel $LN3+38
	DD	imagerel $unwind$??$destroy@PEAD@?$_Default_allocator_traits@V?$allocator@D@std@@@std@@SAXAEAV?$allocator@D@1@QEAPEAD@Z
pdata	ENDS
;	COMDAT pdata
pdata	SEGMENT
$pdata$??$_Max_value@_K@std@@YAAEB_KAEB_K0@Z DD imagerel $LN5
	DD	imagerel $LN5+96
	DD	imagerel $unwind$??$_Max_value@_K@std@@YAAEB_KAEB_K0@Z
pdata	ENDS
;	COMDAT pdata
pdata	SEGMENT
$pdata$??R<lambda_66f57f934f28d61049862f64df852ff0>@@QEBAXQEAD_KQEBD@Z DD imagerel ??R<lambda_66f57f934f28d61049862f64df852ff0>@@QEBAXQEAD_KQEBD@Z
	DD	imagerel ??R<lambda_66f57f934f28d61049862f64df852ff0>@@QEBAXQEAD_KQEBD@Z+95
	DD	imagerel $unwind$??R<lambda_66f57f934f28d61049862f64df852ff0>@@QEBAXQEAD_KQEBD@Z
pdata	ENDS
;	COMDAT pdata
pdata	SEGMENT
$pdata$??$_Reallocate_for@V<lambda_66f57f934f28d61049862f64df852ff0>@@PEBD@?$basic_string@DU?$char_traits@D@std@@V?$allocator@D@2@@std@@QEAAAEAV01@_KV<lambda_66f57f934f28d61049862f64df852ff0>@@PEBD@Z DD imagerel ??$_Reallocate_for@V<lambda_66f57f934f28d61049862f64df852ff0>@@PEBD@?$basic_string@DU?$char_traits@D@std@@V?$allocator@D@2@@std@@QEAAAEAV01@_KV<lambda_66f57f934f28d61049862f64df852ff0>@@PEBD@Z
	DD	imagerel ??$_Reallocate_for@V<lambda_66f57f934f28d61049862f64df852ff0>@@PEBD@?$basic_string@DU?$char_traits@D@std@@V?$allocator@D@2@@std@@QEAAAEAV01@_KV<lambda_66f57f934f28d61049862f64df852ff0>@@PEBD@Z+366
	DD	imagerel $unwind$??$_Reallocate_for@V<lambda_66f57f934f28d61049862f64df852ff0>@@PEBD@?$basic_string@DU?$char_traits@D@std@@V?$allocator@D@2@@std@@QEAAAEAV01@_KV<lambda_66f57f934f28d61049862f64df852ff0>@@PEBD@Z
pdata	ENDS
;	COMDAT pdata
pdata	SEGMENT
$pdata$??$construct@PEADAEBQEAD@?$_Default_allocator_traits@V?$allocator@D@std@@@std@@SAXAEAV?$allocator@D@1@QEAPEADAEBQEAD@Z DD imagerel $LN3
	DD	imagerel $LN3+80
	DD	imagerel $unwind$??$construct@PEADAEBQEAD@?$_Default_allocator_traits@V?$allocator@D@std@@@std@@SAXAEAV?$allocator@D@1@QEAPEADAEBQEAD@Z
pdata	ENDS
;	COMDAT pdata
pdata	SEGMENT
$pdata$??$addressof@V?$_String_val@U?$_Simple_types@D@std@@@std@@@std@@YAPEAV?$_String_val@U?$_Simple_types@D@std@@@0@AEAV10@@Z DD imagerel $LN3
	DD	imagerel $LN3+46
	DD	imagerel $unwind$??$addressof@V?$_String_val@U?$_Simple_types@D@std@@@std@@@std@@YAPEAV?$_String_val@U?$_Simple_types@D@std@@@0@AEAV10@@Z
pdata	ENDS
;	COMDAT pdata
pdata	SEGMENT
$pdata$??$_Allocate@$0BA@U_Default_allocate_traits@std@@$0A@@std@@YAPEAX_K@Z DD imagerel $LN5
	DD	imagerel $LN5+74
	DD	imagerel $unwind$??$_Allocate@$0BA@U_Default_allocate_traits@std@@$0A@@std@@YAPEAX_K@Z
pdata	ENDS
;	COMDAT pdata
pdata	SEGMENT
$pdata$??$_Deallocate@$0BA@$0A@@std@@YAXPEAX_K@Z DD imagerel $LN4
	DD	imagerel $LN4+74
	DD	imagerel $unwind$??$_Deallocate@$0BA@$0A@@std@@YAXPEAX_K@Z
pdata	ENDS
;	COMDAT pdata
pdata	SEGMENT
$pdata$?allocate@?$allocator@U_Container_proxy@std@@@std@@QEAAPEAU_Container_proxy@2@_K@Z DD imagerel $LN3
	DD	imagerel $LN3+55
	DD	imagerel $unwind$?allocate@?$allocator@U_Container_proxy@std@@@std@@QEAAPEAU_Container_proxy@2@_K@Z
pdata	ENDS
;	COMDAT pdata
pdata	SEGMENT
$pdata$?deallocate@?$_Default_allocator_traits@V?$allocator@U_Container_proxy@std@@@std@@@std@@SAXAEAV?$allocator@U_Container_proxy@std@@@2@QEAU_Container_proxy@2@_K@Z DD imagerel $LN3
	DD	imagerel $LN3+60
	DD	imagerel $unwind$?deallocate@?$_Default_allocator_traits@V?$allocator@U_Container_proxy@std@@@std@@@std@@SAXAEAV?$allocator@U_Container_proxy@std@@@2@QEAU_Container_proxy@2@_K@Z
pdata	ENDS
;	COMDAT pdata
pdata	SEGMENT
$pdata$??$destroy@U_Container_proxy@std@@@?$_Default_allocator_traits@V?$allocator@U_Container_proxy@std@@@std@@@std@@SAXAEAV?$allocator@U_Container_proxy@std@@@1@QEAU_Container_proxy@1@@Z DD imagerel $LN3
	DD	imagerel $LN3+38
	DD	imagerel $unwind$??$destroy@U_Container_proxy@std@@@?$_Default_allocator_traits@V?$allocator@U_Container_proxy@std@@@std@@@std@@SAXAEAV?$allocator@U_Container_proxy@std@@@1@QEAU_Container_proxy@1@@Z
pdata	ENDS
;	COMDAT pdata
pdata	SEGMENT
$pdata$??$_Deallocate_plain@V?$allocator@U_Container_proxy@std@@@std@@$0A@@std@@YAXAEAV?$allocator@U_Container_proxy@std@@@0@QEAU_Container_proxy@0@@Z DD imagerel $LN3
	DD	imagerel $LN3+57
	DD	imagerel $unwind$??$_Deallocate_plain@V?$allocator@U_Container_proxy@std@@@std@@$0A@@std@@YAXAEAV?$allocator@U_Container_proxy@std@@@0@QEAU_Container_proxy@0@@Z
pdata	ENDS
;	COMDAT pdata
pdata	SEGMENT
$pdata$??$_Unfancy@U_Container_proxy@std@@@std@@YAPEAU_Container_proxy@0@PEAU10@@Z DD imagerel $LN3
	DD	imagerel $LN3+37
	DD	imagerel $unwind$??$_Unfancy@U_Container_proxy@std@@@std@@YAPEAU_Container_proxy@0@PEAU10@@Z
pdata	ENDS
;	COMDAT pdata
pdata	SEGMENT
$pdata$??$construct@U_Container_proxy@std@@U12@@?$_Default_allocator_traits@V?$allocator@U_Container_proxy@std@@@std@@@std@@SAXAEAV?$allocator@U_Container_proxy@std@@@1@QEAU_Container_proxy@1@$$QEAU31@@Z DD imagerel $LN3
	DD	imagerel $LN3+91
	DD	imagerel $unwind$??$construct@U_Container_proxy@std@@U12@@?$_Default_allocator_traits@V?$allocator@U_Container_proxy@std@@@std@@@std@@SAXAEAV?$allocator@U_Container_proxy@std@@@1@QEAU_Container_proxy@1@$$QEAU31@@Z
pdata	ENDS
;	COMDAT pdata
pdata	SEGMENT
$pdata$??$?0UBufferElement@buffers@core@@@?$allocator@U_Container_proxy@std@@@std@@QEAA@AEBV?$allocator@UBufferElement@buffers@core@@@1@@Z DD imagerel $LN3
	DD	imagerel $LN3+51
	DD	imagerel $unwind$??$?0UBufferElement@buffers@core@@@?$allocator@U_Container_proxy@std@@@std@@QEAA@AEBV?$allocator@UBufferElement@buffers@core@@@1@@Z
pdata	ENDS
;	COMDAT pdata
pdata	SEGMENT
$pdata$??$addressof@V?$_Vector_val@U?$_Simple_types@UBufferElement@buffers@core@@@std@@@std@@@std@@YAPEAV?$_Vector_val@U?$_Simple_types@UBufferElement@buffers@core@@@std@@@0@AEAV10@@Z DD imagerel $LN3
	DD	imagerel $LN3+46
	DD	imagerel $unwind$??$addressof@V?$_Vector_val@U?$_Simple_types@UBufferElement@buffers@core@@@std@@@std@@@std@@YAPEAV?$_Vector_val@U?$_Simple_types@UBufferElement@buffers@core@@@std@@@0@AEAV10@@Z
pdata	ENDS
;	COMDAT pdata
pdata	SEGMENT
$pdata$??$_Destroy_range@V?$allocator@UBufferElement@buffers@core@@@std@@@std@@YAXPEAUBufferElement@buffers@core@@0AEAV?$allocator@UBufferElement@buffers@core@@@0@@Z DD imagerel $LN3
	DD	imagerel $LN3+86
	DD	imagerel $unwind$??$_Destroy_range@V?$allocator@UBufferElement@buffers@core@@@std@@@std@@YAXPEAUBufferElement@buffers@core@@0AEAV?$allocator@UBufferElement@buffers@core@@@0@@Z
pdata	ENDS
;	COMDAT pdata
pdata	SEGMENT
$pdata$??$?0D@?$allocator@U_Container_proxy@std@@@std@@QEAA@AEBV?$allocator@D@1@@Z DD imagerel $LN3
	DD	imagerel $LN3+51
	DD	imagerel $unwind$??$?0D@?$allocator@U_Container_proxy@std@@@std@@QEAA@AEBV?$allocator@D@1@@Z
pdata	ENDS
;	COMDAT pdata
pdata	SEGMENT
$pdata$??$_Get_size_of_n@$0BA@@std@@YA_K_K@Z DD imagerel $LN4
	DD	imagerel $LN4+84
	DD	imagerel $unwind$??$_Get_size_of_n@$0BA@@std@@YA_K_K@Z
pdata	ENDS
;	COMDAT pdata
pdata	SEGMENT
$pdata$??$forward@AEBQEAD@std@@YAAEBQEADAEBQEAD@Z DD imagerel $LN3
	DD	imagerel $LN3+46
	DD	imagerel $unwind$??$forward@AEBQEAD@std@@YAAEBQEADAEBQEAD@Z
pdata	ENDS
;	COMDAT pdata
pdata	SEGMENT
$pdata$??$_Allocate_manually_vector_aligned@U_Default_allocate_traits@std@@@std@@YAPEAX_K@Z DD imagerel $LN13
	DD	imagerel $LN13+269
	DD	imagerel $unwind$??$_Allocate_manually_vector_aligned@U_Default_allocate_traits@std@@@std@@YAPEAX_K@Z
pdata	ENDS
;	COMDAT pdata
pdata	SEGMENT
$pdata$??$forward@U_Container_proxy@std@@@std@@YA$$QEAU_Container_proxy@0@AEAU10@@Z DD imagerel $LN3
	DD	imagerel $LN3+46
	DD	imagerel $unwind$??$forward@U_Container_proxy@std@@@std@@YA$$QEAU_Container_proxy@0@AEAU10@@Z
pdata	ENDS
;	COMDAT pdata
pdata	SEGMENT
$pdata$??$_Destroy_range1@V?$allocator@UBufferElement@buffers@core@@@std@@@std@@YAXPEAUBufferElement@buffers@core@@0AEAV?$allocator@UBufferElement@buffers@core@@@0@U?$integral_constant@_N$00@0@@Z DD imagerel $LN3
	DD	imagerel $LN3+48
	DD	imagerel $unwind$??$_Destroy_range1@V?$allocator@UBufferElement@buffers@core@@@std@@@std@@YAXPEAUBufferElement@buffers@core@@0AEAV?$allocator@UBufferElement@buffers@core@@@0@U?$integral_constant@_N$00@0@@Z
pdata	ENDS
;	COMDAT pdata
pdata	SEGMENT
$pdata$??$_Uninitialized_move@PEAUBufferElement@buffers@core@@PEAU123@V?$allocator@UBufferElement@buffers@core@@@std@@@std@@YAPEAUBufferElement@buffers@core@@QEAU123@0PEAU123@AEAV?$allocator@UBufferElement@buffers@core@@@0@@Z DD imagerel $LN3
	DD	imagerel $LN3+219
	DD	imagerel $unwind$??$_Uninitialized_move@PEAUBufferElement@buffers@core@@PEAU123@V?$allocator@UBufferElement@buffers@core@@@std@@@std@@YAPEAUBufferElement@buffers@core@@QEAU123@0PEAU123@AEAV?$allocator@UBufferElement@buffers@core@@@0@@Z
pdata	ENDS
;	COMDAT pdata
pdata	SEGMENT
$pdata$??$_Get_size_of_n@$0M@@std@@YA_K_K@Z DD imagerel $LN4
	DD	imagerel $LN4+84
	DD	imagerel $unwind$??$_Get_size_of_n@$0M@@std@@YA_K_K@Z
pdata	ENDS
;	COMDAT pdata
pdata	SEGMENT
$pdata$??$_Get_unwrapped@UBufferElement@buffers@core@@@std@@YAPEAUBufferElement@buffers@core@@QEAU123@@Z DD imagerel $LN3
	DD	imagerel $LN3+37
	DD	imagerel $unwind$??$_Get_unwrapped@UBufferElement@buffers@core@@@std@@YAPEAUBufferElement@buffers@core@@QEAU123@@Z
pdata	ENDS
;	COMDAT pdata
pdata	SEGMENT
$pdata$??$_Idl_distance@PEAUBufferElement@buffers@core@@PEAU123@@std@@YA@AEBQEAUBufferElement@buffers@core@@0@Z DD imagerel $LN3
	DD	imagerel $LN3+56
	DD	imagerel $unwind$??$_Idl_distance@PEAUBufferElement@buffers@core@@PEAU123@@std@@YA@AEBQEAUBufferElement@buffers@core@@0@Z
pdata	ENDS
;	COMDAT pdata
pdata	SEGMENT
$pdata$??$_Idl_distance1@PEAUBufferElement@buffers@core@@PEAU123@@std@@YA_JAEBQEAUBufferElement@buffers@core@@0Urandom_access_iterator_tag@0@@Z DD imagerel $LN3
	DD	imagerel $LN3+70
	DD	imagerel $unwind$??$_Idl_distance1@PEAUBufferElement@buffers@core@@PEAU123@@std@@YA_JAEBQEAUBufferElement@buffers@core@@0Urandom_access_iterator_tag@0@@Z
pdata	ENDS
;	COMDAT pdata
pdata	SEGMENT
$pdata$??$_Get_unwrapped_n@UBufferElement@buffers@core@@_J$0A@@std@@YAPEAUBufferElement@buffers@core@@QEAU123@_J@Z DD imagerel $LN3
	DD	imagerel $LN3+42
	DD	imagerel $unwind$??$_Get_unwrapped_n@UBufferElement@buffers@core@@_J$0A@@std@@YAPEAUBufferElement@buffers@core@@QEAU123@_J@Z
pdata	ENDS
;	COMDAT pdata
pdata	SEGMENT
$pdata$??$_Ptr_move_cat@UBufferElement@buffers@core@@U123@@std@@YA?AU_Really_trivial_ptr_iterator_tag@0@AEBQEAUBufferElement@buffers@core@@0@Z DD imagerel $LN3
	DD	imagerel $LN3+47
	DD	imagerel $unwind$??$_Ptr_move_cat@UBufferElement@buffers@core@@U123@@std@@YA?AU_Really_trivial_ptr_iterator_tag@0@AEBQEAUBufferElement@buffers@core@@0@Z
pdata	ENDS
;	COMDAT pdata
pdata	SEGMENT
$pdata$??$_Uninitialized_move_al_unchecked@UBufferElement@buffers@core@@U123@V?$allocator@UBufferElement@buffers@core@@@std@@@std@@YAPEAUBufferElement@buffers@core@@QEAU123@00AEAV?$allocator@UBufferElement@buffers@core@@@0@U_Really_trivial_ptr_iterator_tag@0@U?$integral_constant@_N$00@0@@Z DD imagerel $LN3
	DD	imagerel $LN3+65
	DD	imagerel $unwind$??$_Uninitialized_move_al_unchecked@UBufferElement@buffers@core@@U123@V?$allocator@UBufferElement@buffers@core@@@std@@@std@@YAPEAUBufferElement@buffers@core@@QEAU123@00AEAV?$allocator@UBufferElement@buffers@core@@@0@U_Really_trivial_ptr_iterator_tag@0@U?$integral_constant@_N$00@0@@Z
pdata	ENDS
;	COMDAT pdata
pdata	SEGMENT
$pdata$??$_Seek_wrapped@UBufferElement@buffers@core@@@std@@YAXAEAPEAUBufferElement@buffers@core@@QEAU123@@Z DD imagerel $LN3
	DD	imagerel $LN3+49
	DD	imagerel $unwind$??$_Seek_wrapped@UBufferElement@buffers@core@@@std@@YAXAEAPEAUBufferElement@buffers@core@@QEAU123@@Z
pdata	ENDS
;	COMDAT pdata
pdata	SEGMENT
$pdata$??$_Copy_memmove@PEAUBufferElement@buffers@core@@PEAU123@@std@@YAPEAUBufferElement@buffers@core@@PEAU123@00@Z DD imagerel $LN3
	DD	imagerel $LN3+122
	DD	imagerel $unwind$??$_Copy_memmove@PEAUBufferElement@buffers@core@@PEAU123@@std@@YAPEAUBufferElement@buffers@core@@PEAU123@00@Z
pdata	ENDS
;	COMDAT __real@bf000000
CONST	SEGMENT
__real@bf000000 DD 0bf000000r			; -0.5
CONST	ENDS
;	COMDAT __real@3f800000
CONST	SEGMENT
__real@3f800000 DD 03f800000r			; 1
CONST	ENDS
;	COMDAT __real@3f000000
CONST	SEGMENT
__real@3f000000 DD 03f000000r			; 0.5
CONST	ENDS
;	COMDAT rtc$TMZ
rtc$TMZ	SEGMENT
_RTC_Shutdown.rtc$TMZ DQ FLAT:_RTC_Shutdown
rtc$TMZ	ENDS
;	COMDAT rtc$IMZ
rtc$IMZ	SEGMENT
_RTC_InitBase.rtc$IMZ DQ FLAT:_RTC_InitBase
rtc$IMZ	ENDS
;	COMDAT ??_R2Scene@0Application@@8
rdata$r	SEGMENT
??_R2Scene@0Application@@8 DD imagerel ??_R1A@?0A@EA@Scene@0Application@@8 ; Application::Scene::Scene::`RTTI Base Class Array'
	ORG $+3
rdata$r	ENDS
;	COMDAT ??_R3Scene@0Application@@8
rdata$r	SEGMENT
??_R3Scene@0Application@@8 DD 00H			; Application::Scene::Scene::`RTTI Class Hierarchy Descriptor'
	DD	00H
	DD	01H
	DD	imagerel ??_R2Scene@0Application@@8
rdata$r	ENDS
;	COMDAT ??_R0?AVScene@0Application@@@8
data$r	SEGMENT
??_R0?AVScene@0Application@@@8 DQ FLAT:??_7type_info@@6B@ ; Application::Scene::Scene `RTTI Type Descriptor'
	DQ	0000000000000000H
	DB	'.?AVScene@0Application@@', 00H
data$r	ENDS
;	COMDAT ??_R1A@?0A@EA@Scene@0Application@@8
rdata$r	SEGMENT
??_R1A@?0A@EA@Scene@0Application@@8 DD imagerel ??_R0?AVScene@0Application@@@8 ; Application::Scene::Scene::`RTTI Base Class Descriptor at (0,-1,0,64)'
	DD	00H
	DD	00H
	DD	0ffffffffH
	DD	00H
	DD	040H
	DD	imagerel ??_R3Scene@0Application@@8
rdata$r	ENDS
;	COMDAT ??_R1A@?0A@EA@TextureTestScene@Scene@Application@@8
rdata$r	SEGMENT
??_R1A@?0A@EA@TextureTestScene@Scene@Application@@8 DD imagerel ??_R0?AVTextureTestScene@Scene@Application@@@8 ; Application::Scene::TextureTestScene::`RTTI Base Class Descriptor at (0,-1,0,64)'
	DD	01H
	DD	00H
	DD	0ffffffffH
	DD	00H
	DD	040H
	DD	imagerel ??_R3TextureTestScene@Scene@Application@@8
rdata$r	ENDS
;	COMDAT ??_R2TextureTestScene@Scene@Application@@8
rdata$r	SEGMENT
??_R2TextureTestScene@Scene@Application@@8 DD imagerel ??_R1A@?0A@EA@TextureTestScene@Scene@Application@@8 ; Application::Scene::TextureTestScene::`RTTI Base Class Array'
	DD	imagerel ??_R1A@?0A@EA@Scene@0Application@@8
	ORG $+3
rdata$r	ENDS
;	COMDAT ??_R3TextureTestScene@Scene@Application@@8
rdata$r	SEGMENT
??_R3TextureTestScene@Scene@Application@@8 DD 00H	; Application::Scene::TextureTestScene::`RTTI Class Hierarchy Descriptor'
	DD	00H
	DD	02H
	DD	imagerel ??_R2TextureTestScene@Scene@Application@@8
rdata$r	ENDS
;	COMDAT ??_R0?AVTextureTestScene@Scene@Application@@@8
data$r	SEGMENT
??_R0?AVTextureTestScene@Scene@Application@@@8 DQ FLAT:??_7type_info@@6B@ ; Application::Scene::TextureTestScene `RTTI Type Descriptor'
	DQ	0000000000000000H
	DB	'.?AVTextureTestScene@Scene@Application@@', 00H
data$r	ENDS
;	COMDAT ??_R4TextureTestScene@Scene@Application@@6B@
rdata$r	SEGMENT
??_R4TextureTestScene@Scene@Application@@6B@ DD 01H	; Application::Scene::TextureTestScene::`RTTI Complete Object Locator'
	DD	00H
	DD	00H
	DD	imagerel ??_R0?AVTextureTestScene@Scene@Application@@@8
	DD	imagerel ??_R3TextureTestScene@Scene@Application@@8
	DD	imagerel ??_R4TextureTestScene@Scene@Application@@6B@
rdata$r	ENDS
;	COMDAT ??_C@_1EO@GFNCMDLA@?$AAs?$AAt?$AAd?$AA?3?$AA?3?$AA_?$AAA?$AAl?$AAl?$AAo?$AAc?$AAa?$AAt?$AAe?$AA_@
CONST	SEGMENT
??_C@_1EO@GFNCMDLA@?$AAs?$AAt?$AAd?$AA?3?$AA?3?$AA_?$AAA?$AAl?$AAl?$AAo?$AAc?$AAa?$AAt?$AAe?$AA_@ DB 's'
	DB	00H, 't', 00H, 'd', 00H, ':', 00H, ':', 00H, '_', 00H, 'A', 00H
	DB	'l', 00H, 'l', 00H, 'o', 00H, 'c', 00H, 'a', 00H, 't', 00H, 'e'
	DB	00H, '_', 00H, 'm', 00H, 'a', 00H, 'n', 00H, 'u', 00H, 'a', 00H
	DB	'l', 00H, 'l', 00H, 'y', 00H, '_', 00H, 'v', 00H, 'e', 00H, 'c'
	DB	00H, 't', 00H, 'o', 00H, 'r', 00H, '_', 00H, 'a', 00H, 'l', 00H
	DB	'i', 00H, 'g', 00H, 'n', 00H, 'e', 00H, 'd', 00H, 00H, 00H ; `string'
CONST	ENDS
;	COMDAT ??_C@_0BA@JFNIOLAK@string?5too?5long@
CONST	SEGMENT
??_C@_0BA@JFNIOLAK@string?5too?5long@ DB 'string too long', 00H ; `string'
CONST	ENDS
;	COMDAT ??_C@_0BD@OLBABOEK@vector?$DMT?$DO?5too?5long@
CONST	SEGMENT
??_C@_0BD@OLBABOEK@vector?$DMT?$DO?5too?5long@ DB 'vector<T> too long', 00H ; `string'
CONST	ENDS
;	COMDAT ??_C@_0O@JGCBCHIF@Texture?5Test?$CB@
CONST	SEGMENT
??_C@_0O@JGCBCHIF@Texture?5Test?$CB@ DB 'Texture Test!', 00H ; `string'
CONST	ENDS
;	COMDAT ??_C@_0EI@LIJNNICP@glDrawElements?$CIGL_TRIANGLES?0?5ib@
CONST	SEGMENT
??_C@_0EI@LIJNNICP@glDrawElements?$CIGL_TRIANGLES?0?5ib@ DB 'glDrawElemen'
	DB	'ts(GL_TRIANGLES, ibo->getCount(), GL_UNSIGNED_INT, nullptr)', 00H ; `string'
CONST	ENDS
;	COMDAT ??_C@_0EN@IGOIKAOF@l?3?2dev?2featherfallengine?2feathe@
CONST	SEGMENT
??_C@_0EN@IGOIKAOF@l?3?2dev?2featherfallengine?2feathe@ DB 'l:\dev\feathe'
	DB	'rfallengine\featherfall-examples\src\scene\texturetestscene.c'
	DB	'pp', 00H					; `string'
CONST	ENDS
;	COMDAT ??_C@_08FDBNEJGE@uTexture@
CONST	SEGMENT
??_C@_08FDBNEJGE@uTexture@ DB 'uTexture', 00H		; `string'
CONST	ENDS
;	COMDAT ?__LINE__Var@?0??OnRender@TextureTestScene@Scene@Application@@UEAAXXZ@4JA
_DATA	SEGMENT
?__LINE__Var@?0??OnRender@TextureTestScene@Scene@Application@@UEAAXXZ@4JA DD 030H ; `Application::Scene::TextureTestScene::OnRender'::`1'::__LINE__Var
_DATA	ENDS
;	COMDAT ??_C@_0BN@MKLMCAKL@res?1textures?1TextureTest?4png@
CONST	SEGMENT
??_C@_0BN@MKLMCAKL@res?1textures?1TextureTest?4png@ DB 'res/textures/Text'
	DB	'ureTest.png', 00H				; `string'
CONST	ENDS
;	COMDAT ??_C@_0BP@FDJOMHHB@res?1shaders?1TextureTest?4shader@
CONST	SEGMENT
??_C@_0BP@FDJOMHHB@res?1shaders?1TextureTest?4shader@ DB 'res/shaders/Tex'
	DB	'tureTest.shader', 00H			; `string'
CONST	ENDS
;	COMDAT ??_7TextureTestScene@Scene@Application@@6B@
CONST	SEGMENT
??_7TextureTestScene@Scene@Application@@6B@ DQ FLAT:??_R4TextureTestScene@Scene@Application@@6B@ ; Application::Scene::TextureTestScene::`vftable'
	DQ	FLAT:??_ETextureTestScene@Scene@Application@@UEAAPEAXI@Z
	DQ	FLAT:?OnUpdate@TextureTestScene@Scene@Application@@UEAAXM@Z
	DQ	FLAT:?OnRender@TextureTestScene@Scene@Application@@UEAAXXZ
	DQ	FLAT:?OnImGuiRender@TextureTestScene@Scene@Application@@UEAAXXZ
CONST	ENDS
;	COMDAT ??_C@_1EK@NIFDJFDG@?$AAs?$AAt?$AAd?$AA?3?$AA?3?$AA_?$AAA?$AAd?$AAj?$AAu?$AAs?$AAt?$AA_?$AAm?$AAa@
CONST	SEGMENT
??_C@_1EK@NIFDJFDG@?$AAs?$AAt?$AAd?$AA?3?$AA?3?$AA_?$AAA?$AAd?$AAj?$AAu?$AAs?$AAt?$AA_?$AAm?$AAa@ DB 's'
	DB	00H, 't', 00H, 'd', 00H, ':', 00H, ':', 00H, '_', 00H, 'A', 00H
	DB	'd', 00H, 'j', 00H, 'u', 00H, 's', 00H, 't', 00H, '_', 00H, 'm'
	DB	00H, 'a', 00H, 'n', 00H, 'u', 00H, 'a', 00H, 'l', 00H, 'l', 00H
	DB	'y', 00H, '_', 00H, 'v', 00H, 'e', 00H, 'c', 00H, 't', 00H, 'o'
	DB	00H, 'r', 00H, '_', 00H, 'a', 00H, 'l', 00H, 'i', 00H, 'g', 00H
	DB	'n', 00H, 'e', 00H, 'd', 00H, 00H, 00H	; `string'
CONST	ENDS
;	COMDAT ??_C@_1NE@MCNNPIKO@?$AAc?$AA?3?$AA?2?$AAp?$AAr?$AAo?$AAg?$AAr?$AAa?$AAm?$AA?5?$AAf?$AAi?$AAl?$AAe@
CONST	SEGMENT
??_C@_1NE@MCNNPIKO@?$AAc?$AA?3?$AA?2?$AAp?$AAr?$AAo?$AAg?$AAr?$AAa?$AAm?$AA?5?$AAf?$AAi?$AAl?$AAe@ DB 'c'
	DB	00H, ':', 00H, '\', 00H, 'p', 00H, 'r', 00H, 'o', 00H, 'g', 00H
	DB	'r', 00H, 'a', 00H, 'm', 00H, ' ', 00H, 'f', 00H, 'i', 00H, 'l'
	DB	00H, 'e', 00H, 's', 00H, ' ', 00H, '(', 00H, 'x', 00H, '8', 00H
	DB	'6', 00H, ')', 00H, '\', 00H, 'm', 00H, 'i', 00H, 'c', 00H, 'r'
	DB	00H, 'o', 00H, 's', 00H, 'o', 00H, 'f', 00H, 't', 00H, ' ', 00H
	DB	'v', 00H, 'i', 00H, 's', 00H, 'u', 00H, 'a', 00H, 'l', 00H, ' '
	DB	00H, 's', 00H, 't', 00H, 'u', 00H, 'd', 00H, 'i', 00H, 'o', 00H
	DB	'\', 00H, '2', 00H, '0', 00H, '1', 00H, '7', 00H, '\', 00H, 'e'
	DB	00H, 'n', 00H, 't', 00H, 'e', 00H, 'r', 00H, 'p', 00H, 'r', 00H
	DB	'i', 00H, 's', 00H, 'e', 00H, '\', 00H, 'v', 00H, 'c', 00H, '\'
	DB	00H, 't', 00H, 'o', 00H, 'o', 00H, 'l', 00H, 's', 00H, '\', 00H
	DB	'm', 00H, 's', 00H, 'v', 00H, 'c', 00H, '\', 00H, '1', 00H, '4'
	DB	00H, '.', 00H, '1', 00H, '5', 00H, '.', 00H, '2', 00H, '6', 00H
	DB	'7', 00H, '2', 00H, '6', 00H, '\', 00H, 'i', 00H, 'n', 00H, 'c'
	DB	00H, 'l', 00H, 'u', 00H, 'd', 00H, 'e', 00H, '\', 00H, 'x', 00H
	DB	'm', 00H, 'e', 00H, 'm', 00H, 'o', 00H, 'r', 00H, 'y', 00H, '0'
	DB	00H, 00H, 00H				; `string'
CONST	ENDS
;	COMDAT ??_C@_0GK@FKLKIKPD@c?3?2program?5files?5?$CIx86?$CJ?2microsof@
CONST	SEGMENT
??_C@_0GK@FKLKIKPD@c?3?2program?5files?5?$CIx86?$CJ?2microsof@ DB 'c:\pro'
	DB	'gram files (x86)\microsoft visual studio\2017\enterprise\vc\t'
	DB	'ools\msvc\14.15.26726\include\xmemory0', 00H ; `string'
CONST	ENDS
;	COMDAT ?__LINE__Var@?0??_Adjust_manually_vector_aligned@std@@YAXAEAPEAXAEA_K@Z@4JA
_DATA	SEGMENT
?__LINE__Var@?0??_Adjust_manually_vector_aligned@std@@YAXAEAPEAXAEA_K@Z@4JA DD 072H ; `std::_Adjust_manually_vector_aligned'::`1'::__LINE__Var
_DATA	ENDS
;	COMDAT ??_C@_1CG@JNLFBNGN@?$AA?$CC?$AAi?$AAn?$AAv?$AAa?$AAl?$AAi?$AAd?$AA?5?$AAa?$AAr?$AAg?$AAu?$AAm?$AAe@
CONST	SEGMENT
??_C@_1CG@JNLFBNGN@?$AA?$CC?$AAi?$AAn?$AAv?$AAa?$AAl?$AAi?$AAd?$AA?5?$AAa?$AAr?$AAg?$AAu?$AAm?$AAe@ DB '"'
	DB	00H, 'i', 00H, 'n', 00H, 'v', 00H, 'a', 00H, 'l', 00H, 'i', 00H
	DB	'd', 00H, ' ', 00H, 'a', 00H, 'r', 00H, 'g', 00H, 'u', 00H, 'm'
	DB	00H, 'e', 00H, 'n', 00H, 't', 00H, '"', 00H, 00H, 00H ; `string'
CONST	ENDS
;	COMDAT ??_C@_02DKCKIIND@?$CFs@
CONST	SEGMENT
??_C@_02DKCKIIND@?$CFs@ DB '%s', 00H			; `string'
CONST	ENDS
;	COMDAT ??_C@_0BB@FCMFBGOM@invalid?5argument@
CONST	SEGMENT
??_C@_0BB@FCMFBGOM@invalid?5argument@ DB 'invalid argument', 00H ; `string'
CONST	ENDS
;	COMDAT xdata
xdata	SEGMENT
$unwind$??$_Copy_memmove@PEAUBufferElement@buffers@core@@PEAU123@@std@@YAPEAUBufferElement@buffers@core@@PEAU123@00@Z DD 025031c01H
	DD	0f217231cH
	DD	05010H
xdata	ENDS
;	COMDAT xdata
xdata	SEGMENT
$unwind$??$_Seek_wrapped@UBufferElement@buffers@core@@@std@@YAXAEAPEAUBufferElement@buffers@core@@QEAU123@@Z DD 025031401H
	DD	0b20f2314H
	DD	0500bH
xdata	ENDS
;	COMDAT xdata
xdata	SEGMENT
$unwind$??$_Uninitialized_move_al_unchecked@UBufferElement@buffers@core@@U123@V?$allocator@UBufferElement@buffers@core@@@std@@@std@@YAPEAUBufferElement@buffers@core@@QEAU123@00AEAV?$allocator@UBufferElement@buffers@core@@@0@U_Really_trivial_ptr_iterator_tag@0@U?$integral_constant@_N$00@0@@Z DD 025031e01H
	DD	0b219231eH
	DD	05015H
xdata	ENDS
;	COMDAT xdata
xdata	SEGMENT
$unwind$??$_Ptr_move_cat@UBufferElement@buffers@core@@U123@@std@@YA?AU_Really_trivial_ptr_iterator_tag@0@AEBQEAUBufferElement@buffers@core@@0@Z DD 025031901H
	DD	0b2142319H
	DD	05010H
xdata	ENDS
;	COMDAT xdata
xdata	SEGMENT
$unwind$??$_Get_unwrapped_n@UBufferElement@buffers@core@@_J$0A@@std@@YAPEAUBufferElement@buffers@core@@QEAU123@_J@Z DD 025031401H
	DD	0b20f2314H
	DD	0500bH
xdata	ENDS
;	COMDAT xdata
xdata	SEGMENT
$unwind$??$_Idl_distance1@PEAUBufferElement@buffers@core@@PEAU123@@std@@YA_JAEBQEAUBufferElement@buffers@core@@0Urandom_access_iterator_tag@0@@Z DD 025031901H
	DD	0b2142319H
	DD	05010H
xdata	ENDS
;	COMDAT xdata
xdata	SEGMENT
$unwind$??$_Idl_distance@PEAUBufferElement@buffers@core@@PEAU123@@std@@YA@AEBQEAUBufferElement@buffers@core@@0@Z DD 025031401H
	DD	0d20f2314H
	DD	0500bH
xdata	ENDS
;	COMDAT xdata
xdata	SEGMENT
$unwind$??$_Get_unwrapped@UBufferElement@buffers@core@@@std@@YAPEAUBufferElement@buffers@core@@QEAU123@@Z DD 025030f01H
	DD	0b20a230fH
	DD	05006H
xdata	ENDS
;	COMDAT xdata
xdata	SEGMENT
$unwind$??$_Get_size_of_n@$0M@@std@@YA_K_K@Z DD 025030f01H
	DD	0d20a230fH
	DD	05006H
xdata	ENDS
;	COMDAT xdata
xdata	SEGMENT
$unwind$??$_Uninitialized_move@PEAUBufferElement@buffers@core@@PEAU123@V?$allocator@UBufferElement@buffers@core@@@std@@@std@@YAPEAUBufferElement@buffers@core@@QEAU123@0PEAU123@AEAV?$allocator@UBufferElement@buffers@core@@@0@@Z DD 035042f19H
	DD	011c3321H
	DD	050150014H
	DD	imagerel __GSHandlerCheck
	DD	090H
xdata	ENDS
;	COMDAT xdata
xdata	SEGMENT
$unwind$??$_Destroy_range1@V?$allocator@UBufferElement@buffers@core@@@std@@@std@@YAXPEAUBufferElement@buffers@core@@0AEAV?$allocator@UBufferElement@buffers@core@@@0@U?$integral_constant@_N$00@0@@Z DD 025031e01H
	DD	0b219231eH
	DD	05015H
xdata	ENDS
;	COMDAT xdata
xdata	SEGMENT
$ip2state$??$forward@U_Container_proxy@std@@@std@@YA$$QEAU_Container_proxy@0@AEAU10@@Z DD imagerel ??$forward@U_Container_proxy@std@@@std@@YA$$QEAU_Container_proxy@0@AEAU10@@Z
	DD	0ffffffffH
xdata	ENDS
;	COMDAT CONST
CONST	SEGMENT
$cppxdata$??$forward@U_Container_proxy@std@@@std@@YA$$QEAU_Container_proxy@0@AEAU10@@Z DD 019930522H
	DD	00H
	DD	00H
	DD	00H
	DD	00H
	DD	01H
	DD	imagerel $ip2state$??$forward@U_Container_proxy@std@@@std@@YA$$QEAU_Container_proxy@0@AEAU10@@Z
	DD	060H
	DD	00H
	DD	05H
CONST	ENDS
;	COMDAT xdata
xdata	SEGMENT
$unwind$??$forward@U_Container_proxy@std@@@std@@YA$$QEAU_Container_proxy@0@AEAU10@@Z DD 025031719H
	DD	0d20a230fH
	DD	05006H
	DD	imagerel __CxxFrameHandler3
	DD	imagerel $cppxdata$??$forward@U_Container_proxy@std@@@std@@YA$$QEAU_Container_proxy@0@AEAU10@@Z
xdata	ENDS
;	COMDAT xdata
xdata	SEGMENT
$unwind$??$_Allocate_manually_vector_aligned@U_Default_allocate_traits@std@@@std@@YAPEAX_K@Z DD 035041201H
	DD	010d3312H
	DD	050060012H
xdata	ENDS
;	COMDAT xdata
xdata	SEGMENT
$ip2state$??$forward@AEBQEAD@std@@YAAEBQEADAEBQEAD@Z DD imagerel ??$forward@AEBQEAD@std@@YAAEBQEADAEBQEAD@Z
	DD	0ffffffffH
xdata	ENDS
;	COMDAT CONST
CONST	SEGMENT
$cppxdata$??$forward@AEBQEAD@std@@YAAEBQEADAEBQEAD@Z DD 019930522H
	DD	00H
	DD	00H
	DD	00H
	DD	00H
	DD	01H
	DD	imagerel $ip2state$??$forward@AEBQEAD@std@@YAAEBQEADAEBQEAD@Z
	DD	060H
	DD	00H
	DD	05H
CONST	ENDS
;	COMDAT xdata
xdata	SEGMENT
$unwind$??$forward@AEBQEAD@std@@YAAEBQEADAEBQEAD@Z DD 025031719H
	DD	0d20a230fH
	DD	05006H
	DD	imagerel __CxxFrameHandler3
	DD	imagerel $cppxdata$??$forward@AEBQEAD@std@@YAAEBQEADAEBQEAD@Z
xdata	ENDS
;	COMDAT xdata
xdata	SEGMENT
$unwind$??$_Get_size_of_n@$0BA@@std@@YA_K_K@Z DD 025030f01H
	DD	0d20a230fH
	DD	05006H
xdata	ENDS
;	COMDAT xdata
xdata	SEGMENT
$ip2state$??$?0D@?$allocator@U_Container_proxy@std@@@std@@QEAA@AEBV?$allocator@D@1@@Z DD imagerel ??$?0D@?$allocator@U_Container_proxy@std@@@std@@QEAA@AEBV?$allocator@D@1@@Z
	DD	0ffffffffH
xdata	ENDS
;	COMDAT CONST
CONST	SEGMENT
$cppxdata$??$?0D@?$allocator@U_Container_proxy@std@@@std@@QEAA@AEBV?$allocator@D@1@@Z DD 019930522H
	DD	00H
	DD	00H
	DD	00H
	DD	00H
	DD	01H
	DD	imagerel $ip2state$??$?0D@?$allocator@U_Container_proxy@std@@@std@@QEAA@AEBV?$allocator@D@1@@Z
	DD	060H
	DD	00H
	DD	05H
CONST	ENDS
;	COMDAT xdata
xdata	SEGMENT
$unwind$??$?0D@?$allocator@U_Container_proxy@std@@@std@@QEAA@AEBV?$allocator@D@1@@Z DD 025031c19H
	DD	0d20f2314H
	DD	0500bH
	DD	imagerel __CxxFrameHandler3
	DD	imagerel $cppxdata$??$?0D@?$allocator@U_Container_proxy@std@@@std@@QEAA@AEBV?$allocator@D@1@@Z
xdata	ENDS
;	COMDAT xdata
xdata	SEGMENT
$unwind$??$_Destroy_range@V?$allocator@UBufferElement@buffers@core@@@std@@@std@@YAXPEAUBufferElement@buffers@core@@0AEAV?$allocator@UBufferElement@buffers@core@@@0@@Z DD 025041a01H
	DD	0e215231aH
	DD	050107011H
xdata	ENDS
;	COMDAT xdata
xdata	SEGMENT
$ip2state$??$addressof@V?$_Vector_val@U?$_Simple_types@UBufferElement@buffers@core@@@std@@@std@@@std@@YAPEAV?$_Vector_val@U?$_Simple_types@UBufferElement@buffers@core@@@std@@@0@AEAV10@@Z DD imagerel ??$addressof@V?$_Vector_val@U?$_Simple_types@UBufferElement@buffers@core@@@std@@@std@@@std@@YAPEAV?$_Vector_val@U?$_Simple_types@UBufferElement@buffers@core@@@std@@@0@AEAV10@@Z
	DD	0ffffffffH
xdata	ENDS
;	COMDAT CONST
CONST	SEGMENT
$cppxdata$??$addressof@V?$_Vector_val@U?$_Simple_types@UBufferElement@buffers@core@@@std@@@std@@@std@@YAPEAV?$_Vector_val@U?$_Simple_types@UBufferElement@buffers@core@@@std@@@0@AEAV10@@Z DD 019930522H
	DD	00H
	DD	00H
	DD	00H
	DD	00H
	DD	01H
	DD	imagerel $ip2state$??$addressof@V?$_Vector_val@U?$_Simple_types@UBufferElement@buffers@core@@@std@@@std@@@std@@YAPEAV?$_Vector_val@U?$_Simple_types@UBufferElement@buffers@core@@@std@@@0@AEAV10@@Z
	DD	060H
	DD	00H
	DD	05H
CONST	ENDS
;	COMDAT xdata
xdata	SEGMENT
$unwind$??$addressof@V?$_Vector_val@U?$_Simple_types@UBufferElement@buffers@core@@@std@@@std@@@std@@YAPEAV?$_Vector_val@U?$_Simple_types@UBufferElement@buffers@core@@@std@@@0@AEAV10@@Z DD 025031719H
	DD	0d20a230fH
	DD	05006H
	DD	imagerel __CxxFrameHandler3
	DD	imagerel $cppxdata$??$addressof@V?$_Vector_val@U?$_Simple_types@UBufferElement@buffers@core@@@std@@@std@@@std@@YAPEAV?$_Vector_val@U?$_Simple_types@UBufferElement@buffers@core@@@std@@@0@AEAV10@@Z
xdata	ENDS
;	COMDAT xdata
xdata	SEGMENT
$ip2state$??$?0UBufferElement@buffers@core@@@?$allocator@U_Container_proxy@std@@@std@@QEAA@AEBV?$allocator@UBufferElement@buffers@core@@@1@@Z DD imagerel ??$?0UBufferElement@buffers@core@@@?$allocator@U_Container_proxy@std@@@std@@QEAA@AEBV?$allocator@UBufferElement@buffers@core@@@1@@Z
	DD	0ffffffffH
xdata	ENDS
;	COMDAT CONST
CONST	SEGMENT
$cppxdata$??$?0UBufferElement@buffers@core@@@?$allocator@U_Container_proxy@std@@@std@@QEAA@AEBV?$allocator@UBufferElement@buffers@core@@@1@@Z DD 019930522H
	DD	00H
	DD	00H
	DD	00H
	DD	00H
	DD	01H
	DD	imagerel $ip2state$??$?0UBufferElement@buffers@core@@@?$allocator@U_Container_proxy@std@@@std@@QEAA@AEBV?$allocator@UBufferElement@buffers@core@@@1@@Z
	DD	060H
	DD	00H
	DD	05H
CONST	ENDS
;	COMDAT xdata
xdata	SEGMENT
$unwind$??$?0UBufferElement@buffers@core@@@?$allocator@U_Container_proxy@std@@@std@@QEAA@AEBV?$allocator@UBufferElement@buffers@core@@@1@@Z DD 025031c19H
	DD	0d20f2314H
	DD	0500bH
	DD	imagerel __CxxFrameHandler3
	DD	imagerel $cppxdata$??$?0UBufferElement@buffers@core@@@?$allocator@U_Container_proxy@std@@@std@@QEAA@AEBV?$allocator@UBufferElement@buffers@core@@@1@@Z
xdata	ENDS
;	COMDAT xdata
xdata	SEGMENT
$unwind$??$construct@U_Container_proxy@std@@U12@@?$_Default_allocator_traits@V?$allocator@U_Container_proxy@std@@@std@@@std@@SAXAEAV?$allocator@U_Container_proxy@std@@@1@QEAU_Container_proxy@1@$$QEAU31@@Z DD 025051b01H
	DD	0d216231bH
	DD	060117012H
	DD	05010H
xdata	ENDS
;	COMDAT xdata
xdata	SEGMENT
$unwind$??$_Unfancy@U_Container_proxy@std@@@std@@YAPEAU_Container_proxy@0@PEAU10@@Z DD 025030f01H
	DD	0b20a230fH
	DD	05006H
xdata	ENDS
;	COMDAT xdata
xdata	SEGMENT
$unwind$??$_Deallocate_plain@V?$allocator@U_Container_proxy@std@@@std@@$0A@@std@@YAXAEAV?$allocator@U_Container_proxy@std@@@0@QEAU_Container_proxy@0@@Z DD 025031401H
	DD	0b20f2314H
	DD	0500bH
xdata	ENDS
;	COMDAT xdata
xdata	SEGMENT
$unwind$??$destroy@U_Container_proxy@std@@@?$_Default_allocator_traits@V?$allocator@U_Container_proxy@std@@@std@@@std@@SAXAEAV?$allocator@U_Container_proxy@std@@@1@QEAU_Container_proxy@1@@Z DD 025031401H
	DD	0b20f2314H
	DD	0500bH
xdata	ENDS
;	COMDAT xdata
xdata	SEGMENT
$unwind$?deallocate@?$_Default_allocator_traits@V?$allocator@U_Container_proxy@std@@@std@@@std@@SAXAEAV?$allocator@U_Container_proxy@std@@@2@QEAU_Container_proxy@2@_K@Z DD 025031901H
	DD	0b2142319H
	DD	05010H
xdata	ENDS
;	COMDAT xdata
xdata	SEGMENT
$unwind$?allocate@?$allocator@U_Container_proxy@std@@@std@@QEAAPEAU_Container_proxy@2@_K@Z DD 025031401H
	DD	0b20f2314H
	DD	0500bH
xdata	ENDS
;	COMDAT xdata
xdata	SEGMENT
$unwind$??$_Deallocate@$0BA@$0A@@std@@YAXPEAX_K@Z DD 025031401H
	DD	0b20f2314H
	DD	0500bH
xdata	ENDS
;	COMDAT xdata
xdata	SEGMENT
$unwind$??$_Allocate@$0BA@U_Default_allocate_traits@std@@$0A@@std@@YAPEAX_K@Z DD 025030f01H
	DD	0b20a230fH
	DD	05006H
xdata	ENDS
;	COMDAT xdata
xdata	SEGMENT
$ip2state$??$addressof@V?$_String_val@U?$_Simple_types@D@std@@@std@@@std@@YAPEAV?$_String_val@U?$_Simple_types@D@std@@@0@AEAV10@@Z DD imagerel ??$addressof@V?$_String_val@U?$_Simple_types@D@std@@@std@@@std@@YAPEAV?$_String_val@U?$_Simple_types@D@std@@@0@AEAV10@@Z
	DD	0ffffffffH
xdata	ENDS
;	COMDAT CONST
CONST	SEGMENT
$cppxdata$??$addressof@V?$_String_val@U?$_Simple_types@D@std@@@std@@@std@@YAPEAV?$_String_val@U?$_Simple_types@D@std@@@0@AEAV10@@Z DD 019930522H
	DD	00H
	DD	00H
	DD	00H
	DD	00H
	DD	01H
	DD	imagerel $ip2state$??$addressof@V?$_String_val@U?$_Simple_types@D@std@@@std@@@std@@YAPEAV?$_String_val@U?$_Simple_types@D@std@@@0@AEAV10@@Z
	DD	060H
	DD	00H
	DD	05H
CONST	ENDS
;	COMDAT xdata
xdata	SEGMENT
$unwind$??$addressof@V?$_String_val@U?$_Simple_types@D@std@@@std@@@std@@YAPEAV?$_String_val@U?$_Simple_types@D@std@@@0@AEAV10@@Z DD 025031719H
	DD	0d20a230fH
	DD	05006H
	DD	imagerel __CxxFrameHandler3
	DD	imagerel $cppxdata$??$addressof@V?$_String_val@U?$_Simple_types@D@std@@@std@@@std@@YAPEAV?$_String_val@U?$_Simple_types@D@std@@@0@AEAV10@@Z
xdata	ENDS
;	COMDAT xdata
xdata	SEGMENT
$unwind$??$construct@PEADAEBQEAD@?$_Default_allocator_traits@V?$allocator@D@std@@@std@@SAXAEAV?$allocator@D@1@QEAPEADAEBQEAD@Z DD 025031901H
	DD	0d2142319H
	DD	05010H
xdata	ENDS
;	COMDAT xdata
xdata	SEGMENT
$unwind$??$_Reallocate_for@V<lambda_66f57f934f28d61049862f64df852ff0>@@PEBD@?$basic_string@DU?$char_traits@D@std@@V?$allocator@D@2@@std@@QEAAAEAV01@_KV<lambda_66f57f934f28d61049862f64df852ff0>@@PEBD@Z DD 025042f19H
	DD	011c2321H
	DD	050150012H
	DD	imagerel __GSHandlerCheck
	DD	088H
xdata	ENDS
;	COMDAT xdata
xdata	SEGMENT
$unwind$??R<lambda_66f57f934f28d61049862f64df852ff0>@@QEBAXQEAD_KQEBD@Z DD 025031e01H
	DD	0d219231eH
	DD	05015H
xdata	ENDS
;	COMDAT xdata
xdata	SEGMENT
$ip2state$??$_Max_value@_K@std@@YAAEB_KAEB_K0@Z DD imagerel ??$_Max_value@_K@std@@YAAEB_KAEB_K0@Z
	DD	0ffffffffH
xdata	ENDS
;	COMDAT CONST
CONST	SEGMENT
$cppxdata$??$_Max_value@_K@std@@YAAEB_KAEB_K0@Z DD 019930522H
	DD	00H
	DD	00H
	DD	00H
	DD	00H
	DD	01H
	DD	imagerel $ip2state$??$_Max_value@_K@std@@YAAEB_KAEB_K0@Z
	DD	068H
	DD	00H
	DD	05H
CONST	ENDS
;	COMDAT xdata
xdata	SEGMENT
$unwind$??$_Max_value@_K@std@@YAAEB_KAEB_K0@Z DD 025031f19H
	DD	0f2122317H
	DD	0500bH
	DD	imagerel __CxxFrameHandler3
	DD	imagerel $cppxdata$??$_Max_value@_K@std@@YAAEB_KAEB_K0@Z
xdata	ENDS
;	COMDAT xdata
xdata	SEGMENT
$unwind$??$destroy@PEAD@?$_Default_allocator_traits@V?$allocator@D@std@@@std@@SAXAEAV?$allocator@D@1@QEAPEAD@Z DD 025031401H
	DD	0b20f2314H
	DD	0500bH
xdata	ENDS
;	COMDAT xdata
xdata	SEGMENT
$ip2state$??$addressof@PEAD@std@@YAPEAPEADAEAPEAD@Z DD imagerel ??$addressof@PEAD@std@@YAPEAPEADAEAPEAD@Z
	DD	0ffffffffH
xdata	ENDS
;	COMDAT CONST
CONST	SEGMENT
$cppxdata$??$addressof@PEAD@std@@YAPEAPEADAEAPEAD@Z DD 019930522H
	DD	00H
	DD	00H
	DD	00H
	DD	00H
	DD	01H
	DD	imagerel $ip2state$??$addressof@PEAD@std@@YAPEAPEADAEAPEAD@Z
	DD	060H
	DD	00H
	DD	05H
CONST	ENDS
;	COMDAT xdata
xdata	SEGMENT
$unwind$??$addressof@PEAD@std@@YAPEAPEADAEAPEAD@Z DD 025031719H
	DD	0d20a230fH
	DD	05006H
	DD	imagerel __CxxFrameHandler3
	DD	imagerel $cppxdata$??$addressof@PEAD@std@@YAPEAPEADAEAPEAD@Z
xdata	ENDS
;	COMDAT xdata
xdata	SEGMENT
$unwind$??$?0$$V@?$_Compressed_pair@V?$allocator@D@std@@V?$_String_val@U?$_Simple_types@D@std@@@2@$00@std@@QEAA@U_Zero_then_variadic_args_t@1@@Z DD 025031301H
	DD	0b20e2313H
	DD	0500aH
xdata	ENDS
;	COMDAT xdata
xdata	SEGMENT
$unwind$??$?0$$V@?$_Compressed_pair@V?$allocator@UBufferElement@buffers@core@@@std@@V?$_Vector_val@U?$_Simple_types@UBufferElement@buffers@core@@@std@@@2@$00@std@@QEAA@U_Zero_then_variadic_args_t@1@@Z DD 025031301H
	DD	0b20e2313H
	DD	0500aH
xdata	ENDS
;	COMDAT xdata
xdata	SEGMENT
$unwind$??$_Unfancy@D@std@@YAPEADPEAD@Z DD 025030f01H
	DD	0b20a230fH
	DD	05006H
xdata	ENDS
;	COMDAT xdata
xdata	SEGMENT
$unwind$?catch$0@?0???$_Emplace_reallocate@UBufferElement@buffers@core@@@?$vector@UBufferElement@buffers@core@@V?$allocator@UBufferElement@buffers@core@@@std@@@std@@QEAAPEAUBufferElement@buffers@core@@QEAU234@$$QEAU234@@Z@4HA DD 020a19H
	DD	05006320aH
	DD	imagerel __CxxFrameHandler3
	DD	imagerel $cppxdata$??$_Emplace_reallocate@UBufferElement@buffers@core@@@?$vector@UBufferElement@buffers@core@@V?$allocator@UBufferElement@buffers@core@@@std@@@std@@QEAAPEAUBufferElement@buffers@core@@QEAU234@$$QEAU234@@Z
xdata	ENDS
;	COMDAT xdata
xdata	SEGMENT
$ip2state$??$_Emplace_reallocate@UBufferElement@buffers@core@@@?$vector@UBufferElement@buffers@core@@V?$allocator@UBufferElement@buffers@core@@@std@@@std@@QEAAPEAUBufferElement@buffers@core@@QEAU234@$$QEAU234@@Z DD imagerel ??$_Emplace_reallocate@UBufferElement@buffers@core@@@?$vector@UBufferElement@buffers@core@@V?$allocator@UBufferElement@buffers@core@@@std@@@std@@QEAAPEAUBufferElement@buffers@core@@QEAU234@$$QEAU234@@Z
	DD	0ffffffffH
	DD	imagerel ??$_Emplace_reallocate@UBufferElement@buffers@core@@@?$vector@UBufferElement@buffers@core@@V?$allocator@UBufferElement@buffers@core@@@std@@@std@@QEAAPEAUBufferElement@buffers@core@@QEAU234@$$QEAU234@@Z+222
	DD	00H
	DD	imagerel ??$_Emplace_reallocate@UBufferElement@buffers@core@@@?$vector@UBufferElement@buffers@core@@V?$allocator@UBufferElement@buffers@core@@@std@@@std@@QEAAPEAUBufferElement@buffers@core@@QEAU234@$$QEAU234@@Z+500
	DD	0ffffffffH
	DD	imagerel ?catch$0@?0???$_Emplace_reallocate@UBufferElement@buffers@core@@@?$vector@UBufferElement@buffers@core@@V?$allocator@UBufferElement@buffers@core@@@std@@@std@@QEAAPEAUBufferElement@buffers@core@@QEAU234@$$QEAU234@@Z@4HA
	DD	00H
	DD	imagerel ?catch$0@?0???$_Emplace_reallocate@UBufferElement@buffers@core@@@?$vector@UBufferElement@buffers@core@@V?$allocator@UBufferElement@buffers@core@@@std@@@std@@QEAAPEAUBufferElement@buffers@core@@QEAU234@$$QEAU234@@Z@4HA+14
	DD	01H
	DD	imagerel ?catch$0@?0???$_Emplace_reallocate@UBufferElement@buffers@core@@@?$vector@UBufferElement@buffers@core@@V?$allocator@UBufferElement@buffers@core@@@std@@@std@@QEAAPEAUBufferElement@buffers@core@@QEAU234@$$QEAU234@@Z@4HA+61
	DD	00H
xdata	ENDS
;	COMDAT xdata
xdata	SEGMENT
$handlerMap$0$??$_Emplace_reallocate@UBufferElement@buffers@core@@@?$vector@UBufferElement@buffers@core@@V?$allocator@UBufferElement@buffers@core@@@std@@@std@@QEAAPEAUBufferElement@buffers@core@@QEAU234@$$QEAU234@@Z DD 040H
	DD	00H
	DD	00H
	DD	imagerel ?catch$0@?0???$_Emplace_reallocate@UBufferElement@buffers@core@@@?$vector@UBufferElement@buffers@core@@V?$allocator@UBufferElement@buffers@core@@@std@@@std@@QEAAPEAUBufferElement@buffers@core@@QEAU234@$$QEAU234@@Z@4HA
	DD	038H
xdata	ENDS
;	COMDAT xdata
xdata	SEGMENT
$tryMap$??$_Emplace_reallocate@UBufferElement@buffers@core@@@?$vector@UBufferElement@buffers@core@@V?$allocator@UBufferElement@buffers@core@@@std@@@std@@QEAAPEAUBufferElement@buffers@core@@QEAU234@$$QEAU234@@Z DD 00H
	DD	00H
	DD	01H
	DD	01H
	DD	imagerel $handlerMap$0$??$_Emplace_reallocate@UBufferElement@buffers@core@@@?$vector@UBufferElement@buffers@core@@V?$allocator@UBufferElement@buffers@core@@@std@@@std@@QEAAPEAUBufferElement@buffers@core@@QEAU234@$$QEAU234@@Z
xdata	ENDS
;	COMDAT xdata
xdata	SEGMENT
$stateUnwindMap$??$_Emplace_reallocate@UBufferElement@buffers@core@@@?$vector@UBufferElement@buffers@core@@V?$allocator@UBufferElement@buffers@core@@@std@@@std@@QEAAPEAUBufferElement@buffers@core@@QEAU234@$$QEAU234@@Z DD 0ffffffffH
	DD	00H
	DD	0ffffffffH
	DD	00H
xdata	ENDS
;	COMDAT CONST
CONST	SEGMENT
$cppxdata$??$_Emplace_reallocate@UBufferElement@buffers@core@@@?$vector@UBufferElement@buffers@core@@V?$allocator@UBufferElement@buffers@core@@@std@@@std@@QEAAPEAUBufferElement@buffers@core@@QEAU234@$$QEAU234@@Z DD 019930522H
	DD	02H
	DD	imagerel $stateUnwindMap$??$_Emplace_reallocate@UBufferElement@buffers@core@@@?$vector@UBufferElement@buffers@core@@V?$allocator@UBufferElement@buffers@core@@@std@@@std@@QEAAPEAUBufferElement@buffers@core@@QEAU234@$$QEAU234@@Z
	DD	01H
	DD	imagerel $tryMap$??$_Emplace_reallocate@UBufferElement@buffers@core@@@?$vector@UBufferElement@buffers@core@@V?$allocator@UBufferElement@buffers@core@@@std@@@std@@QEAAPEAUBufferElement@buffers@core@@QEAU234@$$QEAU234@@Z
	DD	06H
	DD	imagerel $ip2state$??$_Emplace_reallocate@UBufferElement@buffers@core@@@?$vector@UBufferElement@buffers@core@@V?$allocator@UBufferElement@buffers@core@@@std@@@std@@QEAAPEAUBufferElement@buffers@core@@QEAU234@$$QEAU234@@Z
	DD	0a0H
	DD	00H
	DD	01H
CONST	ENDS
;	COMDAT xdata
xdata	SEGMENT
$unwind$??$_Emplace_reallocate@UBufferElement@buffers@core@@@?$vector@UBufferElement@buffers@core@@V?$allocator@UBufferElement@buffers@core@@@std@@@std@@QEAAPEAUBufferElement@buffers@core@@QEAU234@$$QEAU234@@Z DD 025042719H
	DD	0117231cH
	DD	050100016H
	DD	imagerel __CxxFrameHandler3
	DD	imagerel $cppxdata$??$_Emplace_reallocate@UBufferElement@buffers@core@@@?$vector@UBufferElement@buffers@core@@V?$allocator@UBufferElement@buffers@core@@@std@@@std@@QEAAPEAUBufferElement@buffers@core@@QEAU234@$$QEAU234@@Z
xdata	ENDS
;	COMDAT xdata
xdata	SEGMENT
$unwind$??$construct@UBufferElement@buffers@core@@U123@@?$_Default_allocator_traits@V?$allocator@UBufferElement@buffers@core@@@std@@@std@@SAXAEAV?$allocator@UBufferElement@buffers@core@@@1@QEAUBufferElement@buffers@core@@$$QEAU345@@Z DD 025051b01H
	DD	0d216231bH
	DD	060117012H
	DD	05010H
xdata	ENDS
;	COMDAT xdata
xdata	SEGMENT
$unwind$??$_Unfancy@UBufferElement@buffers@core@@@std@@YAPEAUBufferElement@buffers@core@@PEAU123@@Z DD 025030f01H
	DD	0b20a230fH
	DD	05006H
xdata	ENDS
;	COMDAT xdata
xdata	SEGMENT
$unwind$??$_Emplace_back_with_unused_capacity@UBufferElement@buffers@core@@@?$vector@UBufferElement@buffers@core@@V?$allocator@UBufferElement@buffers@core@@@std@@@std@@AEAA@$$QEAUBufferElement@buffers@core@@@Z DD 025031701H
	DD	0f2122317H
	DD	0500bH
xdata	ENDS
;	COMDAT xdata
xdata	SEGMENT
$ip2state$??$forward@UBufferElement@buffers@core@@@std@@YA$$QEAUBufferElement@buffers@core@@AEAU123@@Z DD imagerel ??$forward@UBufferElement@buffers@core@@@std@@YA$$QEAUBufferElement@buffers@core@@AEAU123@@Z
	DD	0ffffffffH
xdata	ENDS
;	COMDAT CONST
CONST	SEGMENT
$cppxdata$??$forward@UBufferElement@buffers@core@@@std@@YA$$QEAUBufferElement@buffers@core@@AEAU123@@Z DD 019930522H
	DD	00H
	DD	00H
	DD	00H
	DD	00H
	DD	01H
	DD	imagerel $ip2state$??$forward@UBufferElement@buffers@core@@@std@@YA$$QEAUBufferElement@buffers@core@@AEAU123@@Z
	DD	060H
	DD	00H
	DD	05H
CONST	ENDS
;	COMDAT xdata
xdata	SEGMENT
$unwind$??$forward@UBufferElement@buffers@core@@@std@@YA$$QEAUBufferElement@buffers@core@@AEAU123@@Z DD 025031719H
	DD	0d20a230fH
	DD	05006H
	DD	imagerel __CxxFrameHandler3
	DD	imagerel $cppxdata$??$forward@UBufferElement@buffers@core@@@std@@YA$$QEAUBufferElement@buffers@core@@AEAU123@@Z
xdata	ENDS
;	COMDAT xdata
xdata	SEGMENT
$unwind$??$emplace_back@UBufferElement@buffers@core@@@?$vector@UBufferElement@buffers@core@@V?$allocator@UBufferElement@buffers@core@@@std@@@std@@QEAA@$$QEAUBufferElement@buffers@core@@@Z DD 025031401H
	DD	0d20f2314H
	DD	0500bH
xdata	ENDS
;	COMDAT xdata
xdata	SEGMENT
$ip2state$??$move@AEAUBufferElement@buffers@core@@@std@@YA$$QEAUBufferElement@buffers@core@@AEAU123@@Z DD imagerel ??$move@AEAUBufferElement@buffers@core@@@std@@YA$$QEAUBufferElement@buffers@core@@AEAU123@@Z
	DD	0ffffffffH
xdata	ENDS
;	COMDAT CONST
CONST	SEGMENT
$cppxdata$??$move@AEAUBufferElement@buffers@core@@@std@@YA$$QEAUBufferElement@buffers@core@@AEAU123@@Z DD 019930522H
	DD	00H
	DD	00H
	DD	00H
	DD	00H
	DD	01H
	DD	imagerel $ip2state$??$move@AEAUBufferElement@buffers@core@@@std@@YA$$QEAUBufferElement@buffers@core@@AEAU123@@Z
	DD	060H
	DD	00H
	DD	05H
CONST	ENDS
;	COMDAT xdata
xdata	SEGMENT
$unwind$??$move@AEAUBufferElement@buffers@core@@@std@@YA$$QEAUBufferElement@buffers@core@@AEAU123@@Z DD 025031719H
	DD	0d20a230fH
	DD	05006H
	DD	imagerel __CxxFrameHandler3
	DD	imagerel $cppxdata$??$move@AEAUBufferElement@buffers@core@@@std@@YA$$QEAUBufferElement@buffers@core@@AEAU123@@Z
xdata	ENDS
;	COMDAT xdata
xdata	SEGMENT
$unwind$??_GTextureTestScene@Scene@Application@@UEAAPEAXI@Z DD 025031301H
	DD	0b20e2313H
	DD	0500aH
xdata	ENDS
;	COMDAT xdata
xdata	SEGMENT
$unwind$?OnImGuiRender@TextureTestScene@Scene@Application@@UEAAXXZ DD 025030f01H
	DD	0b20a230fH
	DD	05006H
xdata	ENDS
;	COMDAT xdata
xdata	SEGMENT
$unwind$?OnRender@TextureTestScene@Scene@Application@@UEAAXXZ DD 025030f01H
	DD	0b20a230fH
	DD	05006H
xdata	ENDS
;	COMDAT xdata
xdata	SEGMENT
$unwind$?OnUpdate@TextureTestScene@Scene@Application@@UEAAXM@Z DD 025031501H
	DD	0b2102315H
	DD	0500cH
xdata	ENDS
;	COMDAT xdata
xdata	SEGMENT
$ip2state$??1TextureTestScene@Scene@Application@@UEAA@XZ DD imagerel ??1TextureTestScene@Scene@Application@@UEAA@XZ
	DD	0ffffffffH
xdata	ENDS
;	COMDAT CONST
CONST	SEGMENT
$cppxdata$??1TextureTestScene@Scene@Application@@UEAA@XZ DD 019930522H
	DD	00H
	DD	00H
	DD	00H
	DD	00H
	DD	01H
	DD	imagerel $ip2state$??1TextureTestScene@Scene@Application@@UEAA@XZ
	DD	0c0H
	DD	00H
	DD	05H
CONST	ENDS
;	COMDAT xdata
xdata	SEGMENT
$unwind$??1TextureTestScene@Scene@Application@@UEAA@XZ DD 025041d19H
	DD	010d2312H
	DD	05006001aH
	DD	imagerel __CxxFrameHandler3
	DD	imagerel $cppxdata$??1TextureTestScene@Scene@Application@@UEAA@XZ
xdata	ENDS
;	COMDAT xdata
xdata	SEGMENT
$unwind$?dtor$7@?0???0TextureTestScene@Scene@Application@@QEAA@XZ@4HA DD 020601H
	DD	050023206H
xdata	ENDS
;	COMDAT xdata
xdata	SEGMENT
$unwind$?dtor$6@?0???0TextureTestScene@Scene@Application@@QEAA@XZ@4HA DD 020601H
	DD	050023206H
xdata	ENDS
;	COMDAT xdata
xdata	SEGMENT
$unwind$?dtor$5@?0???0TextureTestScene@Scene@Application@@QEAA@XZ@4HA DD 020601H
	DD	050023206H
xdata	ENDS
;	COMDAT xdata
xdata	SEGMENT
$unwind$?dtor$4@?0???0TextureTestScene@Scene@Application@@QEAA@XZ@4HA DD 020601H
	DD	050023206H
xdata	ENDS
;	COMDAT xdata
xdata	SEGMENT
$unwind$?dtor$3@?0???0TextureTestScene@Scene@Application@@QEAA@XZ@4HA DD 020601H
	DD	050023206H
xdata	ENDS
;	COMDAT xdata
xdata	SEGMENT
$unwind$?dtor$2@?0???0TextureTestScene@Scene@Application@@QEAA@XZ@4HA DD 020601H
	DD	050023206H
xdata	ENDS
;	COMDAT xdata
xdata	SEGMENT
$unwind$?dtor$1@?0???0TextureTestScene@Scene@Application@@QEAA@XZ@4HA DD 020601H
	DD	050023206H
xdata	ENDS
;	COMDAT xdata
xdata	SEGMENT
$unwind$?dtor$0@?0???0TextureTestScene@Scene@Application@@QEAA@XZ@4HA DD 020601H
	DD	050023206H
xdata	ENDS
;	COMDAT xdata
xdata	SEGMENT
$ip2state$??0TextureTestScene@Scene@Application@@QEAA@XZ DD imagerel ??0TextureTestScene@Scene@Application@@QEAA@XZ
	DD	0ffffffffH
	DD	imagerel ??0TextureTestScene@Scene@Application@@QEAA@XZ+81
	DD	00H
	DD	imagerel ??0TextureTestScene@Scene@Application@@QEAA@XZ+115
	DD	01H
	DD	imagerel ??0TextureTestScene@Scene@Application@@QEAA@XZ+171
	DD	00H
	DD	imagerel ??0TextureTestScene@Scene@Application@@QEAA@XZ+394
	DD	02H
	DD	imagerel ??0TextureTestScene@Scene@Application@@QEAA@XZ+463
	DD	00H
	DD	imagerel ??0TextureTestScene@Scene@Application@@QEAA@XZ+540
	DD	03H
	DD	imagerel ??0TextureTestScene@Scene@Application@@QEAA@XZ+609
	DD	00H
	DD	imagerel ??0TextureTestScene@Scene@Application@@QEAA@XZ+644
	DD	04H
	DD	imagerel ??0TextureTestScene@Scene@Application@@QEAA@XZ+717
	DD	00H
	DD	imagerel ??0TextureTestScene@Scene@Application@@QEAA@XZ+832
	DD	05H
	DD	imagerel ??0TextureTestScene@Scene@Application@@QEAA@XZ+862
	DD	06H
	DD	imagerel ??0TextureTestScene@Scene@Application@@QEAA@XZ+905
	DD	05H
	DD	imagerel ??0TextureTestScene@Scene@Application@@QEAA@XZ+916
	DD	06H
	DD	imagerel ??0TextureTestScene@Scene@Application@@QEAA@XZ+930
	DD	07H
	DD	imagerel ??0TextureTestScene@Scene@Application@@QEAA@XZ+948
	DD	00H
	DD	imagerel ??0TextureTestScene@Scene@Application@@QEAA@XZ+997
	DD	08H
	DD	imagerel ??0TextureTestScene@Scene@Application@@QEAA@XZ+1117
	DD	00H
	DD	imagerel ??0TextureTestScene@Scene@Application@@QEAA@XZ+1135
	DD	0ffffffffH
xdata	ENDS
;	COMDAT xdata
xdata	SEGMENT
$stateUnwindMap$??0TextureTestScene@Scene@Application@@QEAA@XZ DD 0ffffffffH
	DD	imagerel ?dtor$0@?0???0TextureTestScene@Scene@Application@@QEAA@XZ@4HA
	DD	00H
	DD	imagerel ?dtor$1@?0???0TextureTestScene@Scene@Application@@QEAA@XZ@4HA
	DD	00H
	DD	imagerel ?dtor$2@?0???0TextureTestScene@Scene@Application@@QEAA@XZ@4HA
	DD	00H
	DD	imagerel ?dtor$3@?0???0TextureTestScene@Scene@Application@@QEAA@XZ@4HA
	DD	00H
	DD	imagerel ?dtor$4@?0???0TextureTestScene@Scene@Application@@QEAA@XZ@4HA
	DD	00H
	DD	imagerel ?dtor$5@?0???0TextureTestScene@Scene@Application@@QEAA@XZ@4HA
	DD	05H
	DD	imagerel ?dtor$6@?0???0TextureTestScene@Scene@Application@@QEAA@XZ@4HA
	DD	00H
	DD	imagerel ?dtor$6@?0???0TextureTestScene@Scene@Application@@QEAA@XZ@4HA
	DD	00H
	DD	imagerel ?dtor$7@?0???0TextureTestScene@Scene@Application@@QEAA@XZ@4HA
xdata	ENDS
;	COMDAT CONST
CONST	SEGMENT
$cppxdata$??0TextureTestScene@Scene@Application@@QEAA@XZ DD 019930522H
	DD	09H
	DD	imagerel $stateUnwindMap$??0TextureTestScene@Scene@Application@@QEAA@XZ
	DD	00H
	DD	00H
	DD	013H
	DD	imagerel $ip2state$??0TextureTestScene@Scene@Application@@QEAA@XZ
	DD	0178H
	DD	00H
	DD	01H
CONST	ENDS
;	COMDAT xdata
xdata	SEGMENT
$unwind$??0TextureTestScene@Scene@Application@@QEAA@XZ DD 025042e19H
	DD	010d2312H
	DD	050060034H
	DD	imagerel __GSHandlerCheck_EH
	DD	imagerel $cppxdata$??0TextureTestScene@Scene@Application@@QEAA@XZ
	DD	0192H
xdata	ENDS
;	COMDAT xdata
xdata	SEGMENT
$unwind$??_GTexture@graphics@core@@QEAAPEAXI@Z DD 025031301H
	DD	0b20e2313H
	DD	0500aH
xdata	ENDS
;	COMDAT xdata
xdata	SEGMENT
$unwind$?__autoclassinit2@Texture@graphics@core@@QEAAX_K@Z DD 05041301H
	DD	082100313H
	DD	0500b700cH
xdata	ENDS
;	COMDAT xdata
xdata	SEGMENT
$unwind$??_GShader@graphics@core@@QEAAPEAXI@Z DD 025031301H
	DD	0b20e2313H
	DD	0500aH
xdata	ENDS
;	COMDAT xdata
xdata	SEGMENT
$unwind$??_GIBO@buffers@core@@QEAAPEAXI@Z DD 025031301H
	DD	0b20e2313H
	DD	0500aH
xdata	ENDS
;	COMDAT xdata
xdata	SEGMENT
$unwind$?getCount@IBO@buffers@core@@QEBAHXZ DD 025030f01H
	DD	0b20a230fH
	DD	05006H
xdata	ENDS
;	COMDAT xdata
xdata	SEGMENT
$unwind$??_GVAO@buffers@core@@QEAAPEAXI@Z DD 025031301H
	DD	0b20e2313H
	DD	0500aH
xdata	ENDS
;	COMDAT xdata
xdata	SEGMENT
$unwind$??_GBufferLayout@buffers@core@@QEAAPEAXI@Z DD 025031301H
	DD	0b20e2313H
	DD	0500aH
xdata	ENDS
;	COMDAT xdata
xdata	SEGMENT
$unwind$?__autoclassinit2@BufferLayout@buffers@core@@QEAAX_K@Z DD 05041301H
	DD	082100313H
	DD	0500b700cH
xdata	ENDS
;	COMDAT xdata
xdata	SEGMENT
$unwind$??1BufferLayout@buffers@core@@QEAA@XZ DD 025030f01H
	DD	0b20a230fH
	DD	05006H
xdata	ENDS
;	COMDAT xdata
xdata	SEGMENT
$unwind$??$push@M@BufferLayout@buffers@core@@QEAAXI@Z DD 025031301H
	DD	0d20e2313H
	DD	0500aH
xdata	ENDS
;	COMDAT xdata
xdata	SEGMENT
$unwind$??0BufferLayout@buffers@core@@QEAA@XZ DD 025030f01H
	DD	0b20a230fH
	DD	05006H
xdata	ENDS
;	COMDAT xdata
xdata	SEGMENT
$unwind$?dtor$0@?0??_Orphan_range@?$vector@UBufferElement@buffers@core@@V?$allocator@UBufferElement@buffers@core@@@std@@@std@@AEBAXPEAUBufferElement@buffers@core@@0@Z@4HA DD 020601H
	DD	050023206H
xdata	ENDS
;	COMDAT xdata
xdata	SEGMENT
$ip2state$?_Orphan_range@?$vector@UBufferElement@buffers@core@@V?$allocator@UBufferElement@buffers@core@@@std@@@std@@AEBAXPEAUBufferElement@buffers@core@@0@Z DD imagerel ?_Orphan_range@?$vector@UBufferElement@buffers@core@@V?$allocator@UBufferElement@buffers@core@@@std@@@std@@AEBAXPEAUBufferElement@buffers@core@@0@Z
	DD	0ffffffffH
	DD	imagerel ?_Orphan_range@?$vector@UBufferElement@buffers@core@@V?$allocator@UBufferElement@buffers@core@@@std@@@std@@AEBAXPEAUBufferElement@buffers@core@@0@Z+78
	DD	00H
	DD	imagerel ?_Orphan_range@?$vector@UBufferElement@buffers@core@@V?$allocator@UBufferElement@buffers@core@@@std@@@std@@AEBAXPEAUBufferElement@buffers@core@@0@Z+199
	DD	0ffffffffH
xdata	ENDS
;	COMDAT xdata
xdata	SEGMENT
$stateUnwindMap$?_Orphan_range@?$vector@UBufferElement@buffers@core@@V?$allocator@UBufferElement@buffers@core@@@std@@@std@@AEBAXPEAUBufferElement@buffers@core@@0@Z DD 0ffffffffH
	DD	imagerel ?dtor$0@?0??_Orphan_range@?$vector@UBufferElement@buffers@core@@V?$allocator@UBufferElement@buffers@core@@@std@@@std@@AEBAXPEAUBufferElement@buffers@core@@0@Z@4HA
xdata	ENDS
;	COMDAT CONST
CONST	SEGMENT
$cppxdata$?_Orphan_range@?$vector@UBufferElement@buffers@core@@V?$allocator@UBufferElement@buffers@core@@@std@@@std@@AEBAXPEAUBufferElement@buffers@core@@0@Z DD 019930522H
	DD	01H
	DD	imagerel $stateUnwindMap$?_Orphan_range@?$vector@UBufferElement@buffers@core@@V?$allocator@UBufferElement@buffers@core@@@std@@@std@@AEBAXPEAUBufferElement@buffers@core@@0@Z
	DD	00H
	DD	00H
	DD	03H
	DD	imagerel $ip2state$?_Orphan_range@?$vector@UBufferElement@buffers@core@@V?$allocator@UBufferElement@buffers@core@@@std@@@std@@AEBAXPEAUBufferElement@buffers@core@@0@Z
	DD	070H
	DD	00H
	DD	01H
CONST	ENDS
;	COMDAT xdata
xdata	SEGMENT
$unwind$?_Orphan_range@?$vector@UBufferElement@buffers@core@@V?$allocator@UBufferElement@buffers@core@@@std@@@std@@AEBAXPEAUBufferElement@buffers@core@@0@Z DD 025033219H
	DD	0f217231cH
	DD	05010H
	DD	imagerel __GSHandlerCheck_EH
	DD	imagerel $cppxdata$?_Orphan_range@?$vector@UBufferElement@buffers@core@@V?$allocator@UBufferElement@buffers@core@@@std@@@std@@AEBAXPEAUBufferElement@buffers@core@@0@Z
	DD	07aH
xdata	ENDS
;	COMDAT xdata
xdata	SEGMENT
$unwind$?_Xlength@?$vector@UBufferElement@buffers@core@@V?$allocator@UBufferElement@buffers@core@@@std@@@std@@CAXXZ DD 025030b01H
	DD	0b206230bH
	DD	05002H
xdata	ENDS
;	COMDAT xdata
xdata	SEGMENT
$unwind$?_Tidy@?$vector@UBufferElement@buffers@core@@V?$allocator@UBufferElement@buffers@core@@@std@@@std@@AEAAXXZ DD 025030f01H
	DD	0d20a230fH
	DD	05006H
xdata	ENDS
;	COMDAT xdata
xdata	SEGMENT
$unwind$?_Change_array@?$vector@UBufferElement@buffers@core@@V?$allocator@UBufferElement@buffers@core@@@std@@@std@@AEAAXQEAUBufferElement@buffers@core@@_K1@Z DD 025031e01H
	DD	0d219231eH
	DD	05015H
xdata	ENDS
;	COMDAT xdata
xdata	SEGMENT
$unwind$?_Calculate_growth@?$vector@UBufferElement@buffers@core@@V?$allocator@UBufferElement@buffers@core@@@std@@@std@@AEBA_K_K@Z DD 025031701H
	DD	0f2122317H
	DD	0500bH
xdata	ENDS
;	COMDAT xdata
xdata	SEGMENT
$unwind$?_Destroy@?$vector@UBufferElement@buffers@core@@V?$allocator@UBufferElement@buffers@core@@@std@@@std@@AEAAXPEAUBufferElement@buffers@core@@0@Z DD 025031901H
	DD	0b2142319H
	DD	05010H
xdata	ENDS
;	COMDAT xdata
xdata	SEGMENT
$unwind$?_Umove_if_noexcept@?$vector@UBufferElement@buffers@core@@V?$allocator@UBufferElement@buffers@core@@@std@@@std@@AEAAXPEAUBufferElement@buffers@core@@00@Z DD 035052201H
	DD	011d3322H
	DD	070160011H
	DD	05015H
xdata	ENDS
;	COMDAT xdata
xdata	SEGMENT
$unwind$?_Umove_if_noexcept1@?$vector@UBufferElement@buffers@core@@V?$allocator@UBufferElement@buffers@core@@@std@@@std@@AEAAXPEAUBufferElement@buffers@core@@00U?$integral_constant@_N$00@2@@Z DD 025031e01H
	DD	0b219231eH
	DD	05015H
xdata	ENDS
;	COMDAT xdata
xdata	SEGMENT
$unwind$?_Umove@?$vector@UBufferElement@buffers@core@@V?$allocator@UBufferElement@buffers@core@@@std@@@std@@AEAAPEAUBufferElement@buffers@core@@PEAU345@00@Z DD 025031e01H
	DD	0b219231eH
	DD	05015H
xdata	ENDS
;	COMDAT xdata
xdata	SEGMENT
$ip2state$?_Has_unused_capacity@?$vector@UBufferElement@buffers@core@@V?$allocator@UBufferElement@buffers@core@@@std@@@std@@AEBA_NXZ DD imagerel ?_Has_unused_capacity@?$vector@UBufferElement@buffers@core@@V?$allocator@UBufferElement@buffers@core@@@std@@@std@@AEBA_NXZ
	DD	0ffffffffH
xdata	ENDS
;	COMDAT CONST
CONST	SEGMENT
$cppxdata$?_Has_unused_capacity@?$vector@UBufferElement@buffers@core@@V?$allocator@UBufferElement@buffers@core@@@std@@@std@@AEBA_NXZ DD 019930522H
	DD	00H
	DD	00H
	DD	00H
	DD	00H
	DD	01H
	DD	imagerel $ip2state$?_Has_unused_capacity@?$vector@UBufferElement@buffers@core@@V?$allocator@UBufferElement@buffers@core@@@std@@@std@@AEBA_NXZ
	DD	060H
	DD	00H
	DD	05H
CONST	ENDS
;	COMDAT xdata
xdata	SEGMENT
$unwind$?_Has_unused_capacity@?$vector@UBufferElement@buffers@core@@V?$allocator@UBufferElement@buffers@core@@@std@@@std@@AEBA_NXZ DD 025031a19H
	DD	0f20d2312H
	DD	05006H
	DD	imagerel __CxxFrameHandler3
	DD	imagerel $cppxdata$?_Has_unused_capacity@?$vector@UBufferElement@buffers@core@@V?$allocator@UBufferElement@buffers@core@@@std@@@std@@AEBA_NXZ
xdata	ENDS
;	COMDAT xdata
xdata	SEGMENT
$ip2state$?capacity@?$vector@UBufferElement@buffers@core@@V?$allocator@UBufferElement@buffers@core@@@std@@@std@@QEBA_KXZ DD imagerel ?capacity@?$vector@UBufferElement@buffers@core@@V?$allocator@UBufferElement@buffers@core@@@std@@@std@@QEBA_KXZ
	DD	0ffffffffH
xdata	ENDS
;	COMDAT CONST
CONST	SEGMENT
$cppxdata$?capacity@?$vector@UBufferElement@buffers@core@@V?$allocator@UBufferElement@buffers@core@@@std@@@std@@QEBA_KXZ DD 019930522H
	DD	00H
	DD	00H
	DD	00H
	DD	00H
	DD	01H
	DD	imagerel $ip2state$?capacity@?$vector@UBufferElement@buffers@core@@V?$allocator@UBufferElement@buffers@core@@@std@@@std@@QEBA_KXZ
	DD	060H
	DD	00H
	DD	05H
CONST	ENDS
;	COMDAT xdata
xdata	SEGMENT
$unwind$?capacity@?$vector@UBufferElement@buffers@core@@V?$allocator@UBufferElement@buffers@core@@@std@@@std@@QEBA_KXZ DD 025031719H
	DD	0d20a230fH
	DD	05006H
	DD	imagerel __CxxFrameHandler3
	DD	imagerel $cppxdata$?capacity@?$vector@UBufferElement@buffers@core@@V?$allocator@UBufferElement@buffers@core@@@std@@@std@@QEBA_KXZ
xdata	ENDS
;	COMDAT xdata
xdata	SEGMENT
$ip2state$?max_size@?$vector@UBufferElement@buffers@core@@V?$allocator@UBufferElement@buffers@core@@@std@@@std@@QEBA_KXZ DD imagerel ?max_size@?$vector@UBufferElement@buffers@core@@V?$allocator@UBufferElement@buffers@core@@@std@@@std@@QEBA_KXZ
	DD	0ffffffffH
xdata	ENDS
;	COMDAT CONST
CONST	SEGMENT
$cppxdata$?max_size@?$vector@UBufferElement@buffers@core@@V?$allocator@UBufferElement@buffers@core@@@std@@@std@@QEBA_KXZ DD 019930522H
	DD	00H
	DD	00H
	DD	00H
	DD	00H
	DD	01H
	DD	imagerel $ip2state$?max_size@?$vector@UBufferElement@buffers@core@@V?$allocator@UBufferElement@buffers@core@@@std@@@std@@QEBA_KXZ
	DD	070H
	DD	00H
	DD	05H
CONST	ENDS
;	COMDAT xdata
xdata	SEGMENT
$unwind$?max_size@?$vector@UBufferElement@buffers@core@@V?$allocator@UBufferElement@buffers@core@@@std@@@std@@QEBA_KXZ DD 025031a19H
	DD	0f20d2312H
	DD	05006H
	DD	imagerel __CxxFrameHandler3
	DD	imagerel $cppxdata$?max_size@?$vector@UBufferElement@buffers@core@@V?$allocator@UBufferElement@buffers@core@@@std@@@std@@QEBA_KXZ
xdata	ENDS
;	COMDAT xdata
xdata	SEGMENT
$ip2state$?size@?$vector@UBufferElement@buffers@core@@V?$allocator@UBufferElement@buffers@core@@@std@@@std@@QEBA_KXZ DD imagerel ?size@?$vector@UBufferElement@buffers@core@@V?$allocator@UBufferElement@buffers@core@@@std@@@std@@QEBA_KXZ
	DD	0ffffffffH
xdata	ENDS
;	COMDAT CONST
CONST	SEGMENT
$cppxdata$?size@?$vector@UBufferElement@buffers@core@@V?$allocator@UBufferElement@buffers@core@@@std@@@std@@QEBA_KXZ DD 019930522H
	DD	00H
	DD	00H
	DD	00H
	DD	00H
	DD	01H
	DD	imagerel $ip2state$?size@?$vector@UBufferElement@buffers@core@@V?$allocator@UBufferElement@buffers@core@@@std@@@std@@QEBA_KXZ
	DD	060H
	DD	00H
	DD	05H
CONST	ENDS
;	COMDAT xdata
xdata	SEGMENT
$unwind$?size@?$vector@UBufferElement@buffers@core@@V?$allocator@UBufferElement@buffers@core@@@std@@@std@@QEBA_KXZ DD 025031719H
	DD	0d20a230fH
	DD	05006H
	DD	imagerel __CxxFrameHandler3
	DD	imagerel $cppxdata$?size@?$vector@UBufferElement@buffers@core@@V?$allocator@UBufferElement@buffers@core@@@std@@@std@@QEBA_KXZ
xdata	ENDS
;	COMDAT xdata
xdata	SEGMENT
$unwind$?push_back@?$vector@UBufferElement@buffers@core@@V?$allocator@UBufferElement@buffers@core@@@std@@@std@@QEAAX$$QEAUBufferElement@buffers@core@@@Z DD 025031401H
	DD	0b20f2314H
	DD	0500bH
xdata	ENDS
;	COMDAT xdata
xdata	SEGMENT
$ip2state$??1?$vector@UBufferElement@buffers@core@@V?$allocator@UBufferElement@buffers@core@@@std@@@std@@QEAA@XZ DD imagerel ??1?$vector@UBufferElement@buffers@core@@V?$allocator@UBufferElement@buffers@core@@@std@@@std@@QEAA@XZ
	DD	0ffffffffH
xdata	ENDS
;	COMDAT CONST
CONST	SEGMENT
$cppxdata$??1?$vector@UBufferElement@buffers@core@@V?$allocator@UBufferElement@buffers@core@@@std@@@std@@QEAA@XZ DD 019930522H
	DD	00H
	DD	00H
	DD	00H
	DD	00H
	DD	01H
	DD	imagerel $ip2state$??1?$vector@UBufferElement@buffers@core@@V?$allocator@UBufferElement@buffers@core@@@std@@@std@@QEAA@XZ
	DD	060H
	DD	00H
	DD	05H
CONST	ENDS
;	COMDAT xdata
xdata	SEGMENT
$unwind$??1?$vector@UBufferElement@buffers@core@@V?$allocator@UBufferElement@buffers@core@@@std@@@std@@QEAA@XZ DD 025031719H
	DD	0d20a230fH
	DD	05006H
	DD	imagerel __CxxFrameHandler3
	DD	imagerel $cppxdata$??1?$vector@UBufferElement@buffers@core@@V?$allocator@UBufferElement@buffers@core@@@std@@@std@@QEAA@XZ
xdata	ENDS
;	COMDAT xdata
xdata	SEGMENT
$ip2state$??0?$vector@UBufferElement@buffers@core@@V?$allocator@UBufferElement@buffers@core@@@std@@@std@@QEAA@XZ DD imagerel ??0?$vector@UBufferElement@buffers@core@@V?$allocator@UBufferElement@buffers@core@@@std@@@std@@QEAA@XZ
	DD	0ffffffffH
xdata	ENDS
;	COMDAT CONST
CONST	SEGMENT
$cppxdata$??0?$vector@UBufferElement@buffers@core@@V?$allocator@UBufferElement@buffers@core@@@std@@@std@@QEAA@XZ DD 019930522H
	DD	00H
	DD	00H
	DD	00H
	DD	00H
	DD	01H
	DD	imagerel $ip2state$??0?$vector@UBufferElement@buffers@core@@V?$allocator@UBufferElement@buffers@core@@@std@@@std@@QEAA@XZ
	DD	060H
	DD	00H
	DD	05H
CONST	ENDS
;	COMDAT xdata
xdata	SEGMENT
$unwind$??0?$vector@UBufferElement@buffers@core@@V?$allocator@UBufferElement@buffers@core@@@std@@@std@@QEAA@XZ DD 025031719H
	DD	0d20a230fH
	DD	05006H
	DD	imagerel __CxxFrameHandler3
	DD	imagerel $cppxdata$??0?$vector@UBufferElement@buffers@core@@V?$allocator@UBufferElement@buffers@core@@@std@@@std@@QEAA@XZ
xdata	ENDS
;	COMDAT xdata
xdata	SEGMENT
$ip2state$?_Get_second@?$_Compressed_pair@V?$allocator@UBufferElement@buffers@core@@@std@@V?$_Vector_val@U?$_Simple_types@UBufferElement@buffers@core@@@std@@@2@$00@std@@QEBAAEBV?$_Vector_val@U?$_Simple_types@UBufferElement@buffers@core@@@std@@@2@XZ DD imagerel ?_Get_second@?$_Compressed_pair@V?$allocator@UBufferElement@buffers@core@@@std@@V?$_Vector_val@U?$_Simple_types@UBufferElement@buffers@core@@@std@@@2@$00@std@@QEBAAEBV?$_Vector_val@U?$_Simple_types@UBufferElement@buffers@core@@@std@@@2@XZ
	DD	0ffffffffH
xdata	ENDS
;	COMDAT CONST
CONST	SEGMENT
$cppxdata$?_Get_second@?$_Compressed_pair@V?$allocator@UBufferElement@buffers@core@@@std@@V?$_Vector_val@U?$_Simple_types@UBufferElement@buffers@core@@@std@@@2@$00@std@@QEBAAEBV?$_Vector_val@U?$_Simple_types@UBufferElement@buffers@core@@@std@@@2@XZ DD 019930522H
	DD	00H
	DD	00H
	DD	00H
	DD	00H
	DD	01H
	DD	imagerel $ip2state$?_Get_second@?$_Compressed_pair@V?$allocator@UBufferElement@buffers@core@@@std@@V?$_Vector_val@U?$_Simple_types@UBufferElement@buffers@core@@@std@@@2@$00@std@@QEBAAEBV?$_Vector_val@U?$_Simple_types@UBufferElement@buffers@core@@@std@@@2@XZ
	DD	060H
	DD	00H
	DD	05H
CONST	ENDS
;	COMDAT xdata
xdata	SEGMENT
$unwind$?_Get_second@?$_Compressed_pair@V?$allocator@UBufferElement@buffers@core@@@std@@V?$_Vector_val@U?$_Simple_types@UBufferElement@buffers@core@@@std@@@2@$00@std@@QEBAAEBV?$_Vector_val@U?$_Simple_types@UBufferElement@buffers@core@@@std@@@2@XZ DD 025031719H
	DD	0d20a230fH
	DD	05006H
	DD	imagerel __CxxFrameHandler3
	DD	imagerel $cppxdata$?_Get_second@?$_Compressed_pair@V?$allocator@UBufferElement@buffers@core@@@std@@V?$_Vector_val@U?$_Simple_types@UBufferElement@buffers@core@@@std@@@2@$00@std@@QEBAAEBV?$_Vector_val@U?$_Simple_types@UBufferElement@buffers@core@@@std@@@2@XZ
xdata	ENDS
;	COMDAT xdata
xdata	SEGMENT
$ip2state$?_Get_second@?$_Compressed_pair@V?$allocator@UBufferElement@buffers@core@@@std@@V?$_Vector_val@U?$_Simple_types@UBufferElement@buffers@core@@@std@@@2@$00@std@@QEAAAEAV?$_Vector_val@U?$_Simple_types@UBufferElement@buffers@core@@@std@@@2@XZ DD imagerel ?_Get_second@?$_Compressed_pair@V?$allocator@UBufferElement@buffers@core@@@std@@V?$_Vector_val@U?$_Simple_types@UBufferElement@buffers@core@@@std@@@2@$00@std@@QEAAAEAV?$_Vector_val@U?$_Simple_types@UBufferElement@buffers@core@@@std@@@2@XZ
	DD	0ffffffffH
xdata	ENDS
;	COMDAT CONST
CONST	SEGMENT
$cppxdata$?_Get_second@?$_Compressed_pair@V?$allocator@UBufferElement@buffers@core@@@std@@V?$_Vector_val@U?$_Simple_types@UBufferElement@buffers@core@@@std@@@2@$00@std@@QEAAAEAV?$_Vector_val@U?$_Simple_types@UBufferElement@buffers@core@@@std@@@2@XZ DD 019930522H
	DD	00H
	DD	00H
	DD	00H
	DD	00H
	DD	01H
	DD	imagerel $ip2state$?_Get_second@?$_Compressed_pair@V?$allocator@UBufferElement@buffers@core@@@std@@V?$_Vector_val@U?$_Simple_types@UBufferElement@buffers@core@@@std@@@2@$00@std@@QEAAAEAV?$_Vector_val@U?$_Simple_types@UBufferElement@buffers@core@@@std@@@2@XZ
	DD	060H
	DD	00H
	DD	05H
CONST	ENDS
;	COMDAT xdata
xdata	SEGMENT
$unwind$?_Get_second@?$_Compressed_pair@V?$allocator@UBufferElement@buffers@core@@@std@@V?$_Vector_val@U?$_Simple_types@UBufferElement@buffers@core@@@std@@@2@$00@std@@QEAAAEAV?$_Vector_val@U?$_Simple_types@UBufferElement@buffers@core@@@std@@@2@XZ DD 025031719H
	DD	0d20a230fH
	DD	05006H
	DD	imagerel __CxxFrameHandler3
	DD	imagerel $cppxdata$?_Get_second@?$_Compressed_pair@V?$allocator@UBufferElement@buffers@core@@@std@@V?$_Vector_val@U?$_Simple_types@UBufferElement@buffers@core@@@std@@@2@$00@std@@QEAAAEAV?$_Vector_val@U?$_Simple_types@UBufferElement@buffers@core@@@std@@@2@XZ
xdata	ENDS
;	COMDAT xdata
xdata	SEGMENT
$ip2state$?_Get_first@?$_Compressed_pair@V?$allocator@UBufferElement@buffers@core@@@std@@V?$_Vector_val@U?$_Simple_types@UBufferElement@buffers@core@@@std@@@2@$00@std@@QEBAAEBV?$allocator@UBufferElement@buffers@core@@@2@XZ DD imagerel ?_Get_first@?$_Compressed_pair@V?$allocator@UBufferElement@buffers@core@@@std@@V?$_Vector_val@U?$_Simple_types@UBufferElement@buffers@core@@@std@@@2@$00@std@@QEBAAEBV?$allocator@UBufferElement@buffers@core@@@2@XZ
	DD	0ffffffffH
xdata	ENDS
;	COMDAT CONST
CONST	SEGMENT
$cppxdata$?_Get_first@?$_Compressed_pair@V?$allocator@UBufferElement@buffers@core@@@std@@V?$_Vector_val@U?$_Simple_types@UBufferElement@buffers@core@@@std@@@2@$00@std@@QEBAAEBV?$allocator@UBufferElement@buffers@core@@@2@XZ DD 019930522H
	DD	00H
	DD	00H
	DD	00H
	DD	00H
	DD	01H
	DD	imagerel $ip2state$?_Get_first@?$_Compressed_pair@V?$allocator@UBufferElement@buffers@core@@@std@@V?$_Vector_val@U?$_Simple_types@UBufferElement@buffers@core@@@std@@@2@$00@std@@QEBAAEBV?$allocator@UBufferElement@buffers@core@@@2@XZ
	DD	060H
	DD	00H
	DD	05H
CONST	ENDS
;	COMDAT xdata
xdata	SEGMENT
$unwind$?_Get_first@?$_Compressed_pair@V?$allocator@UBufferElement@buffers@core@@@std@@V?$_Vector_val@U?$_Simple_types@UBufferElement@buffers@core@@@std@@@2@$00@std@@QEBAAEBV?$allocator@UBufferElement@buffers@core@@@2@XZ DD 025031719H
	DD	0d20a230fH
	DD	05006H
	DD	imagerel __CxxFrameHandler3
	DD	imagerel $cppxdata$?_Get_first@?$_Compressed_pair@V?$allocator@UBufferElement@buffers@core@@@std@@V?$_Vector_val@U?$_Simple_types@UBufferElement@buffers@core@@@std@@@2@$00@std@@QEBAAEBV?$allocator@UBufferElement@buffers@core@@@2@XZ
xdata	ENDS
;	COMDAT xdata
xdata	SEGMENT
$ip2state$?_Get_first@?$_Compressed_pair@V?$allocator@UBufferElement@buffers@core@@@std@@V?$_Vector_val@U?$_Simple_types@UBufferElement@buffers@core@@@std@@@2@$00@std@@QEAAAEAV?$allocator@UBufferElement@buffers@core@@@2@XZ DD imagerel ?_Get_first@?$_Compressed_pair@V?$allocator@UBufferElement@buffers@core@@@std@@V?$_Vector_val@U?$_Simple_types@UBufferElement@buffers@core@@@std@@@2@$00@std@@QEAAAEAV?$allocator@UBufferElement@buffers@core@@@2@XZ
	DD	0ffffffffH
xdata	ENDS
;	COMDAT CONST
CONST	SEGMENT
$cppxdata$?_Get_first@?$_Compressed_pair@V?$allocator@UBufferElement@buffers@core@@@std@@V?$_Vector_val@U?$_Simple_types@UBufferElement@buffers@core@@@std@@@2@$00@std@@QEAAAEAV?$allocator@UBufferElement@buffers@core@@@2@XZ DD 019930522H
	DD	00H
	DD	00H
	DD	00H
	DD	00H
	DD	01H
	DD	imagerel $ip2state$?_Get_first@?$_Compressed_pair@V?$allocator@UBufferElement@buffers@core@@@std@@V?$_Vector_val@U?$_Simple_types@UBufferElement@buffers@core@@@std@@@2@$00@std@@QEAAAEAV?$allocator@UBufferElement@buffers@core@@@2@XZ
	DD	060H
	DD	00H
	DD	05H
CONST	ENDS
;	COMDAT xdata
xdata	SEGMENT
$unwind$?_Get_first@?$_Compressed_pair@V?$allocator@UBufferElement@buffers@core@@@std@@V?$_Vector_val@U?$_Simple_types@UBufferElement@buffers@core@@@std@@@2@$00@std@@QEAAAEAV?$allocator@UBufferElement@buffers@core@@@2@XZ DD 025031719H
	DD	0d20a230fH
	DD	05006H
	DD	imagerel __CxxFrameHandler3
	DD	imagerel $cppxdata$?_Get_first@?$_Compressed_pair@V?$allocator@UBufferElement@buffers@core@@@std@@V?$_Vector_val@U?$_Simple_types@UBufferElement@buffers@core@@@std@@@2@$00@std@@QEAAAEAV?$allocator@UBufferElement@buffers@core@@@2@XZ
xdata	ENDS
;	COMDAT xdata
xdata	SEGMENT
$unwind$??0?$_Vector_val@U?$_Simple_types@UBufferElement@buffers@core@@@std@@@std@@QEAA@XZ DD 025030f01H
	DD	0b20a230fH
	DD	05006H
xdata	ENDS
;	COMDAT xdata
xdata	SEGMENT
$ip2state$?_Myend@?$_Vector_alloc@U?$_Vec_base_types@UBufferElement@buffers@core@@V?$allocator@UBufferElement@buffers@core@@@std@@@std@@@std@@QEBAAEBQEAUBufferElement@buffers@core@@XZ DD imagerel ?_Myend@?$_Vector_alloc@U?$_Vec_base_types@UBufferElement@buffers@core@@V?$allocator@UBufferElement@buffers@core@@@std@@@std@@@std@@QEBAAEBQEAUBufferElement@buffers@core@@XZ
	DD	0ffffffffH
xdata	ENDS
;	COMDAT CONST
CONST	SEGMENT
$cppxdata$?_Myend@?$_Vector_alloc@U?$_Vec_base_types@UBufferElement@buffers@core@@V?$allocator@UBufferElement@buffers@core@@@std@@@std@@@std@@QEBAAEBQEAUBufferElement@buffers@core@@XZ DD 019930522H
	DD	00H
	DD	00H
	DD	00H
	DD	00H
	DD	01H
	DD	imagerel $ip2state$?_Myend@?$_Vector_alloc@U?$_Vec_base_types@UBufferElement@buffers@core@@V?$allocator@UBufferElement@buffers@core@@@std@@@std@@@std@@QEBAAEBQEAUBufferElement@buffers@core@@XZ
	DD	060H
	DD	00H
	DD	05H
CONST	ENDS
;	COMDAT xdata
xdata	SEGMENT
$unwind$?_Myend@?$_Vector_alloc@U?$_Vec_base_types@UBufferElement@buffers@core@@V?$allocator@UBufferElement@buffers@core@@@std@@@std@@@std@@QEBAAEBQEAUBufferElement@buffers@core@@XZ DD 025031719H
	DD	0d20a230fH
	DD	05006H
	DD	imagerel __CxxFrameHandler3
	DD	imagerel $cppxdata$?_Myend@?$_Vector_alloc@U?$_Vec_base_types@UBufferElement@buffers@core@@V?$allocator@UBufferElement@buffers@core@@@std@@@std@@@std@@QEBAAEBQEAUBufferElement@buffers@core@@XZ
xdata	ENDS
;	COMDAT xdata
xdata	SEGMENT
$ip2state$?_Myend@?$_Vector_alloc@U?$_Vec_base_types@UBufferElement@buffers@core@@V?$allocator@UBufferElement@buffers@core@@@std@@@std@@@std@@QEAAAEAPEAUBufferElement@buffers@core@@XZ DD imagerel ?_Myend@?$_Vector_alloc@U?$_Vec_base_types@UBufferElement@buffers@core@@V?$allocator@UBufferElement@buffers@core@@@std@@@std@@@std@@QEAAAEAPEAUBufferElement@buffers@core@@XZ
	DD	0ffffffffH
xdata	ENDS
;	COMDAT CONST
CONST	SEGMENT
$cppxdata$?_Myend@?$_Vector_alloc@U?$_Vec_base_types@UBufferElement@buffers@core@@V?$allocator@UBufferElement@buffers@core@@@std@@@std@@@std@@QEAAAEAPEAUBufferElement@buffers@core@@XZ DD 019930522H
	DD	00H
	DD	00H
	DD	00H
	DD	00H
	DD	01H
	DD	imagerel $ip2state$?_Myend@?$_Vector_alloc@U?$_Vec_base_types@UBufferElement@buffers@core@@V?$allocator@UBufferElement@buffers@core@@@std@@@std@@@std@@QEAAAEAPEAUBufferElement@buffers@core@@XZ
	DD	060H
	DD	00H
	DD	05H
CONST	ENDS
;	COMDAT xdata
xdata	SEGMENT
$unwind$?_Myend@?$_Vector_alloc@U?$_Vec_base_types@UBufferElement@buffers@core@@V?$allocator@UBufferElement@buffers@core@@@std@@@std@@@std@@QEAAAEAPEAUBufferElement@buffers@core@@XZ DD 025031719H
	DD	0d20a230fH
	DD	05006H
	DD	imagerel __CxxFrameHandler3
	DD	imagerel $cppxdata$?_Myend@?$_Vector_alloc@U?$_Vec_base_types@UBufferElement@buffers@core@@V?$allocator@UBufferElement@buffers@core@@@std@@@std@@@std@@QEAAAEAPEAUBufferElement@buffers@core@@XZ
xdata	ENDS
;	COMDAT xdata
xdata	SEGMENT
$ip2state$?_Mylast@?$_Vector_alloc@U?$_Vec_base_types@UBufferElement@buffers@core@@V?$allocator@UBufferElement@buffers@core@@@std@@@std@@@std@@QEBAAEBQEAUBufferElement@buffers@core@@XZ DD imagerel ?_Mylast@?$_Vector_alloc@U?$_Vec_base_types@UBufferElement@buffers@core@@V?$allocator@UBufferElement@buffers@core@@@std@@@std@@@std@@QEBAAEBQEAUBufferElement@buffers@core@@XZ
	DD	0ffffffffH
xdata	ENDS
;	COMDAT CONST
CONST	SEGMENT
$cppxdata$?_Mylast@?$_Vector_alloc@U?$_Vec_base_types@UBufferElement@buffers@core@@V?$allocator@UBufferElement@buffers@core@@@std@@@std@@@std@@QEBAAEBQEAUBufferElement@buffers@core@@XZ DD 019930522H
	DD	00H
	DD	00H
	DD	00H
	DD	00H
	DD	01H
	DD	imagerel $ip2state$?_Mylast@?$_Vector_alloc@U?$_Vec_base_types@UBufferElement@buffers@core@@V?$allocator@UBufferElement@buffers@core@@@std@@@std@@@std@@QEBAAEBQEAUBufferElement@buffers@core@@XZ
	DD	060H
	DD	00H
	DD	05H
CONST	ENDS
;	COMDAT xdata
xdata	SEGMENT
$unwind$?_Mylast@?$_Vector_alloc@U?$_Vec_base_types@UBufferElement@buffers@core@@V?$allocator@UBufferElement@buffers@core@@@std@@@std@@@std@@QEBAAEBQEAUBufferElement@buffers@core@@XZ DD 025031719H
	DD	0d20a230fH
	DD	05006H
	DD	imagerel __CxxFrameHandler3
	DD	imagerel $cppxdata$?_Mylast@?$_Vector_alloc@U?$_Vec_base_types@UBufferElement@buffers@core@@V?$allocator@UBufferElement@buffers@core@@@std@@@std@@@std@@QEBAAEBQEAUBufferElement@buffers@core@@XZ
xdata	ENDS
;	COMDAT xdata
xdata	SEGMENT
$ip2state$?_Mylast@?$_Vector_alloc@U?$_Vec_base_types@UBufferElement@buffers@core@@V?$allocator@UBufferElement@buffers@core@@@std@@@std@@@std@@QEAAAEAPEAUBufferElement@buffers@core@@XZ DD imagerel ?_Mylast@?$_Vector_alloc@U?$_Vec_base_types@UBufferElement@buffers@core@@V?$allocator@UBufferElement@buffers@core@@@std@@@std@@@std@@QEAAAEAPEAUBufferElement@buffers@core@@XZ
	DD	0ffffffffH
xdata	ENDS
;	COMDAT CONST
CONST	SEGMENT
$cppxdata$?_Mylast@?$_Vector_alloc@U?$_Vec_base_types@UBufferElement@buffers@core@@V?$allocator@UBufferElement@buffers@core@@@std@@@std@@@std@@QEAAAEAPEAUBufferElement@buffers@core@@XZ DD 019930522H
	DD	00H
	DD	00H
	DD	00H
	DD	00H
	DD	01H
	DD	imagerel $ip2state$?_Mylast@?$_Vector_alloc@U?$_Vec_base_types@UBufferElement@buffers@core@@V?$allocator@UBufferElement@buffers@core@@@std@@@std@@@std@@QEAAAEAPEAUBufferElement@buffers@core@@XZ
	DD	060H
	DD	00H
	DD	05H
CONST	ENDS
;	COMDAT xdata
xdata	SEGMENT
$unwind$?_Mylast@?$_Vector_alloc@U?$_Vec_base_types@UBufferElement@buffers@core@@V?$allocator@UBufferElement@buffers@core@@@std@@@std@@@std@@QEAAAEAPEAUBufferElement@buffers@core@@XZ DD 025031719H
	DD	0d20a230fH
	DD	05006H
	DD	imagerel __CxxFrameHandler3
	DD	imagerel $cppxdata$?_Mylast@?$_Vector_alloc@U?$_Vec_base_types@UBufferElement@buffers@core@@V?$allocator@UBufferElement@buffers@core@@@std@@@std@@@std@@QEAAAEAPEAUBufferElement@buffers@core@@XZ
xdata	ENDS
;	COMDAT xdata
xdata	SEGMENT
$ip2state$?_Myfirst@?$_Vector_alloc@U?$_Vec_base_types@UBufferElement@buffers@core@@V?$allocator@UBufferElement@buffers@core@@@std@@@std@@@std@@QEBAAEBQEAUBufferElement@buffers@core@@XZ DD imagerel ?_Myfirst@?$_Vector_alloc@U?$_Vec_base_types@UBufferElement@buffers@core@@V?$allocator@UBufferElement@buffers@core@@@std@@@std@@@std@@QEBAAEBQEAUBufferElement@buffers@core@@XZ
	DD	0ffffffffH
xdata	ENDS
;	COMDAT CONST
CONST	SEGMENT
$cppxdata$?_Myfirst@?$_Vector_alloc@U?$_Vec_base_types@UBufferElement@buffers@core@@V?$allocator@UBufferElement@buffers@core@@@std@@@std@@@std@@QEBAAEBQEAUBufferElement@buffers@core@@XZ DD 019930522H
	DD	00H
	DD	00H
	DD	00H
	DD	00H
	DD	01H
	DD	imagerel $ip2state$?_Myfirst@?$_Vector_alloc@U?$_Vec_base_types@UBufferElement@buffers@core@@V?$allocator@UBufferElement@buffers@core@@@std@@@std@@@std@@QEBAAEBQEAUBufferElement@buffers@core@@XZ
	DD	060H
	DD	00H
	DD	05H
CONST	ENDS
;	COMDAT xdata
xdata	SEGMENT
$unwind$?_Myfirst@?$_Vector_alloc@U?$_Vec_base_types@UBufferElement@buffers@core@@V?$allocator@UBufferElement@buffers@core@@@std@@@std@@@std@@QEBAAEBQEAUBufferElement@buffers@core@@XZ DD 025031719H
	DD	0d20a230fH
	DD	05006H
	DD	imagerel __CxxFrameHandler3
	DD	imagerel $cppxdata$?_Myfirst@?$_Vector_alloc@U?$_Vec_base_types@UBufferElement@buffers@core@@V?$allocator@UBufferElement@buffers@core@@@std@@@std@@@std@@QEBAAEBQEAUBufferElement@buffers@core@@XZ
xdata	ENDS
;	COMDAT xdata
xdata	SEGMENT
$ip2state$?_Myfirst@?$_Vector_alloc@U?$_Vec_base_types@UBufferElement@buffers@core@@V?$allocator@UBufferElement@buffers@core@@@std@@@std@@@std@@QEAAAEAPEAUBufferElement@buffers@core@@XZ DD imagerel ?_Myfirst@?$_Vector_alloc@U?$_Vec_base_types@UBufferElement@buffers@core@@V?$allocator@UBufferElement@buffers@core@@@std@@@std@@@std@@QEAAAEAPEAUBufferElement@buffers@core@@XZ
	DD	0ffffffffH
xdata	ENDS
;	COMDAT CONST
CONST	SEGMENT
$cppxdata$?_Myfirst@?$_Vector_alloc@U?$_Vec_base_types@UBufferElement@buffers@core@@V?$allocator@UBufferElement@buffers@core@@@std@@@std@@@std@@QEAAAEAPEAUBufferElement@buffers@core@@XZ DD 019930522H
	DD	00H
	DD	00H
	DD	00H
	DD	00H
	DD	01H
	DD	imagerel $ip2state$?_Myfirst@?$_Vector_alloc@U?$_Vec_base_types@UBufferElement@buffers@core@@V?$allocator@UBufferElement@buffers@core@@@std@@@std@@@std@@QEAAAEAPEAUBufferElement@buffers@core@@XZ
	DD	060H
	DD	00H
	DD	05H
CONST	ENDS
;	COMDAT xdata
xdata	SEGMENT
$unwind$?_Myfirst@?$_Vector_alloc@U?$_Vec_base_types@UBufferElement@buffers@core@@V?$allocator@UBufferElement@buffers@core@@@std@@@std@@@std@@QEAAAEAPEAUBufferElement@buffers@core@@XZ DD 025031719H
	DD	0d20a230fH
	DD	05006H
	DD	imagerel __CxxFrameHandler3
	DD	imagerel $cppxdata$?_Myfirst@?$_Vector_alloc@U?$_Vec_base_types@UBufferElement@buffers@core@@V?$allocator@UBufferElement@buffers@core@@@std@@@std@@@std@@QEAAAEAPEAUBufferElement@buffers@core@@XZ
xdata	ENDS
;	COMDAT xdata
xdata	SEGMENT
$ip2state$?_Get_data@?$_Vector_alloc@U?$_Vec_base_types@UBufferElement@buffers@core@@V?$allocator@UBufferElement@buffers@core@@@std@@@std@@@std@@QEBAAEBV?$_Vector_val@U?$_Simple_types@UBufferElement@buffers@core@@@std@@@2@XZ DD imagerel ?_Get_data@?$_Vector_alloc@U?$_Vec_base_types@UBufferElement@buffers@core@@V?$allocator@UBufferElement@buffers@core@@@std@@@std@@@std@@QEBAAEBV?$_Vector_val@U?$_Simple_types@UBufferElement@buffers@core@@@std@@@2@XZ
	DD	0ffffffffH
xdata	ENDS
;	COMDAT CONST
CONST	SEGMENT
$cppxdata$?_Get_data@?$_Vector_alloc@U?$_Vec_base_types@UBufferElement@buffers@core@@V?$allocator@UBufferElement@buffers@core@@@std@@@std@@@std@@QEBAAEBV?$_Vector_val@U?$_Simple_types@UBufferElement@buffers@core@@@std@@@2@XZ DD 019930522H
	DD	00H
	DD	00H
	DD	00H
	DD	00H
	DD	01H
	DD	imagerel $ip2state$?_Get_data@?$_Vector_alloc@U?$_Vec_base_types@UBufferElement@buffers@core@@V?$allocator@UBufferElement@buffers@core@@@std@@@std@@@std@@QEBAAEBV?$_Vector_val@U?$_Simple_types@UBufferElement@buffers@core@@@std@@@2@XZ
	DD	060H
	DD	00H
	DD	05H
CONST	ENDS
;	COMDAT xdata
xdata	SEGMENT
$unwind$?_Get_data@?$_Vector_alloc@U?$_Vec_base_types@UBufferElement@buffers@core@@V?$allocator@UBufferElement@buffers@core@@@std@@@std@@@std@@QEBAAEBV?$_Vector_val@U?$_Simple_types@UBufferElement@buffers@core@@@std@@@2@XZ DD 025031719H
	DD	0d20a230fH
	DD	05006H
	DD	imagerel __CxxFrameHandler3
	DD	imagerel $cppxdata$?_Get_data@?$_Vector_alloc@U?$_Vec_base_types@UBufferElement@buffers@core@@V?$allocator@UBufferElement@buffers@core@@@std@@@std@@@std@@QEBAAEBV?$_Vector_val@U?$_Simple_types@UBufferElement@buffers@core@@@std@@@2@XZ
xdata	ENDS
;	COMDAT xdata
xdata	SEGMENT
$ip2state$?_Get_data@?$_Vector_alloc@U?$_Vec_base_types@UBufferElement@buffers@core@@V?$allocator@UBufferElement@buffers@core@@@std@@@std@@@std@@QEAAAEAV?$_Vector_val@U?$_Simple_types@UBufferElement@buffers@core@@@std@@@2@XZ DD imagerel ?_Get_data@?$_Vector_alloc@U?$_Vec_base_types@UBufferElement@buffers@core@@V?$allocator@UBufferElement@buffers@core@@@std@@@std@@@std@@QEAAAEAV?$_Vector_val@U?$_Simple_types@UBufferElement@buffers@core@@@std@@@2@XZ
	DD	0ffffffffH
xdata	ENDS
;	COMDAT CONST
CONST	SEGMENT
$cppxdata$?_Get_data@?$_Vector_alloc@U?$_Vec_base_types@UBufferElement@buffers@core@@V?$allocator@UBufferElement@buffers@core@@@std@@@std@@@std@@QEAAAEAV?$_Vector_val@U?$_Simple_types@UBufferElement@buffers@core@@@std@@@2@XZ DD 019930522H
	DD	00H
	DD	00H
	DD	00H
	DD	00H
	DD	01H
	DD	imagerel $ip2state$?_Get_data@?$_Vector_alloc@U?$_Vec_base_types@UBufferElement@buffers@core@@V?$allocator@UBufferElement@buffers@core@@@std@@@std@@@std@@QEAAAEAV?$_Vector_val@U?$_Simple_types@UBufferElement@buffers@core@@@std@@@2@XZ
	DD	060H
	DD	00H
	DD	05H
CONST	ENDS
;	COMDAT xdata
xdata	SEGMENT
$unwind$?_Get_data@?$_Vector_alloc@U?$_Vec_base_types@UBufferElement@buffers@core@@V?$allocator@UBufferElement@buffers@core@@@std@@@std@@@std@@QEAAAEAV?$_Vector_val@U?$_Simple_types@UBufferElement@buffers@core@@@std@@@2@XZ DD 025031719H
	DD	0d20a230fH
	DD	05006H
	DD	imagerel __CxxFrameHandler3
	DD	imagerel $cppxdata$?_Get_data@?$_Vector_alloc@U?$_Vec_base_types@UBufferElement@buffers@core@@V?$allocator@UBufferElement@buffers@core@@@std@@@std@@@std@@QEAAAEAV?$_Vector_val@U?$_Simple_types@UBufferElement@buffers@core@@@std@@@2@XZ
xdata	ENDS
;	COMDAT xdata
xdata	SEGMENT
$ip2state$?_Getal@?$_Vector_alloc@U?$_Vec_base_types@UBufferElement@buffers@core@@V?$allocator@UBufferElement@buffers@core@@@std@@@std@@@std@@QEBAAEBV?$allocator@UBufferElement@buffers@core@@@2@XZ DD imagerel ?_Getal@?$_Vector_alloc@U?$_Vec_base_types@UBufferElement@buffers@core@@V?$allocator@UBufferElement@buffers@core@@@std@@@std@@@std@@QEBAAEBV?$allocator@UBufferElement@buffers@core@@@2@XZ
	DD	0ffffffffH
xdata	ENDS
;	COMDAT CONST
CONST	SEGMENT
$cppxdata$?_Getal@?$_Vector_alloc@U?$_Vec_base_types@UBufferElement@buffers@core@@V?$allocator@UBufferElement@buffers@core@@@std@@@std@@@std@@QEBAAEBV?$allocator@UBufferElement@buffers@core@@@2@XZ DD 019930522H
	DD	00H
	DD	00H
	DD	00H
	DD	00H
	DD	01H
	DD	imagerel $ip2state$?_Getal@?$_Vector_alloc@U?$_Vec_base_types@UBufferElement@buffers@core@@V?$allocator@UBufferElement@buffers@core@@@std@@@std@@@std@@QEBAAEBV?$allocator@UBufferElement@buffers@core@@@2@XZ
	DD	060H
	DD	00H
	DD	05H
CONST	ENDS
;	COMDAT xdata
xdata	SEGMENT
$unwind$?_Getal@?$_Vector_alloc@U?$_Vec_base_types@UBufferElement@buffers@core@@V?$allocator@UBufferElement@buffers@core@@@std@@@std@@@std@@QEBAAEBV?$allocator@UBufferElement@buffers@core@@@2@XZ DD 025031719H
	DD	0d20a230fH
	DD	05006H
	DD	imagerel __CxxFrameHandler3
	DD	imagerel $cppxdata$?_Getal@?$_Vector_alloc@U?$_Vec_base_types@UBufferElement@buffers@core@@V?$allocator@UBufferElement@buffers@core@@@std@@@std@@@std@@QEBAAEBV?$allocator@UBufferElement@buffers@core@@@2@XZ
xdata	ENDS
;	COMDAT xdata
xdata	SEGMENT
$ip2state$?_Getal@?$_Vector_alloc@U?$_Vec_base_types@UBufferElement@buffers@core@@V?$allocator@UBufferElement@buffers@core@@@std@@@std@@@std@@QEAAAEAV?$allocator@UBufferElement@buffers@core@@@2@XZ DD imagerel ?_Getal@?$_Vector_alloc@U?$_Vec_base_types@UBufferElement@buffers@core@@V?$allocator@UBufferElement@buffers@core@@@std@@@std@@@std@@QEAAAEAV?$allocator@UBufferElement@buffers@core@@@2@XZ
	DD	0ffffffffH
xdata	ENDS
;	COMDAT CONST
CONST	SEGMENT
$cppxdata$?_Getal@?$_Vector_alloc@U?$_Vec_base_types@UBufferElement@buffers@core@@V?$allocator@UBufferElement@buffers@core@@@std@@@std@@@std@@QEAAAEAV?$allocator@UBufferElement@buffers@core@@@2@XZ DD 019930522H
	DD	00H
	DD	00H
	DD	00H
	DD	00H
	DD	01H
	DD	imagerel $ip2state$?_Getal@?$_Vector_alloc@U?$_Vec_base_types@UBufferElement@buffers@core@@V?$allocator@UBufferElement@buffers@core@@@std@@@std@@@std@@QEAAAEAV?$allocator@UBufferElement@buffers@core@@@2@XZ
	DD	060H
	DD	00H
	DD	05H
CONST	ENDS
;	COMDAT xdata
xdata	SEGMENT
$unwind$?_Getal@?$_Vector_alloc@U?$_Vec_base_types@UBufferElement@buffers@core@@V?$allocator@UBufferElement@buffers@core@@@std@@@std@@@std@@QEAAAEAV?$allocator@UBufferElement@buffers@core@@@2@XZ DD 025031719H
	DD	0d20a230fH
	DD	05006H
	DD	imagerel __CxxFrameHandler3
	DD	imagerel $cppxdata$?_Getal@?$_Vector_alloc@U?$_Vec_base_types@UBufferElement@buffers@core@@V?$allocator@UBufferElement@buffers@core@@@std@@@std@@@std@@QEAAAEAV?$allocator@UBufferElement@buffers@core@@@2@XZ
xdata	ENDS
;	COMDAT xdata
xdata	SEGMENT
$unwind$?_Orphan_all@?$_Vector_alloc@U?$_Vec_base_types@UBufferElement@buffers@core@@V?$allocator@UBufferElement@buffers@core@@@std@@@std@@@std@@QEAAXXZ DD 025030f01H
	DD	0b20a230fH
	DD	05006H
xdata	ENDS
;	COMDAT xdata
xdata	SEGMENT
$ip2state$?_Myproxy@?$_Vector_alloc@U?$_Vec_base_types@UBufferElement@buffers@core@@V?$allocator@UBufferElement@buffers@core@@@std@@@std@@@std@@QEAAAEAPEAU_Container_proxy@2@XZ DD imagerel ?_Myproxy@?$_Vector_alloc@U?$_Vec_base_types@UBufferElement@buffers@core@@V?$allocator@UBufferElement@buffers@core@@@std@@@std@@@std@@QEAAAEAPEAU_Container_proxy@2@XZ
	DD	0ffffffffH
xdata	ENDS
;	COMDAT CONST
CONST	SEGMENT
$cppxdata$?_Myproxy@?$_Vector_alloc@U?$_Vec_base_types@UBufferElement@buffers@core@@V?$allocator@UBufferElement@buffers@core@@@std@@@std@@@std@@QEAAAEAPEAU_Container_proxy@2@XZ DD 019930522H
	DD	00H
	DD	00H
	DD	00H
	DD	00H
	DD	01H
	DD	imagerel $ip2state$?_Myproxy@?$_Vector_alloc@U?$_Vec_base_types@UBufferElement@buffers@core@@V?$allocator@UBufferElement@buffers@core@@@std@@@std@@@std@@QEAAAEAPEAU_Container_proxy@2@XZ
	DD	060H
	DD	00H
	DD	05H
CONST	ENDS
;	COMDAT xdata
xdata	SEGMENT
$unwind$?_Myproxy@?$_Vector_alloc@U?$_Vec_base_types@UBufferElement@buffers@core@@V?$allocator@UBufferElement@buffers@core@@@std@@@std@@@std@@QEAAAEAPEAU_Container_proxy@2@XZ DD 025031719H
	DD	0d20a230fH
	DD	05006H
	DD	imagerel __CxxFrameHandler3
	DD	imagerel $cppxdata$?_Myproxy@?$_Vector_alloc@U?$_Vec_base_types@UBufferElement@buffers@core@@V?$allocator@UBufferElement@buffers@core@@@std@@@std@@@std@@QEAAAEAPEAU_Container_proxy@2@XZ
xdata	ENDS
;	COMDAT xdata
xdata	SEGMENT
$unwind$?_Getpfirst@?$_Vector_alloc@U?$_Vec_base_types@UBufferElement@buffers@core@@V?$allocator@UBufferElement@buffers@core@@@std@@@std@@@std@@QEBAPEAPEAU_Iterator_base12@2@XZ DD 025030f01H
	DD	0b20a230fH
	DD	05006H
xdata	ENDS
;	COMDAT xdata
xdata	SEGMENT
$unwind$?_Free_proxy@?$_Vector_alloc@U?$_Vec_base_types@UBufferElement@buffers@core@@V?$allocator@UBufferElement@buffers@core@@@std@@@std@@@std@@QEAAXXZ DD 025031d19H
	DD	0d20a230fH
	DD	05006H
	DD	imagerel __GSHandlerCheck
	DD	068H
xdata	ENDS
;	COMDAT xdata
xdata	SEGMENT
$unwind$?_Alloc_proxy@?$_Vector_alloc@U?$_Vec_base_types@UBufferElement@buffers@core@@V?$allocator@UBufferElement@buffers@core@@@std@@@std@@@std@@QEAAXXZ DD 025042019H
	DD	010d2312H
	DD	050060012H
	DD	imagerel __GSHandlerCheck
	DD	080H
xdata	ENDS
;	COMDAT xdata
xdata	SEGMENT
$ip2state$??1?$_Vector_alloc@U?$_Vec_base_types@UBufferElement@buffers@core@@V?$allocator@UBufferElement@buffers@core@@@std@@@std@@@std@@QEAA@XZ DD imagerel ??1?$_Vector_alloc@U?$_Vec_base_types@UBufferElement@buffers@core@@V?$allocator@UBufferElement@buffers@core@@@std@@@std@@@std@@QEAA@XZ
	DD	0ffffffffH
xdata	ENDS
;	COMDAT CONST
CONST	SEGMENT
$cppxdata$??1?$_Vector_alloc@U?$_Vec_base_types@UBufferElement@buffers@core@@V?$allocator@UBufferElement@buffers@core@@@std@@@std@@@std@@QEAA@XZ DD 019930522H
	DD	00H
	DD	00H
	DD	00H
	DD	00H
	DD	01H
	DD	imagerel $ip2state$??1?$_Vector_alloc@U?$_Vec_base_types@UBufferElement@buffers@core@@V?$allocator@UBufferElement@buffers@core@@@std@@@std@@@std@@QEAA@XZ
	DD	060H
	DD	00H
	DD	05H
CONST	ENDS
;	COMDAT xdata
xdata	SEGMENT
$unwind$??1?$_Vector_alloc@U?$_Vec_base_types@UBufferElement@buffers@core@@V?$allocator@UBufferElement@buffers@core@@@std@@@std@@@std@@QEAA@XZ DD 025031719H
	DD	0d20a230fH
	DD	05006H
	DD	imagerel __CxxFrameHandler3
	DD	imagerel $cppxdata$??1?$_Vector_alloc@U?$_Vec_base_types@UBufferElement@buffers@core@@V?$allocator@UBufferElement@buffers@core@@@std@@@std@@@std@@QEAA@XZ
xdata	ENDS
;	COMDAT xdata
xdata	SEGMENT
$unwind$??0?$_Vector_alloc@U?$_Vec_base_types@UBufferElement@buffers@core@@V?$allocator@UBufferElement@buffers@core@@@std@@@std@@@std@@QEAA@XZ DD 025030f01H
	DD	0d20a230fH
	DD	05006H
xdata	ENDS
;	COMDAT xdata
xdata	SEGMENT
$ip2state$?max_size@?$_Default_allocator_traits@V?$allocator@UBufferElement@buffers@core@@@std@@@std@@SA_KAEBV?$allocator@UBufferElement@buffers@core@@@2@@Z DD imagerel ?max_size@?$_Default_allocator_traits@V?$allocator@UBufferElement@buffers@core@@@std@@@std@@SA_KAEBV?$allocator@UBufferElement@buffers@core@@@2@@Z
	DD	0ffffffffH
xdata	ENDS
;	COMDAT CONST
CONST	SEGMENT
$cppxdata$?max_size@?$_Default_allocator_traits@V?$allocator@UBufferElement@buffers@core@@@std@@@std@@SA_KAEBV?$allocator@UBufferElement@buffers@core@@@2@@Z DD 019930522H
	DD	00H
	DD	00H
	DD	00H
	DD	00H
	DD	01H
	DD	imagerel $ip2state$?max_size@?$_Default_allocator_traits@V?$allocator@UBufferElement@buffers@core@@@std@@@std@@SA_KAEBV?$allocator@UBufferElement@buffers@core@@@2@@Z
	DD	060H
	DD	00H
	DD	05H
CONST	ENDS
;	COMDAT xdata
xdata	SEGMENT
$unwind$?max_size@?$_Default_allocator_traits@V?$allocator@UBufferElement@buffers@core@@@std@@@std@@SA_KAEBV?$allocator@UBufferElement@buffers@core@@@2@@Z DD 025031719H
	DD	0d20a230fH
	DD	05006H
	DD	imagerel __CxxFrameHandler3
	DD	imagerel $cppxdata$?max_size@?$_Default_allocator_traits@V?$allocator@UBufferElement@buffers@core@@@std@@@std@@SA_KAEBV?$allocator@UBufferElement@buffers@core@@@2@@Z
xdata	ENDS
;	COMDAT xdata
xdata	SEGMENT
$unwind$?allocate@?$allocator@UBufferElement@buffers@core@@@std@@QEAAPEAUBufferElement@buffers@core@@_K@Z DD 025031401H
	DD	0b20f2314H
	DD	0500bH
xdata	ENDS
;	COMDAT xdata
xdata	SEGMENT
$unwind$?deallocate@?$allocator@UBufferElement@buffers@core@@@std@@QEAAXQEAUBufferElement@buffers@core@@_K@Z DD 025031901H
	DD	0b2142319H
	DD	05010H
xdata	ENDS
;	COMDAT xdata
xdata	SEGMENT
$ip2state$??0?$allocator@UBufferElement@buffers@core@@@std@@QEAA@XZ DD imagerel ??0?$allocator@UBufferElement@buffers@core@@@std@@QEAA@XZ
	DD	0ffffffffH
xdata	ENDS
;	COMDAT CONST
CONST	SEGMENT
$cppxdata$??0?$allocator@UBufferElement@buffers@core@@@std@@QEAA@XZ DD 019930522H
	DD	00H
	DD	00H
	DD	00H
	DD	00H
	DD	01H
	DD	imagerel $ip2state$??0?$allocator@UBufferElement@buffers@core@@@std@@QEAA@XZ
	DD	060H
	DD	00H
	DD	05H
CONST	ENDS
;	COMDAT xdata
xdata	SEGMENT
$unwind$??0?$allocator@UBufferElement@buffers@core@@@std@@QEAA@XZ DD 025031719H
	DD	0d20a230fH
	DD	05006H
	DD	imagerel __CxxFrameHandler3
	DD	imagerel $cppxdata$??0?$allocator@UBufferElement@buffers@core@@@std@@QEAA@XZ
xdata	ENDS
;	COMDAT xdata
xdata	SEGMENT
$unwind$?SizeOfType@BufferElement@buffers@core@@SAII@Z DD 025030e01H
	DD	0d209230eH
	DD	05005H
xdata	ENDS
;	COMDAT xdata
xdata	SEGMENT
$unwind$?_Xlen@?$basic_string@DU?$char_traits@D@std@@V?$allocator@D@2@@std@@SAXXZ DD 025030b01H
	DD	0b206230bH
	DD	05002H
xdata	ENDS
;	COMDAT xdata
xdata	SEGMENT
$unwind$?_Tidy_deallocate@?$basic_string@DU?$char_traits@D@std@@V?$allocator@D@2@@std@@QEAAXXZ DD 025031201H
	DD	0f20d2312H
	DD	05006H
xdata	ENDS
;	COMDAT xdata
xdata	SEGMENT
$unwind$?_Tidy_init@?$basic_string@DU?$char_traits@D@std@@V?$allocator@D@2@@std@@QEAAXXZ DD 025030f01H
	DD	0d20a230fH
	DD	05006H
xdata	ENDS
;	COMDAT xdata
xdata	SEGMENT
$unwind$?_Calculate_growth@?$basic_string@DU?$char_traits@D@std@@V?$allocator@D@2@@std@@QEBA_K_K@Z DD 025042519H
	DD	01122317H
	DD	0500b0012H
	DD	imagerel __GSHandlerCheck
	DD	088H
xdata	ENDS
;	COMDAT xdata
xdata	SEGMENT
$ip2state$?max_size@?$basic_string@DU?$char_traits@D@std@@V?$allocator@D@2@@std@@QEBA_KXZ DD imagerel ?max_size@?$basic_string@DU?$char_traits@D@std@@V?$allocator@D@2@@std@@QEBA_KXZ
	DD	0ffffffffH
xdata	ENDS
;	COMDAT CONST
CONST	SEGMENT
$cppxdata$?max_size@?$basic_string@DU?$char_traits@D@std@@V?$allocator@D@2@@std@@QEBA_KXZ DD 019930522H
	DD	00H
	DD	00H
	DD	00H
	DD	00H
	DD	01H
	DD	imagerel $ip2state$?max_size@?$basic_string@DU?$char_traits@D@std@@V?$allocator@D@2@@std@@QEBA_KXZ
	DD	088H
	DD	00H
	DD	05H
CONST	ENDS
;	COMDAT xdata
xdata	SEGMENT
$unwind$?max_size@?$basic_string@DU?$char_traits@D@std@@V?$allocator@D@2@@std@@QEBA_KXZ DD 025042819H
	DD	010d2312H
	DD	050060014H
	DD	imagerel __GSHandlerCheck_EH
	DD	imagerel $cppxdata$?max_size@?$basic_string@DU?$char_traits@D@std@@V?$allocator@D@2@@std@@QEBA_KXZ
	DD	093H
xdata	ENDS
;	COMDAT xdata
xdata	SEGMENT
$unwind$?assign@?$basic_string@DU?$char_traits@D@std@@V?$allocator@D@2@@std@@QEAAAEAV12@QEBD@Z DD 025031401H
	DD	0b20f2314H
	DD	0500bH
xdata	ENDS
;	COMDAT xdata
xdata	SEGMENT
$unwind$?assign@?$basic_string@DU?$char_traits@D@std@@V?$allocator@D@2@@std@@QEAAAEAV12@QEBD_K@Z DD 025051d01H
	DD	0118231dH
	DD	070110011H
	DD	05010H
xdata	ENDS
;	COMDAT xdata
xdata	SEGMENT
$ip2state$??1?$basic_string@DU?$char_traits@D@std@@V?$allocator@D@2@@std@@QEAA@XZ DD imagerel ??1?$basic_string@DU?$char_traits@D@std@@V?$allocator@D@2@@std@@QEAA@XZ
	DD	0ffffffffH
xdata	ENDS
;	COMDAT CONST
CONST	SEGMENT
$cppxdata$??1?$basic_string@DU?$char_traits@D@std@@V?$allocator@D@2@@std@@QEAA@XZ DD 019930522H
	DD	00H
	DD	00H
	DD	00H
	DD	00H
	DD	01H
	DD	imagerel $ip2state$??1?$basic_string@DU?$char_traits@D@std@@V?$allocator@D@2@@std@@QEAA@XZ
	DD	060H
	DD	00H
	DD	05H
CONST	ENDS
;	COMDAT xdata
xdata	SEGMENT
$unwind$??1?$basic_string@DU?$char_traits@D@std@@V?$allocator@D@2@@std@@QEAA@XZ DD 025031719H
	DD	0d20a230fH
	DD	05006H
	DD	imagerel __CxxFrameHandler3
	DD	imagerel $cppxdata$??1?$basic_string@DU?$char_traits@D@std@@V?$allocator@D@2@@std@@QEAA@XZ
xdata	ENDS
;	COMDAT xdata
xdata	SEGMENT
$unwind$?dtor$0@?0???0?$basic_string@DU?$char_traits@D@std@@V?$allocator@D@2@@std@@QEAA@QEBD@Z@4HA DD 020601H
	DD	050023206H
xdata	ENDS
;	COMDAT xdata
xdata	SEGMENT
$ip2state$??0?$basic_string@DU?$char_traits@D@std@@V?$allocator@D@2@@std@@QEAA@QEBD@Z DD imagerel ??0?$basic_string@DU?$char_traits@D@std@@V?$allocator@D@2@@std@@QEAA@QEBD@Z
	DD	0ffffffffH
	DD	imagerel ??0?$basic_string@DU?$char_traits@D@std@@V?$allocator@D@2@@std@@QEAA@QEBD@Z+50
	DD	00H
	DD	imagerel ??0?$basic_string@DU?$char_traits@D@std@@V?$allocator@D@2@@std@@QEAA@QEBD@Z+73
	DD	0ffffffffH
xdata	ENDS
;	COMDAT xdata
xdata	SEGMENT
$stateUnwindMap$??0?$basic_string@DU?$char_traits@D@std@@V?$allocator@D@2@@std@@QEAA@QEBD@Z DD 0ffffffffH
	DD	imagerel ?dtor$0@?0???0?$basic_string@DU?$char_traits@D@std@@V?$allocator@D@2@@std@@QEAA@QEBD@Z@4HA
xdata	ENDS
;	COMDAT CONST
CONST	SEGMENT
$cppxdata$??0?$basic_string@DU?$char_traits@D@std@@V?$allocator@D@2@@std@@QEAA@QEBD@Z DD 019930522H
	DD	01H
	DD	imagerel $stateUnwindMap$??0?$basic_string@DU?$char_traits@D@std@@V?$allocator@D@2@@std@@QEAA@QEBD@Z
	DD	00H
	DD	00H
	DD	03H
	DD	imagerel $ip2state$??0?$basic_string@DU?$char_traits@D@std@@V?$allocator@D@2@@std@@QEAA@QEBD@Z
	DD	060H
	DD	00H
	DD	01H
CONST	ENDS
;	COMDAT xdata
xdata	SEGMENT
$unwind$??0?$basic_string@DU?$char_traits@D@std@@V?$allocator@D@2@@std@@QEAA@QEBD@Z DD 025031c11H
	DD	0d20f2314H
	DD	0500bH
	DD	imagerel __CxxFrameHandler3
	DD	imagerel $cppxdata$??0?$basic_string@DU?$char_traits@D@std@@V?$allocator@D@2@@std@@QEAA@QEBD@Z
xdata	ENDS
;	COMDAT xdata
xdata	SEGMENT
$unwind$??1?$_Compressed_pair@V?$allocator@D@std@@V?$_String_val@U?$_Simple_types@D@std@@@2@$00@std@@QEAA@XZ DD 025030f01H
	DD	0b20a230fH
	DD	05006H
xdata	ENDS
;	COMDAT xdata
xdata	SEGMENT
$ip2state$?_Get_second@?$_Compressed_pair@V?$allocator@D@std@@V?$_String_val@U?$_Simple_types@D@std@@@2@$00@std@@QEBAAEBV?$_String_val@U?$_Simple_types@D@std@@@2@XZ DD imagerel ?_Get_second@?$_Compressed_pair@V?$allocator@D@std@@V?$_String_val@U?$_Simple_types@D@std@@@2@$00@std@@QEBAAEBV?$_String_val@U?$_Simple_types@D@std@@@2@XZ
	DD	0ffffffffH
xdata	ENDS
;	COMDAT CONST
CONST	SEGMENT
$cppxdata$?_Get_second@?$_Compressed_pair@V?$allocator@D@std@@V?$_String_val@U?$_Simple_types@D@std@@@2@$00@std@@QEBAAEBV?$_String_val@U?$_Simple_types@D@std@@@2@XZ DD 019930522H
	DD	00H
	DD	00H
	DD	00H
	DD	00H
	DD	01H
	DD	imagerel $ip2state$?_Get_second@?$_Compressed_pair@V?$allocator@D@std@@V?$_String_val@U?$_Simple_types@D@std@@@2@$00@std@@QEBAAEBV?$_String_val@U?$_Simple_types@D@std@@@2@XZ
	DD	060H
	DD	00H
	DD	05H
CONST	ENDS
;	COMDAT xdata
xdata	SEGMENT
$unwind$?_Get_second@?$_Compressed_pair@V?$allocator@D@std@@V?$_String_val@U?$_Simple_types@D@std@@@2@$00@std@@QEBAAEBV?$_String_val@U?$_Simple_types@D@std@@@2@XZ DD 025031719H
	DD	0d20a230fH
	DD	05006H
	DD	imagerel __CxxFrameHandler3
	DD	imagerel $cppxdata$?_Get_second@?$_Compressed_pair@V?$allocator@D@std@@V?$_String_val@U?$_Simple_types@D@std@@@2@$00@std@@QEBAAEBV?$_String_val@U?$_Simple_types@D@std@@@2@XZ
xdata	ENDS
;	COMDAT xdata
xdata	SEGMENT
$ip2state$?_Get_second@?$_Compressed_pair@V?$allocator@D@std@@V?$_String_val@U?$_Simple_types@D@std@@@2@$00@std@@QEAAAEAV?$_String_val@U?$_Simple_types@D@std@@@2@XZ DD imagerel ?_Get_second@?$_Compressed_pair@V?$allocator@D@std@@V?$_String_val@U?$_Simple_types@D@std@@@2@$00@std@@QEAAAEAV?$_String_val@U?$_Simple_types@D@std@@@2@XZ
	DD	0ffffffffH
xdata	ENDS
;	COMDAT CONST
CONST	SEGMENT
$cppxdata$?_Get_second@?$_Compressed_pair@V?$allocator@D@std@@V?$_String_val@U?$_Simple_types@D@std@@@2@$00@std@@QEAAAEAV?$_String_val@U?$_Simple_types@D@std@@@2@XZ DD 019930522H
	DD	00H
	DD	00H
	DD	00H
	DD	00H
	DD	01H
	DD	imagerel $ip2state$?_Get_second@?$_Compressed_pair@V?$allocator@D@std@@V?$_String_val@U?$_Simple_types@D@std@@@2@$00@std@@QEAAAEAV?$_String_val@U?$_Simple_types@D@std@@@2@XZ
	DD	060H
	DD	00H
	DD	05H
CONST	ENDS
;	COMDAT xdata
xdata	SEGMENT
$unwind$?_Get_second@?$_Compressed_pair@V?$allocator@D@std@@V?$_String_val@U?$_Simple_types@D@std@@@2@$00@std@@QEAAAEAV?$_String_val@U?$_Simple_types@D@std@@@2@XZ DD 025031719H
	DD	0d20a230fH
	DD	05006H
	DD	imagerel __CxxFrameHandler3
	DD	imagerel $cppxdata$?_Get_second@?$_Compressed_pair@V?$allocator@D@std@@V?$_String_val@U?$_Simple_types@D@std@@@2@$00@std@@QEAAAEAV?$_String_val@U?$_Simple_types@D@std@@@2@XZ
xdata	ENDS
;	COMDAT xdata
xdata	SEGMENT
$ip2state$?_Get_first@?$_Compressed_pair@V?$allocator@D@std@@V?$_String_val@U?$_Simple_types@D@std@@@2@$00@std@@QEBAAEBV?$allocator@D@2@XZ DD imagerel ?_Get_first@?$_Compressed_pair@V?$allocator@D@std@@V?$_String_val@U?$_Simple_types@D@std@@@2@$00@std@@QEBAAEBV?$allocator@D@2@XZ
	DD	0ffffffffH
xdata	ENDS
;	COMDAT CONST
CONST	SEGMENT
$cppxdata$?_Get_first@?$_Compressed_pair@V?$allocator@D@std@@V?$_String_val@U?$_Simple_types@D@std@@@2@$00@std@@QEBAAEBV?$allocator@D@2@XZ DD 019930522H
	DD	00H
	DD	00H
	DD	00H
	DD	00H
	DD	01H
	DD	imagerel $ip2state$?_Get_first@?$_Compressed_pair@V?$allocator@D@std@@V?$_String_val@U?$_Simple_types@D@std@@@2@$00@std@@QEBAAEBV?$allocator@D@2@XZ
	DD	060H
	DD	00H
	DD	05H
CONST	ENDS
;	COMDAT xdata
xdata	SEGMENT
$unwind$?_Get_first@?$_Compressed_pair@V?$allocator@D@std@@V?$_String_val@U?$_Simple_types@D@std@@@2@$00@std@@QEBAAEBV?$allocator@D@2@XZ DD 025031719H
	DD	0d20a230fH
	DD	05006H
	DD	imagerel __CxxFrameHandler3
	DD	imagerel $cppxdata$?_Get_first@?$_Compressed_pair@V?$allocator@D@std@@V?$_String_val@U?$_Simple_types@D@std@@@2@$00@std@@QEBAAEBV?$allocator@D@2@XZ
xdata	ENDS
;	COMDAT xdata
xdata	SEGMENT
$ip2state$?_Get_first@?$_Compressed_pair@V?$allocator@D@std@@V?$_String_val@U?$_Simple_types@D@std@@@2@$00@std@@QEAAAEAV?$allocator@D@2@XZ DD imagerel ?_Get_first@?$_Compressed_pair@V?$allocator@D@std@@V?$_String_val@U?$_Simple_types@D@std@@@2@$00@std@@QEAAAEAV?$allocator@D@2@XZ
	DD	0ffffffffH
xdata	ENDS
;	COMDAT CONST
CONST	SEGMENT
$cppxdata$?_Get_first@?$_Compressed_pair@V?$allocator@D@std@@V?$_String_val@U?$_Simple_types@D@std@@@2@$00@std@@QEAAAEAV?$allocator@D@2@XZ DD 019930522H
	DD	00H
	DD	00H
	DD	00H
	DD	00H
	DD	01H
	DD	imagerel $ip2state$?_Get_first@?$_Compressed_pair@V?$allocator@D@std@@V?$_String_val@U?$_Simple_types@D@std@@@2@$00@std@@QEAAAEAV?$allocator@D@2@XZ
	DD	060H
	DD	00H
	DD	05H
CONST	ENDS
;	COMDAT xdata
xdata	SEGMENT
$unwind$?_Get_first@?$_Compressed_pair@V?$allocator@D@std@@V?$_String_val@U?$_Simple_types@D@std@@@2@$00@std@@QEAAAEAV?$allocator@D@2@XZ DD 025031719H
	DD	0d20a230fH
	DD	05006H
	DD	imagerel __CxxFrameHandler3
	DD	imagerel $cppxdata$?_Get_first@?$_Compressed_pair@V?$allocator@D@std@@V?$_String_val@U?$_Simple_types@D@std@@@2@$00@std@@QEAAAEAV?$allocator@D@2@XZ
xdata	ENDS
;	COMDAT xdata
xdata	SEGMENT
$ip2state$?_Get_data@?$_String_alloc@U?$_String_base_types@DV?$allocator@D@std@@@std@@@std@@QEBAAEBV?$_String_val@U?$_Simple_types@D@std@@@2@XZ DD imagerel ?_Get_data@?$_String_alloc@U?$_String_base_types@DV?$allocator@D@std@@@std@@@std@@QEBAAEBV?$_String_val@U?$_Simple_types@D@std@@@2@XZ
	DD	0ffffffffH
xdata	ENDS
;	COMDAT CONST
CONST	SEGMENT
$cppxdata$?_Get_data@?$_String_alloc@U?$_String_base_types@DV?$allocator@D@std@@@std@@@std@@QEBAAEBV?$_String_val@U?$_Simple_types@D@std@@@2@XZ DD 019930522H
	DD	00H
	DD	00H
	DD	00H
	DD	00H
	DD	01H
	DD	imagerel $ip2state$?_Get_data@?$_String_alloc@U?$_String_base_types@DV?$allocator@D@std@@@std@@@std@@QEBAAEBV?$_String_val@U?$_Simple_types@D@std@@@2@XZ
	DD	060H
	DD	00H
	DD	05H
CONST	ENDS
;	COMDAT xdata
xdata	SEGMENT
$unwind$?_Get_data@?$_String_alloc@U?$_String_base_types@DV?$allocator@D@std@@@std@@@std@@QEBAAEBV?$_String_val@U?$_Simple_types@D@std@@@2@XZ DD 025031719H
	DD	0d20a230fH
	DD	05006H
	DD	imagerel __CxxFrameHandler3
	DD	imagerel $cppxdata$?_Get_data@?$_String_alloc@U?$_String_base_types@DV?$allocator@D@std@@@std@@@std@@QEBAAEBV?$_String_val@U?$_Simple_types@D@std@@@2@XZ
xdata	ENDS
;	COMDAT xdata
xdata	SEGMENT
$ip2state$?_Get_data@?$_String_alloc@U?$_String_base_types@DV?$allocator@D@std@@@std@@@std@@QEAAAEAV?$_String_val@U?$_Simple_types@D@std@@@2@XZ DD imagerel ?_Get_data@?$_String_alloc@U?$_String_base_types@DV?$allocator@D@std@@@std@@@std@@QEAAAEAV?$_String_val@U?$_Simple_types@D@std@@@2@XZ
	DD	0ffffffffH
xdata	ENDS
;	COMDAT CONST
CONST	SEGMENT
$cppxdata$?_Get_data@?$_String_alloc@U?$_String_base_types@DV?$allocator@D@std@@@std@@@std@@QEAAAEAV?$_String_val@U?$_Simple_types@D@std@@@2@XZ DD 019930522H
	DD	00H
	DD	00H
	DD	00H
	DD	00H
	DD	01H
	DD	imagerel $ip2state$?_Get_data@?$_String_alloc@U?$_String_base_types@DV?$allocator@D@std@@@std@@@std@@QEAAAEAV?$_String_val@U?$_Simple_types@D@std@@@2@XZ
	DD	060H
	DD	00H
	DD	05H
CONST	ENDS
;	COMDAT xdata
xdata	SEGMENT
$unwind$?_Get_data@?$_String_alloc@U?$_String_base_types@DV?$allocator@D@std@@@std@@@std@@QEAAAEAV?$_String_val@U?$_Simple_types@D@std@@@2@XZ DD 025031719H
	DD	0d20a230fH
	DD	05006H
	DD	imagerel __CxxFrameHandler3
	DD	imagerel $cppxdata$?_Get_data@?$_String_alloc@U?$_String_base_types@DV?$allocator@D@std@@@std@@@std@@QEAAAEAV?$_String_val@U?$_Simple_types@D@std@@@2@XZ
xdata	ENDS
;	COMDAT xdata
xdata	SEGMENT
$ip2state$?_Getal@?$_String_alloc@U?$_String_base_types@DV?$allocator@D@std@@@std@@@std@@QEBAAEBV?$allocator@D@2@XZ DD imagerel ?_Getal@?$_String_alloc@U?$_String_base_types@DV?$allocator@D@std@@@std@@@std@@QEBAAEBV?$allocator@D@2@XZ
	DD	0ffffffffH
xdata	ENDS
;	COMDAT CONST
CONST	SEGMENT
$cppxdata$?_Getal@?$_String_alloc@U?$_String_base_types@DV?$allocator@D@std@@@std@@@std@@QEBAAEBV?$allocator@D@2@XZ DD 019930522H
	DD	00H
	DD	00H
	DD	00H
	DD	00H
	DD	01H
	DD	imagerel $ip2state$?_Getal@?$_String_alloc@U?$_String_base_types@DV?$allocator@D@std@@@std@@@std@@QEBAAEBV?$allocator@D@2@XZ
	DD	060H
	DD	00H
	DD	05H
CONST	ENDS
;	COMDAT xdata
xdata	SEGMENT
$unwind$?_Getal@?$_String_alloc@U?$_String_base_types@DV?$allocator@D@std@@@std@@@std@@QEBAAEBV?$allocator@D@2@XZ DD 025031719H
	DD	0d20a230fH
	DD	05006H
	DD	imagerel __CxxFrameHandler3
	DD	imagerel $cppxdata$?_Getal@?$_String_alloc@U?$_String_base_types@DV?$allocator@D@std@@@std@@@std@@QEBAAEBV?$allocator@D@2@XZ
xdata	ENDS
;	COMDAT xdata
xdata	SEGMENT
$ip2state$?_Getal@?$_String_alloc@U?$_String_base_types@DV?$allocator@D@std@@@std@@@std@@QEAAAEAV?$allocator@D@2@XZ DD imagerel ?_Getal@?$_String_alloc@U?$_String_base_types@DV?$allocator@D@std@@@std@@@std@@QEAAAEAV?$allocator@D@2@XZ
	DD	0ffffffffH
xdata	ENDS
;	COMDAT CONST
CONST	SEGMENT
$cppxdata$?_Getal@?$_String_alloc@U?$_String_base_types@DV?$allocator@D@std@@@std@@@std@@QEAAAEAV?$allocator@D@2@XZ DD 019930522H
	DD	00H
	DD	00H
	DD	00H
	DD	00H
	DD	01H
	DD	imagerel $ip2state$?_Getal@?$_String_alloc@U?$_String_base_types@DV?$allocator@D@std@@@std@@@std@@QEAAAEAV?$allocator@D@2@XZ
	DD	060H
	DD	00H
	DD	05H
CONST	ENDS
;	COMDAT xdata
xdata	SEGMENT
$unwind$?_Getal@?$_String_alloc@U?$_String_base_types@DV?$allocator@D@std@@@std@@@std@@QEAAAEAV?$allocator@D@2@XZ DD 025031719H
	DD	0d20a230fH
	DD	05006H
	DD	imagerel __CxxFrameHandler3
	DD	imagerel $cppxdata$?_Getal@?$_String_alloc@U?$_String_base_types@DV?$allocator@D@std@@@std@@@std@@QEAAAEAV?$allocator@D@2@XZ
xdata	ENDS
;	COMDAT xdata
xdata	SEGMENT
$unwind$?_Orphan_all@?$_String_alloc@U?$_String_base_types@DV?$allocator@D@std@@@std@@@std@@QEAAXXZ DD 025030f01H
	DD	0b20a230fH
	DD	05006H
xdata	ENDS
;	COMDAT xdata
xdata	SEGMENT
$ip2state$?_Myproxy@?$_String_alloc@U?$_String_base_types@DV?$allocator@D@std@@@std@@@std@@QEAAAEAPEAU_Container_proxy@2@XZ DD imagerel ?_Myproxy@?$_String_alloc@U?$_String_base_types@DV?$allocator@D@std@@@std@@@std@@QEAAAEAPEAU_Container_proxy@2@XZ
	DD	0ffffffffH
xdata	ENDS
;	COMDAT CONST
CONST	SEGMENT
$cppxdata$?_Myproxy@?$_String_alloc@U?$_String_base_types@DV?$allocator@D@std@@@std@@@std@@QEAAAEAPEAU_Container_proxy@2@XZ DD 019930522H
	DD	00H
	DD	00H
	DD	00H
	DD	00H
	DD	01H
	DD	imagerel $ip2state$?_Myproxy@?$_String_alloc@U?$_String_base_types@DV?$allocator@D@std@@@std@@@std@@QEAAAEAPEAU_Container_proxy@2@XZ
	DD	060H
	DD	00H
	DD	05H
CONST	ENDS
;	COMDAT xdata
xdata	SEGMENT
$unwind$?_Myproxy@?$_String_alloc@U?$_String_base_types@DV?$allocator@D@std@@@std@@@std@@QEAAAEAPEAU_Container_proxy@2@XZ DD 025031719H
	DD	0d20a230fH
	DD	05006H
	DD	imagerel __CxxFrameHandler3
	DD	imagerel $cppxdata$?_Myproxy@?$_String_alloc@U?$_String_base_types@DV?$allocator@D@std@@@std@@@std@@QEAAAEAPEAU_Container_proxy@2@XZ
xdata	ENDS
;	COMDAT xdata
xdata	SEGMENT
$unwind$?_Free_proxy@?$_String_alloc@U?$_String_base_types@DV?$allocator@D@std@@@std@@@std@@QEAAXXZ DD 025031d19H
	DD	0d20a230fH
	DD	05006H
	DD	imagerel __GSHandlerCheck
	DD	068H
xdata	ENDS
;	COMDAT xdata
xdata	SEGMENT
$unwind$?_Alloc_proxy@?$_String_alloc@U?$_String_base_types@DV?$allocator@D@std@@@std@@@std@@QEAAXXZ DD 025042019H
	DD	010d2312H
	DD	050060012H
	DD	imagerel __GSHandlerCheck
	DD	080H
xdata	ENDS
;	COMDAT xdata
xdata	SEGMENT
$ip2state$??1?$_String_alloc@U?$_String_base_types@DV?$allocator@D@std@@@std@@@std@@QEAA@XZ DD imagerel ??1?$_String_alloc@U?$_String_base_types@DV?$allocator@D@std@@@std@@@std@@QEAA@XZ
	DD	0ffffffffH
xdata	ENDS
;	COMDAT CONST
CONST	SEGMENT
$cppxdata$??1?$_String_alloc@U?$_String_base_types@DV?$allocator@D@std@@@std@@@std@@QEAA@XZ DD 019930522H
	DD	00H
	DD	00H
	DD	00H
	DD	00H
	DD	01H
	DD	imagerel $ip2state$??1?$_String_alloc@U?$_String_base_types@DV?$allocator@D@std@@@std@@@std@@QEAA@XZ
	DD	060H
	DD	00H
	DD	05H
CONST	ENDS
;	COMDAT xdata
xdata	SEGMENT
$unwind$??1?$_String_alloc@U?$_String_base_types@DV?$allocator@D@std@@@std@@@std@@QEAA@XZ DD 025031719H
	DD	0d20a230fH
	DD	05006H
	DD	imagerel __CxxFrameHandler3
	DD	imagerel $cppxdata$??1?$_String_alloc@U?$_String_base_types@DV?$allocator@D@std@@@std@@@std@@QEAA@XZ
xdata	ENDS
;	COMDAT xdata
xdata	SEGMENT
$unwind$?dtor$0@?0???0?$_String_alloc@U?$_String_base_types@DV?$allocator@D@std@@@std@@@std@@QEAA@XZ@4HA DD 020601H
	DD	050023206H
xdata	ENDS
;	COMDAT xdata
xdata	SEGMENT
$ip2state$??0?$_String_alloc@U?$_String_base_types@DV?$allocator@D@std@@@std@@@std@@QEAA@XZ DD imagerel ??0?$_String_alloc@U?$_String_base_types@DV?$allocator@D@std@@@std@@@std@@QEAA@XZ
	DD	0ffffffffH
	DD	imagerel ??0?$_String_alloc@U?$_String_base_types@DV?$allocator@D@std@@@std@@@std@@QEAA@XZ+52
	DD	00H
	DD	imagerel ??0?$_String_alloc@U?$_String_base_types@DV?$allocator@D@std@@@std@@@std@@QEAA@XZ+62
	DD	0ffffffffH
xdata	ENDS
;	COMDAT xdata
xdata	SEGMENT
$stateUnwindMap$??0?$_String_alloc@U?$_String_base_types@DV?$allocator@D@std@@@std@@@std@@QEAA@XZ DD 0ffffffffH
	DD	imagerel ?dtor$0@?0???0?$_String_alloc@U?$_String_base_types@DV?$allocator@D@std@@@std@@@std@@QEAA@XZ@4HA
xdata	ENDS
;	COMDAT CONST
CONST	SEGMENT
$cppxdata$??0?$_String_alloc@U?$_String_base_types@DV?$allocator@D@std@@@std@@@std@@QEAA@XZ DD 019930522H
	DD	01H
	DD	imagerel $stateUnwindMap$??0?$_String_alloc@U?$_String_base_types@DV?$allocator@D@std@@@std@@@std@@QEAA@XZ
	DD	00H
	DD	00H
	DD	03H
	DD	imagerel $ip2state$??0?$_String_alloc@U?$_String_base_types@DV?$allocator@D@std@@@std@@@std@@QEAA@XZ
	DD	068H
	DD	00H
	DD	01H
CONST	ENDS
;	COMDAT xdata
xdata	SEGMENT
$unwind$??0?$_String_alloc@U?$_String_base_types@DV?$allocator@D@std@@@std@@@std@@QEAA@XZ DD 025031711H
	DD	0d20a230fH
	DD	05006H
	DD	imagerel __CxxFrameHandler3
	DD	imagerel $cppxdata$??0?$_String_alloc@U?$_String_base_types@DV?$allocator@D@std@@@std@@@std@@QEAA@XZ
xdata	ENDS
;	COMDAT xdata
xdata	SEGMENT
$unwind$??1?$_String_val@U?$_Simple_types@D@std@@@std@@QEAA@XZ DD 025030f01H
	DD	0b20a230fH
	DD	05006H
xdata	ENDS
;	COMDAT xdata
xdata	SEGMENT
$ip2state$??1_Bxty@?$_String_val@U?$_Simple_types@D@std@@@std@@QEAA@XZ DD imagerel ??1_Bxty@?$_String_val@U?$_Simple_types@D@std@@@std@@QEAA@XZ
	DD	0ffffffffH
xdata	ENDS
;	COMDAT CONST
CONST	SEGMENT
$cppxdata$??1_Bxty@?$_String_val@U?$_Simple_types@D@std@@@std@@QEAA@XZ DD 019930522H
	DD	00H
	DD	00H
	DD	00H
	DD	00H
	DD	01H
	DD	imagerel $ip2state$??1_Bxty@?$_String_val@U?$_Simple_types@D@std@@@std@@QEAA@XZ
	DD	060H
	DD	00H
	DD	05H
CONST	ENDS
;	COMDAT xdata
xdata	SEGMENT
$unwind$??1_Bxty@?$_String_val@U?$_Simple_types@D@std@@@std@@QEAA@XZ DD 025031719H
	DD	0d20a230fH
	DD	05006H
	DD	imagerel __CxxFrameHandler3
	DD	imagerel $cppxdata$??1_Bxty@?$_String_val@U?$_Simple_types@D@std@@@std@@QEAA@XZ
xdata	ENDS
;	COMDAT xdata
xdata	SEGMENT
$unwind$??0_Bxty@?$_String_val@U?$_Simple_types@D@std@@@std@@QEAA@XZ DD 025030f01H
	DD	0b20a230fH
	DD	05006H
xdata	ENDS
;	COMDAT xdata
xdata	SEGMENT
$unwind$?_Large_string_engaged@?$_String_val@U?$_Simple_types@D@std@@@std@@QEBA_NXZ DD 025030f01H
	DD	0d20a230fH
	DD	05006H
xdata	ENDS
;	COMDAT xdata
xdata	SEGMENT
$unwind$?_Myptr@?$_String_val@U?$_Simple_types@D@std@@@std@@QEAAPEADXZ DD 025030f01H
	DD	0d20a230fH
	DD	05006H
xdata	ENDS
;	COMDAT xdata
xdata	SEGMENT
$unwind$??0?$_String_val@U?$_Simple_types@D@std@@@std@@QEAA@XZ DD 025030f01H
	DD	0b20a230fH
	DD	05006H
xdata	ENDS
;	COMDAT xdata
xdata	SEGMENT
$ip2state$?max_size@?$_Default_allocator_traits@V?$allocator@D@std@@@std@@SA_KAEBV?$allocator@D@2@@Z DD imagerel ?max_size@?$_Default_allocator_traits@V?$allocator@D@std@@@std@@SA_KAEBV?$allocator@D@2@@Z
	DD	0ffffffffH
xdata	ENDS
;	COMDAT CONST
CONST	SEGMENT
$cppxdata$?max_size@?$_Default_allocator_traits@V?$allocator@D@std@@@std@@SA_KAEBV?$allocator@D@2@@Z DD 019930522H
	DD	00H
	DD	00H
	DD	00H
	DD	00H
	DD	01H
	DD	imagerel $ip2state$?max_size@?$_Default_allocator_traits@V?$allocator@D@std@@@std@@SA_KAEBV?$allocator@D@2@@Z
	DD	060H
	DD	00H
	DD	05H
CONST	ENDS
;	COMDAT xdata
xdata	SEGMENT
$unwind$?max_size@?$_Default_allocator_traits@V?$allocator@D@std@@@std@@SA_KAEBV?$allocator@D@2@@Z DD 025031719H
	DD	0d20a230fH
	DD	05006H
	DD	imagerel __CxxFrameHandler3
	DD	imagerel $cppxdata$?max_size@?$_Default_allocator_traits@V?$allocator@D@std@@@std@@SA_KAEBV?$allocator@D@2@@Z
xdata	ENDS
;	COMDAT xdata
xdata	SEGMENT
$unwind$?allocate@?$allocator@D@std@@QEAAPEAD_K@Z DD 025031401H
	DD	0b20f2314H
	DD	0500bH
xdata	ENDS
;	COMDAT xdata
xdata	SEGMENT
$unwind$?deallocate@?$allocator@D@std@@QEAAXQEAD_K@Z DD 025031901H
	DD	0b2142319H
	DD	05010H
xdata	ENDS
;	COMDAT xdata
xdata	SEGMENT
$ip2state$??0?$allocator@D@std@@QEAA@XZ DD imagerel ??0?$allocator@D@std@@QEAA@XZ
	DD	0ffffffffH
xdata	ENDS
;	COMDAT CONST
CONST	SEGMENT
$cppxdata$??0?$allocator@D@std@@QEAA@XZ DD 019930522H
	DD	00H
	DD	00H
	DD	00H
	DD	00H
	DD	01H
	DD	imagerel $ip2state$??0?$allocator@D@std@@QEAA@XZ
	DD	060H
	DD	00H
	DD	05H
CONST	ENDS
;	COMDAT xdata
xdata	SEGMENT
$unwind$??0?$allocator@D@std@@QEAA@XZ DD 025031719H
	DD	0d20a230fH
	DD	05006H
	DD	imagerel __CxxFrameHandler3
	DD	imagerel $cppxdata$??0?$allocator@D@std@@QEAA@XZ
xdata	ENDS
;	COMDAT xdata
xdata	SEGMENT
$ip2state$??$_Min_value@_K@std@@YAAEB_KAEB_K0@Z DD imagerel ??$_Min_value@_K@std@@YAAEB_KAEB_K0@Z
	DD	0ffffffffH
xdata	ENDS
;	COMDAT CONST
CONST	SEGMENT
$cppxdata$??$_Min_value@_K@std@@YAAEB_KAEB_K0@Z DD 019930522H
	DD	00H
	DD	00H
	DD	00H
	DD	00H
	DD	01H
	DD	imagerel $ip2state$??$_Min_value@_K@std@@YAAEB_KAEB_K0@Z
	DD	068H
	DD	00H
	DD	05H
CONST	ENDS
;	COMDAT xdata
xdata	SEGMENT
$unwind$??$_Min_value@_K@std@@YAAEB_KAEB_K0@Z DD 025031f19H
	DD	0f2122317H
	DD	0500bH
	DD	imagerel __CxxFrameHandler3
	DD	imagerel $cppxdata$??$_Min_value@_K@std@@YAAEB_KAEB_K0@Z
xdata	ENDS
;	COMDAT xdata
xdata	SEGMENT
$unwind$??$_Convert_size@_K@std@@YA_K_K@Z DD 025030f01H
	DD	0b20a230fH
	DD	05006H
xdata	ENDS
;	COMDAT xdata
xdata	SEGMENT
$unwind$?_Adjust_manually_vector_aligned@std@@YAXAEAPEAXAEA_K@Z DD 035041701H
	DD	01123317H
	DD	0500b0012H
xdata	ENDS
;	COMDAT xdata
xdata	SEGMENT
$unwind$?_Allocate@_Default_allocate_traits@std@@SAPEAX_K@Z DD 025030f01H
	DD	0b20a230fH
	DD	05006H
xdata	ENDS
;	COMDAT xdata
xdata	SEGMENT
$unwind$??$_Get_size_of_n@$00@std@@YA_K_K@Z DD 025030f01H
	DD	0b20a230fH
	DD	05006H
xdata	ENDS
;	COMDAT xdata
xdata	SEGMENT
$ip2state$?_Getpnext@_Iterator_base12@std@@QEAAPEAPEAU12@XZ DD imagerel ?_Getpnext@_Iterator_base12@std@@QEAAPEAPEAU12@XZ
	DD	0ffffffffH
xdata	ENDS
;	COMDAT CONST
CONST	SEGMENT
$cppxdata$?_Getpnext@_Iterator_base12@std@@QEAAPEAPEAU12@XZ DD 019930522H
	DD	00H
	DD	00H
	DD	00H
	DD	00H
	DD	01H
	DD	imagerel $ip2state$?_Getpnext@_Iterator_base12@std@@QEAAPEAPEAU12@XZ
	DD	060H
	DD	00H
	DD	05H
CONST	ENDS
;	COMDAT xdata
xdata	SEGMENT
$unwind$?_Getpnext@_Iterator_base12@std@@QEAAPEAPEAU12@XZ DD 025031719H
	DD	0d20a230fH
	DD	05006H
	DD	imagerel __CxxFrameHandler3
	DD	imagerel $cppxdata$?_Getpnext@_Iterator_base12@std@@QEAAPEAPEAU12@XZ
xdata	ENDS
;	COMDAT xdata
xdata	SEGMENT
$ip2state$?_Clrcont@_Iterator_base12@std@@QEAAXXZ DD imagerel ?_Clrcont@_Iterator_base12@std@@QEAAXXZ
	DD	0ffffffffH
xdata	ENDS
;	COMDAT CONST
CONST	SEGMENT
$cppxdata$?_Clrcont@_Iterator_base12@std@@QEAAXXZ DD 019930522H
	DD	00H
	DD	00H
	DD	00H
	DD	00H
	DD	01H
	DD	imagerel $ip2state$?_Clrcont@_Iterator_base12@std@@QEAAXXZ
	DD	060H
	DD	00H
	DD	05H
CONST	ENDS
;	COMDAT xdata
xdata	SEGMENT
$unwind$?_Clrcont@_Iterator_base12@std@@QEAAXXZ DD 025031719H
	DD	0d20a230fH
	DD	05006H
	DD	imagerel __CxxFrameHandler3
	DD	imagerel $cppxdata$?_Clrcont@_Iterator_base12@std@@QEAAXXZ
xdata	ENDS
;	COMDAT xdata
xdata	SEGMENT
$ip2state$?_Orphan_all@_Container_base12@std@@QEAAXXZ DD imagerel ?_Orphan_all@_Container_base12@std@@QEAAXXZ
	DD	0ffffffffH
xdata	ENDS
;	COMDAT CONST
CONST	SEGMENT
$cppxdata$?_Orphan_all@_Container_base12@std@@QEAAXXZ DD 019930522H
	DD	00H
	DD	00H
	DD	00H
	DD	00H
	DD	01H
	DD	imagerel $ip2state$?_Orphan_all@_Container_base12@std@@QEAAXXZ
	DD	070H
	DD	00H
	DD	05H
CONST	ENDS
;	COMDAT xdata
xdata	SEGMENT
$unwind$?_Orphan_all@_Container_base12@std@@QEAAXXZ DD 025032819H
	DD	0f20d2312H
	DD	05006H
	DD	imagerel __GSHandlerCheck_EH
	DD	imagerel $cppxdata$?_Orphan_all@_Container_base12@std@@QEAAXXZ
	DD	07bH
xdata	ENDS
;	COMDAT xdata
xdata	SEGMENT
$ip2state$?_Getpfirst@_Container_base12@std@@QEBAPEAPEAU_Iterator_base12@2@XZ DD imagerel ?_Getpfirst@_Container_base12@std@@QEBAPEAPEAU_Iterator_base12@2@XZ
	DD	0ffffffffH
xdata	ENDS
;	COMDAT CONST
CONST	SEGMENT
$cppxdata$?_Getpfirst@_Container_base12@std@@QEBAPEAPEAU_Iterator_base12@2@XZ DD 019930522H
	DD	00H
	DD	00H
	DD	00H
	DD	00H
	DD	01H
	DD	imagerel $ip2state$?_Getpfirst@_Container_base12@std@@QEBAPEAPEAU_Iterator_base12@2@XZ
	DD	060H
	DD	00H
	DD	05H
CONST	ENDS
;	COMDAT xdata
xdata	SEGMENT
$unwind$?_Getpfirst@_Container_base12@std@@QEBAPEAPEAU_Iterator_base12@2@XZ DD 025031719H
	DD	0d20a230fH
	DD	05006H
	DD	imagerel __CxxFrameHandler3
	DD	imagerel $cppxdata$?_Getpfirst@_Container_base12@std@@QEBAPEAPEAU_Iterator_base12@2@XZ
xdata	ENDS
;	COMDAT xdata
xdata	SEGMENT
$unwind$??0_Container_base12@std@@QEAA@XZ DD 025030f01H
	DD	0b20a230fH
	DD	05006H
xdata	ENDS
;	COMDAT xdata
xdata	SEGMENT
$ip2state$??0_Container_proxy@std@@QEAA@XZ DD imagerel ??0_Container_proxy@std@@QEAA@XZ
	DD	0ffffffffH
xdata	ENDS
;	COMDAT CONST
CONST	SEGMENT
$cppxdata$??0_Container_proxy@std@@QEAA@XZ DD 019930522H
	DD	00H
	DD	00H
	DD	00H
	DD	00H
	DD	01H
	DD	imagerel $ip2state$??0_Container_proxy@std@@QEAA@XZ
	DD	060H
	DD	00H
	DD	05H
CONST	ENDS
;	COMDAT xdata
xdata	SEGMENT
$unwind$??0_Container_proxy@std@@QEAA@XZ DD 025031719H
	DD	0d20a230fH
	DD	05006H
	DD	imagerel __CxxFrameHandler3
	DD	imagerel $cppxdata$??0_Container_proxy@std@@QEAA@XZ
xdata	ENDS
;	COMDAT xdata
xdata	SEGMENT
$ip2state$?assign@?$char_traits@D@std@@SAXAEADAEBD@Z DD imagerel ?assign@?$char_traits@D@std@@SAXAEADAEBD@Z
	DD	0ffffffffH
xdata	ENDS
;	COMDAT CONST
CONST	SEGMENT
$cppxdata$?assign@?$char_traits@D@std@@SAXAEADAEBD@Z DD 019930522H
	DD	00H
	DD	00H
	DD	00H
	DD	00H
	DD	01H
	DD	imagerel $ip2state$?assign@?$char_traits@D@std@@SAXAEADAEBD@Z
	DD	060H
	DD	00H
	DD	05H
CONST	ENDS
;	COMDAT xdata
xdata	SEGMENT
$unwind$?assign@?$char_traits@D@std@@SAXAEADAEBD@Z DD 025031c19H
	DD	0d20f2314H
	DD	0500bH
	DD	imagerel __CxxFrameHandler3
	DD	imagerel $cppxdata$?assign@?$char_traits@D@std@@SAXAEADAEBD@Z
xdata	ENDS
;	COMDAT xdata
xdata	SEGMENT
$ip2state$?move@?$char_traits@D@std@@SAPEADQEADQEBD_K@Z DD imagerel ?move@?$char_traits@D@std@@SAPEADQEADQEBD_K@Z
	DD	0ffffffffH
xdata	ENDS
;	COMDAT CONST
CONST	SEGMENT
$cppxdata$?move@?$char_traits@D@std@@SAPEADQEADQEBD_K@Z DD 019930522H
	DD	00H
	DD	00H
	DD	00H
	DD	00H
	DD	01H
	DD	imagerel $ip2state$?move@?$char_traits@D@std@@SAPEADQEADQEBD_K@Z
	DD	060H
	DD	00H
	DD	05H
CONST	ENDS
;	COMDAT xdata
xdata	SEGMENT
$unwind$?move@?$char_traits@D@std@@SAPEADQEADQEBD_K@Z DD 025032119H
	DD	0d2142319H
	DD	05010H
	DD	imagerel __CxxFrameHandler3
	DD	imagerel $cppxdata$?move@?$char_traits@D@std@@SAPEADQEADQEBD_K@Z
xdata	ENDS
;	COMDAT xdata
xdata	SEGMENT
$ip2state$?copy@?$char_traits@D@std@@SAPEADQEADQEBD_K@Z DD imagerel ?copy@?$char_traits@D@std@@SAPEADQEADQEBD_K@Z
	DD	0ffffffffH
xdata	ENDS
;	COMDAT CONST
CONST	SEGMENT
$cppxdata$?copy@?$char_traits@D@std@@SAPEADQEADQEBD_K@Z DD 019930522H
	DD	00H
	DD	00H
	DD	00H
	DD	00H
	DD	01H
	DD	imagerel $ip2state$?copy@?$char_traits@D@std@@SAPEADQEADQEBD_K@Z
	DD	060H
	DD	00H
	DD	05H
CONST	ENDS
;	COMDAT xdata
xdata	SEGMENT
$unwind$?copy@?$char_traits@D@std@@SAPEADQEADQEBD_K@Z DD 025032119H
	DD	0d2142319H
	DD	05010H
	DD	imagerel __CxxFrameHandler3
	DD	imagerel $cppxdata$?copy@?$char_traits@D@std@@SAPEADQEADQEBD_K@Z
xdata	ENDS
;	COMDAT xdata
xdata	SEGMENT
$ip2state$?length@?$char_traits@D@std@@SA_KQEBD@Z DD imagerel ?length@?$char_traits@D@std@@SA_KQEBD@Z
	DD	0ffffffffH
xdata	ENDS
;	COMDAT CONST
CONST	SEGMENT
$cppxdata$?length@?$char_traits@D@std@@SA_KQEBD@Z DD 019930522H
	DD	00H
	DD	00H
	DD	00H
	DD	00H
	DD	01H
	DD	imagerel $ip2state$?length@?$char_traits@D@std@@SA_KQEBD@Z
	DD	060H
	DD	00H
	DD	05H
CONST	ENDS
;	COMDAT xdata
xdata	SEGMENT
$unwind$?length@?$char_traits@D@std@@SA_KQEBD@Z DD 025031719H
	DD	0d20a230fH
	DD	05006H
	DD	imagerel __CxxFrameHandler3
	DD	imagerel $cppxdata$?length@?$char_traits@D@std@@SA_KQEBD@Z
xdata	ENDS
;	COMDAT xdata
xdata	SEGMENT
$ip2state$?max@?$numeric_limits@_J@std@@SA_JXZ DD imagerel ?max@?$numeric_limits@_J@std@@SA_JXZ
	DD	0ffffffffH
xdata	ENDS
;	COMDAT CONST
CONST	SEGMENT
$cppxdata$?max@?$numeric_limits@_J@std@@SA_JXZ DD 019930522H
	DD	00H
	DD	00H
	DD	00H
	DD	00H
	DD	01H
	DD	imagerel $ip2state$?max@?$numeric_limits@_J@std@@SA_JXZ
	DD	060H
	DD	00H
	DD	05H
CONST	ENDS
;	COMDAT xdata
xdata	SEGMENT
$unwind$?max@?$numeric_limits@_J@std@@SA_JXZ DD 025031319H
	DD	0d206230bH
	DD	05002H
	DD	imagerel __CxxFrameHandler3
	DD	imagerel $cppxdata$?max@?$numeric_limits@_J@std@@SA_JXZ
xdata	ENDS
;	COMDAT xdata
xdata	SEGMENT
$ip2state$??2@YAPEAX_KPEAX@Z DD imagerel ??2@YAPEAX_KPEAX@Z
	DD	0ffffffffH
xdata	ENDS
;	COMDAT CONST
CONST	SEGMENT
$cppxdata$??2@YAPEAX_KPEAX@Z DD 019930522H
	DD	00H
	DD	00H
	DD	00H
	DD	00H
	DD	01H
	DD	imagerel $ip2state$??2@YAPEAX_KPEAX@Z
	DD	060H
	DD	00H
	DD	05H
CONST	ENDS
;	COMDAT xdata
xdata	SEGMENT
$unwind$??2@YAPEAX_KPEAX@Z DD 025031c19H
	DD	0d20f2314H
	DD	0500bH
	DD	imagerel __CxxFrameHandler3
	DD	imagerel $cppxdata$??2@YAPEAX_KPEAX@Z
xdata	ENDS
;	COMDAT xdata
xdata	SEGMENT
$unwind$??_GVBO@buffers@core@@QEAAPEAXI@Z DD 025031301H
	DD	0b20e2313H
	DD	0500aH
xdata	ENDS
;	COMDAT xdata
xdata	SEGMENT
$unwind$?__empty_global_delete@@YAXPEAX_K@Z DD 025031401H
	DD	0b20f2314H
	DD	0500bH
xdata	ENDS
;	COMDAT xdata
xdata	SEGMENT
$unwind$?__empty_global_delete@@YAXPEAX@Z DD 025030f01H
	DD	0b20a230fH
	DD	05006H
xdata	ENDS
;	COMDAT xdata
xdata	SEGMENT
$unwind$??_H@YAXPEAX_K1P6APEAX0@Z@Z DD 025031e01H
	DD	0d219231eH
	DD	05015H
xdata	ENDS
; Function compile flags: /Odtp /RTCu /ZI
; File c:\program files (x86)\microsoft visual studio\2017\enterprise\vc\tools\msvc\14.15.26726\include\xutility
;	COMDAT ??$_Copy_memmove@PEAUBufferElement@buffers@core@@PEAU123@@std@@YAPEAUBufferElement@buffers@core@@PEAU123@00@Z
_TEXT	SEGMENT
_First_ch$ = 0
_Last_ch$ = 8
_Dest_ch$ = 16
_Count$ = 24
_First$ = 112
_Last$ = 120
_Dest$ = 128
??$_Copy_memmove@PEAUBufferElement@buffers@core@@PEAU123@@std@@YAPEAUBufferElement@buffers@core@@PEAU123@00@Z PROC ; std::_Copy_memmove<core::buffers::BufferElement *,core::buffers::BufferElement *>, COMDAT

; 2398 : 	{	// implement copy-like function as memmove

$LN3:
	mov	QWORD PTR [rsp+24], r8
	mov	QWORD PTR [rsp+16], rdx
	mov	QWORD PTR [rsp+8], rcx
	push	rbp
	sub	rsp, 128				; 00000080H
	lea	rbp, QWORD PTR [rsp+32]
	lea	rcx, OFFSET FLAT:__E8FD1B86_xutility
	call	__CheckForDebuggerJustMyCode

; 2399 : 	const char * const _First_ch = const_cast<const char *>(reinterpret_cast<const volatile char *>(_First));

	mov	rax, QWORD PTR _First$[rbp]
	mov	QWORD PTR _First_ch$[rbp], rax

; 2400 : 	const char * const _Last_ch = const_cast<const char *>(reinterpret_cast<const volatile char *>(_Last));

	mov	rax, QWORD PTR _Last$[rbp]
	mov	QWORD PTR _Last_ch$[rbp], rax

; 2401 : 	char * const _Dest_ch = const_cast<char *>(reinterpret_cast<volatile char *>(_Dest));

	mov	rax, QWORD PTR _Dest$[rbp]
	mov	QWORD PTR _Dest_ch$[rbp], rax

; 2402 : 	const auto _Count = static_cast<size_t>(_Last_ch - _First_ch);

	mov	rax, QWORD PTR _First_ch$[rbp]
	mov	rcx, QWORD PTR _Last_ch$[rbp]
	sub	rcx, rax
	mov	rax, rcx
	mov	QWORD PTR _Count$[rbp], rax

; 2403 : 	_CSTD memmove(_Dest_ch, _First_ch, _Count);

	mov	r8, QWORD PTR _Count$[rbp]
	mov	rdx, QWORD PTR _First_ch$[rbp]
	mov	rcx, QWORD PTR _Dest_ch$[rbp]
	call	memmove

; 2404 : 	return (reinterpret_cast<_OutIt>(_Dest_ch + _Count));

	mov	rax, QWORD PTR _Count$[rbp]
	mov	rcx, QWORD PTR _Dest_ch$[rbp]
	add	rcx, rax
	mov	rax, rcx

; 2405 : 	}

	lea	rsp, QWORD PTR [rbp+96]
	pop	rbp
	ret	0
??$_Copy_memmove@PEAUBufferElement@buffers@core@@PEAU123@@std@@YAPEAUBufferElement@buffers@core@@PEAU123@00@Z ENDP ; std::_Copy_memmove<core::buffers::BufferElement *,core::buffers::BufferElement *>
_TEXT	ENDS
; Function compile flags: /Odtp /RTCu /ZI
; File c:\program files (x86)\microsoft visual studio\2017\enterprise\vc\tools\msvc\14.15.26726\include\xutility
;	COMDAT ??$_Seek_wrapped@UBufferElement@buffers@core@@@std@@YAXAEAPEAUBufferElement@buffers@core@@QEAU123@@Z
_TEXT	SEGMENT
_It$ = 80
_UIt$ = 88
??$_Seek_wrapped@UBufferElement@buffers@core@@@std@@YAXAEAPEAUBufferElement@buffers@core@@QEAU123@@Z PROC ; std::_Seek_wrapped<core::buffers::BufferElement>, COMDAT

; 871  : 	{

$LN3:
	mov	QWORD PTR [rsp+16], rdx
	mov	QWORD PTR [rsp+8], rcx
	push	rbp
	sub	rsp, 96					; 00000060H
	lea	rbp, QWORD PTR [rsp+32]
	lea	rcx, OFFSET FLAT:__E8FD1B86_xutility
	call	__CheckForDebuggerJustMyCode

; 872  : 	_It = _UIt;

	mov	rax, QWORD PTR _It$[rbp]
	mov	rcx, QWORD PTR _UIt$[rbp]
	mov	QWORD PTR [rax], rcx

; 873  : 	}

	lea	rsp, QWORD PTR [rbp+64]
	pop	rbp
	ret	0
??$_Seek_wrapped@UBufferElement@buffers@core@@@std@@YAXAEAPEAUBufferElement@buffers@core@@QEAU123@@Z ENDP ; std::_Seek_wrapped<core::buffers::BufferElement>
_TEXT	ENDS
; Function compile flags: /Odtp /RTCu /ZI
; File c:\program files (x86)\microsoft visual studio\2017\enterprise\vc\tools\msvc\14.15.26726\include\xmemory
;	COMDAT ??$_Uninitialized_move_al_unchecked@UBufferElement@buffers@core@@U123@V?$allocator@UBufferElement@buffers@core@@@std@@@std@@YAPEAUBufferElement@buffers@core@@QEAU123@00AEAV?$allocator@UBufferElement@buffers@core@@@0@U_Really_trivial_ptr_iterator_tag@0@U?$integral_constant@_N$00@0@@Z
_TEXT	SEGMENT
_First$ = 80
_Last$ = 88
_Dest$ = 96
__formal$ = 104
__formal$ = 112
__formal$ = 120
??$_Uninitialized_move_al_unchecked@UBufferElement@buffers@core@@U123@V?$allocator@UBufferElement@buffers@core@@@std@@@std@@YAPEAUBufferElement@buffers@core@@QEAU123@00AEAV?$allocator@UBufferElement@buffers@core@@@0@U_Really_trivial_ptr_iterator_tag@0@U?$integral_constant@_N$00@0@@Z PROC ; std::_Uninitialized_move_al_unchecked<core::buffers::BufferElement,core::buffers::BufferElement,std::allocator<core::buffers::BufferElement> >, COMDAT

; 243  : 	{	// move [_First, _Last) to raw _Dest, using default _Alloc construct, memmove optimization

$LN3:
	mov	QWORD PTR [rsp+32], r9
	mov	QWORD PTR [rsp+24], r8
	mov	QWORD PTR [rsp+16], rdx
	mov	QWORD PTR [rsp+8], rcx
	push	rbp
	sub	rsp, 96					; 00000060H
	lea	rbp, QWORD PTR [rsp+32]
	lea	rcx, OFFSET FLAT:__AD6915D3_xmemory
	call	__CheckForDebuggerJustMyCode

; 244  : 	return (_Copy_memmove(_First, _Last, _Dest));

	mov	r8, QWORD PTR _Dest$[rbp]
	mov	rdx, QWORD PTR _Last$[rbp]
	mov	rcx, QWORD PTR _First$[rbp]
	call	??$_Copy_memmove@PEAUBufferElement@buffers@core@@PEAU123@@std@@YAPEAUBufferElement@buffers@core@@PEAU123@00@Z ; std::_Copy_memmove<core::buffers::BufferElement *,core::buffers::BufferElement *>

; 245  : 	}

	lea	rsp, QWORD PTR [rbp+64]
	pop	rbp
	ret	0
??$_Uninitialized_move_al_unchecked@UBufferElement@buffers@core@@U123@V?$allocator@UBufferElement@buffers@core@@@std@@@std@@YAPEAUBufferElement@buffers@core@@QEAU123@00AEAV?$allocator@UBufferElement@buffers@core@@@0@U_Really_trivial_ptr_iterator_tag@0@U?$integral_constant@_N$00@0@@Z ENDP ; std::_Uninitialized_move_al_unchecked<core::buffers::BufferElement,core::buffers::BufferElement,std::allocator<core::buffers::BufferElement> >
_TEXT	ENDS
; Function compile flags: /Odtp /RTCu /ZI
; File c:\program files (x86)\microsoft visual studio\2017\enterprise\vc\tools\msvc\14.15.26726\include\xutility
;	COMDAT ??$_Ptr_move_cat@UBufferElement@buffers@core@@U123@@std@@YA?AU_Really_trivial_ptr_iterator_tag@0@AEBQEAUBufferElement@buffers@core@@0@Z
_TEXT	SEGMENT
__$ReturnUdt$ = 80
__formal$ = 88
__formal$ = 96
??$_Ptr_move_cat@UBufferElement@buffers@core@@U123@@std@@YA?AU_Really_trivial_ptr_iterator_tag@0@AEBQEAUBufferElement@buffers@core@@0@Z PROC ; std::_Ptr_move_cat<core::buffers::BufferElement,core::buffers::BufferElement>, COMDAT

; 1086 : 	{	// return pointer move optimization category for pointers

$LN3:
	mov	QWORD PTR [rsp+24], r8
	mov	QWORD PTR [rsp+16], rdx
	mov	QWORD PTR [rsp+8], rcx
	push	rbp
	sub	rsp, 96					; 00000060H
	lea	rbp, QWORD PTR [rsp+32]
	lea	rcx, OFFSET FLAT:__E8FD1B86_xutility
	call	__CheckForDebuggerJustMyCode

; 1087 : 	return {};

	mov	rax, QWORD PTR __$ReturnUdt$[rbp]

; 1088 : 	}

	lea	rsp, QWORD PTR [rbp+64]
	pop	rbp
	ret	0
??$_Ptr_move_cat@UBufferElement@buffers@core@@U123@@std@@YA?AU_Really_trivial_ptr_iterator_tag@0@AEBQEAUBufferElement@buffers@core@@0@Z ENDP ; std::_Ptr_move_cat<core::buffers::BufferElement,core::buffers::BufferElement>
_TEXT	ENDS
; Function compile flags: /Odtp /RTCu /ZI
; File c:\program files (x86)\microsoft visual studio\2017\enterprise\vc\tools\msvc\14.15.26726\include\xutility
;	COMDAT ??$_Get_unwrapped_n@UBufferElement@buffers@core@@_J$0A@@std@@YAPEAUBufferElement@buffers@core@@QEAU123@_J@Z
_TEXT	SEGMENT
_Src$ = 80
__formal$ = 88
??$_Get_unwrapped_n@UBufferElement@buffers@core@@_J$0A@@std@@YAPEAUBufferElement@buffers@core@@QEAU123@_J@Z PROC ; std::_Get_unwrapped_n<core::buffers::BufferElement,__int64,0>, COMDAT

; 808  : 	{

$LN3:
	mov	QWORD PTR [rsp+16], rdx
	mov	QWORD PTR [rsp+8], rcx
	push	rbp
	sub	rsp, 96					; 00000060H
	lea	rbp, QWORD PTR [rsp+32]
	lea	rcx, OFFSET FLAT:__E8FD1B86_xutility
	call	__CheckForDebuggerJustMyCode

; 809  : 	return (_Src);

	mov	rax, QWORD PTR _Src$[rbp]

; 810  : 	}

	lea	rsp, QWORD PTR [rbp+64]
	pop	rbp
	ret	0
??$_Get_unwrapped_n@UBufferElement@buffers@core@@_J$0A@@std@@YAPEAUBufferElement@buffers@core@@QEAU123@_J@Z ENDP ; std::_Get_unwrapped_n<core::buffers::BufferElement,__int64,0>
_TEXT	ENDS
; Function compile flags: /Odtp /RTCu /ZI
; File c:\program files (x86)\microsoft visual studio\2017\enterprise\vc\tools\msvc\14.15.26726\include\xutility
;	COMDAT ??$_Idl_distance1@PEAUBufferElement@buffers@core@@PEAU123@@std@@YA_JAEBQEAUBufferElement@buffers@core@@0Urandom_access_iterator_tag@0@@Z
_TEXT	SEGMENT
_First$ = 80
_Last$ = 88
__formal$ = 96
??$_Idl_distance1@PEAUBufferElement@buffers@core@@PEAU123@@std@@YA_JAEBQEAUBufferElement@buffers@core@@0Urandom_access_iterator_tag@0@@Z PROC ; std::_Idl_distance1<core::buffers::BufferElement *,core::buffers::BufferElement *>, COMDAT

; 967  : 	{	// _Idl_distance for random-access iterators

$LN3:
	mov	BYTE PTR [rsp+24], r8b
	mov	QWORD PTR [rsp+16], rdx
	mov	QWORD PTR [rsp+8], rcx
	push	rbp
	sub	rsp, 96					; 00000060H
	lea	rbp, QWORD PTR [rsp+32]
	lea	rcx, OFFSET FLAT:__E8FD1B86_xutility
	call	__CheckForDebuggerJustMyCode

; 968  : 	return (static_cast<_Iter_diff_t<_Checked>>(_Last - _First));

	mov	rax, QWORD PTR _Last$[rbp]
	mov	rcx, QWORD PTR _First$[rbp]
	mov	rcx, QWORD PTR [rcx]
	mov	rax, QWORD PTR [rax]
	sub	rax, rcx
	cdq
	mov	ecx, 12
	idiv	rcx

; 969  : 	}

	lea	rsp, QWORD PTR [rbp+64]
	pop	rbp
	ret	0
??$_Idl_distance1@PEAUBufferElement@buffers@core@@PEAU123@@std@@YA_JAEBQEAUBufferElement@buffers@core@@0Urandom_access_iterator_tag@0@@Z ENDP ; std::_Idl_distance1<core::buffers::BufferElement *,core::buffers::BufferElement *>
_TEXT	ENDS
; Function compile flags: /Odtp /RTCu /ZI
; File c:\program files (x86)\microsoft visual studio\2017\enterprise\vc\tools\msvc\14.15.26726\include\xutility
;	COMDAT ??$_Idl_distance@PEAUBufferElement@buffers@core@@PEAU123@@std@@YA@AEBQEAUBufferElement@buffers@core@@0@Z
_TEXT	SEGMENT
$T1 = 64
_First$ = 96
_Last$ = 104
??$_Idl_distance@PEAUBufferElement@buffers@core@@PEAU123@@std@@YA@AEBQEAUBufferElement@buffers@core@@0@Z PROC ; std::_Idl_distance<core::buffers::BufferElement *,core::buffers::BufferElement *>, COMDAT

; 974  : 	{	// tries to get the distance between _First and _Last if they are random-access iterators

$LN3:
	mov	QWORD PTR [rsp+16], rdx
	mov	QWORD PTR [rsp+8], rcx
	push	rbp
	sub	rsp, 112				; 00000070H
	lea	rbp, QWORD PTR [rsp+32]
	lea	rcx, OFFSET FLAT:__E8FD1B86_xutility
	call	__CheckForDebuggerJustMyCode

; 975  : 	return (_Idl_distance1<_Checked>(_First, _Last, _Iter_cat_t<_Iter>()));

	movzx	r8d, BYTE PTR $T1[rbp]
	mov	rdx, QWORD PTR _Last$[rbp]
	mov	rcx, QWORD PTR _First$[rbp]
	call	??$_Idl_distance1@PEAUBufferElement@buffers@core@@PEAU123@@std@@YA_JAEBQEAUBufferElement@buffers@core@@0Urandom_access_iterator_tag@0@@Z ; std::_Idl_distance1<core::buffers::BufferElement *,core::buffers::BufferElement *>

; 976  : 	}

	lea	rsp, QWORD PTR [rbp+80]
	pop	rbp
	ret	0
??$_Idl_distance@PEAUBufferElement@buffers@core@@PEAU123@@std@@YA@AEBQEAUBufferElement@buffers@core@@0@Z ENDP ; std::_Idl_distance<core::buffers::BufferElement *,core::buffers::BufferElement *>
_TEXT	ENDS
; Function compile flags: /Odtp /RTCu /ZI
; File c:\program files (x86)\microsoft visual studio\2017\enterprise\vc\tools\msvc\14.15.26726\include\xutility
;	COMDAT ??$_Get_unwrapped@UBufferElement@buffers@core@@@std@@YAPEAUBufferElement@buffers@core@@QEAU123@@Z
_TEXT	SEGMENT
_Ptr$ = 80
??$_Get_unwrapped@UBufferElement@buffers@core@@@std@@YAPEAUBufferElement@buffers@core@@QEAU123@@Z PROC ; std::_Get_unwrapped<core::buffers::BufferElement>, COMDAT

; 662  : 	{	// special case already-unwrapped pointers

$LN3:
	mov	QWORD PTR [rsp+8], rcx
	push	rbp
	sub	rsp, 96					; 00000060H
	lea	rbp, QWORD PTR [rsp+32]
	lea	rcx, OFFSET FLAT:__E8FD1B86_xutility
	call	__CheckForDebuggerJustMyCode

; 663  : 	return (_Ptr);

	mov	rax, QWORD PTR _Ptr$[rbp]

; 664  : 	}

	lea	rsp, QWORD PTR [rbp+64]
	pop	rbp
	ret	0
??$_Get_unwrapped@UBufferElement@buffers@core@@@std@@YAPEAUBufferElement@buffers@core@@QEAU123@@Z ENDP ; std::_Get_unwrapped<core::buffers::BufferElement>
_TEXT	ENDS
; Function compile flags: /Odtp /RTCu /ZI
; File c:\program files (x86)\microsoft visual studio\2017\enterprise\vc\tools\msvc\14.15.26726\include\xmemory0
;	COMDAT ??$_Get_size_of_n@$0M@@std@@YA_K_K@Z
_TEXT	SEGMENT
_Max_possible$ = 0
_Result$ = 8
_Count$ = 96
??$_Get_size_of_n@$0M@@std@@YA_K_K@Z PROC		; std::_Get_size_of_n<12>, COMDAT

; 23   : 	{	// gets the size of _Count copies of a type sized _Ty_size

$LN4:
	mov	QWORD PTR [rsp+8], rcx
	push	rbp
	sub	rsp, 112				; 00000070H
	lea	rbp, QWORD PTR [rsp+32]
	lea	rcx, OFFSET FLAT:__39AEDAD7_xmemory0
	call	__CheckForDebuggerJustMyCode

; 24   : 	constexpr size_t _Max_possible = static_cast<size_t>(-1) / _Ty_size;

	mov	rax, 1537228672809129301		; 1555555555555555H
	mov	QWORD PTR _Max_possible$[rbp], rax

; 25   : 	size_t _Result = _Count * _Ty_size;

	imul	rax, QWORD PTR _Count$[rbp], 12
	mov	QWORD PTR _Result$[rbp], rax

; 26   : 	if (_Max_possible < _Count)

	mov	rax, 1537228672809129301		; 1555555555555555H
	cmp	QWORD PTR _Count$[rbp], rax
	jbe	SHORT $LN2@Get_size_o

; 27   : 		{	// multiply overflow, try allocating all of memory and assume the
; 28   : 			// allocation function will throw bad_alloc
; 29   : 		_Result = static_cast<size_t>(-1);

	mov	QWORD PTR _Result$[rbp], -1
$LN2@Get_size_o:

; 30   : 		}
; 31   : 
; 32   : 	return (_Result);

	mov	rax, QWORD PTR _Result$[rbp]

; 33   : 	}

	lea	rsp, QWORD PTR [rbp+80]
	pop	rbp
	ret	0
??$_Get_size_of_n@$0M@@std@@YA_K_K@Z ENDP		; std::_Get_size_of_n<12>
_TEXT	ENDS
; Function compile flags: /Odtp /RTCu /ZI
; File c:\program files (x86)\microsoft visual studio\2017\enterprise\vc\tools\msvc\14.15.26726\include\xmemory
;	COMDAT ??$_Uninitialized_move@PEAUBufferElement@buffers@core@@PEAU123@V?$allocator@UBufferElement@buffers@core@@@std@@@std@@YAPEAUBufferElement@buffers@core@@QEAU123@0PEAU123@AEAV?$allocator@UBufferElement@buffers@core@@@0@@Z
_TEXT	SEGMENT
_UFirst$ = 0
_ULast$ = 8
_UDest$ = 16
$T1 = 88
$T2 = 89
__$ArrayPad$ = 96
_First$ = 128
_Last$ = 136
_Dest$ = 144
_Al$ = 152
??$_Uninitialized_move@PEAUBufferElement@buffers@core@@PEAU123@V?$allocator@UBufferElement@buffers@core@@@std@@@std@@YAPEAUBufferElement@buffers@core@@QEAU123@0PEAU123@AEAV?$allocator@UBufferElement@buffers@core@@@0@@Z PROC ; std::_Uninitialized_move<core::buffers::BufferElement *,core::buffers::BufferElement *,std::allocator<core::buffers::BufferElement> >, COMDAT

; 251  : 	{	// move [_First, _Last) to raw _Dest, using _Al

$LN3:
	mov	QWORD PTR [rsp+32], r9
	mov	QWORD PTR [rsp+24], r8
	mov	QWORD PTR [rsp+16], rdx
	mov	QWORD PTR [rsp+8], rcx
	push	rbp
	sub	rsp, 160				; 000000a0H
	lea	rbp, QWORD PTR [rsp+48]
	mov	rax, QWORD PTR __security_cookie
	xor	rax, rbp
	mov	QWORD PTR __$ArrayPad$[rbp], rax
	lea	rcx, OFFSET FLAT:__AD6915D3_xmemory
	call	__CheckForDebuggerJustMyCode

; 252  : 		// note: only called internally from elsewhere in the STL
; 253  : 	const auto _UFirst = _Get_unwrapped(_First);

	mov	rcx, QWORD PTR _First$[rbp]
	call	??$_Get_unwrapped@UBufferElement@buffers@core@@@std@@YAPEAUBufferElement@buffers@core@@QEAU123@@Z ; std::_Get_unwrapped<core::buffers::BufferElement>
	mov	QWORD PTR _UFirst$[rbp], rax

; 254  : 	const auto _ULast = _Get_unwrapped(_Last);

	mov	rcx, QWORD PTR _Last$[rbp]
	call	??$_Get_unwrapped@UBufferElement@buffers@core@@@std@@YAPEAUBufferElement@buffers@core@@QEAU123@@Z ; std::_Get_unwrapped<core::buffers::BufferElement>
	mov	QWORD PTR _ULast$[rbp], rax

; 255  : 	const auto _UDest = _Get_unwrapped_n(_Dest, _Idl_distance<_InIt>(_UFirst, _ULast));

	lea	rdx, QWORD PTR _ULast$[rbp]
	lea	rcx, QWORD PTR _UFirst$[rbp]
	call	??$_Idl_distance@PEAUBufferElement@buffers@core@@PEAU123@@std@@YA@AEBQEAUBufferElement@buffers@core@@0@Z ; std::_Idl_distance<core::buffers::BufferElement *,core::buffers::BufferElement *>
	mov	rdx, rax
	mov	rcx, QWORD PTR _Dest$[rbp]
	call	??$_Get_unwrapped_n@UBufferElement@buffers@core@@_J$0A@@std@@YAPEAUBufferElement@buffers@core@@QEAU123@_J@Z ; std::_Get_unwrapped_n<core::buffers::BufferElement,__int64,0>
	mov	QWORD PTR _UDest$[rbp], rax

; 256  : 	_Seek_wrapped(_Dest,

	lea	r8, QWORD PTR _UDest$[rbp]
	lea	rdx, QWORD PTR _UFirst$[rbp]
	lea	rcx, QWORD PTR $T2[rbp]
	call	??$_Ptr_move_cat@UBufferElement@buffers@core@@U123@@std@@YA?AU_Really_trivial_ptr_iterator_tag@0@AEBQEAUBufferElement@buffers@core@@0@Z ; std::_Ptr_move_cat<core::buffers::BufferElement,core::buffers::BufferElement>
	movzx	ecx, BYTE PTR $T1[rbp]
	mov	BYTE PTR [rsp+40], cl
	movzx	eax, BYTE PTR [rax]
	mov	BYTE PTR [rsp+32], al
	mov	r9, QWORD PTR _Al$[rbp]
	mov	r8, QWORD PTR _UDest$[rbp]
	mov	rdx, QWORD PTR _ULast$[rbp]
	mov	rcx, QWORD PTR _UFirst$[rbp]
	call	??$_Uninitialized_move_al_unchecked@UBufferElement@buffers@core@@U123@V?$allocator@UBufferElement@buffers@core@@@std@@@std@@YAPEAUBufferElement@buffers@core@@QEAU123@00AEAV?$allocator@UBufferElement@buffers@core@@@0@U_Really_trivial_ptr_iterator_tag@0@U?$integral_constant@_N$00@0@@Z ; std::_Uninitialized_move_al_unchecked<core::buffers::BufferElement,core::buffers::BufferElement,std::allocator<core::buffers::BufferElement> >
	mov	rdx, rax
	lea	rcx, QWORD PTR _Dest$[rbp]
	call	??$_Seek_wrapped@UBufferElement@buffers@core@@@std@@YAXAEAPEAUBufferElement@buffers@core@@QEAU123@@Z ; std::_Seek_wrapped<core::buffers::BufferElement>

; 257  : 		_Uninitialized_move_al_unchecked(_UFirst, _ULast, _UDest, _Al,
; 258  : 			_Ptr_move_cat(_UFirst, _UDest),
; 259  : 			_Uses_default_construct_t<_Alloc, decltype(_Unfancy(_UDest)), decltype(_STD move(*_UFirst))>()));
; 260  : 	return (_Dest);

	mov	rax, QWORD PTR _Dest$[rbp]

; 261  : 	}

	mov	rcx, QWORD PTR __$ArrayPad$[rbp]
	xor	rcx, rbp
	call	__security_check_cookie
	lea	rsp, QWORD PTR [rbp+112]
	pop	rbp
	ret	0
??$_Uninitialized_move@PEAUBufferElement@buffers@core@@PEAU123@V?$allocator@UBufferElement@buffers@core@@@std@@@std@@YAPEAUBufferElement@buffers@core@@QEAU123@0PEAU123@AEAV?$allocator@UBufferElement@buffers@core@@@0@@Z ENDP ; std::_Uninitialized_move<core::buffers::BufferElement *,core::buffers::BufferElement *,std::allocator<core::buffers::BufferElement> >
_TEXT	ENDS
; Function compile flags: /Odtp /RTCu /ZI
; File c:\program files (x86)\microsoft visual studio\2017\enterprise\vc\tools\msvc\14.15.26726\include\xmemory0
;	COMDAT ??$_Destroy_range1@V?$allocator@UBufferElement@buffers@core@@@std@@@std@@YAXPEAUBufferElement@buffers@core@@0AEAV?$allocator@UBufferElement@buffers@core@@@0@U?$integral_constant@_N$00@0@@Z
_TEXT	SEGMENT
__formal$ = 80
__formal$ = 88
__formal$ = 96
__formal$ = 104
??$_Destroy_range1@V?$allocator@UBufferElement@buffers@core@@@std@@@std@@YAXPEAUBufferElement@buffers@core@@0AEAV?$allocator@UBufferElement@buffers@core@@@0@U?$integral_constant@_N$00@0@@Z PROC ; std::_Destroy_range1<std::allocator<core::buffers::BufferElement> >, COMDAT

; 1145 : 	{	// destroy [_First, _Last), trivially destructible and default destroy

$LN3:
	mov	BYTE PTR [rsp+32], r9b
	mov	QWORD PTR [rsp+24], r8
	mov	QWORD PTR [rsp+16], rdx
	mov	QWORD PTR [rsp+8], rcx
	push	rbp
	sub	rsp, 96					; 00000060H
	lea	rbp, QWORD PTR [rsp+32]
	lea	rcx, OFFSET FLAT:__39AEDAD7_xmemory0
	call	__CheckForDebuggerJustMyCode

; 1146 : 		// nothing to do
; 1147 : 	}

	lea	rsp, QWORD PTR [rbp+64]
	pop	rbp
	ret	0
??$_Destroy_range1@V?$allocator@UBufferElement@buffers@core@@@std@@@std@@YAXPEAUBufferElement@buffers@core@@0AEAV?$allocator@UBufferElement@buffers@core@@@0@U?$integral_constant@_N$00@0@@Z ENDP ; std::_Destroy_range1<std::allocator<core::buffers::BufferElement> >
_TEXT	ENDS
; Function compile flags: /Odtp /RTCu /ZI
; File c:\program files (x86)\microsoft visual studio\2017\enterprise\vc\tools\msvc\14.15.26726\include\type_traits
;	COMDAT ??$forward@U_Container_proxy@std@@@std@@YA$$QEAU_Container_proxy@0@AEAU10@@Z
_TEXT	SEGMENT
$T1 = 64
_Arg$ = 96
??$forward@U_Container_proxy@std@@@std@@YA$$QEAU_Container_proxy@0@AEAU10@@Z PROC ; std::forward<std::_Container_proxy>, COMDAT

; 1573 : 	{	// forward an lvalue as either an lvalue or an rvalue

$LN3:
	mov	QWORD PTR [rsp+8], rcx
	push	rbp
	sub	rsp, 112				; 00000070H
	lea	rbp, QWORD PTR [rsp+32]
	mov	QWORD PTR $T1[rbp], -2
	lea	rcx, OFFSET FLAT:__6C905C6A_type_traits
	call	__CheckForDebuggerJustMyCode
	npad	1

; 1574 : 	return (static_cast<_Ty&&>(_Arg));

	mov	rax, QWORD PTR _Arg$[rbp]

; 1575 : 	}

	lea	rsp, QWORD PTR [rbp+80]
	pop	rbp
	ret	0
??$forward@U_Container_proxy@std@@@std@@YA$$QEAU_Container_proxy@0@AEAU10@@Z ENDP ; std::forward<std::_Container_proxy>
_TEXT	ENDS
; Function compile flags: /Odtp /RTCu /ZI
; File c:\program files (x86)\microsoft visual studio\2017\enterprise\vc\tools\msvc\14.15.26726\include\xmemory0
;	COMDAT ??$_Allocate_manually_vector_aligned@U_Default_allocate_traits@std@@@std@@YAPEAX_K@Z
_TEXT	SEGMENT
_Block_size$ = 0
_Ptr_container$ = 8
_Ptr$ = 16
_Bytes$ = 112
??$_Allocate_manually_vector_aligned@U_Default_allocate_traits@std@@@std@@YAPEAX_K@Z PROC ; std::_Allocate_manually_vector_aligned<std::_Default_allocate_traits>, COMDAT

; 92   : 	{	// allocate _Bytes manually aligned to at least _Big_allocation_alignment

$LN13:
	mov	QWORD PTR [rsp+8], rcx
	push	rbp
	sub	rsp, 144				; 00000090H
	lea	rbp, QWORD PTR [rsp+48]
	lea	rcx, OFFSET FLAT:__39AEDAD7_xmemory0
	call	__CheckForDebuggerJustMyCode

; 93   : 	size_t _Block_size = _Non_user_size + _Bytes;

	mov	rax, QWORD PTR _Bytes$[rbp]
	add	rax, 47					; 0000002fH
	mov	QWORD PTR _Block_size$[rbp], rax

; 94   : 	if (_Block_size <= _Bytes)

	mov	rax, QWORD PTR _Bytes$[rbp]
	cmp	QWORD PTR _Block_size$[rbp], rax
	ja	SHORT $LN8@Allocate_m

; 95   : 		{	// add overflow, try allocating all of memory and assume the
; 96   : 			// allocation function will throw bad_alloc
; 97   : 		_Block_size = static_cast<size_t>(-1);

	mov	QWORD PTR _Block_size$[rbp], -1
$LN8@Allocate_m:

; 98   : 		}
; 99   : 
; 100  : 	const uintptr_t _Ptr_container = reinterpret_cast<uintptr_t>(_Traits::_Allocate(_Block_size));

	mov	rcx, QWORD PTR _Block_size$[rbp]
	call	?_Allocate@_Default_allocate_traits@std@@SAPEAX_K@Z ; std::_Default_allocate_traits::_Allocate
	mov	QWORD PTR _Ptr_container$[rbp], rax
$LN4@Allocate_m:

; 101  : 	_STL_VERIFY(_Ptr_container != 0, "invalid argument");	// validate even in release since we're doing p[-1]

	cmp	QWORD PTR _Ptr_container$[rbp], 0
	je	SHORT $LN9@Allocate_m
	jmp	SHORT $LN10@Allocate_m
$LN9@Allocate_m:
$LN7@Allocate_m:
	lea	rax, OFFSET FLAT:??_C@_0BB@FCMFBGOM@invalid?5argument@
	mov	QWORD PTR [rsp+40], rax
	lea	rax, OFFSET FLAT:??_C@_02DKCKIIND@?$CFs@
	mov	QWORD PTR [rsp+32], rax
	xor	r9d, r9d
	mov	r8d, 101				; 00000065H
	lea	rdx, OFFSET FLAT:??_C@_0GK@FKLKIKPD@c?3?2program?5files?5?$CIx86?$CJ?2microsof@
	mov	ecx, 2
	call	QWORD PTR __imp__CrtDbgReport
	cmp	eax, 1
	jne	SHORT $LN12@Allocate_m
	int	3
	xor	eax, eax
$LN12@Allocate_m:
	mov	QWORD PTR [rsp+32], 0
	mov	r9d, 101				; 00000065H
	lea	r8, OFFSET FLAT:??_C@_1NE@MCNNPIKO@?$AAc?$AA?3?$AA?2?$AAp?$AAr?$AAo?$AAg?$AAr?$AAa?$AAm?$AA?5?$AAf?$AAi?$AAl?$AAe@
	lea	rdx, OFFSET FLAT:??_C@_1EO@GFNCMDLA@?$AAs?$AAt?$AAd?$AA?3?$AA?3?$AA_?$AAA?$AAl?$AAl?$AAo?$AAc?$AAa?$AAt?$AAe?$AA_@
	lea	rcx, OFFSET FLAT:??_C@_1CG@JNLFBNGN@?$AA?$CC?$AAi?$AAn?$AAv?$AAa?$AAl?$AAi?$AAd?$AA?5?$AAa?$AAr?$AAg?$AAu?$AAm?$AAe@
	call	QWORD PTR __imp__invalid_parameter
	xor	eax, eax
	test	eax, eax
	jne	SHORT $LN7@Allocate_m
$LN10@Allocate_m:
	xor	eax, eax
	test	eax, eax
	jne	SHORT $LN4@Allocate_m

; 102  : 	void * const _Ptr = reinterpret_cast<void *>((_Ptr_container + _Non_user_size)
; 103  : 		& ~(_Big_allocation_alignment - 1));

	mov	rax, QWORD PTR _Ptr_container$[rbp]
	add	rax, 47					; 0000002fH
	and	rax, -32				; ffffffffffffffe0H
	mov	QWORD PTR _Ptr$[rbp], rax

; 104  : 	static_cast<uintptr_t *>(_Ptr)[-1] = _Ptr_container;

	mov	eax, 8
	imul	rax, rax, -1
	mov	rcx, QWORD PTR _Ptr$[rbp]
	mov	rdx, QWORD PTR _Ptr_container$[rbp]
	mov	QWORD PTR [rcx+rax], rdx

; 105  : 
; 106  :   #ifdef _DEBUG
; 107  : 	static_cast<uintptr_t *>(_Ptr)[-2] = _Big_allocation_sentinel;

	mov	eax, 8
	imul	rax, rax, -2
	mov	rcx, QWORD PTR _Ptr$[rbp]
	mov	rdx, -361700864190383366		; fafafafafafafafaH
	mov	QWORD PTR [rcx+rax], rdx

; 108  :   #endif /* _DEBUG */
; 109  : 	return (_Ptr);

	mov	rax, QWORD PTR _Ptr$[rbp]

; 110  : 	}

	lea	rsp, QWORD PTR [rbp+96]
	pop	rbp
	ret	0
??$_Allocate_manually_vector_aligned@U_Default_allocate_traits@std@@@std@@YAPEAX_K@Z ENDP ; std::_Allocate_manually_vector_aligned<std::_Default_allocate_traits>
_TEXT	ENDS
; Function compile flags: /Odtp /RTCu /ZI
; File c:\program files (x86)\microsoft visual studio\2017\enterprise\vc\tools\msvc\14.15.26726\include\type_traits
;	COMDAT ??$forward@AEBQEAD@std@@YAAEBQEADAEBQEAD@Z
_TEXT	SEGMENT
$T1 = 64
_Arg$ = 96
??$forward@AEBQEAD@std@@YAAEBQEADAEBQEAD@Z PROC		; std::forward<char * const &>, COMDAT

; 1573 : 	{	// forward an lvalue as either an lvalue or an rvalue

$LN3:
	mov	QWORD PTR [rsp+8], rcx
	push	rbp
	sub	rsp, 112				; 00000070H
	lea	rbp, QWORD PTR [rsp+32]
	mov	QWORD PTR $T1[rbp], -2
	lea	rcx, OFFSET FLAT:__6C905C6A_type_traits
	call	__CheckForDebuggerJustMyCode
	npad	1

; 1574 : 	return (static_cast<_Ty&&>(_Arg));

	mov	rax, QWORD PTR _Arg$[rbp]

; 1575 : 	}

	lea	rsp, QWORD PTR [rbp+80]
	pop	rbp
	ret	0
??$forward@AEBQEAD@std@@YAAEBQEADAEBQEAD@Z ENDP		; std::forward<char * const &>
_TEXT	ENDS
; Function compile flags: /Odtp /RTCu /ZI
; File c:\program files (x86)\microsoft visual studio\2017\enterprise\vc\tools\msvc\14.15.26726\include\xmemory0
;	COMDAT ??$_Get_size_of_n@$0BA@@std@@YA_K_K@Z
_TEXT	SEGMENT
_Max_possible$ = 0
_Result$ = 8
_Count$ = 96
??$_Get_size_of_n@$0BA@@std@@YA_K_K@Z PROC		; std::_Get_size_of_n<16>, COMDAT

; 23   : 	{	// gets the size of _Count copies of a type sized _Ty_size

$LN4:
	mov	QWORD PTR [rsp+8], rcx
	push	rbp
	sub	rsp, 112				; 00000070H
	lea	rbp, QWORD PTR [rsp+32]
	lea	rcx, OFFSET FLAT:__39AEDAD7_xmemory0
	call	__CheckForDebuggerJustMyCode

; 24   : 	constexpr size_t _Max_possible = static_cast<size_t>(-1) / _Ty_size;

	mov	rax, 1152921504606846975		; 0fffffffffffffffH
	mov	QWORD PTR _Max_possible$[rbp], rax

; 25   : 	size_t _Result = _Count * _Ty_size;

	imul	rax, QWORD PTR _Count$[rbp], 16
	mov	QWORD PTR _Result$[rbp], rax

; 26   : 	if (_Max_possible < _Count)

	mov	rax, 1152921504606846975		; 0fffffffffffffffH
	cmp	QWORD PTR _Count$[rbp], rax
	jbe	SHORT $LN2@Get_size_o

; 27   : 		{	// multiply overflow, try allocating all of memory and assume the
; 28   : 			// allocation function will throw bad_alloc
; 29   : 		_Result = static_cast<size_t>(-1);

	mov	QWORD PTR _Result$[rbp], -1
$LN2@Get_size_o:

; 30   : 		}
; 31   : 
; 32   : 	return (_Result);

	mov	rax, QWORD PTR _Result$[rbp]

; 33   : 	}

	lea	rsp, QWORD PTR [rbp+80]
	pop	rbp
	ret	0
??$_Get_size_of_n@$0BA@@std@@YA_K_K@Z ENDP		; std::_Get_size_of_n<16>
_TEXT	ENDS
; Function compile flags: /Odtp /RTCu /ZI
; File c:\program files (x86)\microsoft visual studio\2017\enterprise\vc\tools\msvc\14.15.26726\include\xmemory0
;	COMDAT ??$?0D@?$allocator@U_Container_proxy@std@@@std@@QEAA@AEBV?$allocator@D@1@@Z
_TEXT	SEGMENT
$T1 = 64
this$ = 96
__formal$ = 104
??$?0D@?$allocator@U_Container_proxy@std@@@std@@QEAA@AEBV?$allocator@D@1@@Z PROC ; std::allocator<std::_Container_proxy>::allocator<std::_Container_proxy><char>, COMDAT

; 986  : 		{	// construct from a related allocator (do nothing)

$LN3:
	mov	QWORD PTR [rsp+16], rdx
	mov	QWORD PTR [rsp+8], rcx
	push	rbp
	sub	rsp, 112				; 00000070H
	lea	rbp, QWORD PTR [rsp+32]
	mov	QWORD PTR $T1[rbp], -2
	lea	rcx, OFFSET FLAT:__39AEDAD7_xmemory0
	call	__CheckForDebuggerJustMyCode
	npad	1

; 987  : 		}

	mov	rax, QWORD PTR this$[rbp]
	lea	rsp, QWORD PTR [rbp+80]
	pop	rbp
	ret	0
??$?0D@?$allocator@U_Container_proxy@std@@@std@@QEAA@AEBV?$allocator@D@1@@Z ENDP ; std::allocator<std::_Container_proxy>::allocator<std::_Container_proxy><char>
_TEXT	ENDS
; Function compile flags: /Odtp /RTCu /ZI
; File c:\program files (x86)\microsoft visual studio\2017\enterprise\vc\tools\msvc\14.15.26726\include\xmemory0
;	COMDAT ??$_Destroy_range@V?$allocator@UBufferElement@buffers@core@@@std@@@std@@YAXPEAUBufferElement@buffers@core@@0AEAV?$allocator@UBufferElement@buffers@core@@@0@@Z
_TEXT	SEGMENT
$T1 = 64
_First$ = 112
_Last$ = 120
_Al$ = 128
??$_Destroy_range@V?$allocator@UBufferElement@buffers@core@@@std@@@std@@YAXPEAUBufferElement@buffers@core@@0AEAV?$allocator@UBufferElement@buffers@core@@@0@@Z PROC ; std::_Destroy_range<std::allocator<core::buffers::BufferElement> >, COMDAT

; 1154 : 	{	// destroy [_First, _Last), choose optimization

$LN3:
	mov	QWORD PTR [rsp+24], r8
	mov	QWORD PTR [rsp+16], rdx
	mov	QWORD PTR [rsp+8], rcx
	push	rbp
	push	rdi
	sub	rsp, 120				; 00000078H
	lea	rbp, QWORD PTR [rsp+32]
	lea	rcx, OFFSET FLAT:__39AEDAD7_xmemory0
	call	__CheckForDebuggerJustMyCode

; 1155 : 		// note that this is an optimization for debug mode codegen;
; 1156 : 		// in release mode the BE removes all of this
; 1157 : 	using _Val = typename _Alloc::value_type;
; 1158 : 	_Destroy_range1(_First, _Last, _Al, bool_constant<conjunction_v<

	lea	rax, QWORD PTR $T1[rbp]
	mov	rdi, rax
	xor	eax, eax
	mov	ecx, 1
	rep stosb
	movzx	r9d, BYTE PTR $T1[rbp]
	mov	r8, QWORD PTR _Al$[rbp]
	mov	rdx, QWORD PTR _Last$[rbp]
	mov	rcx, QWORD PTR _First$[rbp]
	call	??$_Destroy_range1@V?$allocator@UBufferElement@buffers@core@@@std@@@std@@YAXPEAUBufferElement@buffers@core@@0AEAV?$allocator@UBufferElement@buffers@core@@@0@U?$integral_constant@_N$00@0@@Z ; std::_Destroy_range1<std::allocator<core::buffers::BufferElement> >

; 1159 : 		is_trivially_destructible<_Val>,
; 1160 : 		_Uses_default_destroy<_Alloc, _Val *>>>{});
; 1161 : 	}

	lea	rsp, QWORD PTR [rbp+88]
	pop	rdi
	pop	rbp
	ret	0
??$_Destroy_range@V?$allocator@UBufferElement@buffers@core@@@std@@@std@@YAXPEAUBufferElement@buffers@core@@0AEAV?$allocator@UBufferElement@buffers@core@@@0@@Z ENDP ; std::_Destroy_range<std::allocator<core::buffers::BufferElement> >
_TEXT	ENDS
; Function compile flags: /Odtp /RTCu /ZI
; File c:\program files (x86)\microsoft visual studio\2017\enterprise\vc\tools\msvc\14.15.26726\include\xstddef
;	COMDAT ??$addressof@V?$_Vector_val@U?$_Simple_types@UBufferElement@buffers@core@@@std@@@std@@@std@@YAPEAV?$_Vector_val@U?$_Simple_types@UBufferElement@buffers@core@@@std@@@0@AEAV10@@Z
_TEXT	SEGMENT
$T1 = 64
_Val$ = 96
??$addressof@V?$_Vector_val@U?$_Simple_types@UBufferElement@buffers@core@@@std@@@std@@@std@@YAPEAV?$_Vector_val@U?$_Simple_types@UBufferElement@buffers@core@@@std@@@0@AEAV10@@Z PROC ; std::addressof<std::_Vector_val<std::_Simple_types<core::buffers::BufferElement> > >, COMDAT

; 329  : 	{	// return address of _Val

$LN3:
	mov	QWORD PTR [rsp+8], rcx
	push	rbp
	sub	rsp, 112				; 00000070H
	lea	rbp, QWORD PTR [rsp+32]
	mov	QWORD PTR $T1[rbp], -2
	lea	rcx, OFFSET FLAT:__30E3E102_xstddef
	call	__CheckForDebuggerJustMyCode
	npad	1

; 330  : 	return (__builtin_addressof(_Val));

	mov	rax, QWORD PTR _Val$[rbp]

; 331  : 	}

	lea	rsp, QWORD PTR [rbp+80]
	pop	rbp
	ret	0
??$addressof@V?$_Vector_val@U?$_Simple_types@UBufferElement@buffers@core@@@std@@@std@@@std@@YAPEAV?$_Vector_val@U?$_Simple_types@UBufferElement@buffers@core@@@std@@@0@AEAV10@@Z ENDP ; std::addressof<std::_Vector_val<std::_Simple_types<core::buffers::BufferElement> > >
_TEXT	ENDS
; Function compile flags: /Odtp /RTCu /ZI
; File c:\program files (x86)\microsoft visual studio\2017\enterprise\vc\tools\msvc\14.15.26726\include\xmemory0
;	COMDAT ??$?0UBufferElement@buffers@core@@@?$allocator@U_Container_proxy@std@@@std@@QEAA@AEBV?$allocator@UBufferElement@buffers@core@@@1@@Z
_TEXT	SEGMENT
$T1 = 64
this$ = 96
__formal$ = 104
??$?0UBufferElement@buffers@core@@@?$allocator@U_Container_proxy@std@@@std@@QEAA@AEBV?$allocator@UBufferElement@buffers@core@@@1@@Z PROC ; std::allocator<std::_Container_proxy>::allocator<std::_Container_proxy><core::buffers::BufferElement>, COMDAT

; 986  : 		{	// construct from a related allocator (do nothing)

$LN3:
	mov	QWORD PTR [rsp+16], rdx
	mov	QWORD PTR [rsp+8], rcx
	push	rbp
	sub	rsp, 112				; 00000070H
	lea	rbp, QWORD PTR [rsp+32]
	mov	QWORD PTR $T1[rbp], -2
	lea	rcx, OFFSET FLAT:__39AEDAD7_xmemory0
	call	__CheckForDebuggerJustMyCode
	npad	1

; 987  : 		}

	mov	rax, QWORD PTR this$[rbp]
	lea	rsp, QWORD PTR [rbp+80]
	pop	rbp
	ret	0
??$?0UBufferElement@buffers@core@@@?$allocator@U_Container_proxy@std@@@std@@QEAA@AEBV?$allocator@UBufferElement@buffers@core@@@1@@Z ENDP ; std::allocator<std::_Container_proxy>::allocator<std::_Container_proxy><core::buffers::BufferElement>
_TEXT	ENDS
; Function compile flags: /Odtp /RTCu /ZI
; File c:\program files (x86)\microsoft visual studio\2017\enterprise\vc\tools\msvc\14.15.26726\include\xmemory0
;	COMDAT ??$construct@U_Container_proxy@std@@U12@@?$_Default_allocator_traits@V?$allocator@U_Container_proxy@std@@@std@@@std@@SAXAEAV?$allocator@U_Container_proxy@std@@@1@QEAU_Container_proxy@1@$$QEAU31@@Z
_TEXT	SEGMENT
$T1 = 64
__formal$ = 112
_Ptr$ = 120
<_Args_0>$ = 128
??$construct@U_Container_proxy@std@@U12@@?$_Default_allocator_traits@V?$allocator@U_Container_proxy@std@@@std@@@std@@SAXAEAV?$allocator@U_Container_proxy@std@@@1@QEAU_Container_proxy@1@$$QEAU31@@Z PROC ; std::_Default_allocator_traits<std::allocator<std::_Container_proxy> >::construct<std::_Container_proxy,std::_Container_proxy>, COMDAT

; 879  : 		{	// construct _Objty(_Types...) at _Ptr

$LN3:
	mov	QWORD PTR [rsp+24], r8
	mov	QWORD PTR [rsp+16], rdx
	mov	QWORD PTR [rsp+8], rcx
	push	rbp
	push	rsi
	push	rdi
	sub	rsp, 112				; 00000070H
	lea	rbp, QWORD PTR [rsp+32]
	lea	rcx, OFFSET FLAT:__39AEDAD7_xmemory0
	call	__CheckForDebuggerJustMyCode
	mov	rdx, QWORD PTR _Ptr$[rbp]
	mov	ecx, 16
	call	??2@YAPEAX_KPEAX@Z			; operator new
	mov	QWORD PTR $T1[rbp], rax
	mov	rcx, QWORD PTR <_Args_0>$[rbp]
	call	??$forward@U_Container_proxy@std@@@std@@YA$$QEAU_Container_proxy@0@AEAU10@@Z ; std::forward<std::_Container_proxy>
	mov	rdi, QWORD PTR $T1[rbp]
	mov	rsi, rax
	mov	ecx, 16
	rep movsb

; 880  : 		::new (const_cast<void *>(static_cast<const volatile void *>(_Ptr)))
; 881  : 			_Objty(_STD forward<_Types>(_Args)...);
; 882  : 		}

	lea	rsp, QWORD PTR [rbp+80]
	pop	rdi
	pop	rsi
	pop	rbp
	ret	0
??$construct@U_Container_proxy@std@@U12@@?$_Default_allocator_traits@V?$allocator@U_Container_proxy@std@@@std@@@std@@SAXAEAV?$allocator@U_Container_proxy@std@@@1@QEAU_Container_proxy@1@$$QEAU31@@Z ENDP ; std::_Default_allocator_traits<std::allocator<std::_Container_proxy> >::construct<std::_Container_proxy,std::_Container_proxy>
_TEXT	ENDS
; Function compile flags: /Odtp /RTCu /ZI
; File c:\program files (x86)\microsoft visual studio\2017\enterprise\vc\tools\msvc\14.15.26726\include\xstddef
;	COMDAT ??$_Unfancy@U_Container_proxy@std@@@std@@YAPEAU_Container_proxy@0@PEAU10@@Z
_TEXT	SEGMENT
_Ptr$ = 80
??$_Unfancy@U_Container_proxy@std@@@std@@YAPEAU_Container_proxy@0@PEAU10@@Z PROC ; std::_Unfancy<std::_Container_proxy>, COMDAT

; 345  : 	{	// do nothing for plain pointers

$LN3:
	mov	QWORD PTR [rsp+8], rcx
	push	rbp
	sub	rsp, 96					; 00000060H
	lea	rbp, QWORD PTR [rsp+32]
	lea	rcx, OFFSET FLAT:__30E3E102_xstddef
	call	__CheckForDebuggerJustMyCode

; 346  : 	return (_Ptr);

	mov	rax, QWORD PTR _Ptr$[rbp]

; 347  : 	}

	lea	rsp, QWORD PTR [rbp+64]
	pop	rbp
	ret	0
??$_Unfancy@U_Container_proxy@std@@@std@@YAPEAU_Container_proxy@0@PEAU10@@Z ENDP ; std::_Unfancy<std::_Container_proxy>
_TEXT	ENDS
; Function compile flags: /Odtp /RTCu /ZI
; File c:\program files (x86)\microsoft visual studio\2017\enterprise\vc\tools\msvc\14.15.26726\include\xmemory0
;	COMDAT ??$_Deallocate_plain@V?$allocator@U_Container_proxy@std@@@std@@$0A@@std@@YAXAEAV?$allocator@U_Container_proxy@std@@@0@QEAU_Container_proxy@0@@Z
_TEXT	SEGMENT
_Al$ = 80
_Ptr$ = 88
??$_Deallocate_plain@V?$allocator@U_Container_proxy@std@@@std@@$0A@@std@@YAXAEAV?$allocator@U_Container_proxy@std@@@0@QEAU_Container_proxy@0@@Z PROC ; std::_Deallocate_plain<std::allocator<std::_Container_proxy>,0>, COMDAT

; 1212 : 	{	// deallocate a plain pointer using an allocator, non-fancy pointers special case

$LN3:
	mov	QWORD PTR [rsp+16], rdx
	mov	QWORD PTR [rsp+8], rcx
	push	rbp
	sub	rsp, 96					; 00000060H
	lea	rbp, QWORD PTR [rsp+32]
	lea	rcx, OFFSET FLAT:__39AEDAD7_xmemory0
	call	__CheckForDebuggerJustMyCode

; 1213 : 	allocator_traits<_Alloc>::deallocate(_Al, _Ptr, 1);

	mov	r8d, 1
	mov	rdx, QWORD PTR _Ptr$[rbp]
	mov	rcx, QWORD PTR _Al$[rbp]
	call	?deallocate@?$_Default_allocator_traits@V?$allocator@U_Container_proxy@std@@@std@@@std@@SAXAEAV?$allocator@U_Container_proxy@std@@@2@QEAU_Container_proxy@2@_K@Z ; std::_Default_allocator_traits<std::allocator<std::_Container_proxy> >::deallocate

; 1214 : 	}

	lea	rsp, QWORD PTR [rbp+64]
	pop	rbp
	ret	0
??$_Deallocate_plain@V?$allocator@U_Container_proxy@std@@@std@@$0A@@std@@YAXAEAV?$allocator@U_Container_proxy@std@@@0@QEAU_Container_proxy@0@@Z ENDP ; std::_Deallocate_plain<std::allocator<std::_Container_proxy>,0>
_TEXT	ENDS
; Function compile flags: /Odtp /RTCu /ZI
; File c:\program files (x86)\microsoft visual studio\2017\enterprise\vc\tools\msvc\14.15.26726\include\xmemory0
;	COMDAT ??$destroy@U_Container_proxy@std@@@?$_Default_allocator_traits@V?$allocator@U_Container_proxy@std@@@std@@@std@@SAXAEAV?$allocator@U_Container_proxy@std@@@1@QEAU_Container_proxy@1@@Z
_TEXT	SEGMENT
__formal$ = 80
_Ptr$ = 88
??$destroy@U_Container_proxy@std@@@?$_Default_allocator_traits@V?$allocator@U_Container_proxy@std@@@std@@@std@@SAXAEAV?$allocator@U_Container_proxy@std@@@1@QEAU_Container_proxy@1@@Z PROC ; std::_Default_allocator_traits<std::allocator<std::_Container_proxy> >::destroy<std::_Container_proxy>, COMDAT

; 886  : 		{	// destroy object at _Ptr

$LN3:
	mov	QWORD PTR [rsp+16], rdx
	mov	QWORD PTR [rsp+8], rcx
	push	rbp
	sub	rsp, 96					; 00000060H
	lea	rbp, QWORD PTR [rsp+32]
	lea	rcx, OFFSET FLAT:__39AEDAD7_xmemory0
	call	__CheckForDebuggerJustMyCode

; 887  : 		_Ptr->~_Uty();
; 888  : 		}

	lea	rsp, QWORD PTR [rbp+64]
	pop	rbp
	ret	0
??$destroy@U_Container_proxy@std@@@?$_Default_allocator_traits@V?$allocator@U_Container_proxy@std@@@std@@@std@@SAXAEAV?$allocator@U_Container_proxy@std@@@1@QEAU_Container_proxy@1@@Z ENDP ; std::_Default_allocator_traits<std::allocator<std::_Container_proxy> >::destroy<std::_Container_proxy>
_TEXT	ENDS
; Function compile flags: /Odtp /RTCu /ZI
; File c:\program files (x86)\microsoft visual studio\2017\enterprise\vc\tools\msvc\14.15.26726\include\xmemory0
;	COMDAT ?deallocate@?$_Default_allocator_traits@V?$allocator@U_Container_proxy@std@@@std@@@std@@SAXAEAV?$allocator@U_Container_proxy@std@@@2@QEAU_Container_proxy@2@_K@Z
_TEXT	SEGMENT
__formal$ = 80
_Ptr$ = 88
_Count$ = 96
?deallocate@?$_Default_allocator_traits@V?$allocator@U_Container_proxy@std@@@std@@@std@@SAXAEAV?$allocator@U_Container_proxy@std@@@2@QEAU_Container_proxy@2@_K@Z PROC ; std::_Default_allocator_traits<std::allocator<std::_Container_proxy> >::deallocate, COMDAT

; 871  : 		{	// deallocate _Count elements at _Ptr

$LN3:
	mov	QWORD PTR [rsp+24], r8
	mov	QWORD PTR [rsp+16], rdx
	mov	QWORD PTR [rsp+8], rcx
	push	rbp
	sub	rsp, 96					; 00000060H
	lea	rbp, QWORD PTR [rsp+32]
	lea	rcx, OFFSET FLAT:__39AEDAD7_xmemory0
	call	__CheckForDebuggerJustMyCode

; 872  : 		// no overflow check on the following multiply; we assume _Allocate did that check
; 873  : 		_Deallocate<_New_alignof<value_type>>(_Ptr, sizeof(value_type) * _Count);

	imul	rax, QWORD PTR _Count$[rbp], 16
	mov	rdx, rax
	mov	rcx, QWORD PTR _Ptr$[rbp]
	call	??$_Deallocate@$0BA@$0A@@std@@YAXPEAX_K@Z ; std::_Deallocate<16,0>

; 874  : 		}

	lea	rsp, QWORD PTR [rbp+64]
	pop	rbp
	ret	0
?deallocate@?$_Default_allocator_traits@V?$allocator@U_Container_proxy@std@@@std@@@std@@SAXAEAV?$allocator@U_Container_proxy@std@@@2@QEAU_Container_proxy@2@_K@Z ENDP ; std::_Default_allocator_traits<std::allocator<std::_Container_proxy> >::deallocate
_TEXT	ENDS
; Function compile flags: /Odtp /RTCu /ZI
; File c:\program files (x86)\microsoft visual studio\2017\enterprise\vc\tools\msvc\14.15.26726\include\xmemory0
;	COMDAT ?allocate@?$allocator@U_Container_proxy@std@@@std@@QEAAPEAU_Container_proxy@2@_K@Z
_TEXT	SEGMENT
this$ = 80
_Count$ = 88
?allocate@?$allocator@U_Container_proxy@std@@@std@@QEAAPEAU_Container_proxy@2@_K@Z PROC ; std::allocator<std::_Container_proxy>::allocate, COMDAT

; 996  : 		{	// allocate array of _Count elements

$LN3:
	mov	QWORD PTR [rsp+16], rdx
	mov	QWORD PTR [rsp+8], rcx
	push	rbp
	sub	rsp, 96					; 00000060H
	lea	rbp, QWORD PTR [rsp+32]
	lea	rcx, OFFSET FLAT:__39AEDAD7_xmemory0
	call	__CheckForDebuggerJustMyCode

; 997  : 		return (static_cast<_Ty *>(_Allocate<_New_alignof<_Ty>>(_Get_size_of_n<sizeof(_Ty)>(_Count))));

	mov	rcx, QWORD PTR _Count$[rbp]
	call	??$_Get_size_of_n@$0BA@@std@@YA_K_K@Z	; std::_Get_size_of_n<16>
	mov	rcx, rax
	call	??$_Allocate@$0BA@U_Default_allocate_traits@std@@$0A@@std@@YAPEAX_K@Z ; std::_Allocate<16,std::_Default_allocate_traits,0>

; 998  : 		}

	lea	rsp, QWORD PTR [rbp+64]
	pop	rbp
	ret	0
?allocate@?$allocator@U_Container_proxy@std@@@std@@QEAAPEAU_Container_proxy@2@_K@Z ENDP ; std::allocator<std::_Container_proxy>::allocate
_TEXT	ENDS
; Function compile flags: /Odtp /RTCu /ZI
; File c:\program files (x86)\microsoft visual studio\2017\enterprise\vc\tools\msvc\14.15.26726\include\xmemory0
;	COMDAT ??$_Deallocate@$0BA@$0A@@std@@YAXPEAX_K@Z
_TEXT	SEGMENT
_Ptr$ = 80
_Bytes$ = 88
??$_Deallocate@$0BA@$0A@@std@@YAXPEAX_K@Z PROC		; std::_Deallocate<16,0>, COMDAT

; 199  : 	{	// deallocate storage allocated by _Allocate when !_HAS_ALIGNED_NEW || _Align <= __STDCPP_DEFAULT_NEW_ALIGNMENT__

$LN4:
	mov	QWORD PTR [rsp+16], rdx
	mov	QWORD PTR [rsp+8], rcx
	push	rbp
	sub	rsp, 96					; 00000060H
	lea	rbp, QWORD PTR [rsp+32]
	lea	rcx, OFFSET FLAT:__39AEDAD7_xmemory0
	call	__CheckForDebuggerJustMyCode

; 200  :  #if defined(_M_IX86) || defined(_M_X64)
; 201  : 	if (_Bytes >= _Big_allocation_threshold)

	cmp	QWORD PTR _Bytes$[rbp], 4096		; 00001000H
	jb	SHORT $LN2@Deallocate

; 202  : 		{	// boost the alignment of big allocations to help autovectorization
; 203  : 		_Adjust_manually_vector_aligned(_Ptr, _Bytes);

	lea	rdx, QWORD PTR _Bytes$[rbp]
	lea	rcx, QWORD PTR _Ptr$[rbp]
	call	?_Adjust_manually_vector_aligned@std@@YAXAEAPEAXAEA_K@Z ; std::_Adjust_manually_vector_aligned
$LN2@Deallocate:

; 204  : 		}
; 205  :  #endif /* defined(_M_IX86) || defined(_M_X64) */
; 206  : 
; 207  : 	::operator delete(_Ptr, _Bytes);

	mov	rdx, QWORD PTR _Bytes$[rbp]
	mov	rcx, QWORD PTR _Ptr$[rbp]
	call	??3@YAXPEAX_K@Z				; operator delete

; 208  : 	}

	lea	rsp, QWORD PTR [rbp+64]
	pop	rbp
	ret	0
??$_Deallocate@$0BA@$0A@@std@@YAXPEAX_K@Z ENDP		; std::_Deallocate<16,0>
_TEXT	ENDS
; Function compile flags: /Odtp /RTCu /ZI
; File c:\program files (x86)\microsoft visual studio\2017\enterprise\vc\tools\msvc\14.15.26726\include\xmemory0
;	COMDAT ??$_Allocate@$0BA@U_Default_allocate_traits@std@@$0A@@std@@YAPEAX_K@Z
_TEXT	SEGMENT
_Bytes$ = 80
??$_Allocate@$0BA@U_Default_allocate_traits@std@@$0A@@std@@YAPEAX_K@Z PROC ; std::_Allocate<16,std::_Default_allocate_traits,0>, COMDAT

; 180  : 	{	// allocate _Bytes when !_HAS_ALIGNED_NEW || _Align <= __STDCPP_DEFAULT_NEW_ALIGNMENT__

$LN5:
	mov	QWORD PTR [rsp+8], rcx
	push	rbp
	sub	rsp, 96					; 00000060H
	lea	rbp, QWORD PTR [rsp+32]
	lea	rcx, OFFSET FLAT:__39AEDAD7_xmemory0
	call	__CheckForDebuggerJustMyCode

; 181  :  #if defined(_M_IX86) || defined(_M_X64)
; 182  : 	if (_Bytes >= _Big_allocation_threshold)

	cmp	QWORD PTR _Bytes$[rbp], 4096		; 00001000H
	jb	SHORT $LN2@Allocate

; 183  : 		{	// boost the alignment of big allocations to help autovectorization
; 184  : 		return (_Allocate_manually_vector_aligned<_Traits>(_Bytes));

	mov	rcx, QWORD PTR _Bytes$[rbp]
	call	??$_Allocate_manually_vector_aligned@U_Default_allocate_traits@std@@@std@@YAPEAX_K@Z ; std::_Allocate_manually_vector_aligned<std::_Default_allocate_traits>
	jmp	SHORT $LN1@Allocate
$LN2@Allocate:

; 185  : 		}
; 186  :  #endif /* defined(_M_IX86) || defined(_M_X64) */
; 187  : 
; 188  : 	if (_Bytes != 0)

	cmp	QWORD PTR _Bytes$[rbp], 0
	je	SHORT $LN3@Allocate

; 189  : 		{
; 190  : 		return (_Traits::_Allocate(_Bytes));

	mov	rcx, QWORD PTR _Bytes$[rbp]
	call	?_Allocate@_Default_allocate_traits@std@@SAPEAX_K@Z ; std::_Default_allocate_traits::_Allocate
	jmp	SHORT $LN1@Allocate
$LN3@Allocate:

; 191  : 		}
; 192  : 
; 193  : 	return (nullptr);

	xor	eax, eax
$LN1@Allocate:

; 194  : 	}

	lea	rsp, QWORD PTR [rbp+64]
	pop	rbp
	ret	0
??$_Allocate@$0BA@U_Default_allocate_traits@std@@$0A@@std@@YAPEAX_K@Z ENDP ; std::_Allocate<16,std::_Default_allocate_traits,0>
_TEXT	ENDS
; Function compile flags: /Odtp /RTCu /ZI
; File c:\program files (x86)\microsoft visual studio\2017\enterprise\vc\tools\msvc\14.15.26726\include\xstddef
;	COMDAT ??$addressof@V?$_String_val@U?$_Simple_types@D@std@@@std@@@std@@YAPEAV?$_String_val@U?$_Simple_types@D@std@@@0@AEAV10@@Z
_TEXT	SEGMENT
$T1 = 64
_Val$ = 96
??$addressof@V?$_String_val@U?$_Simple_types@D@std@@@std@@@std@@YAPEAV?$_String_val@U?$_Simple_types@D@std@@@0@AEAV10@@Z PROC ; std::addressof<std::_String_val<std::_Simple_types<char> > >, COMDAT

; 329  : 	{	// return address of _Val

$LN3:
	mov	QWORD PTR [rsp+8], rcx
	push	rbp
	sub	rsp, 112				; 00000070H
	lea	rbp, QWORD PTR [rsp+32]
	mov	QWORD PTR $T1[rbp], -2
	lea	rcx, OFFSET FLAT:__30E3E102_xstddef
	call	__CheckForDebuggerJustMyCode
	npad	1

; 330  : 	return (__builtin_addressof(_Val));

	mov	rax, QWORD PTR _Val$[rbp]

; 331  : 	}

	lea	rsp, QWORD PTR [rbp+80]
	pop	rbp
	ret	0
??$addressof@V?$_String_val@U?$_Simple_types@D@std@@@std@@@std@@YAPEAV?$_String_val@U?$_Simple_types@D@std@@@0@AEAV10@@Z ENDP ; std::addressof<std::_String_val<std::_Simple_types<char> > >
_TEXT	ENDS
; Function compile flags: /Odtp /RTCu /ZI
; File c:\program files (x86)\microsoft visual studio\2017\enterprise\vc\tools\msvc\14.15.26726\include\xmemory0
;	COMDAT ??$construct@PEADAEBQEAD@?$_Default_allocator_traits@V?$allocator@D@std@@@std@@SAXAEAV?$allocator@D@1@QEAPEADAEBQEAD@Z
_TEXT	SEGMENT
$T1 = 64
__formal$ = 96
_Ptr$ = 104
<_Args_0>$ = 112
??$construct@PEADAEBQEAD@?$_Default_allocator_traits@V?$allocator@D@std@@@std@@SAXAEAV?$allocator@D@1@QEAPEADAEBQEAD@Z PROC ; std::_Default_allocator_traits<std::allocator<char> >::construct<char *,char * const &>, COMDAT

; 879  : 		{	// construct _Objty(_Types...) at _Ptr

$LN3:
	mov	QWORD PTR [rsp+24], r8
	mov	QWORD PTR [rsp+16], rdx
	mov	QWORD PTR [rsp+8], rcx
	push	rbp
	sub	rsp, 112				; 00000070H
	lea	rbp, QWORD PTR [rsp+32]
	lea	rcx, OFFSET FLAT:__39AEDAD7_xmemory0
	call	__CheckForDebuggerJustMyCode
	mov	rdx, QWORD PTR _Ptr$[rbp]
	mov	ecx, 8
	call	??2@YAPEAX_KPEAX@Z			; operator new
	mov	QWORD PTR $T1[rbp], rax
	mov	rcx, QWORD PTR <_Args_0>$[rbp]
	call	??$forward@AEBQEAD@std@@YAAEBQEADAEBQEAD@Z ; std::forward<char * const &>
	mov	rcx, QWORD PTR $T1[rbp]
	mov	rax, QWORD PTR [rax]
	mov	QWORD PTR [rcx], rax

; 880  : 		::new (const_cast<void *>(static_cast<const volatile void *>(_Ptr)))
; 881  : 			_Objty(_STD forward<_Types>(_Args)...);
; 882  : 		}

	lea	rsp, QWORD PTR [rbp+80]
	pop	rbp
	ret	0
??$construct@PEADAEBQEAD@?$_Default_allocator_traits@V?$allocator@D@std@@@std@@SAXAEAV?$allocator@D@1@QEAPEADAEBQEAD@Z ENDP ; std::_Default_allocator_traits<std::allocator<char> >::construct<char *,char * const &>
_TEXT	ENDS
; Function compile flags: /Odtp /RTCu /ZI
; File c:\program files (x86)\microsoft visual studio\2017\enterprise\vc\tools\msvc\14.15.26726\include\xstring
;	COMDAT ??$_Reallocate_for@V<lambda_66f57f934f28d61049862f64df852ff0>@@PEBD@?$basic_string@DU?$char_traits@D@std@@V?$allocator@D@2@@std@@QEAAAEAV01@_KV<lambda_66f57f934f28d61049862f64df852ff0>@@PEBD@Z
_TEXT	SEGMENT
_My_data$ = 0
_Old_capacity$ = 8
_New_capacity$ = 16
_Al$ = 24
_New_ptr$ = 32
__$ArrayPad$ = 104
this$ = 128
_New_size$ = 136
_Fn$ = 144
<_Args_0>$ = 152
??$_Reallocate_for@V<lambda_66f57f934f28d61049862f64df852ff0>@@PEBD@?$basic_string@DU?$char_traits@D@std@@V?$allocator@D@2@@std@@QEAAAEAV01@_KV<lambda_66f57f934f28d61049862f64df852ff0>@@PEBD@Z PROC ; std::basic_string<char,std::char_traits<char>,std::allocator<char> >::_Reallocate_for<<lambda_66f57f934f28d61049862f64df852ff0>,char const *>, COMDAT

; 3887 : 		{	// reallocate to store exactly _New_size elements, new buffer prepared by

	mov	QWORD PTR [rsp+32], r9
	mov	BYTE PTR [rsp+24], r8b
	mov	QWORD PTR [rsp+16], rdx
	mov	QWORD PTR [rsp+8], rcx
	push	rbp
	sub	rsp, 144				; 00000090H
	lea	rbp, QWORD PTR [rsp+32]
	mov	rax, QWORD PTR __security_cookie
	xor	rax, rbp
	mov	QWORD PTR __$ArrayPad$[rbp], rax
	lea	rcx, OFFSET FLAT:__D9BA934F_xstring
	call	__CheckForDebuggerJustMyCode

; 3888 : 			// _Fn(_New_ptr, _New_size, _Args...)
; 3889 : 		if (_New_size > max_size())

	mov	rcx, QWORD PTR this$[rbp]
	call	?max_size@?$basic_string@DU?$char_traits@D@std@@V?$allocator@D@2@@std@@QEBA_KXZ ; std::basic_string<char,std::char_traits<char>,std::allocator<char> >::max_size
	cmp	QWORD PTR _New_size$[rbp], rax
	jbe	SHORT $LN2@Reallocate

; 3890 : 			{
; 3891 : 			_Xlen();	// result too long

	call	?_Xlen@?$basic_string@DU?$char_traits@D@std@@V?$allocator@D@2@@std@@SAXXZ ; std::basic_string<char,std::char_traits<char>,std::allocator<char> >::_Xlen
$LN2@Reallocate:

; 3892 : 			}
; 3893 : 
; 3894 : 		auto& _My_data = this->_Get_data();

	mov	rcx, QWORD PTR this$[rbp]
	call	?_Get_data@?$_String_alloc@U?$_String_base_types@DV?$allocator@D@std@@@std@@@std@@QEAAAEAV?$_String_val@U?$_Simple_types@D@std@@@2@XZ ; std::_String_alloc<std::_String_base_types<char,std::allocator<char> > >::_Get_data
	mov	QWORD PTR _My_data$[rbp], rax

; 3895 : 		const size_type _Old_capacity = _My_data._Myres;

	mov	rax, QWORD PTR _My_data$[rbp]
	mov	rax, QWORD PTR [rax+32]
	mov	QWORD PTR _Old_capacity$[rbp], rax

; 3896 : 		const size_type _New_capacity = _Calculate_growth(_New_size);

	mov	rdx, QWORD PTR _New_size$[rbp]
	mov	rcx, QWORD PTR this$[rbp]
	call	?_Calculate_growth@?$basic_string@DU?$char_traits@D@std@@V?$allocator@D@2@@std@@QEBA_K_K@Z ; std::basic_string<char,std::char_traits<char>,std::allocator<char> >::_Calculate_growth
	mov	QWORD PTR _New_capacity$[rbp], rax

; 3897 : 		auto& _Al = this->_Getal();

	mov	rcx, QWORD PTR this$[rbp]
	call	?_Getal@?$_String_alloc@U?$_String_base_types@DV?$allocator@D@std@@@std@@@std@@QEAAAEAV?$allocator@D@2@XZ ; std::_String_alloc<std::_String_base_types<char,std::allocator<char> > >::_Getal
	mov	QWORD PTR _Al$[rbp], rax

; 3898 : 		const pointer _New_ptr = _Al.allocate(_New_capacity + 1); // throws

	mov	rax, QWORD PTR _New_capacity$[rbp]
	add	rax, 1
	mov	rcx, -1
	cmovb	rax, rcx
	mov	rdx, rax
	mov	rcx, QWORD PTR _Al$[rbp]
	call	?allocate@?$allocator@D@std@@QEAAPEAD_K@Z ; std::allocator<char>::allocate
	mov	QWORD PTR _New_ptr$[rbp], rax

; 3899 : 		_My_data._Orphan_all();

	mov	rcx, QWORD PTR _My_data$[rbp]
	call	?_Orphan_all@_Container_base12@std@@QEAAXXZ ; std::_Container_base12::_Orphan_all

; 3900 : 		_My_data._Mysize = _New_size;

	mov	rax, QWORD PTR _My_data$[rbp]
	mov	rcx, QWORD PTR _New_size$[rbp]
	mov	QWORD PTR [rax+24], rcx

; 3901 : 		_My_data._Myres = _New_capacity;

	mov	rax, QWORD PTR _My_data$[rbp]
	mov	rcx, QWORD PTR _New_capacity$[rbp]
	mov	QWORD PTR [rax+32], rcx

; 3902 : 		_Fn(_Unfancy(_New_ptr), _New_size, _Args...);

	mov	rcx, QWORD PTR _New_ptr$[rbp]
	call	??$_Unfancy@D@std@@YAPEADPEAD@Z		; std::_Unfancy<char>
	mov	r9, QWORD PTR <_Args_0>$[rbp]
	mov	r8, QWORD PTR _New_size$[rbp]
	mov	rdx, rax
	lea	rcx, QWORD PTR _Fn$[rbp]
	call	??R<lambda_66f57f934f28d61049862f64df852ff0>@@QEBAXQEAD_KQEBD@Z ; <lambda_66f57f934f28d61049862f64df852ff0>::operator()

; 3903 : 		if (this->_BUF_SIZE <= _Old_capacity)

	cmp	QWORD PTR _Old_capacity$[rbp], 16
	jb	SHORT $LN3@Reallocate

; 3904 : 			{
; 3905 : 			_Al.deallocate(_My_data._Bx._Ptr, _Old_capacity + 1);

	mov	rax, QWORD PTR _Old_capacity$[rbp]
	inc	rax
	mov	r8, rax
	mov	rax, QWORD PTR _My_data$[rbp]
	mov	rdx, QWORD PTR [rax+8]
	mov	rcx, QWORD PTR _Al$[rbp]
	call	?deallocate@?$allocator@D@std@@QEAAXQEAD_K@Z ; std::allocator<char>::deallocate

; 3906 : 			_My_data._Bx._Ptr = _New_ptr;

	mov	rax, QWORD PTR _My_data$[rbp]
	mov	rcx, QWORD PTR _New_ptr$[rbp]
	mov	QWORD PTR [rax+8], rcx

; 3907 : 			}
; 3908 : 		else

	jmp	SHORT $LN4@Reallocate
$LN3@Reallocate:

; 3909 : 			{
; 3910 : 			_Alty_traits::construct(_Al, _STD addressof(_My_data._Bx._Ptr), _New_ptr);

	mov	rax, QWORD PTR _My_data$[rbp]
	add	rax, 8
	mov	rcx, rax
	call	??$addressof@PEAD@std@@YAPEAPEADAEAPEAD@Z ; std::addressof<char *>
	lea	r8, QWORD PTR _New_ptr$[rbp]
	mov	rdx, rax
	mov	rcx, QWORD PTR _Al$[rbp]
	call	??$construct@PEADAEBQEAD@?$_Default_allocator_traits@V?$allocator@D@std@@@std@@SAXAEAV?$allocator@D@1@QEAPEADAEBQEAD@Z ; std::_Default_allocator_traits<std::allocator<char> >::construct<char *,char * const &>
$LN4@Reallocate:

; 3911 : 			}
; 3912 : 
; 3913 : 		return (*this);

	mov	rax, QWORD PTR this$[rbp]
$LN5@Reallocate:

; 3914 : 		}

	mov	rcx, QWORD PTR __$ArrayPad$[rbp]
	xor	rcx, rbp
	call	__security_check_cookie
	lea	rsp, QWORD PTR [rbp+112]
	pop	rbp
	ret	0
??$_Reallocate_for@V<lambda_66f57f934f28d61049862f64df852ff0>@@PEBD@?$basic_string@DU?$char_traits@D@std@@V?$allocator@D@2@@std@@QEAAAEAV01@_KV<lambda_66f57f934f28d61049862f64df852ff0>@@PEBD@Z ENDP ; std::basic_string<char,std::char_traits<char>,std::allocator<char> >::_Reallocate_for<<lambda_66f57f934f28d61049862f64df852ff0>,char const *>
_TEXT	ENDS
; Function compile flags: /Odtp /RTCu /ZI
; File c:\program files (x86)\microsoft visual studio\2017\enterprise\vc\tools\msvc\14.15.26726\include\xstring
;	COMDAT ??R<lambda_66f57f934f28d61049862f64df852ff0>@@QEBAXQEAD_KQEBD@Z
_TEXT	SEGMENT
$T1 = 64
this$ = 96
_New_ptr$ = 104
_Count$ = 112
_Ptr$ = 120
??R<lambda_66f57f934f28d61049862f64df852ff0>@@QEBAXQEAD_KQEBD@Z PROC ; <lambda_66f57f934f28d61049862f64df852ff0>::operator(), COMDAT

; 2668 : 		return (_Reallocate_for(_Count, [](_Elem * const _New_ptr, const size_type _Count, const _Elem * const _Ptr) {

	mov	QWORD PTR [rsp+32], r9
	mov	QWORD PTR [rsp+24], r8
	mov	QWORD PTR [rsp+16], rdx
	mov	QWORD PTR [rsp+8], rcx
	push	rbp
	sub	rsp, 112				; 00000070H
	lea	rbp, QWORD PTR [rsp+32]
	lea	rcx, OFFSET FLAT:__D9BA934F_xstring
	call	__CheckForDebuggerJustMyCode

; 2669 : 			_Traits::copy(_New_ptr, _Ptr, _Count);

	mov	r8, QWORD PTR _Count$[rbp]
	mov	rdx, QWORD PTR _Ptr$[rbp]
	mov	rcx, QWORD PTR _New_ptr$[rbp]
	call	?copy@?$char_traits@D@std@@SAPEADQEADQEBD_K@Z ; std::char_traits<char>::copy

; 2670 : 			_Traits::assign(_New_ptr[_Count], _Elem());

	mov	BYTE PTR $T1[rbp], 0
	mov	rax, QWORD PTR _Count$[rbp]
	mov	rcx, QWORD PTR _New_ptr$[rbp]
	add	rcx, rax
	mov	rax, rcx
	lea	rdx, QWORD PTR $T1[rbp]
	mov	rcx, rax
	call	?assign@?$char_traits@D@std@@SAXAEADAEBD@Z ; std::char_traits<char>::assign

; 2671 : 			}, _Ptr));

	lea	rsp, QWORD PTR [rbp+80]
	pop	rbp
	ret	0
??R<lambda_66f57f934f28d61049862f64df852ff0>@@QEBAXQEAD_KQEBD@Z ENDP ; <lambda_66f57f934f28d61049862f64df852ff0>::operator()
_TEXT	ENDS
; Function compile flags: /Odtp /RTCu /ZI
; File c:\program files (x86)\microsoft visual studio\2017\enterprise\vc\tools\msvc\14.15.26726\include\utility
;	COMDAT ??$_Max_value@_K@std@@YAAEB_KAEB_K0@Z
_TEXT	SEGMENT
$T1 = 64
$T2 = 72
tv65 = 80
_Left$ = 112
_Right$ = 120
??$_Max_value@_K@std@@YAAEB_KAEB_K0@Z PROC		; std::_Max_value<unsigned __int64>, COMDAT

; 32   : 	{	// return larger of _Left and _Right

$LN5:
	mov	QWORD PTR [rsp+16], rdx
	mov	QWORD PTR [rsp+8], rcx
	push	rbp
	sub	rsp, 128				; 00000080H
	lea	rbp, QWORD PTR [rsp+32]
	mov	QWORD PTR $T2[rbp], -2
	lea	rcx, OFFSET FLAT:__C7FC7610_utility
	call	__CheckForDebuggerJustMyCode
	npad	1

; 33   : 	return (_Left < _Right ? _Right : _Left);

	mov	rax, QWORD PTR _Left$[rbp]
	mov	rcx, QWORD PTR _Right$[rbp]
	mov	rcx, QWORD PTR [rcx]
	cmp	QWORD PTR [rax], rcx
	jae	SHORT $LN3@Max_value
	mov	rax, QWORD PTR _Right$[rbp]
	mov	QWORD PTR tv65[rbp], rax
	jmp	SHORT $LN4@Max_value
$LN3@Max_value:
	mov	rax, QWORD PTR _Left$[rbp]
	mov	QWORD PTR tv65[rbp], rax
$LN4@Max_value:
	mov	rax, QWORD PTR tv65[rbp]
	mov	QWORD PTR $T1[rbp], rax
	mov	rax, QWORD PTR $T1[rbp]

; 34   : 	}

	lea	rsp, QWORD PTR [rbp+96]
	pop	rbp
	ret	0
??$_Max_value@_K@std@@YAAEB_KAEB_K0@Z ENDP		; std::_Max_value<unsigned __int64>
_TEXT	ENDS
; Function compile flags: /Odtp /RTCu /ZI
; File c:\program files (x86)\microsoft visual studio\2017\enterprise\vc\tools\msvc\14.15.26726\include\xmemory0
;	COMDAT ??$destroy@PEAD@?$_Default_allocator_traits@V?$allocator@D@std@@@std@@SAXAEAV?$allocator@D@1@QEAPEAD@Z
_TEXT	SEGMENT
__formal$ = 80
_Ptr$ = 88
??$destroy@PEAD@?$_Default_allocator_traits@V?$allocator@D@std@@@std@@SAXAEAV?$allocator@D@1@QEAPEAD@Z PROC ; std::_Default_allocator_traits<std::allocator<char> >::destroy<char *>, COMDAT

; 886  : 		{	// destroy object at _Ptr

$LN3:
	mov	QWORD PTR [rsp+16], rdx
	mov	QWORD PTR [rsp+8], rcx
	push	rbp
	sub	rsp, 96					; 00000060H
	lea	rbp, QWORD PTR [rsp+32]
	lea	rcx, OFFSET FLAT:__39AEDAD7_xmemory0
	call	__CheckForDebuggerJustMyCode

; 887  : 		_Ptr->~_Uty();
; 888  : 		}

	lea	rsp, QWORD PTR [rbp+64]
	pop	rbp
	ret	0
??$destroy@PEAD@?$_Default_allocator_traits@V?$allocator@D@std@@@std@@SAXAEAV?$allocator@D@1@QEAPEAD@Z ENDP ; std::_Default_allocator_traits<std::allocator<char> >::destroy<char *>
_TEXT	ENDS
; Function compile flags: /Odtp /RTCu /ZI
; File c:\program files (x86)\microsoft visual studio\2017\enterprise\vc\tools\msvc\14.15.26726\include\xstddef
;	COMDAT ??$addressof@PEAD@std@@YAPEAPEADAEAPEAD@Z
_TEXT	SEGMENT
$T1 = 64
_Val$ = 96
??$addressof@PEAD@std@@YAPEAPEADAEAPEAD@Z PROC		; std::addressof<char *>, COMDAT

; 329  : 	{	// return address of _Val

$LN3:
	mov	QWORD PTR [rsp+8], rcx
	push	rbp
	sub	rsp, 112				; 00000070H
	lea	rbp, QWORD PTR [rsp+32]
	mov	QWORD PTR $T1[rbp], -2
	lea	rcx, OFFSET FLAT:__30E3E102_xstddef
	call	__CheckForDebuggerJustMyCode
	npad	1

; 330  : 	return (__builtin_addressof(_Val));

	mov	rax, QWORD PTR _Val$[rbp]

; 331  : 	}

	lea	rsp, QWORD PTR [rbp+80]
	pop	rbp
	ret	0
??$addressof@PEAD@std@@YAPEAPEADAEAPEAD@Z ENDP		; std::addressof<char *>
_TEXT	ENDS
; Function compile flags: /Odtp /RTCu /ZI
; File c:\program files (x86)\microsoft visual studio\2017\enterprise\vc\tools\msvc\14.15.26726\include\xutility
;	COMDAT ??$?0$$V@?$_Compressed_pair@V?$allocator@D@std@@V?$_String_val@U?$_Simple_types@D@std@@@2@$00@std@@QEAA@U_Zero_then_variadic_args_t@1@@Z
_TEXT	SEGMENT
this$ = 80
__formal$ = 88
??$?0$$V@?$_Compressed_pair@V?$allocator@D@std@@V?$_String_val@U?$_Simple_types@D@std@@@2@$00@std@@QEAA@U_Zero_then_variadic_args_t@1@@Z PROC ; std::_Compressed_pair<std::allocator<char>,std::_String_val<std::_Simple_types<char> >,1>::_Compressed_pair<std::allocator<char>,std::_String_val<std::_Simple_types<char> >,1><>, COMDAT

; 277  : 		: _Ty1(), _Myval2(_STD forward<_Other2>(_Val2)...)

$LN4:
	mov	BYTE PTR [rsp+16], dl
	mov	QWORD PTR [rsp+8], rcx
	push	rbp
	sub	rsp, 96					; 00000060H
	lea	rbp, QWORD PTR [rsp+32]
	lea	rcx, OFFSET FLAT:__E8FD1B86_xutility
	call	__CheckForDebuggerJustMyCode
	mov	rcx, QWORD PTR this$[rbp]
	call	??0?$allocator@D@std@@QEAA@XZ		; std::allocator<char>::allocator<char>
	mov	rax, QWORD PTR this$[rbp]
	mov	rcx, rax
	call	??0?$_String_val@U?$_Simple_types@D@std@@@std@@QEAA@XZ ; std::_String_val<std::_Simple_types<char> >::_String_val<std::_Simple_types<char> >

; 278  : 		{	// construct from forwarded values
; 279  : 		}

	mov	rax, QWORD PTR this$[rbp]
	lea	rsp, QWORD PTR [rbp+64]
	pop	rbp
	ret	0
??$?0$$V@?$_Compressed_pair@V?$allocator@D@std@@V?$_String_val@U?$_Simple_types@D@std@@@2@$00@std@@QEAA@U_Zero_then_variadic_args_t@1@@Z ENDP ; std::_Compressed_pair<std::allocator<char>,std::_String_val<std::_Simple_types<char> >,1>::_Compressed_pair<std::allocator<char>,std::_String_val<std::_Simple_types<char> >,1><>
_TEXT	ENDS
; Function compile flags: /Odtp /RTCu /ZI
; File c:\program files (x86)\microsoft visual studio\2017\enterprise\vc\tools\msvc\14.15.26726\include\xutility
;	COMDAT ??$?0$$V@?$_Compressed_pair@V?$allocator@UBufferElement@buffers@core@@@std@@V?$_Vector_val@U?$_Simple_types@UBufferElement@buffers@core@@@std@@@2@$00@std@@QEAA@U_Zero_then_variadic_args_t@1@@Z
_TEXT	SEGMENT
this$ = 80
__formal$ = 88
??$?0$$V@?$_Compressed_pair@V?$allocator@UBufferElement@buffers@core@@@std@@V?$_Vector_val@U?$_Simple_types@UBufferElement@buffers@core@@@std@@@2@$00@std@@QEAA@U_Zero_then_variadic_args_t@1@@Z PROC ; std::_Compressed_pair<std::allocator<core::buffers::BufferElement>,std::_Vector_val<std::_Simple_types<core::buffers::BufferElement> >,1>::_Compressed_pair<std::allocator<core::buffers::BufferElement>,std::_Vector_val<std::_Simple_types<core::buffers::BufferElement> >,1><>, COMDAT

; 277  : 		: _Ty1(), _Myval2(_STD forward<_Other2>(_Val2)...)

$LN3:
	mov	BYTE PTR [rsp+16], dl
	mov	QWORD PTR [rsp+8], rcx
	push	rbp
	sub	rsp, 96					; 00000060H
	lea	rbp, QWORD PTR [rsp+32]
	lea	rcx, OFFSET FLAT:__E8FD1B86_xutility
	call	__CheckForDebuggerJustMyCode
	mov	rcx, QWORD PTR this$[rbp]
	call	??0?$allocator@UBufferElement@buffers@core@@@std@@QEAA@XZ ; std::allocator<core::buffers::BufferElement>::allocator<core::buffers::BufferElement>
	mov	rax, QWORD PTR this$[rbp]
	mov	rcx, rax
	call	??0?$_Vector_val@U?$_Simple_types@UBufferElement@buffers@core@@@std@@@std@@QEAA@XZ ; std::_Vector_val<std::_Simple_types<core::buffers::BufferElement> >::_Vector_val<std::_Simple_types<core::buffers::BufferElement> >

; 278  : 		{	// construct from forwarded values
; 279  : 		}

	mov	rax, QWORD PTR this$[rbp]
	lea	rsp, QWORD PTR [rbp+64]
	pop	rbp
	ret	0
??$?0$$V@?$_Compressed_pair@V?$allocator@UBufferElement@buffers@core@@@std@@V?$_Vector_val@U?$_Simple_types@UBufferElement@buffers@core@@@std@@@2@$00@std@@QEAA@U_Zero_then_variadic_args_t@1@@Z ENDP ; std::_Compressed_pair<std::allocator<core::buffers::BufferElement>,std::_Vector_val<std::_Simple_types<core::buffers::BufferElement> >,1>::_Compressed_pair<std::allocator<core::buffers::BufferElement>,std::_Vector_val<std::_Simple_types<core::buffers::BufferElement> >,1><>
_TEXT	ENDS
; Function compile flags: /Odtp /RTCu /ZI
; File c:\program files (x86)\microsoft visual studio\2017\enterprise\vc\tools\msvc\14.15.26726\include\xstddef
;	COMDAT ??$_Unfancy@D@std@@YAPEADPEAD@Z
_TEXT	SEGMENT
_Ptr$ = 80
??$_Unfancy@D@std@@YAPEADPEAD@Z PROC			; std::_Unfancy<char>, COMDAT

; 345  : 	{	// do nothing for plain pointers

$LN3:
	mov	QWORD PTR [rsp+8], rcx
	push	rbp
	sub	rsp, 96					; 00000060H
	lea	rbp, QWORD PTR [rsp+32]
	lea	rcx, OFFSET FLAT:__30E3E102_xstddef
	call	__CheckForDebuggerJustMyCode

; 346  : 	return (_Ptr);

	mov	rax, QWORD PTR _Ptr$[rbp]

; 347  : 	}

	lea	rsp, QWORD PTR [rbp+64]
	pop	rbp
	ret	0
??$_Unfancy@D@std@@YAPEADPEAD@Z ENDP			; std::_Unfancy<char>
_TEXT	ENDS
; Function compile flags: /Odtp /RTCu /ZI
; File c:\program files (x86)\microsoft visual studio\2017\enterprise\vc\tools\msvc\14.15.26726\include\vector
;	COMDAT ??$_Emplace_reallocate@UBufferElement@buffers@core@@@?$vector@UBufferElement@buffers@core@@V?$allocator@UBufferElement@buffers@core@@@std@@@std@@QEAAPEAUBufferElement@buffers@core@@QEAU234@$$QEAU234@@Z
_TEXT	SEGMENT
_Whereoff$ = 0
_Al$ = 8
_Oldsize$ = 16
_Newsize$ = 24
_Newcapacity$ = 32
_Newvec$ = 40
_Constructed_last$ = 48
_Constructed_first$ = 56
$T1 = 128
tv207 = 136
tv203 = 136
tv176 = 136
tv153 = 136
this$ = 160
_Whereptr$ = 168
<_Val_0>$ = 176
??$_Emplace_reallocate@UBufferElement@buffers@core@@@?$vector@UBufferElement@buffers@core@@V?$allocator@UBufferElement@buffers@core@@@std@@@std@@QEAAPEAUBufferElement@buffers@core@@QEAU234@$$QEAU234@@Z PROC ; std::vector<core::buffers::BufferElement,std::allocator<core::buffers::BufferElement> >::_Emplace_reallocate<core::buffers::BufferElement>, COMDAT

; 942  : 		{	// reallocate and insert by perfectly forwarding _Val at _Whereptr

$LN13:
	mov	QWORD PTR [rsp+24], r8
	mov	QWORD PTR [rsp+16], rdx
	mov	QWORD PTR [rsp+8], rcx
	push	rbp
	sub	rsp, 176				; 000000b0H
	lea	rbp, QWORD PTR [rsp+32]
	mov	QWORD PTR $T1[rbp], -2
	lea	rcx, OFFSET FLAT:__327B7881_vector
	call	__CheckForDebuggerJustMyCode

; 943  : 			// pre: !_Has_unused_capacity()
; 944  : 		const size_type _Whereoff = static_cast<size_type>(_Whereptr - this->_Myfirst());

	mov	rcx, QWORD PTR this$[rbp]
	call	?_Myfirst@?$_Vector_alloc@U?$_Vec_base_types@UBufferElement@buffers@core@@V?$allocator@UBufferElement@buffers@core@@@std@@@std@@@std@@QEAAAEAPEAUBufferElement@buffers@core@@XZ ; std::_Vector_alloc<std::_Vec_base_types<core::buffers::BufferElement,std::allocator<core::buffers::BufferElement> > >::_Myfirst
	mov	rax, QWORD PTR [rax]
	mov	rcx, QWORD PTR _Whereptr$[rbp]
	sub	rcx, rax
	mov	rax, rcx
	cdq
	mov	ecx, 12
	idiv	rcx
	mov	QWORD PTR _Whereoff$[rbp], rax

; 945  : 		_Alty& _Al = this->_Getal();

	mov	rcx, QWORD PTR this$[rbp]
	call	?_Getal@?$_Vector_alloc@U?$_Vec_base_types@UBufferElement@buffers@core@@V?$allocator@UBufferElement@buffers@core@@@std@@@std@@@std@@QEAAAEAV?$allocator@UBufferElement@buffers@core@@@2@XZ ; std::_Vector_alloc<std::_Vec_base_types<core::buffers::BufferElement,std::allocator<core::buffers::BufferElement> > >::_Getal
	mov	QWORD PTR _Al$[rbp], rax

; 946  : 		const size_type _Oldsize = size();

	mov	rcx, QWORD PTR this$[rbp]
	call	?size@?$vector@UBufferElement@buffers@core@@V?$allocator@UBufferElement@buffers@core@@@std@@@std@@QEBA_KXZ ; std::vector<core::buffers::BufferElement,std::allocator<core::buffers::BufferElement> >::size
	mov	QWORD PTR _Oldsize$[rbp], rax

; 947  : 
; 948  : 		if (_Oldsize == max_size())

	mov	rcx, QWORD PTR this$[rbp]
	call	?max_size@?$vector@UBufferElement@buffers@core@@V?$allocator@UBufferElement@buffers@core@@@std@@@std@@QEBA_KXZ ; std::vector<core::buffers::BufferElement,std::allocator<core::buffers::BufferElement> >::max_size
	cmp	QWORD PTR _Oldsize$[rbp], rax
	jne	SHORT $LN2@Emplace_re

; 949  : 			{
; 950  : 			_Xlength();

	call	?_Xlength@?$vector@UBufferElement@buffers@core@@V?$allocator@UBufferElement@buffers@core@@@std@@@std@@CAXXZ ; std::vector<core::buffers::BufferElement,std::allocator<core::buffers::BufferElement> >::_Xlength
$LN2@Emplace_re:

; 951  : 			}
; 952  : 
; 953  : 		const size_type _Newsize = _Oldsize + 1;

	mov	rax, QWORD PTR _Oldsize$[rbp]
	inc	rax
	mov	QWORD PTR _Newsize$[rbp], rax

; 954  : 		const size_type _Newcapacity = _Calculate_growth(_Newsize);

	mov	rdx, QWORD PTR _Newsize$[rbp]
	mov	rcx, QWORD PTR this$[rbp]
	call	?_Calculate_growth@?$vector@UBufferElement@buffers@core@@V?$allocator@UBufferElement@buffers@core@@@std@@@std@@AEBA_K_K@Z ; std::vector<core::buffers::BufferElement,std::allocator<core::buffers::BufferElement> >::_Calculate_growth
	mov	QWORD PTR _Newcapacity$[rbp], rax

; 955  : 
; 956  : 		const pointer _Newvec = _Al.allocate(_Newcapacity);

	mov	rdx, QWORD PTR _Newcapacity$[rbp]
	mov	rcx, QWORD PTR _Al$[rbp]
	call	?allocate@?$allocator@UBufferElement@buffers@core@@@std@@QEAAPEAUBufferElement@buffers@core@@_K@Z ; std::allocator<core::buffers::BufferElement>::allocate
	mov	QWORD PTR _Newvec$[rbp], rax

; 957  : 		const pointer _Constructed_last = _Newvec + _Whereoff + 1;

	imul	rax, QWORD PTR _Whereoff$[rbp], 12
	mov	rcx, QWORD PTR _Newvec$[rbp]
	lea	rax, QWORD PTR [rcx+rax+12]
	mov	QWORD PTR _Constructed_last$[rbp], rax

; 958  : 		pointer _Constructed_first = _Constructed_last;

	mov	rax, QWORD PTR _Constructed_last$[rbp]
	mov	QWORD PTR _Constructed_first$[rbp], rax

; 959  : 
; 960  : 		_TRY_BEGIN
; 961  : 		_Alty_traits::construct(_Al, _Unfancy(_Newvec + _Whereoff), _STD forward<_Valty>(_Val)...);

	imul	rax, QWORD PTR _Whereoff$[rbp], 12
	mov	rcx, QWORD PTR _Newvec$[rbp]
	add	rcx, rax
	mov	rax, rcx
	mov	rcx, rax
	call	??$_Unfancy@UBufferElement@buffers@core@@@std@@YAPEAUBufferElement@buffers@core@@PEAU123@@Z ; std::_Unfancy<core::buffers::BufferElement>
	mov	QWORD PTR tv207[rbp], rax
	mov	rcx, QWORD PTR <_Val_0>$[rbp]
	call	??$forward@UBufferElement@buffers@core@@@std@@YA$$QEAUBufferElement@buffers@core@@AEAU123@@Z ; std::forward<core::buffers::BufferElement>
	mov	r8, rax
	mov	rdx, QWORD PTR tv207[rbp]
	mov	rcx, QWORD PTR _Al$[rbp]
	call	??$construct@UBufferElement@buffers@core@@U123@@?$_Default_allocator_traits@V?$allocator@UBufferElement@buffers@core@@@std@@@std@@SAXAEAV?$allocator@UBufferElement@buffers@core@@@1@QEAUBufferElement@buffers@core@@$$QEAU345@@Z ; std::_Default_allocator_traits<std::allocator<core::buffers::BufferElement> >::construct<core::buffers::BufferElement,core::buffers::BufferElement>

; 962  : 		_Constructed_first = _Newvec + _Whereoff;

	imul	rax, QWORD PTR _Whereoff$[rbp], 12
	mov	rcx, QWORD PTR _Newvec$[rbp]
	add	rcx, rax
	mov	rax, rcx
	mov	QWORD PTR _Constructed_first$[rbp], rax

; 963  : 
; 964  : 		if (_Whereptr == this->_Mylast())

	mov	rcx, QWORD PTR this$[rbp]
	call	?_Mylast@?$_Vector_alloc@U?$_Vec_base_types@UBufferElement@buffers@core@@V?$allocator@UBufferElement@buffers@core@@@std@@@std@@@std@@QEAAAEAPEAUBufferElement@buffers@core@@XZ ; std::_Vector_alloc<std::_Vec_base_types<core::buffers::BufferElement,std::allocator<core::buffers::BufferElement> > >::_Mylast
	mov	rax, QWORD PTR [rax]
	cmp	QWORD PTR _Whereptr$[rbp], rax
	jne	SHORT $LN4@Emplace_re

; 965  : 			{	// at back, provide strong guarantee
; 966  : 			_Umove_if_noexcept(this->_Myfirst(), this->_Mylast(), _Newvec);

	mov	rcx, QWORD PTR this$[rbp]
	call	?_Mylast@?$_Vector_alloc@U?$_Vec_base_types@UBufferElement@buffers@core@@V?$allocator@UBufferElement@buffers@core@@@std@@@std@@@std@@QEAAAEAPEAUBufferElement@buffers@core@@XZ ; std::_Vector_alloc<std::_Vec_base_types<core::buffers::BufferElement,std::allocator<core::buffers::BufferElement> > >::_Mylast
	mov	QWORD PTR tv153[rbp], rax
	mov	rcx, QWORD PTR this$[rbp]
	call	?_Myfirst@?$_Vector_alloc@U?$_Vec_base_types@UBufferElement@buffers@core@@V?$allocator@UBufferElement@buffers@core@@@std@@@std@@@std@@QEAAAEAPEAUBufferElement@buffers@core@@XZ ; std::_Vector_alloc<std::_Vec_base_types<core::buffers::BufferElement,std::allocator<core::buffers::BufferElement> > >::_Myfirst
	mov	r9, QWORD PTR _Newvec$[rbp]
	mov	rcx, QWORD PTR tv153[rbp]
	mov	r8, QWORD PTR [rcx]
	mov	rdx, QWORD PTR [rax]
	mov	rcx, QWORD PTR this$[rbp]
	call	?_Umove_if_noexcept@?$vector@UBufferElement@buffers@core@@V?$allocator@UBufferElement@buffers@core@@@std@@@std@@AEAAXPEAUBufferElement@buffers@core@@00@Z ; std::vector<core::buffers::BufferElement,std::allocator<core::buffers::BufferElement> >::_Umove_if_noexcept

; 967  : 			}
; 968  : 		else

	jmp	SHORT $LN5@Emplace_re
$LN4@Emplace_re:

; 969  : 			{	// provide basic guarantee
; 970  : 			_Umove(this->_Myfirst(), _Whereptr, _Newvec);

	mov	rcx, QWORD PTR this$[rbp]
	call	?_Myfirst@?$_Vector_alloc@U?$_Vec_base_types@UBufferElement@buffers@core@@V?$allocator@UBufferElement@buffers@core@@@std@@@std@@@std@@QEAAAEAPEAUBufferElement@buffers@core@@XZ ; std::_Vector_alloc<std::_Vec_base_types<core::buffers::BufferElement,std::allocator<core::buffers::BufferElement> > >::_Myfirst
	mov	r9, QWORD PTR _Newvec$[rbp]
	mov	r8, QWORD PTR _Whereptr$[rbp]
	mov	rdx, QWORD PTR [rax]
	mov	rcx, QWORD PTR this$[rbp]
	call	?_Umove@?$vector@UBufferElement@buffers@core@@V?$allocator@UBufferElement@buffers@core@@@std@@@std@@AEAAPEAUBufferElement@buffers@core@@PEAU345@00@Z ; std::vector<core::buffers::BufferElement,std::allocator<core::buffers::BufferElement> >::_Umove

; 971  : 			_Constructed_first = _Newvec;

	mov	rax, QWORD PTR _Newvec$[rbp]
	mov	QWORD PTR _Constructed_first$[rbp], rax

; 972  : 			_Umove(_Whereptr, this->_Mylast(), _Newvec + _Whereoff + 1);

	imul	rax, QWORD PTR _Whereoff$[rbp], 12
	mov	rcx, QWORD PTR _Newvec$[rbp]
	lea	rax, QWORD PTR [rcx+rax+12]
	mov	QWORD PTR tv176[rbp], rax
	mov	rcx, QWORD PTR this$[rbp]
	call	?_Mylast@?$_Vector_alloc@U?$_Vec_base_types@UBufferElement@buffers@core@@V?$allocator@UBufferElement@buffers@core@@@std@@@std@@@std@@QEAAAEAPEAUBufferElement@buffers@core@@XZ ; std::_Vector_alloc<std::_Vec_base_types<core::buffers::BufferElement,std::allocator<core::buffers::BufferElement> > >::_Mylast
	mov	rcx, QWORD PTR tv176[rbp]
	mov	r9, rcx
	mov	r8, QWORD PTR [rax]
	mov	rdx, QWORD PTR _Whereptr$[rbp]
	mov	rcx, QWORD PTR this$[rbp]
	call	?_Umove@?$vector@UBufferElement@buffers@core@@V?$allocator@UBufferElement@buffers@core@@@std@@@std@@AEAAPEAUBufferElement@buffers@core@@PEAU345@00@Z ; std::vector<core::buffers::BufferElement,std::allocator<core::buffers::BufferElement> >::_Umove
	npad	1
$LN5@Emplace_re:
	jmp	SHORT $LN9@Emplace_re
$LN10@Emplace_re:
$LN9@Emplace_re:

; 973  : 			}
; 974  : 		_CATCH_ALL
; 975  : 		_Destroy(_Constructed_first, _Constructed_last);
; 976  : 		_Al.deallocate(_Newvec, _Newcapacity);
; 977  : 		_RERAISE;
; 978  : 		_CATCH_END
; 979  : 
; 980  : 		_Change_array(_Newvec, _Newsize, _Newcapacity);

	mov	r9, QWORD PTR _Newcapacity$[rbp]
	mov	r8, QWORD PTR _Newsize$[rbp]
	mov	rdx, QWORD PTR _Newvec$[rbp]
	mov	rcx, QWORD PTR this$[rbp]
	call	?_Change_array@?$vector@UBufferElement@buffers@core@@V?$allocator@UBufferElement@buffers@core@@@std@@@std@@AEAAXQEAUBufferElement@buffers@core@@_K1@Z ; std::vector<core::buffers::BufferElement,std::allocator<core::buffers::BufferElement> >::_Change_array

; 981  : 		return (this->_Myfirst() + _Whereoff);

	imul	rax, QWORD PTR _Whereoff$[rbp], 12
	mov	QWORD PTR tv203[rbp], rax
	mov	rcx, QWORD PTR this$[rbp]
	call	?_Myfirst@?$_Vector_alloc@U?$_Vec_base_types@UBufferElement@buffers@core@@V?$allocator@UBufferElement@buffers@core@@@std@@@std@@@std@@QEAAAEAPEAUBufferElement@buffers@core@@XZ ; std::_Vector_alloc<std::_Vec_base_types<core::buffers::BufferElement,std::allocator<core::buffers::BufferElement> > >::_Myfirst
	mov	rcx, QWORD PTR tv203[rbp]
	add	rcx, QWORD PTR [rax]
	mov	rax, rcx

; 982  : 		}

	lea	rsp, QWORD PTR [rbp+144]
	pop	rbp
	ret	0
$LN11@Emplace_re:
??$_Emplace_reallocate@UBufferElement@buffers@core@@@?$vector@UBufferElement@buffers@core@@V?$allocator@UBufferElement@buffers@core@@@std@@@std@@QEAAPEAUBufferElement@buffers@core@@QEAU234@$$QEAU234@@Z ENDP ; std::vector<core::buffers::BufferElement,std::allocator<core::buffers::BufferElement> >::_Emplace_reallocate<core::buffers::BufferElement>
_TEXT	ENDS
;	COMDAT text$x
text$x	SEGMENT
_Whereoff$ = 0
_Al$ = 8
_Oldsize$ = 16
_Newsize$ = 24
_Newcapacity$ = 32
_Newvec$ = 40
_Constructed_last$ = 48
_Constructed_first$ = 56
$T1 = 128
tv207 = 136
tv203 = 136
tv176 = 136
tv153 = 136
this$ = 160
_Whereptr$ = 168
<_Val_0>$ = 176
?catch$0@?0???$_Emplace_reallocate@UBufferElement@buffers@core@@@?$vector@UBufferElement@buffers@core@@V?$allocator@UBufferElement@buffers@core@@@std@@@std@@QEAAPEAUBufferElement@buffers@core@@QEAU234@$$QEAU234@@Z@4HA PROC ; `std::vector<core::buffers::BufferElement,std::allocator<core::buffers::BufferElement> >::_Emplace_reallocate<core::buffers::BufferElement>'::`1'::catch$0

; 973  : 			}
; 974  : 		_CATCH_ALL

	mov	QWORD PTR [rsp+16], rdx
	push	rbp
	sub	rsp, 32					; 00000020H
	lea	rbp, QWORD PTR [rdx+32]
__catch$??$_Emplace_reallocate@UBufferElement@buffers@core@@@?$vector@UBufferElement@buffers@core@@V?$allocator@UBufferElement@buffers@core@@@std@@@std@@QEAAPEAUBufferElement@buffers@core@@QEAU234@$$QEAU234@@Z$0:

; 973  : 			}
; 974  : 		_CATCH_ALL
; 975  : 		_Destroy(_Constructed_first, _Constructed_last);

	mov	r8, QWORD PTR _Constructed_last$[rbp]
	mov	rdx, QWORD PTR _Constructed_first$[rbp]
	mov	rcx, QWORD PTR this$[rbp]
	call	?_Destroy@?$vector@UBufferElement@buffers@core@@V?$allocator@UBufferElement@buffers@core@@@std@@@std@@AEAAXPEAUBufferElement@buffers@core@@0@Z ; std::vector<core::buffers::BufferElement,std::allocator<core::buffers::BufferElement> >::_Destroy

; 973  : 			}
; 974  : 		_CATCH_ALL
; 975  : 		_Destroy(_Constructed_first, _Constructed_last);
; 976  : 		_Al.deallocate(_Newvec, _Newcapacity);

	mov	r8, QWORD PTR _Newcapacity$[rbp]
	mov	rdx, QWORD PTR _Newvec$[rbp]
	mov	rcx, QWORD PTR _Al$[rbp]
	call	?deallocate@?$allocator@UBufferElement@buffers@core@@@std@@QEAAXQEAUBufferElement@buffers@core@@_K@Z ; std::allocator<core::buffers::BufferElement>::deallocate

; 973  : 			}
; 974  : 		_CATCH_ALL
; 975  : 		_Destroy(_Constructed_first, _Constructed_last);
; 976  : 		_Al.deallocate(_Newvec, _Newcapacity);
; 977  : 		_RERAISE;

	xor	edx, edx
	xor	ecx, ecx
	call	_CxxThrowException
	npad	1

; 973  : 			}
; 974  : 		_CATCH_ALL
; 975  : 		_Destroy(_Constructed_first, _Constructed_last);
; 976  : 		_Al.deallocate(_Newvec, _Newcapacity);
; 977  : 		_RERAISE;
; 978  : 		_CATCH_END

	lea	rax, $LN10@catch$0
	add	rsp, 32					; 00000020H
	pop	rbp
	ret	0
	int	3
?catch$0@?0???$_Emplace_reallocate@UBufferElement@buffers@core@@@?$vector@UBufferElement@buffers@core@@V?$allocator@UBufferElement@buffers@core@@@std@@@std@@QEAAPEAUBufferElement@buffers@core@@QEAU234@$$QEAU234@@Z@4HA ENDP ; `std::vector<core::buffers::BufferElement,std::allocator<core::buffers::BufferElement> >::_Emplace_reallocate<core::buffers::BufferElement>'::`1'::catch$0
text$x	ENDS
; Function compile flags: /Odtp /RTCu /ZI
;	COMDAT text$x
text$x	SEGMENT
_Whereoff$ = 0
_Al$ = 8
_Oldsize$ = 16
_Newsize$ = 24
_Newcapacity$ = 32
_Newvec$ = 40
_Constructed_last$ = 48
_Constructed_first$ = 56
$T1 = 128
tv207 = 136
tv203 = 136
tv176 = 136
tv153 = 136
this$ = 160
_Whereptr$ = 168
<_Val_0>$ = 176
?catch$0@?0???$_Emplace_reallocate@UBufferElement@buffers@core@@@?$vector@UBufferElement@buffers@core@@V?$allocator@UBufferElement@buffers@core@@@std@@@std@@QEAAPEAUBufferElement@buffers@core@@QEAU234@$$QEAU234@@Z@4HA PROC ; `std::vector<core::buffers::BufferElement,std::allocator<core::buffers::BufferElement> >::_Emplace_reallocate<core::buffers::BufferElement>'::`1'::catch$0

; 974  : 		_CATCH_ALL

	mov	QWORD PTR [rsp+16], rdx
	push	rbp
	sub	rsp, 32					; 00000020H
	lea	rbp, QWORD PTR [rdx+32]
__catch$??$_Emplace_reallocate@UBufferElement@buffers@core@@@?$vector@UBufferElement@buffers@core@@V?$allocator@UBufferElement@buffers@core@@@std@@@std@@QEAAPEAUBufferElement@buffers@core@@QEAU234@$$QEAU234@@Z$0:

; 975  : 		_Destroy(_Constructed_first, _Constructed_last);

	mov	r8, QWORD PTR _Constructed_last$[rbp]
	mov	rdx, QWORD PTR _Constructed_first$[rbp]
	mov	rcx, QWORD PTR this$[rbp]
	call	?_Destroy@?$vector@UBufferElement@buffers@core@@V?$allocator@UBufferElement@buffers@core@@@std@@@std@@AEAAXPEAUBufferElement@buffers@core@@0@Z ; std::vector<core::buffers::BufferElement,std::allocator<core::buffers::BufferElement> >::_Destroy

; 976  : 		_Al.deallocate(_Newvec, _Newcapacity);

	mov	r8, QWORD PTR _Newcapacity$[rbp]
	mov	rdx, QWORD PTR _Newvec$[rbp]
	mov	rcx, QWORD PTR _Al$[rbp]
	call	?deallocate@?$allocator@UBufferElement@buffers@core@@@std@@QEAAXQEAUBufferElement@buffers@core@@_K@Z ; std::allocator<core::buffers::BufferElement>::deallocate

; 977  : 		_RERAISE;

	xor	edx, edx
	xor	ecx, ecx
	call	_CxxThrowException
	npad	1

; 978  : 		_CATCH_END

	lea	rax, $LN10@catch$0
	add	rsp, 32					; 00000020H
	pop	rbp
	ret	0
	int	3
?catch$0@?0???$_Emplace_reallocate@UBufferElement@buffers@core@@@?$vector@UBufferElement@buffers@core@@V?$allocator@UBufferElement@buffers@core@@@std@@@std@@QEAAPEAUBufferElement@buffers@core@@QEAU234@$$QEAU234@@Z@4HA ENDP ; `std::vector<core::buffers::BufferElement,std::allocator<core::buffers::BufferElement> >::_Emplace_reallocate<core::buffers::BufferElement>'::`1'::catch$0
text$x	ENDS
; Function compile flags: /Odtp /RTCu /ZI
; File c:\program files (x86)\microsoft visual studio\2017\enterprise\vc\tools\msvc\14.15.26726\include\xmemory0
;	COMDAT ??$construct@UBufferElement@buffers@core@@U123@@?$_Default_allocator_traits@V?$allocator@UBufferElement@buffers@core@@@std@@@std@@SAXAEAV?$allocator@UBufferElement@buffers@core@@@1@QEAUBufferElement@buffers@core@@$$QEAU345@@Z
_TEXT	SEGMENT
$T1 = 64
__formal$ = 112
_Ptr$ = 120
<_Args_0>$ = 128
??$construct@UBufferElement@buffers@core@@U123@@?$_Default_allocator_traits@V?$allocator@UBufferElement@buffers@core@@@std@@@std@@SAXAEAV?$allocator@UBufferElement@buffers@core@@@1@QEAUBufferElement@buffers@core@@$$QEAU345@@Z PROC ; std::_Default_allocator_traits<std::allocator<core::buffers::BufferElement> >::construct<core::buffers::BufferElement,core::buffers::BufferElement>, COMDAT

; 879  : 		{	// construct _Objty(_Types...) at _Ptr

$LN3:
	mov	QWORD PTR [rsp+24], r8
	mov	QWORD PTR [rsp+16], rdx
	mov	QWORD PTR [rsp+8], rcx
	push	rbp
	push	rsi
	push	rdi
	sub	rsp, 112				; 00000070H
	lea	rbp, QWORD PTR [rsp+32]
	lea	rcx, OFFSET FLAT:__39AEDAD7_xmemory0
	call	__CheckForDebuggerJustMyCode
	mov	rdx, QWORD PTR _Ptr$[rbp]
	mov	ecx, 12
	call	??2@YAPEAX_KPEAX@Z			; operator new
	mov	QWORD PTR $T1[rbp], rax
	mov	rcx, QWORD PTR <_Args_0>$[rbp]
	call	??$forward@UBufferElement@buffers@core@@@std@@YA$$QEAUBufferElement@buffers@core@@AEAU123@@Z ; std::forward<core::buffers::BufferElement>
	mov	rdi, QWORD PTR $T1[rbp]
	mov	rsi, rax
	mov	ecx, 12
	rep movsb

; 880  : 		::new (const_cast<void *>(static_cast<const volatile void *>(_Ptr)))
; 881  : 			_Objty(_STD forward<_Types>(_Args)...);
; 882  : 		}

	lea	rsp, QWORD PTR [rbp+80]
	pop	rdi
	pop	rsi
	pop	rbp
	ret	0
??$construct@UBufferElement@buffers@core@@U123@@?$_Default_allocator_traits@V?$allocator@UBufferElement@buffers@core@@@std@@@std@@SAXAEAV?$allocator@UBufferElement@buffers@core@@@1@QEAUBufferElement@buffers@core@@$$QEAU345@@Z ENDP ; std::_Default_allocator_traits<std::allocator<core::buffers::BufferElement> >::construct<core::buffers::BufferElement,core::buffers::BufferElement>
_TEXT	ENDS
; Function compile flags: /Odtp /RTCu /ZI
; File c:\program files (x86)\microsoft visual studio\2017\enterprise\vc\tools\msvc\14.15.26726\include\xstddef
;	COMDAT ??$_Unfancy@UBufferElement@buffers@core@@@std@@YAPEAUBufferElement@buffers@core@@PEAU123@@Z
_TEXT	SEGMENT
_Ptr$ = 80
??$_Unfancy@UBufferElement@buffers@core@@@std@@YAPEAUBufferElement@buffers@core@@PEAU123@@Z PROC ; std::_Unfancy<core::buffers::BufferElement>, COMDAT

; 345  : 	{	// do nothing for plain pointers

$LN3:
	mov	QWORD PTR [rsp+8], rcx
	push	rbp
	sub	rsp, 96					; 00000060H
	lea	rbp, QWORD PTR [rsp+32]
	lea	rcx, OFFSET FLAT:__30E3E102_xstddef
	call	__CheckForDebuggerJustMyCode

; 346  : 	return (_Ptr);

	mov	rax, QWORD PTR _Ptr$[rbp]

; 347  : 	}

	lea	rsp, QWORD PTR [rbp+64]
	pop	rbp
	ret	0
??$_Unfancy@UBufferElement@buffers@core@@@std@@YAPEAUBufferElement@buffers@core@@PEAU123@@Z ENDP ; std::_Unfancy<core::buffers::BufferElement>
_TEXT	ENDS
; Function compile flags: /Odtp /RTCu /ZI
; File c:\program files (x86)\microsoft visual studio\2017\enterprise\vc\tools\msvc\14.15.26726\include\vector
;	COMDAT ??$_Emplace_back_with_unused_capacity@UBufferElement@buffers@core@@@?$vector@UBufferElement@buffers@core@@V?$allocator@UBufferElement@buffers@core@@@std@@@std@@AEAA@$$QEAUBufferElement@buffers@core@@@Z
_TEXT	SEGMENT
_Result$ = 0
tv142 = 72
tv89 = 72
tv64 = 72
tv67 = 80
this$ = 112
<_Val_0>$ = 120
??$_Emplace_back_with_unused_capacity@UBufferElement@buffers@core@@@?$vector@UBufferElement@buffers@core@@V?$allocator@UBufferElement@buffers@core@@@std@@@std@@AEAA@$$QEAUBufferElement@buffers@core@@@Z PROC ; std::vector<core::buffers::BufferElement,std::allocator<core::buffers::BufferElement> >::_Emplace_back_with_unused_capacity<core::buffers::BufferElement>, COMDAT

; 900  : 		{	// insert by perfectly forwarding into element at end, provide strong guarantee

$LN3:
	mov	QWORD PTR [rsp+16], rdx
	mov	QWORD PTR [rsp+8], rcx
	push	rbp
	sub	rsp, 128				; 00000080H
	lea	rbp, QWORD PTR [rsp+32]
	lea	rcx, OFFSET FLAT:__327B7881_vector
	call	__CheckForDebuggerJustMyCode

; 901  : 			// pre: _Has_unused_capacity()
; 902  : 		_Alty_traits::construct(this->_Getal(), _Unfancy(this->_Mylast()), _STD forward<_Valty>(_Val)...);

	mov	rcx, QWORD PTR <_Val_0>$[rbp]
	call	??$forward@UBufferElement@buffers@core@@@std@@YA$$QEAUBufferElement@buffers@core@@AEAU123@@Z ; std::forward<core::buffers::BufferElement>
	mov	QWORD PTR tv64[rbp], rax
	mov	rcx, QWORD PTR this$[rbp]
	call	?_Mylast@?$_Vector_alloc@U?$_Vec_base_types@UBufferElement@buffers@core@@V?$allocator@UBufferElement@buffers@core@@@std@@@std@@@std@@QEAAAEAPEAUBufferElement@buffers@core@@XZ ; std::_Vector_alloc<std::_Vec_base_types<core::buffers::BufferElement,std::allocator<core::buffers::BufferElement> > >::_Mylast
	mov	rcx, QWORD PTR [rax]
	call	??$_Unfancy@UBufferElement@buffers@core@@@std@@YAPEAUBufferElement@buffers@core@@PEAU123@@Z ; std::_Unfancy<core::buffers::BufferElement>
	mov	QWORD PTR tv67[rbp], rax
	mov	rcx, QWORD PTR this$[rbp]
	call	?_Getal@?$_Vector_alloc@U?$_Vec_base_types@UBufferElement@buffers@core@@V?$allocator@UBufferElement@buffers@core@@@std@@@std@@@std@@QEAAAEAV?$allocator@UBufferElement@buffers@core@@@2@XZ ; std::_Vector_alloc<std::_Vec_base_types<core::buffers::BufferElement,std::allocator<core::buffers::BufferElement> > >::_Getal
	mov	rcx, QWORD PTR tv64[rbp]
	mov	r8, rcx
	mov	rcx, QWORD PTR tv67[rbp]
	mov	rdx, rcx
	mov	rcx, rax
	call	??$construct@UBufferElement@buffers@core@@U123@@?$_Default_allocator_traits@V?$allocator@UBufferElement@buffers@core@@@std@@@std@@SAXAEAV?$allocator@UBufferElement@buffers@core@@@1@QEAUBufferElement@buffers@core@@$$QEAU345@@Z ; std::_Default_allocator_traits<std::allocator<core::buffers::BufferElement> >::construct<core::buffers::BufferElement,core::buffers::BufferElement>

; 903  : 		_Orphan_range(this->_Mylast(), this->_Mylast());

	mov	rcx, QWORD PTR this$[rbp]
	call	?_Mylast@?$_Vector_alloc@U?$_Vec_base_types@UBufferElement@buffers@core@@V?$allocator@UBufferElement@buffers@core@@@std@@@std@@@std@@QEAAAEAPEAUBufferElement@buffers@core@@XZ ; std::_Vector_alloc<std::_Vec_base_types<core::buffers::BufferElement,std::allocator<core::buffers::BufferElement> > >::_Mylast
	mov	QWORD PTR tv89[rbp], rax
	mov	rcx, QWORD PTR this$[rbp]
	call	?_Mylast@?$_Vector_alloc@U?$_Vec_base_types@UBufferElement@buffers@core@@V?$allocator@UBufferElement@buffers@core@@@std@@@std@@@std@@QEAAAEAPEAUBufferElement@buffers@core@@XZ ; std::_Vector_alloc<std::_Vec_base_types<core::buffers::BufferElement,std::allocator<core::buffers::BufferElement> > >::_Mylast
	mov	rcx, QWORD PTR tv89[rbp]
	mov	r8, QWORD PTR [rcx]
	mov	rdx, QWORD PTR [rax]
	mov	rcx, QWORD PTR this$[rbp]
	call	?_Orphan_range@?$vector@UBufferElement@buffers@core@@V?$allocator@UBufferElement@buffers@core@@@std@@@std@@AEBAXPEAUBufferElement@buffers@core@@0@Z ; std::vector<core::buffers::BufferElement,std::allocator<core::buffers::BufferElement> >::_Orphan_range

; 904  : 		_Ty& _Result = *this->_Mylast();

	mov	rcx, QWORD PTR this$[rbp]
	call	?_Mylast@?$_Vector_alloc@U?$_Vec_base_types@UBufferElement@buffers@core@@V?$allocator@UBufferElement@buffers@core@@@std@@@std@@@std@@QEAAAEAPEAUBufferElement@buffers@core@@XZ ; std::_Vector_alloc<std::_Vec_base_types<core::buffers::BufferElement,std::allocator<core::buffers::BufferElement> > >::_Mylast
	mov	rax, QWORD PTR [rax]
	mov	QWORD PTR _Result$[rbp], rax

; 905  : 		++this->_Mylast();

	mov	rcx, QWORD PTR this$[rbp]
	call	?_Mylast@?$_Vector_alloc@U?$_Vec_base_types@UBufferElement@buffers@core@@V?$allocator@UBufferElement@buffers@core@@@std@@@std@@@std@@QEAAAEAPEAUBufferElement@buffers@core@@XZ ; std::_Vector_alloc<std::_Vec_base_types<core::buffers::BufferElement,std::allocator<core::buffers::BufferElement> > >::_Mylast
	mov	QWORD PTR tv142[rbp], rax
	mov	rax, QWORD PTR tv142[rbp]
	mov	rax, QWORD PTR [rax]
	add	rax, 12
	mov	rcx, QWORD PTR tv142[rbp]
	mov	QWORD PTR [rcx], rax

; 906  : #if _HAS_CXX17
; 907  : 		return (_Result);
; 908  : #else /* ^^^ _HAS_CXX17 ^^^ // vvv !_HAS_CXX17 vvv */
; 909  : 		(void)_Result;
; 910  : #endif /* _HAS_CXX17 */
; 911  : 		}

	lea	rsp, QWORD PTR [rbp+96]
	pop	rbp
	ret	0
??$_Emplace_back_with_unused_capacity@UBufferElement@buffers@core@@@?$vector@UBufferElement@buffers@core@@V?$allocator@UBufferElement@buffers@core@@@std@@@std@@AEAA@$$QEAUBufferElement@buffers@core@@@Z ENDP ; std::vector<core::buffers::BufferElement,std::allocator<core::buffers::BufferElement> >::_Emplace_back_with_unused_capacity<core::buffers::BufferElement>
_TEXT	ENDS
; Function compile flags: /Odtp /RTCu /ZI
; File c:\program files (x86)\microsoft visual studio\2017\enterprise\vc\tools\msvc\14.15.26726\include\type_traits
;	COMDAT ??$forward@UBufferElement@buffers@core@@@std@@YA$$QEAUBufferElement@buffers@core@@AEAU123@@Z
_TEXT	SEGMENT
$T1 = 64
_Arg$ = 96
??$forward@UBufferElement@buffers@core@@@std@@YA$$QEAUBufferElement@buffers@core@@AEAU123@@Z PROC ; std::forward<core::buffers::BufferElement>, COMDAT

; 1573 : 	{	// forward an lvalue as either an lvalue or an rvalue

$LN3:
	mov	QWORD PTR [rsp+8], rcx
	push	rbp
	sub	rsp, 112				; 00000070H
	lea	rbp, QWORD PTR [rsp+32]
	mov	QWORD PTR $T1[rbp], -2
	lea	rcx, OFFSET FLAT:__6C905C6A_type_traits
	call	__CheckForDebuggerJustMyCode
	npad	1

; 1574 : 	return (static_cast<_Ty&&>(_Arg));

	mov	rax, QWORD PTR _Arg$[rbp]

; 1575 : 	}

	lea	rsp, QWORD PTR [rbp+80]
	pop	rbp
	ret	0
??$forward@UBufferElement@buffers@core@@@std@@YA$$QEAUBufferElement@buffers@core@@AEAU123@@Z ENDP ; std::forward<core::buffers::BufferElement>
_TEXT	ENDS
; Function compile flags: /Odtp /RTCu /ZI
; File c:\program files (x86)\microsoft visual studio\2017\enterprise\vc\tools\msvc\14.15.26726\include\vector
;	COMDAT ??$emplace_back@UBufferElement@buffers@core@@@?$vector@UBufferElement@buffers@core@@V?$allocator@UBufferElement@buffers@core@@@std@@@std@@QEAA@$$QEAUBufferElement@buffers@core@@@Z
_TEXT	SEGMENT
_Result$ = 0
tv74 = 72
this$ = 96
<_Val_0>$ = 104
??$emplace_back@UBufferElement@buffers@core@@@?$vector@UBufferElement@buffers@core@@V?$allocator@UBufferElement@buffers@core@@@std@@@std@@QEAA@$$QEAUBufferElement@buffers@core@@@Z PROC ; std::vector<core::buffers::BufferElement,std::allocator<core::buffers::BufferElement> >::emplace_back<core::buffers::BufferElement>, COMDAT

; 916  : 		{	// insert by perfectly forwarding into element at end, provide strong guarantee

$LN4:
	mov	QWORD PTR [rsp+16], rdx
	mov	QWORD PTR [rsp+8], rcx
	push	rbp
	sub	rsp, 112				; 00000070H
	lea	rbp, QWORD PTR [rsp+32]
	lea	rcx, OFFSET FLAT:__327B7881_vector
	call	__CheckForDebuggerJustMyCode

; 917  : 		if (_Has_unused_capacity())

	mov	rcx, QWORD PTR this$[rbp]
	call	?_Has_unused_capacity@?$vector@UBufferElement@buffers@core@@V?$allocator@UBufferElement@buffers@core@@@std@@@std@@AEBA_NXZ ; std::vector<core::buffers::BufferElement,std::allocator<core::buffers::BufferElement> >::_Has_unused_capacity
	movzx	eax, al
	test	eax, eax
	je	SHORT $LN2@emplace_ba

; 918  : 			{
; 919  : 			return (_Emplace_back_with_unused_capacity(_STD forward<_Valty>(_Val)...));

	mov	rcx, QWORD PTR <_Val_0>$[rbp]
	call	??$forward@UBufferElement@buffers@core@@@std@@YA$$QEAUBufferElement@buffers@core@@AEAU123@@Z ; std::forward<core::buffers::BufferElement>
	mov	rdx, rax
	mov	rcx, QWORD PTR this$[rbp]
	call	??$_Emplace_back_with_unused_capacity@UBufferElement@buffers@core@@@?$vector@UBufferElement@buffers@core@@V?$allocator@UBufferElement@buffers@core@@@std@@@std@@AEAA@$$QEAUBufferElement@buffers@core@@@Z ; std::vector<core::buffers::BufferElement,std::allocator<core::buffers::BufferElement> >::_Emplace_back_with_unused_capacity<core::buffers::BufferElement>
	jmp	SHORT $LN1@emplace_ba
$LN2@emplace_ba:

; 920  : 			}
; 921  : 
; 922  : 		_Ty& _Result = *_Emplace_reallocate(this->_Mylast(), _STD forward<_Valty>(_Val)...);

	mov	rcx, QWORD PTR <_Val_0>$[rbp]
	call	??$forward@UBufferElement@buffers@core@@@std@@YA$$QEAUBufferElement@buffers@core@@AEAU123@@Z ; std::forward<core::buffers::BufferElement>
	mov	QWORD PTR tv74[rbp], rax
	mov	rcx, QWORD PTR this$[rbp]
	call	?_Mylast@?$_Vector_alloc@U?$_Vec_base_types@UBufferElement@buffers@core@@V?$allocator@UBufferElement@buffers@core@@@std@@@std@@@std@@QEAAAEAPEAUBufferElement@buffers@core@@XZ ; std::_Vector_alloc<std::_Vec_base_types<core::buffers::BufferElement,std::allocator<core::buffers::BufferElement> > >::_Mylast
	mov	rcx, QWORD PTR tv74[rbp]
	mov	r8, rcx
	mov	rdx, QWORD PTR [rax]
	mov	rcx, QWORD PTR this$[rbp]
	call	??$_Emplace_reallocate@UBufferElement@buffers@core@@@?$vector@UBufferElement@buffers@core@@V?$allocator@UBufferElement@buffers@core@@@std@@@std@@QEAAPEAUBufferElement@buffers@core@@QEAU234@$$QEAU234@@Z ; std::vector<core::buffers::BufferElement,std::allocator<core::buffers::BufferElement> >::_Emplace_reallocate<core::buffers::BufferElement>
	mov	QWORD PTR _Result$[rbp], rax
$LN1@emplace_ba:

; 923  : #if _HAS_CXX17
; 924  : 		return (_Result);
; 925  : #else /* ^^^ _HAS_CXX17 ^^^ // vvv !_HAS_CXX17 vvv */
; 926  : 		(void)_Result;
; 927  : #endif /* _HAS_CXX17 */
; 928  : 		}

	lea	rsp, QWORD PTR [rbp+80]
	pop	rbp
	ret	0
??$emplace_back@UBufferElement@buffers@core@@@?$vector@UBufferElement@buffers@core@@V?$allocator@UBufferElement@buffers@core@@@std@@@std@@QEAA@$$QEAUBufferElement@buffers@core@@@Z ENDP ; std::vector<core::buffers::BufferElement,std::allocator<core::buffers::BufferElement> >::emplace_back<core::buffers::BufferElement>
_TEXT	ENDS
; Function compile flags: /Odtp /RTCu /ZI
; File c:\program files (x86)\microsoft visual studio\2017\enterprise\vc\tools\msvc\14.15.26726\include\type_traits
;	COMDAT ??$move@AEAUBufferElement@buffers@core@@@std@@YA$$QEAUBufferElement@buffers@core@@AEAU123@@Z
_TEXT	SEGMENT
$T1 = 64
_Arg$ = 96
??$move@AEAUBufferElement@buffers@core@@@std@@YA$$QEAUBufferElement@buffers@core@@AEAU123@@Z PROC ; std::move<core::buffers::BufferElement &>, COMDAT

; 1588 : 	{	// forward _Arg as movable

$LN3:
	mov	QWORD PTR [rsp+8], rcx
	push	rbp
	sub	rsp, 112				; 00000070H
	lea	rbp, QWORD PTR [rsp+32]
	mov	QWORD PTR $T1[rbp], -2
	lea	rcx, OFFSET FLAT:__6C905C6A_type_traits
	call	__CheckForDebuggerJustMyCode
	npad	1

; 1589 : 	return (static_cast<remove_reference_t<_Ty>&&>(_Arg));

	mov	rax, QWORD PTR _Arg$[rbp]

; 1590 : 	}

	lea	rsp, QWORD PTR [rbp+80]
	pop	rbp
	ret	0
??$move@AEAUBufferElement@buffers@core@@@std@@YA$$QEAUBufferElement@buffers@core@@AEAU123@@Z ENDP ; std::move<core::buffers::BufferElement &>
_TEXT	ENDS
; Function compile flags: /Odtp /RTCu /ZI
;	COMDAT ??_GTextureTestScene@Scene@Application@@UEAAPEAXI@Z
_TEXT	SEGMENT
this$ = 80
__flags$ = 88
??_GTextureTestScene@Scene@Application@@UEAAPEAXI@Z PROC ; Application::Scene::TextureTestScene::`scalar deleting destructor', COMDAT
$LN4:
	mov	DWORD PTR [rsp+16], edx
	mov	QWORD PTR [rsp+8], rcx
	push	rbp
	sub	rsp, 96					; 00000060H
	lea	rbp, QWORD PTR [rsp+32]
	mov	rcx, QWORD PTR this$[rbp]
	call	??1TextureTestScene@Scene@Application@@UEAA@XZ ; Application::Scene::TextureTestScene::~TextureTestScene
	mov	eax, DWORD PTR __flags$[rbp]
	and	eax, 1
	test	eax, eax
	je	SHORT $LN2@scalar
	mov	edx, 56					; 00000038H
	mov	rcx, QWORD PTR this$[rbp]
	call	??3@YAXPEAX_K@Z				; operator delete
$LN2@scalar:
	mov	rax, QWORD PTR this$[rbp]
	lea	rsp, QWORD PTR [rbp+64]
	pop	rbp
	ret	0
??_GTextureTestScene@Scene@Application@@UEAAPEAXI@Z ENDP ; Application::Scene::TextureTestScene::`scalar deleting destructor'
_TEXT	ENDS
; Function compile flags: /Odtp /RTCu /ZI
; File l:\dev\featherfallengine\featherfall-examples\src\scene\texturetestscene.cpp
;	COMDAT ?OnImGuiRender@TextureTestScene@Scene@Application@@UEAAXXZ
_TEXT	SEGMENT
this$ = 80
?OnImGuiRender@TextureTestScene@Scene@Application@@UEAAXXZ PROC ; Application::Scene::TextureTestScene::OnImGuiRender, COMDAT

; 61   : 	void TextureTestScene::OnImGuiRender() { 

$LN3:
	mov	QWORD PTR [rsp+8], rcx
	push	rbp
	sub	rsp, 96					; 00000060H
	lea	rbp, QWORD PTR [rsp+32]
	lea	rcx, OFFSET FLAT:__24B56FB6_texturetestscene.cpp
	call	__CheckForDebuggerJustMyCode

; 62   : 	
; 63   : 		ImGui::Text("Texture Test!");

	lea	rcx, OFFSET FLAT:??_C@_0O@JGCBCHIF@Texture?5Test?$CB@
	call	?Text@ImGui@@YAXPEBDZZ			; ImGui::Text

; 64   : 
; 65   : 	}

	lea	rsp, QWORD PTR [rbp+64]
	pop	rbp
	ret	0
?OnImGuiRender@TextureTestScene@Scene@Application@@UEAAXXZ ENDP ; Application::Scene::TextureTestScene::OnImGuiRender
_TEXT	ENDS
; Function compile flags: /Odtp /RTCu /ZI
; File l:\dev\featherfallengine\featherfall-examples\src\scene\texturetestscene.cpp
;	COMDAT ?OnRender@TextureTestScene@Scene@Application@@UEAAXXZ
_TEXT	SEGMENT
this$ = 80
?OnRender@TextureTestScene@Scene@Application@@UEAAXXZ PROC ; Application::Scene::TextureTestScene::OnRender, COMDAT

; 48   : 	void TextureTestScene::OnRender() {

$LN4:
	mov	QWORD PTR [rsp+8], rcx
	push	rbp
	sub	rsp, 96					; 00000060H
	lea	rbp, QWORD PTR [rsp+32]
	lea	rcx, OFFSET FLAT:__24B56FB6_texturetestscene.cpp
	call	__CheckForDebuggerJustMyCode

; 49   : 	
; 50   : 		texture->bind(1); //binds to slot 0 by default

	mov	edx, 1
	mov	rax, QWORD PTR this$[rbp]
	mov	rcx, QWORD PTR [rax+48]
	call	?bind@Texture@graphics@core@@QEBAXI@Z	; core::graphics::Texture::bind

; 51   : 
; 52   : 		shader->bind();

	mov	rax, QWORD PTR this$[rbp]
	mov	rcx, QWORD PTR [rax+40]
	call	?bind@Shader@graphics@core@@QEBAXXZ	; core::graphics::Shader::bind

; 53   : 		shader->setUniform1i("uTexture", 1); //setting the texture slot to use to 0

	mov	r8d, 1
	lea	rdx, OFFSET FLAT:??_C@_08FDBNEJGE@uTexture@
	mov	rax, QWORD PTR this$[rbp]
	mov	rcx, QWORD PTR [rax+40]
	call	?setUniform1i@Shader@graphics@core@@QEAAXPEBDH@Z ; core::graphics::Shader::setUniform1i

; 54   : 
; 55   : 		vao->bind();

	mov	rax, QWORD PTR this$[rbp]
	mov	rcx, QWORD PTR [rax+8]
	call	?bind@VAO@buffers@core@@QEBAXXZ		; core::buffers::VAO::bind

; 56   : 		ibo->bind();

	mov	rax, QWORD PTR this$[rbp]
	mov	rcx, QWORD PTR [rax+24]
	call	?bind@IBO@buffers@core@@QEBAXXZ		; core::buffers::IBO::bind

; 57   : 		GLCall(glDrawElements(GL_TRIANGLES, ibo->getCount(), GL_UNSIGNED_INT, nullptr));

	call	?GLClearError@@YAXXZ			; GLClearError
	mov	rax, QWORD PTR this$[rbp]
	mov	rcx, QWORD PTR [rax+24]
	call	?getCount@IBO@buffers@core@@QEBAHXZ	; core::buffers::IBO::getCount
	xor	r9d, r9d
	mov	r8d, 5125				; 00001405H
	mov	edx, eax
	mov	ecx, 4
	call	QWORD PTR __imp_glDrawElements
	mov	eax, DWORD PTR ?__LINE__Var@?0??OnRender@TextureTestScene@Scene@Application@@UEAAXXZ@4JA
	add	eax, 9
	mov	r8d, eax
	lea	rdx, OFFSET FLAT:??_C@_0EN@IGOIKAOF@l?3?2dev?2featherfallengine?2feathe@
	lea	rcx, OFFSET FLAT:??_C@_0EI@LIJNNICP@glDrawElements?$CIGL_TRIANGLES?0?5ib@
	call	?GLLogError@@YA_NPEBD0H@Z		; GLLogError
	movzx	eax, al
	test	eax, eax
	jne	SHORT $LN2@OnRender
	int	3
$LN2@OnRender:

; 58   : 	
; 59   : 	}

	lea	rsp, QWORD PTR [rbp+64]
	pop	rbp
	ret	0
?OnRender@TextureTestScene@Scene@Application@@UEAAXXZ ENDP ; Application::Scene::TextureTestScene::OnRender
_TEXT	ENDS
; Function compile flags: /Odtp /RTCu /ZI
; File l:\dev\featherfallengine\featherfall-examples\src\scene\texturetestscene.cpp
;	COMDAT ?OnUpdate@TextureTestScene@Scene@Application@@UEAAXM@Z
_TEXT	SEGMENT
this$ = 80
deltaTime$ = 88
?OnUpdate@TextureTestScene@Scene@Application@@UEAAXM@Z PROC ; Application::Scene::TextureTestScene::OnUpdate, COMDAT

; 46   : 	void TextureTestScene::OnUpdate(float deltaTime) { }

$LN3:
	movss	DWORD PTR [rsp+16], xmm1
	mov	QWORD PTR [rsp+8], rcx
	push	rbp
	sub	rsp, 96					; 00000060H
	lea	rbp, QWORD PTR [rsp+32]
	lea	rcx, OFFSET FLAT:__24B56FB6_texturetestscene.cpp
	call	__CheckForDebuggerJustMyCode
	lea	rsp, QWORD PTR [rbp+64]
	pop	rbp
	ret	0
?OnUpdate@TextureTestScene@Scene@Application@@UEAAXM@Z ENDP ; Application::Scene::TextureTestScene::OnUpdate
_TEXT	ENDS
; Function compile flags: /Odtp /RTCu /ZI
; File l:\dev\featherfallengine\featherfall-examples\src\scene\texturetestscene.cpp
;	COMDAT ??1TextureTestScene@Scene@Application@@UEAA@XZ
_TEXT	SEGMENT
$T1 = 64
$T2 = 72
$T3 = 80
$T4 = 88
$T5 = 96
$T6 = 104
$T7 = 112
$T8 = 120
$T9 = 128
$T10 = 136
$T11 = 144
$T12 = 152
$T13 = 160
tv141 = 168
tv135 = 168
tv129 = 168
tv91 = 168
tv85 = 168
tv79 = 168
this$ = 192
??1TextureTestScene@Scene@Application@@UEAA@XZ PROC	; Application::Scene::TextureTestScene::~TextureTestScene, COMDAT

; 35   : 	TextureTestScene::~TextureTestScene() {

$LN15:
	mov	QWORD PTR [rsp+8], rcx
	push	rbp
	sub	rsp, 208				; 000000d0H
	lea	rbp, QWORD PTR [rsp+32]
	mov	QWORD PTR $T13[rbp], -2
	lea	rcx, OFFSET FLAT:__24B56FB6_texturetestscene.cpp
	call	__CheckForDebuggerJustMyCode
	npad	1
	mov	rax, QWORD PTR this$[rbp]
	lea	rcx, OFFSET FLAT:??_7TextureTestScene@Scene@Application@@6B@
	mov	QWORD PTR [rax], rcx

; 36   : 	
; 37   : 		delete vao;

	mov	rax, QWORD PTR this$[rbp]
	mov	rax, QWORD PTR [rax+8]
	mov	QWORD PTR $T2[rbp], rax
	mov	rax, QWORD PTR $T2[rbp]
	mov	QWORD PTR $T1[rbp], rax
	cmp	QWORD PTR $T1[rbp], 0
	je	SHORT $LN3@TextureTes
	mov	edx, 1
	mov	rcx, QWORD PTR $T1[rbp]
	call	??_GVAO@buffers@core@@QEAAPEAXI@Z
	npad	1
	mov	QWORD PTR tv79[rbp], rax
	jmp	SHORT $LN4@TextureTes
$LN3@TextureTes:
	mov	QWORD PTR tv79[rbp], 0
$LN4@TextureTes:

; 38   : 		delete vbo;

	mov	rax, QWORD PTR this$[rbp]
	mov	rax, QWORD PTR [rax+16]
	mov	QWORD PTR $T4[rbp], rax
	mov	rax, QWORD PTR $T4[rbp]
	mov	QWORD PTR $T3[rbp], rax
	cmp	QWORD PTR $T3[rbp], 0
	je	SHORT $LN5@TextureTes
	mov	edx, 1
	mov	rcx, QWORD PTR $T3[rbp]
	call	??_GVBO@buffers@core@@QEAAPEAXI@Z
	npad	1
	mov	QWORD PTR tv85[rbp], rax
	jmp	SHORT $LN6@TextureTes
$LN5@TextureTes:
	mov	QWORD PTR tv85[rbp], 0
$LN6@TextureTes:

; 39   : 		delete ibo;

	mov	rax, QWORD PTR this$[rbp]
	mov	rax, QWORD PTR [rax+24]
	mov	QWORD PTR $T6[rbp], rax
	mov	rax, QWORD PTR $T6[rbp]
	mov	QWORD PTR $T5[rbp], rax
	cmp	QWORD PTR $T5[rbp], 0
	je	SHORT $LN7@TextureTes
	mov	edx, 1
	mov	rcx, QWORD PTR $T5[rbp]
	call	??_GIBO@buffers@core@@QEAAPEAXI@Z
	npad	1
	mov	QWORD PTR tv91[rbp], rax
	jmp	SHORT $LN8@TextureTes
$LN7@TextureTes:
	mov	QWORD PTR tv91[rbp], 0
$LN8@TextureTes:

; 40   : 		delete layout;

	mov	rax, QWORD PTR this$[rbp]
	mov	rax, QWORD PTR [rax+32]
	mov	QWORD PTR $T8[rbp], rax
	mov	rax, QWORD PTR $T8[rbp]
	mov	QWORD PTR $T7[rbp], rax
	cmp	QWORD PTR $T7[rbp], 0
	je	SHORT $LN9@TextureTes
	mov	edx, 1
	mov	rcx, QWORD PTR $T7[rbp]
	call	??_GBufferLayout@buffers@core@@QEAAPEAXI@Z
	npad	1
	mov	QWORD PTR tv129[rbp], rax
	jmp	SHORT $LN10@TextureTes
$LN9@TextureTes:
	mov	QWORD PTR tv129[rbp], 0
$LN10@TextureTes:

; 41   : 		delete shader;

	mov	rax, QWORD PTR this$[rbp]
	mov	rax, QWORD PTR [rax+40]
	mov	QWORD PTR $T10[rbp], rax
	mov	rax, QWORD PTR $T10[rbp]
	mov	QWORD PTR $T9[rbp], rax
	cmp	QWORD PTR $T9[rbp], 0
	je	SHORT $LN11@TextureTes
	mov	edx, 1
	mov	rcx, QWORD PTR $T9[rbp]
	call	??_GShader@graphics@core@@QEAAPEAXI@Z
	npad	1
	mov	QWORD PTR tv135[rbp], rax
	jmp	SHORT $LN12@TextureTes
$LN11@TextureTes:
	mov	QWORD PTR tv135[rbp], 0
$LN12@TextureTes:

; 42   : 		delete texture;

	mov	rax, QWORD PTR this$[rbp]
	mov	rax, QWORD PTR [rax+48]
	mov	QWORD PTR $T12[rbp], rax
	mov	rax, QWORD PTR $T12[rbp]
	mov	QWORD PTR $T11[rbp], rax
	cmp	QWORD PTR $T11[rbp], 0
	je	SHORT $LN13@TextureTes
	mov	edx, 1
	mov	rcx, QWORD PTR $T11[rbp]
	call	??_GTexture@graphics@core@@QEAAPEAXI@Z
	npad	1
	mov	QWORD PTR tv141[rbp], rax
	jmp	SHORT $LN14@TextureTes
$LN13@TextureTes:
	mov	QWORD PTR tv141[rbp], 0
$LN14@TextureTes:

; 43   : 
; 44   : 	}

	mov	rcx, QWORD PTR this$[rbp]
	call	??1Scene@0Application@@UEAA@XZ		; Application::Scene::Scene::~Scene
	npad	1
	lea	rsp, QWORD PTR [rbp+176]
	pop	rbp
	ret	0
??1TextureTestScene@Scene@Application@@UEAA@XZ ENDP	; Application::Scene::TextureTestScene::~TextureTestScene
_TEXT	ENDS
; Function compile flags: /Odtp /RTCu /ZI
; File l:\dev\featherfallengine\featherfall-examples\src\scene\texturetestscene.cpp
;	COMDAT ??0TextureTestScene@Scene@Application@@QEAA@XZ
_TEXT	SEGMENT
vertexData$ = 0
indices$ = 64
$T1 = 152
$T2 = 160
$T3 = 168
$T4 = 176
$T5 = 184
$T6 = 192
$T7 = 200
$T8 = 208
$T9 = 216
$T10 = 224
$T11 = 232
$T12 = 272
$T13 = 280
$T14 = 288
$T15 = 328
$T16 = 336
$T17 = 344
tv274 = 352
tv229 = 352
tv200 = 352
tv186 = 352
tv171 = 352
tv92 = 352
tv255 = 360
__$ArrayPad$ = 368
this$ = 400
??0TextureTestScene@Scene@Application@@QEAA@XZ PROC	; Application::Scene::TextureTestScene::TextureTestScene, COMDAT

; 7    : 	{

$LN26:
	mov	QWORD PTR [rsp+8], rcx
	push	rbp
	sub	rsp, 416				; 000001a0H
	lea	rbp, QWORD PTR [rsp+32]
	mov	QWORD PTR $T17[rbp], -2
	mov	rax, QWORD PTR __security_cookie
	xor	rax, rbp
	mov	QWORD PTR __$ArrayPad$[rbp], rax
	mov	DWORD PTR $T16[rbp], 0
	lea	rcx, OFFSET FLAT:__24B56FB6_texturetestscene.cpp
	call	__CheckForDebuggerJustMyCode
	mov	rcx, QWORD PTR this$[rbp]
	call	??0Scene@0Application@@QEAA@XZ		; Application::Scene::Scene::Scene
	npad	1
	mov	rax, QWORD PTR this$[rbp]
	lea	rcx, OFFSET FLAT:??_7TextureTestScene@Scene@Application@@6B@
	mov	QWORD PTR [rax], rcx

; 8    : 		using namespace core;
; 9    : 
; 10   : 		vao = new buffers::VAO();

	mov	ecx, 4
	call	??2@YAPEAX_K@Z				; operator new
	mov	QWORD PTR $T2[rbp], rax
	cmp	QWORD PTR $T2[rbp], 0
	je	SHORT $LN3@TextureTes
	mov	rcx, QWORD PTR $T2[rbp]
	call	??0VAO@buffers@core@@QEAA@XZ		; core::buffers::VAO::VAO
	mov	QWORD PTR tv92[rbp], rax
	jmp	SHORT $LN4@TextureTes
$LN3@TextureTes:
	mov	QWORD PTR tv92[rbp], 0
$LN4@TextureTes:
	mov	rax, QWORD PTR tv92[rbp]
	mov	QWORD PTR $T1[rbp], rax
	mov	rax, QWORD PTR this$[rbp]
	mov	rcx, QWORD PTR $T1[rbp]
	mov	QWORD PTR [rax+8], rcx

; 11   : 
; 12   : 		float vertexData[] = {
; 13   : 			-0.5f, -0.5f, 0.0f, 0.0f, //0

	movss	xmm0, DWORD PTR __real@bf000000
	movss	DWORD PTR vertexData$[rbp], xmm0
	movss	xmm0, DWORD PTR __real@bf000000
	movss	DWORD PTR vertexData$[rbp+4], xmm0
	xorps	xmm0, xmm0
	movss	DWORD PTR vertexData$[rbp+8], xmm0
	xorps	xmm0, xmm0
	movss	DWORD PTR vertexData$[rbp+12], xmm0

; 14   : 			 0.5f, -0.5f, 1.0f, 0.0f, //1

	movss	xmm0, DWORD PTR __real@3f000000
	movss	DWORD PTR vertexData$[rbp+16], xmm0
	movss	xmm0, DWORD PTR __real@bf000000
	movss	DWORD PTR vertexData$[rbp+20], xmm0
	movss	xmm0, DWORD PTR __real@3f800000
	movss	DWORD PTR vertexData$[rbp+24], xmm0
	xorps	xmm0, xmm0
	movss	DWORD PTR vertexData$[rbp+28], xmm0

; 15   : 			 0.5f,  0.5f, 1.0f, 1.0f, //2

	movss	xmm0, DWORD PTR __real@3f000000
	movss	DWORD PTR vertexData$[rbp+32], xmm0
	movss	xmm0, DWORD PTR __real@3f000000
	movss	DWORD PTR vertexData$[rbp+36], xmm0
	movss	xmm0, DWORD PTR __real@3f800000
	movss	DWORD PTR vertexData$[rbp+40], xmm0
	movss	xmm0, DWORD PTR __real@3f800000
	movss	DWORD PTR vertexData$[rbp+44], xmm0

; 16   : 			-0.5f,  0.5f, 0.0f, 1.0f  //3

	movss	xmm0, DWORD PTR __real@bf000000
	movss	DWORD PTR vertexData$[rbp+48], xmm0
	movss	xmm0, DWORD PTR __real@3f000000
	movss	DWORD PTR vertexData$[rbp+52], xmm0
	xorps	xmm0, xmm0
	movss	DWORD PTR vertexData$[rbp+56], xmm0
	movss	xmm0, DWORD PTR __real@3f800000
	movss	DWORD PTR vertexData$[rbp+60], xmm0

; 17   : 		};
; 18   : 		vbo = new buffers::VBO((const void*)vertexData, 4 * 4 * sizeof(float));

	mov	ecx, 4
	call	??2@YAPEAX_K@Z				; operator new
	mov	QWORD PTR $T4[rbp], rax
	cmp	QWORD PTR $T4[rbp], 0
	je	SHORT $LN5@TextureTes
	mov	r9b, 1
	mov	r8d, 64					; 00000040H
	lea	rdx, QWORD PTR vertexData$[rbp]
	mov	rcx, QWORD PTR $T4[rbp]
	call	??0VBO@buffers@core@@QEAA@PEBXI_N@Z	; core::buffers::VBO::VBO
	mov	QWORD PTR tv171[rbp], rax
	jmp	SHORT $LN6@TextureTes
$LN5@TextureTes:
	mov	QWORD PTR tv171[rbp], 0
$LN6@TextureTes:
	mov	rax, QWORD PTR tv171[rbp]
	mov	QWORD PTR $T3[rbp], rax
	mov	rax, QWORD PTR this$[rbp]
	mov	rcx, QWORD PTR $T3[rbp]
	mov	QWORD PTR [rax+16], rcx

; 19   : 
; 20   : 		unsigned int indices[] = { 0, 1, 2, 2, 3, 0 };

	mov	DWORD PTR indices$[rbp], 0
	mov	DWORD PTR indices$[rbp+4], 1
	mov	DWORD PTR indices$[rbp+8], 2
	mov	DWORD PTR indices$[rbp+12], 2
	mov	DWORD PTR indices$[rbp+16], 3
	mov	DWORD PTR indices$[rbp+20], 0

; 21   : 		ibo = new buffers::IBO(indices, 6);

	mov	ecx, 8
	call	??2@YAPEAX_K@Z				; operator new
	mov	QWORD PTR $T6[rbp], rax
	cmp	QWORD PTR $T6[rbp], 0
	je	SHORT $LN7@TextureTes
	mov	r9b, 1
	mov	r8d, 6
	lea	rdx, QWORD PTR indices$[rbp]
	mov	rcx, QWORD PTR $T6[rbp]
	call	??0IBO@buffers@core@@QEAA@PEBII_N@Z	; core::buffers::IBO::IBO
	mov	QWORD PTR tv186[rbp], rax
	jmp	SHORT $LN8@TextureTes
$LN7@TextureTes:
	mov	QWORD PTR tv186[rbp], 0
$LN8@TextureTes:
	mov	rax, QWORD PTR tv186[rbp]
	mov	QWORD PTR $T5[rbp], rax
	mov	rax, QWORD PTR this$[rbp]
	mov	rcx, QWORD PTR $T5[rbp]
	mov	QWORD PTR [rax+24], rcx

; 22   : 
; 23   : 		layout = new buffers::BufferLayout();

	mov	ecx, 40					; 00000028H
	call	??2@YAPEAX_K@Z				; operator new
	mov	QWORD PTR $T8[rbp], rax
	cmp	QWORD PTR $T8[rbp], 0
	je	SHORT $LN9@TextureTes
	mov	edx, 40					; 00000028H
	mov	rcx, QWORD PTR $T8[rbp]
	call	?__autoclassinit2@BufferLayout@buffers@core@@QEAAX_K@Z
	mov	rcx, QWORD PTR $T8[rbp]
	call	??0BufferLayout@buffers@core@@QEAA@XZ	; core::buffers::BufferLayout::BufferLayout
	mov	QWORD PTR tv200[rbp], rax
	jmp	SHORT $LN10@TextureTes
$LN9@TextureTes:
	mov	QWORD PTR tv200[rbp], 0
$LN10@TextureTes:
	mov	rax, QWORD PTR tv200[rbp]
	mov	QWORD PTR $T7[rbp], rax
	mov	rax, QWORD PTR this$[rbp]
	mov	rcx, QWORD PTR $T7[rbp]
	mov	QWORD PTR [rax+32], rcx

; 24   : 		layout->push<float>(2); //add position data

	mov	edx, 2
	mov	rax, QWORD PTR this$[rbp]
	mov	rcx, QWORD PTR [rax+32]
	call	??$push@M@BufferLayout@buffers@core@@QEAAXI@Z ; core::buffers::BufferLayout::push<float>

; 25   : 		layout->push<float>(2); //add texture coord data

	mov	edx, 2
	mov	rax, QWORD PTR this$[rbp]
	mov	rcx, QWORD PTR [rax+32]
	call	??$push@M@BufferLayout@buffers@core@@QEAAXI@Z ; core::buffers::BufferLayout::push<float>

; 26   : 
; 27   : 		vao->addBuffer(*vbo, *layout);

	mov	rax, QWORD PTR this$[rbp]
	mov	r8, QWORD PTR [rax+32]
	mov	rax, QWORD PTR this$[rbp]
	mov	rdx, QWORD PTR [rax+16]
	mov	rax, QWORD PTR this$[rbp]
	mov	rcx, QWORD PTR [rax+8]
	call	?addBuffer@VAO@buffers@core@@QEAAXAEBVVBO@23@AEBVBufferLayout@23@@Z ; core::buffers::VAO::addBuffer

; 28   : 
; 29   : 		shader = new graphics::Shader("res/shaders/TextureTest.shader");

	mov	ecx, 4
	call	??2@YAPEAX_K@Z				; operator new
	mov	QWORD PTR $T10[rbp], rax
	cmp	QWORD PTR $T10[rbp], 0
	je	SHORT $LN11@TextureTes
	lea	rdx, OFFSET FLAT:??_C@_0BP@FDJOMHHB@res?1shaders?1TextureTest?4shader@
	lea	rcx, QWORD PTR $T11[rbp]
	call	??0?$basic_string@DU?$char_traits@D@std@@V?$allocator@D@2@@std@@QEAA@QEBD@Z ; std::basic_string<char,std::char_traits<char>,std::allocator<char> >::basic_string<char,std::char_traits<char>,std::allocator<char> >
	npad	1
	mov	eax, DWORD PTR $T16[rbp]
	or	eax, 1
	mov	DWORD PTR $T16[rbp], eax
	lea	rdx, QWORD PTR $T11[rbp]
	mov	rcx, QWORD PTR $T10[rbp]
	call	??0Shader@graphics@core@@QEAA@AEBV?$basic_string@DU?$char_traits@D@std@@V?$allocator@D@2@@std@@@Z ; core::graphics::Shader::Shader
	mov	QWORD PTR tv229[rbp], rax
	jmp	SHORT $LN12@TextureTes
$LN11@TextureTes:
	mov	QWORD PTR tv229[rbp], 0
$LN12@TextureTes:
	mov	rax, QWORD PTR tv229[rbp]
	mov	QWORD PTR $T9[rbp], rax
	mov	rax, QWORD PTR this$[rbp]
	mov	rcx, QWORD PTR $T9[rbp]
	mov	QWORD PTR [rax+40], rcx
	mov	eax, DWORD PTR $T16[rbp]
	and	eax, 1
	test	eax, eax
	je	SHORT $LN23@TextureTes
	and	DWORD PTR $T16[rbp], -2
	lea	rcx, QWORD PTR $T11[rbp]
	call	??1?$basic_string@DU?$char_traits@D@std@@V?$allocator@D@2@@std@@QEAA@XZ ; std::basic_string<char,std::char_traits<char>,std::allocator<char> >::~basic_string<char,std::char_traits<char>,std::allocator<char> >
$LN23@TextureTes:

; 30   : 
; 31   : 		texture = new graphics::Texture("res/textures/TextureTest.png");

	mov	ecx, 72					; 00000048H
	call	??2@YAPEAX_K@Z				; operator new
	mov	QWORD PTR $T13[rbp], rax
	cmp	QWORD PTR $T13[rbp], 0
	je	SHORT $LN13@TextureTes
	mov	edx, 72					; 00000048H
	mov	rcx, QWORD PTR $T13[rbp]
	call	?__autoclassinit2@Texture@graphics@core@@QEAAX_K@Z
	lea	rax, QWORD PTR $T14[rbp]
	mov	QWORD PTR $T15[rbp], rax
	lea	rdx, OFFSET FLAT:??_C@_0BN@MKLMCAKL@res?1textures?1TextureTest?4png@
	mov	rcx, QWORD PTR $T15[rbp]
	call	??0?$basic_string@DU?$char_traits@D@std@@V?$allocator@D@2@@std@@QEAA@QEBD@Z ; std::basic_string<char,std::char_traits<char>,std::allocator<char> >::basic_string<char,std::char_traits<char>,std::allocator<char> >
	mov	QWORD PTR tv274[rbp], rax
	mov	rdx, QWORD PTR tv274[rbp]
	mov	rcx, QWORD PTR $T13[rbp]
	call	??0Texture@graphics@core@@QEAA@V?$basic_string@DU?$char_traits@D@std@@V?$allocator@D@2@@std@@@Z ; core::graphics::Texture::Texture
	mov	QWORD PTR tv255[rbp], rax
	jmp	SHORT $LN14@TextureTes
$LN13@TextureTes:
	mov	QWORD PTR tv255[rbp], 0
$LN14@TextureTes:
	mov	rax, QWORD PTR tv255[rbp]
	mov	QWORD PTR $T12[rbp], rax
	mov	rax, QWORD PTR this$[rbp]
	mov	rcx, QWORD PTR $T12[rbp]
	mov	QWORD PTR [rax+48], rcx

; 32   : 
; 33   : 	}

	mov	rax, QWORD PTR this$[rbp]
	mov	rcx, QWORD PTR __$ArrayPad$[rbp]
	xor	rcx, rbp
	call	__security_check_cookie
	lea	rsp, QWORD PTR [rbp+384]
	pop	rbp
	ret	0
??0TextureTestScene@Scene@Application@@QEAA@XZ ENDP	; Application::Scene::TextureTestScene::TextureTestScene
_TEXT	ENDS
;	COMDAT text$x
text$x	SEGMENT
vertexData$ = 0
indices$ = 64
$T1 = 152
$T2 = 160
$T3 = 168
$T4 = 176
$T5 = 184
$T6 = 192
$T7 = 200
$T8 = 208
$T9 = 216
$T10 = 224
$T11 = 232
$T12 = 272
$T13 = 280
$T14 = 288
$T15 = 328
$T16 = 336
$T17 = 344
tv274 = 352
tv229 = 352
tv200 = 352
tv186 = 352
tv171 = 352
tv92 = 352
tv255 = 360
__$ArrayPad$ = 368
this$ = 400
?dtor$0@?0???0TextureTestScene@Scene@Application@@QEAA@XZ@4HA PROC ; `Application::Scene::TextureTestScene::TextureTestScene'::`1'::dtor$0
	push	rbp
	sub	rsp, 32					; 00000020H
	lea	rbp, QWORD PTR [rdx+32]
	mov	rcx, QWORD PTR this$[rbp]
	call	??1Scene@0Application@@UEAA@XZ		; Application::Scene::Scene::~Scene
	add	rsp, 32					; 00000020H
	pop	rbp
	ret	0
?dtor$0@?0???0TextureTestScene@Scene@Application@@QEAA@XZ@4HA ENDP ; `Application::Scene::TextureTestScene::TextureTestScene'::`1'::dtor$0
text$x	ENDS
;	COMDAT text$x
text$x	SEGMENT
vertexData$ = 0
indices$ = 64
$T1 = 152
$T2 = 160
$T3 = 168
$T4 = 176
$T5 = 184
$T6 = 192
$T7 = 200
$T8 = 208
$T9 = 216
$T10 = 224
$T11 = 232
$T12 = 272
$T13 = 280
$T14 = 288
$T15 = 328
$T16 = 336
$T17 = 344
tv274 = 352
tv229 = 352
tv200 = 352
tv186 = 352
tv171 = 352
tv92 = 352
tv255 = 360
__$ArrayPad$ = 368
this$ = 400
?dtor$1@?0???0TextureTestScene@Scene@Application@@QEAA@XZ@4HA PROC ; `Application::Scene::TextureTestScene::TextureTestScene'::`1'::dtor$1
	push	rbp
	sub	rsp, 32					; 00000020H
	lea	rbp, QWORD PTR [rdx+32]
	mov	edx, 4
	mov	rcx, QWORD PTR $T2[rbp]
	call	??3@YAXPEAX_K@Z				; operator delete
	add	rsp, 32					; 00000020H
	pop	rbp
	ret	0
?dtor$1@?0???0TextureTestScene@Scene@Application@@QEAA@XZ@4HA ENDP ; `Application::Scene::TextureTestScene::TextureTestScene'::`1'::dtor$1
text$x	ENDS
;	COMDAT text$x
text$x	SEGMENT
vertexData$ = 0
indices$ = 64
$T1 = 152
$T2 = 160
$T3 = 168
$T4 = 176
$T5 = 184
$T6 = 192
$T7 = 200
$T8 = 208
$T9 = 216
$T10 = 224
$T11 = 232
$T12 = 272
$T13 = 280
$T14 = 288
$T15 = 328
$T16 = 336
$T17 = 344
tv274 = 352
tv229 = 352
tv200 = 352
tv186 = 352
tv171 = 352
tv92 = 352
tv255 = 360
__$ArrayPad$ = 368
this$ = 400
?dtor$2@?0???0TextureTestScene@Scene@Application@@QEAA@XZ@4HA PROC ; `Application::Scene::TextureTestScene::TextureTestScene'::`1'::dtor$2
	push	rbp
	sub	rsp, 32					; 00000020H
	lea	rbp, QWORD PTR [rdx+32]
	mov	edx, 4
	mov	rcx, QWORD PTR $T4[rbp]
	call	??3@YAXPEAX_K@Z				; operator delete
	add	rsp, 32					; 00000020H
	pop	rbp
	ret	0
?dtor$2@?0???0TextureTestScene@Scene@Application@@QEAA@XZ@4HA ENDP ; `Application::Scene::TextureTestScene::TextureTestScene'::`1'::dtor$2
text$x	ENDS
;	COMDAT text$x
text$x	SEGMENT
vertexData$ = 0
indices$ = 64
$T1 = 152
$T2 = 160
$T3 = 168
$T4 = 176
$T5 = 184
$T6 = 192
$T7 = 200
$T8 = 208
$T9 = 216
$T10 = 224
$T11 = 232
$T12 = 272
$T13 = 280
$T14 = 288
$T15 = 328
$T16 = 336
$T17 = 344
tv274 = 352
tv229 = 352
tv200 = 352
tv186 = 352
tv171 = 352
tv92 = 352
tv255 = 360
__$ArrayPad$ = 368
this$ = 400
?dtor$3@?0???0TextureTestScene@Scene@Application@@QEAA@XZ@4HA PROC ; `Application::Scene::TextureTestScene::TextureTestScene'::`1'::dtor$3
	push	rbp
	sub	rsp, 32					; 00000020H
	lea	rbp, QWORD PTR [rdx+32]
	mov	edx, 8
	mov	rcx, QWORD PTR $T6[rbp]
	call	??3@YAXPEAX_K@Z				; operator delete
	add	rsp, 32					; 00000020H
	pop	rbp
	ret	0
?dtor$3@?0???0TextureTestScene@Scene@Application@@QEAA@XZ@4HA ENDP ; `Application::Scene::TextureTestScene::TextureTestScene'::`1'::dtor$3
text$x	ENDS
;	COMDAT text$x
text$x	SEGMENT
vertexData$ = 0
indices$ = 64
$T1 = 152
$T2 = 160
$T3 = 168
$T4 = 176
$T5 = 184
$T6 = 192
$T7 = 200
$T8 = 208
$T9 = 216
$T10 = 224
$T11 = 232
$T12 = 272
$T13 = 280
$T14 = 288
$T15 = 328
$T16 = 336
$T17 = 344
tv274 = 352
tv229 = 352
tv200 = 352
tv186 = 352
tv171 = 352
tv92 = 352
tv255 = 360
__$ArrayPad$ = 368
this$ = 400
?dtor$4@?0???0TextureTestScene@Scene@Application@@QEAA@XZ@4HA PROC ; `Application::Scene::TextureTestScene::TextureTestScene'::`1'::dtor$4
	push	rbp
	sub	rsp, 32					; 00000020H
	lea	rbp, QWORD PTR [rdx+32]
	mov	edx, 40					; 00000028H
	mov	rcx, QWORD PTR $T8[rbp]
	call	??3@YAXPEAX_K@Z				; operator delete
	add	rsp, 32					; 00000020H
	pop	rbp
	ret	0
?dtor$4@?0???0TextureTestScene@Scene@Application@@QEAA@XZ@4HA ENDP ; `Application::Scene::TextureTestScene::TextureTestScene'::`1'::dtor$4
text$x	ENDS
;	COMDAT text$x
text$x	SEGMENT
vertexData$ = 0
indices$ = 64
$T1 = 152
$T2 = 160
$T3 = 168
$T4 = 176
$T5 = 184
$T6 = 192
$T7 = 200
$T8 = 208
$T9 = 216
$T10 = 224
$T11 = 232
$T12 = 272
$T13 = 280
$T14 = 288
$T15 = 328
$T16 = 336
$T17 = 344
tv274 = 352
tv229 = 352
tv200 = 352
tv186 = 352
tv171 = 352
tv92 = 352
tv255 = 360
__$ArrayPad$ = 368
this$ = 400
?dtor$5@?0???0TextureTestScene@Scene@Application@@QEAA@XZ@4HA PROC ; `Application::Scene::TextureTestScene::TextureTestScene'::`1'::dtor$5
	push	rbp
	sub	rsp, 32					; 00000020H
	lea	rbp, QWORD PTR [rdx+32]
	mov	edx, 4
	mov	rcx, QWORD PTR $T10[rbp]
	call	??3@YAXPEAX_K@Z				; operator delete
	add	rsp, 32					; 00000020H
	pop	rbp
	ret	0
?dtor$5@?0???0TextureTestScene@Scene@Application@@QEAA@XZ@4HA ENDP ; `Application::Scene::TextureTestScene::TextureTestScene'::`1'::dtor$5
text$x	ENDS
;	COMDAT text$x
text$x	SEGMENT
vertexData$ = 0
indices$ = 64
$T1 = 152
$T2 = 160
$T3 = 168
$T4 = 176
$T5 = 184
$T6 = 192
$T7 = 200
$T8 = 208
$T9 = 216
$T10 = 224
$T11 = 232
$T12 = 272
$T13 = 280
$T14 = 288
$T15 = 328
$T16 = 336
$T17 = 344
tv274 = 352
tv229 = 352
tv200 = 352
tv186 = 352
tv171 = 352
tv92 = 352
tv255 = 360
__$ArrayPad$ = 368
this$ = 400
?dtor$6@?0???0TextureTestScene@Scene@Application@@QEAA@XZ@4HA PROC ; `Application::Scene::TextureTestScene::TextureTestScene'::`1'::dtor$6
	push	rbp
	sub	rsp, 32					; 00000020H
	lea	rbp, QWORD PTR [rdx+32]
	mov	eax, DWORD PTR $T16[rbp]
	and	eax, 1
	test	eax, eax
	je	SHORT $LN22@dtor$6
	and	DWORD PTR $T16[rbp], -2
	lea	rcx, QWORD PTR $T11[rbp]
	call	??1?$basic_string@DU?$char_traits@D@std@@V?$allocator@D@2@@std@@QEAA@XZ ; std::basic_string<char,std::char_traits<char>,std::allocator<char> >::~basic_string<char,std::char_traits<char>,std::allocator<char> >
$LN22@dtor$6:
	add	rsp, 32					; 00000020H
	pop	rbp
	ret	0
?dtor$6@?0???0TextureTestScene@Scene@Application@@QEAA@XZ@4HA ENDP ; `Application::Scene::TextureTestScene::TextureTestScene'::`1'::dtor$6
text$x	ENDS
;	COMDAT text$x
text$x	SEGMENT
vertexData$ = 0
indices$ = 64
$T1 = 152
$T2 = 160
$T3 = 168
$T4 = 176
$T5 = 184
$T6 = 192
$T7 = 200
$T8 = 208
$T9 = 216
$T10 = 224
$T11 = 232
$T12 = 272
$T13 = 280
$T14 = 288
$T15 = 328
$T16 = 336
$T17 = 344
tv274 = 352
tv229 = 352
tv200 = 352
tv186 = 352
tv171 = 352
tv92 = 352
tv255 = 360
__$ArrayPad$ = 368
this$ = 400
?dtor$7@?0???0TextureTestScene@Scene@Application@@QEAA@XZ@4HA PROC ; `Application::Scene::TextureTestScene::TextureTestScene'::`1'::dtor$7
	push	rbp
	sub	rsp, 32					; 00000020H
	lea	rbp, QWORD PTR [rdx+32]
	mov	edx, 72					; 00000048H
	mov	rcx, QWORD PTR $T13[rbp]
	call	??3@YAXPEAX_K@Z				; operator delete
	add	rsp, 32					; 00000020H
	pop	rbp
	ret	0
?dtor$7@?0???0TextureTestScene@Scene@Application@@QEAA@XZ@4HA ENDP ; `Application::Scene::TextureTestScene::TextureTestScene'::`1'::dtor$7
text$x	ENDS
; Function compile flags: /Odtp /RTCu /ZI
;	COMDAT text$x
text$x	SEGMENT
vertexData$ = 0
indices$ = 64
$T1 = 152
$T2 = 160
$T3 = 168
$T4 = 176
$T5 = 184
$T6 = 192
$T7 = 200
$T8 = 208
$T9 = 216
$T10 = 224
$T11 = 232
$T12 = 272
$T13 = 280
$T14 = 288
$T15 = 328
$T16 = 336
$T17 = 344
tv274 = 352
tv229 = 352
tv200 = 352
tv186 = 352
tv171 = 352
tv92 = 352
tv255 = 360
__$ArrayPad$ = 368
this$ = 400
?dtor$0@?0???0TextureTestScene@Scene@Application@@QEAA@XZ@4HA PROC ; `Application::Scene::TextureTestScene::TextureTestScene'::`1'::dtor$0
	push	rbp
	sub	rsp, 32					; 00000020H
	lea	rbp, QWORD PTR [rdx+32]
	mov	rcx, QWORD PTR this$[rbp]
	call	??1Scene@0Application@@UEAA@XZ		; Application::Scene::Scene::~Scene
	add	rsp, 32					; 00000020H
	pop	rbp
	ret	0
?dtor$0@?0???0TextureTestScene@Scene@Application@@QEAA@XZ@4HA ENDP ; `Application::Scene::TextureTestScene::TextureTestScene'::`1'::dtor$0
text$x	ENDS
; Function compile flags: /Odtp /RTCu /ZI
;	COMDAT text$x
text$x	SEGMENT
vertexData$ = 0
indices$ = 64
$T1 = 152
$T2 = 160
$T3 = 168
$T4 = 176
$T5 = 184
$T6 = 192
$T7 = 200
$T8 = 208
$T9 = 216
$T10 = 224
$T11 = 232
$T12 = 272
$T13 = 280
$T14 = 288
$T15 = 328
$T16 = 336
$T17 = 344
tv274 = 352
tv229 = 352
tv200 = 352
tv186 = 352
tv171 = 352
tv92 = 352
tv255 = 360
__$ArrayPad$ = 368
this$ = 400
?dtor$1@?0???0TextureTestScene@Scene@Application@@QEAA@XZ@4HA PROC ; `Application::Scene::TextureTestScene::TextureTestScene'::`1'::dtor$1
	push	rbp
	sub	rsp, 32					; 00000020H
	lea	rbp, QWORD PTR [rdx+32]
	mov	edx, 4
	mov	rcx, QWORD PTR $T2[rbp]
	call	??3@YAXPEAX_K@Z				; operator delete
	add	rsp, 32					; 00000020H
	pop	rbp
	ret	0
?dtor$1@?0???0TextureTestScene@Scene@Application@@QEAA@XZ@4HA ENDP ; `Application::Scene::TextureTestScene::TextureTestScene'::`1'::dtor$1
text$x	ENDS
; Function compile flags: /Odtp /RTCu /ZI
;	COMDAT text$x
text$x	SEGMENT
vertexData$ = 0
indices$ = 64
$T1 = 152
$T2 = 160
$T3 = 168
$T4 = 176
$T5 = 184
$T6 = 192
$T7 = 200
$T8 = 208
$T9 = 216
$T10 = 224
$T11 = 232
$T12 = 272
$T13 = 280
$T14 = 288
$T15 = 328
$T16 = 336
$T17 = 344
tv274 = 352
tv229 = 352
tv200 = 352
tv186 = 352
tv171 = 352
tv92 = 352
tv255 = 360
__$ArrayPad$ = 368
this$ = 400
?dtor$2@?0???0TextureTestScene@Scene@Application@@QEAA@XZ@4HA PROC ; `Application::Scene::TextureTestScene::TextureTestScene'::`1'::dtor$2
	push	rbp
	sub	rsp, 32					; 00000020H
	lea	rbp, QWORD PTR [rdx+32]
	mov	edx, 4
	mov	rcx, QWORD PTR $T4[rbp]
	call	??3@YAXPEAX_K@Z				; operator delete
	add	rsp, 32					; 00000020H
	pop	rbp
	ret	0
?dtor$2@?0???0TextureTestScene@Scene@Application@@QEAA@XZ@4HA ENDP ; `Application::Scene::TextureTestScene::TextureTestScene'::`1'::dtor$2
text$x	ENDS
; Function compile flags: /Odtp /RTCu /ZI
;	COMDAT text$x
text$x	SEGMENT
vertexData$ = 0
indices$ = 64
$T1 = 152
$T2 = 160
$T3 = 168
$T4 = 176
$T5 = 184
$T6 = 192
$T7 = 200
$T8 = 208
$T9 = 216
$T10 = 224
$T11 = 232
$T12 = 272
$T13 = 280
$T14 = 288
$T15 = 328
$T16 = 336
$T17 = 344
tv274 = 352
tv229 = 352
tv200 = 352
tv186 = 352
tv171 = 352
tv92 = 352
tv255 = 360
__$ArrayPad$ = 368
this$ = 400
?dtor$3@?0???0TextureTestScene@Scene@Application@@QEAA@XZ@4HA PROC ; `Application::Scene::TextureTestScene::TextureTestScene'::`1'::dtor$3
	push	rbp
	sub	rsp, 32					; 00000020H
	lea	rbp, QWORD PTR [rdx+32]
	mov	edx, 8
	mov	rcx, QWORD PTR $T6[rbp]
	call	??3@YAXPEAX_K@Z				; operator delete
	add	rsp, 32					; 00000020H
	pop	rbp
	ret	0
?dtor$3@?0???0TextureTestScene@Scene@Application@@QEAA@XZ@4HA ENDP ; `Application::Scene::TextureTestScene::TextureTestScene'::`1'::dtor$3
text$x	ENDS
; Function compile flags: /Odtp /RTCu /ZI
;	COMDAT text$x
text$x	SEGMENT
vertexData$ = 0
indices$ = 64
$T1 = 152
$T2 = 160
$T3 = 168
$T4 = 176
$T5 = 184
$T6 = 192
$T7 = 200
$T8 = 208
$T9 = 216
$T10 = 224
$T11 = 232
$T12 = 272
$T13 = 280
$T14 = 288
$T15 = 328
$T16 = 336
$T17 = 344
tv274 = 352
tv229 = 352
tv200 = 352
tv186 = 352
tv171 = 352
tv92 = 352
tv255 = 360
__$ArrayPad$ = 368
this$ = 400
?dtor$4@?0???0TextureTestScene@Scene@Application@@QEAA@XZ@4HA PROC ; `Application::Scene::TextureTestScene::TextureTestScene'::`1'::dtor$4
	push	rbp
	sub	rsp, 32					; 00000020H
	lea	rbp, QWORD PTR [rdx+32]
	mov	edx, 40					; 00000028H
	mov	rcx, QWORD PTR $T8[rbp]
	call	??3@YAXPEAX_K@Z				; operator delete
	add	rsp, 32					; 00000020H
	pop	rbp
	ret	0
?dtor$4@?0???0TextureTestScene@Scene@Application@@QEAA@XZ@4HA ENDP ; `Application::Scene::TextureTestScene::TextureTestScene'::`1'::dtor$4
text$x	ENDS
; Function compile flags: /Odtp /RTCu /ZI
;	COMDAT text$x
text$x	SEGMENT
vertexData$ = 0
indices$ = 64
$T1 = 152
$T2 = 160
$T3 = 168
$T4 = 176
$T5 = 184
$T6 = 192
$T7 = 200
$T8 = 208
$T9 = 216
$T10 = 224
$T11 = 232
$T12 = 272
$T13 = 280
$T14 = 288
$T15 = 328
$T16 = 336
$T17 = 344
tv274 = 352
tv229 = 352
tv200 = 352
tv186 = 352
tv171 = 352
tv92 = 352
tv255 = 360
__$ArrayPad$ = 368
this$ = 400
?dtor$5@?0???0TextureTestScene@Scene@Application@@QEAA@XZ@4HA PROC ; `Application::Scene::TextureTestScene::TextureTestScene'::`1'::dtor$5
	push	rbp
	sub	rsp, 32					; 00000020H
	lea	rbp, QWORD PTR [rdx+32]
	mov	edx, 4
	mov	rcx, QWORD PTR $T10[rbp]
	call	??3@YAXPEAX_K@Z				; operator delete
	add	rsp, 32					; 00000020H
	pop	rbp
	ret	0
?dtor$5@?0???0TextureTestScene@Scene@Application@@QEAA@XZ@4HA ENDP ; `Application::Scene::TextureTestScene::TextureTestScene'::`1'::dtor$5
text$x	ENDS
; Function compile flags: /Odtp /RTCu /ZI
;	COMDAT text$x
text$x	SEGMENT
vertexData$ = 0
indices$ = 64
$T1 = 152
$T2 = 160
$T3 = 168
$T4 = 176
$T5 = 184
$T6 = 192
$T7 = 200
$T8 = 208
$T9 = 216
$T10 = 224
$T11 = 232
$T12 = 272
$T13 = 280
$T14 = 288
$T15 = 328
$T16 = 336
$T17 = 344
tv274 = 352
tv229 = 352
tv200 = 352
tv186 = 352
tv171 = 352
tv92 = 352
tv255 = 360
__$ArrayPad$ = 368
this$ = 400
?dtor$6@?0???0TextureTestScene@Scene@Application@@QEAA@XZ@4HA PROC ; `Application::Scene::TextureTestScene::TextureTestScene'::`1'::dtor$6
	push	rbp
	sub	rsp, 32					; 00000020H
	lea	rbp, QWORD PTR [rdx+32]
	mov	eax, DWORD PTR $T16[rbp]
	and	eax, 1
	test	eax, eax
	je	SHORT $LN22@dtor$6
	and	DWORD PTR $T16[rbp], -2
	lea	rcx, QWORD PTR $T11[rbp]
	call	??1?$basic_string@DU?$char_traits@D@std@@V?$allocator@D@2@@std@@QEAA@XZ ; std::basic_string<char,std::char_traits<char>,std::allocator<char> >::~basic_string<char,std::char_traits<char>,std::allocator<char> >
$LN22@dtor$6:
	add	rsp, 32					; 00000020H
	pop	rbp
	ret	0
?dtor$6@?0???0TextureTestScene@Scene@Application@@QEAA@XZ@4HA ENDP ; `Application::Scene::TextureTestScene::TextureTestScene'::`1'::dtor$6
text$x	ENDS
; Function compile flags: /Odtp /RTCu /ZI
;	COMDAT text$x
text$x	SEGMENT
vertexData$ = 0
indices$ = 64
$T1 = 152
$T2 = 160
$T3 = 168
$T4 = 176
$T5 = 184
$T6 = 192
$T7 = 200
$T8 = 208
$T9 = 216
$T10 = 224
$T11 = 232
$T12 = 272
$T13 = 280
$T14 = 288
$T15 = 328
$T16 = 336
$T17 = 344
tv274 = 352
tv229 = 352
tv200 = 352
tv186 = 352
tv171 = 352
tv92 = 352
tv255 = 360
__$ArrayPad$ = 368
this$ = 400
?dtor$7@?0???0TextureTestScene@Scene@Application@@QEAA@XZ@4HA PROC ; `Application::Scene::TextureTestScene::TextureTestScene'::`1'::dtor$7
	push	rbp
	sub	rsp, 32					; 00000020H
	lea	rbp, QWORD PTR [rdx+32]
	mov	edx, 72					; 00000048H
	mov	rcx, QWORD PTR $T13[rbp]
	call	??3@YAXPEAX_K@Z				; operator delete
	add	rsp, 32					; 00000020H
	pop	rbp
	ret	0
?dtor$7@?0???0TextureTestScene@Scene@Application@@QEAA@XZ@4HA ENDP ; `Application::Scene::TextureTestScene::TextureTestScene'::`1'::dtor$7
text$x	ENDS
; Function compile flags: /Odtp /RTCu /ZI
;	COMDAT ??_GTexture@graphics@core@@QEAAPEAXI@Z
_TEXT	SEGMENT
this$ = 80
__flags$ = 88
??_GTexture@graphics@core@@QEAAPEAXI@Z PROC		; core::graphics::Texture::`scalar deleting destructor', COMDAT
$LN4:
	mov	DWORD PTR [rsp+16], edx
	mov	QWORD PTR [rsp+8], rcx
	push	rbp
	sub	rsp, 96					; 00000060H
	lea	rbp, QWORD PTR [rsp+32]
	mov	rcx, QWORD PTR this$[rbp]
	call	??1Texture@graphics@core@@QEAA@XZ	; core::graphics::Texture::~Texture
	mov	eax, DWORD PTR __flags$[rbp]
	and	eax, 1
	test	eax, eax
	je	SHORT $LN2@scalar
	mov	edx, 72					; 00000048H
	mov	rcx, QWORD PTR this$[rbp]
	call	??3@YAXPEAX_K@Z				; operator delete
$LN2@scalar:
	mov	rax, QWORD PTR this$[rbp]
	lea	rsp, QWORD PTR [rbp+64]
	pop	rbp
	ret	0
??_GTexture@graphics@core@@QEAAPEAXI@Z ENDP		; core::graphics::Texture::`scalar deleting destructor'
_TEXT	ENDS
; Function compile flags: /Odtp /RTCu /ZI
;	COMDAT ?__autoclassinit2@Texture@graphics@core@@QEAAX_K@Z
_TEXT	SEGMENT
this$ = 96
classSize$ = 104
?__autoclassinit2@Texture@graphics@core@@QEAAX_K@Z PROC	; core::graphics::Texture::__autoclassinit2, COMDAT
$LN3:
	mov	QWORD PTR [rsp+16], rdx
	mov	QWORD PTR [rsp+8], rcx
	push	rbp
	push	rdi
	sub	rsp, 72					; 00000048H
	mov	rbp, rsp
	mov	rdi, QWORD PTR this$[rbp]
	xor	eax, eax
	mov	rcx, QWORD PTR classSize$[rbp]
	rep stosb
	lea	rsp, QWORD PTR [rbp+72]
	pop	rdi
	pop	rbp
	ret	0
?__autoclassinit2@Texture@graphics@core@@QEAAX_K@Z ENDP	; core::graphics::Texture::__autoclassinit2
_TEXT	ENDS
; Function compile flags: /Odtp /RTCu /ZI
;	COMDAT ??_GShader@graphics@core@@QEAAPEAXI@Z
_TEXT	SEGMENT
this$ = 80
__flags$ = 88
??_GShader@graphics@core@@QEAAPEAXI@Z PROC		; core::graphics::Shader::`scalar deleting destructor', COMDAT
$LN4:
	mov	DWORD PTR [rsp+16], edx
	mov	QWORD PTR [rsp+8], rcx
	push	rbp
	sub	rsp, 96					; 00000060H
	lea	rbp, QWORD PTR [rsp+32]
	mov	rcx, QWORD PTR this$[rbp]
	call	??1Shader@graphics@core@@QEAA@XZ	; core::graphics::Shader::~Shader
	mov	eax, DWORD PTR __flags$[rbp]
	and	eax, 1
	test	eax, eax
	je	SHORT $LN2@scalar
	mov	edx, 4
	mov	rcx, QWORD PTR this$[rbp]
	call	??3@YAXPEAX_K@Z				; operator delete
$LN2@scalar:
	mov	rax, QWORD PTR this$[rbp]
	lea	rsp, QWORD PTR [rbp+64]
	pop	rbp
	ret	0
??_GShader@graphics@core@@QEAAPEAXI@Z ENDP		; core::graphics::Shader::`scalar deleting destructor'
_TEXT	ENDS
; Function compile flags: /Odtp /RTCu /ZI
;	COMDAT ??_GIBO@buffers@core@@QEAAPEAXI@Z
_TEXT	SEGMENT
this$ = 80
__flags$ = 88
??_GIBO@buffers@core@@QEAAPEAXI@Z PROC			; core::buffers::IBO::`scalar deleting destructor', COMDAT
$LN4:
	mov	DWORD PTR [rsp+16], edx
	mov	QWORD PTR [rsp+8], rcx
	push	rbp
	sub	rsp, 96					; 00000060H
	lea	rbp, QWORD PTR [rsp+32]
	mov	rcx, QWORD PTR this$[rbp]
	call	??1IBO@buffers@core@@QEAA@XZ		; core::buffers::IBO::~IBO
	mov	eax, DWORD PTR __flags$[rbp]
	and	eax, 1
	test	eax, eax
	je	SHORT $LN2@scalar
	mov	edx, 8
	mov	rcx, QWORD PTR this$[rbp]
	call	??3@YAXPEAX_K@Z				; operator delete
$LN2@scalar:
	mov	rax, QWORD PTR this$[rbp]
	lea	rsp, QWORD PTR [rbp+64]
	pop	rbp
	ret	0
??_GIBO@buffers@core@@QEAAPEAXI@Z ENDP			; core::buffers::IBO::`scalar deleting destructor'
_TEXT	ENDS
; Function compile flags: /Odtp /RTCu /ZI
; File l:\dev\featherfallengine\featherfall_engine-core\src\buffers\ibo.h
;	COMDAT ?getCount@IBO@buffers@core@@QEBAHXZ
_TEXT	SEGMENT
this$ = 80
?getCount@IBO@buffers@core@@QEBAHXZ PROC		; core::buffers::IBO::getCount, COMDAT

; 22   : 		inline int getCount() const { return count; }

$LN3:
	mov	QWORD PTR [rsp+8], rcx
	push	rbp
	sub	rsp, 96					; 00000060H
	lea	rbp, QWORD PTR [rsp+32]
	lea	rcx, OFFSET FLAT:__29D2B671_ibo.h
	call	__CheckForDebuggerJustMyCode
	mov	rax, QWORD PTR this$[rbp]
	mov	eax, DWORD PTR [rax+4]
	lea	rsp, QWORD PTR [rbp+64]
	pop	rbp
	ret	0
?getCount@IBO@buffers@core@@QEBAHXZ ENDP		; core::buffers::IBO::getCount
_TEXT	ENDS
; Function compile flags: /Odtp /RTCu /ZI
;	COMDAT ??_GVAO@buffers@core@@QEAAPEAXI@Z
_TEXT	SEGMENT
this$ = 80
__flags$ = 88
??_GVAO@buffers@core@@QEAAPEAXI@Z PROC			; core::buffers::VAO::`scalar deleting destructor', COMDAT
$LN4:
	mov	DWORD PTR [rsp+16], edx
	mov	QWORD PTR [rsp+8], rcx
	push	rbp
	sub	rsp, 96					; 00000060H
	lea	rbp, QWORD PTR [rsp+32]
	mov	rcx, QWORD PTR this$[rbp]
	call	??1VAO@buffers@core@@QEAA@XZ		; core::buffers::VAO::~VAO
	mov	eax, DWORD PTR __flags$[rbp]
	and	eax, 1
	test	eax, eax
	je	SHORT $LN2@scalar
	mov	edx, 4
	mov	rcx, QWORD PTR this$[rbp]
	call	??3@YAXPEAX_K@Z				; operator delete
$LN2@scalar:
	mov	rax, QWORD PTR this$[rbp]
	lea	rsp, QWORD PTR [rbp+64]
	pop	rbp
	ret	0
??_GVAO@buffers@core@@QEAAPEAXI@Z ENDP			; core::buffers::VAO::`scalar deleting destructor'
_TEXT	ENDS
; Function compile flags: /Odtp /RTCu /ZI
;	COMDAT ??_GBufferLayout@buffers@core@@QEAAPEAXI@Z
_TEXT	SEGMENT
this$ = 80
__flags$ = 88
??_GBufferLayout@buffers@core@@QEAAPEAXI@Z PROC		; core::buffers::BufferLayout::`scalar deleting destructor', COMDAT
$LN4:
	mov	DWORD PTR [rsp+16], edx
	mov	QWORD PTR [rsp+8], rcx
	push	rbp
	sub	rsp, 96					; 00000060H
	lea	rbp, QWORD PTR [rsp+32]
	mov	rcx, QWORD PTR this$[rbp]
	call	??1BufferLayout@buffers@core@@QEAA@XZ
	mov	eax, DWORD PTR __flags$[rbp]
	and	eax, 1
	test	eax, eax
	je	SHORT $LN2@scalar
	mov	edx, 40					; 00000028H
	mov	rcx, QWORD PTR this$[rbp]
	call	??3@YAXPEAX_K@Z				; operator delete
$LN2@scalar:
	mov	rax, QWORD PTR this$[rbp]
	lea	rsp, QWORD PTR [rbp+64]
	pop	rbp
	ret	0
??_GBufferLayout@buffers@core@@QEAAPEAXI@Z ENDP		; core::buffers::BufferLayout::`scalar deleting destructor'
_TEXT	ENDS
; Function compile flags: /Odtp /RTCu /ZI
;	COMDAT ?__autoclassinit2@BufferLayout@buffers@core@@QEAAX_K@Z
_TEXT	SEGMENT
this$ = 96
classSize$ = 104
?__autoclassinit2@BufferLayout@buffers@core@@QEAAX_K@Z PROC ; core::buffers::BufferLayout::__autoclassinit2, COMDAT
$LN3:
	mov	QWORD PTR [rsp+16], rdx
	mov	QWORD PTR [rsp+8], rcx
	push	rbp
	push	rdi
	sub	rsp, 72					; 00000048H
	mov	rbp, rsp
	mov	rdi, QWORD PTR this$[rbp]
	xor	eax, eax
	mov	rcx, QWORD PTR classSize$[rbp]
	rep stosb
	lea	rsp, QWORD PTR [rbp+72]
	pop	rdi
	pop	rbp
	ret	0
?__autoclassinit2@BufferLayout@buffers@core@@QEAAX_K@Z ENDP ; core::buffers::BufferLayout::__autoclassinit2
_TEXT	ENDS
; Function compile flags: /Odtp /RTCu /ZI
;	COMDAT ??1BufferLayout@buffers@core@@QEAA@XZ
_TEXT	SEGMENT
this$ = 80
??1BufferLayout@buffers@core@@QEAA@XZ PROC		; core::buffers::BufferLayout::~BufferLayout, COMDAT
$LN3:
	mov	QWORD PTR [rsp+8], rcx
	push	rbp
	sub	rsp, 96					; 00000060H
	lea	rbp, QWORD PTR [rsp+32]
	mov	rax, QWORD PTR this$[rbp]
	mov	rcx, rax
	call	??1?$vector@UBufferElement@buffers@core@@V?$allocator@UBufferElement@buffers@core@@@std@@@std@@QEAA@XZ ; std::vector<core::buffers::BufferElement,std::allocator<core::buffers::BufferElement> >::~vector<core::buffers::BufferElement,std::allocator<core::buffers::BufferElement> >
	lea	rsp, QWORD PTR [rbp+64]
	pop	rbp
	ret	0
??1BufferLayout@buffers@core@@QEAA@XZ ENDP		; core::buffers::BufferLayout::~BufferLayout
_TEXT	ENDS
; Function compile flags: /Odtp /RTCu /ZI
; File l:\dev\featherfallengine\featherfall_engine-core\src\buffers\bufferlayout.h
;	COMDAT ??$push@M@BufferLayout@buffers@core@@QEAAXI@Z
_TEXT	SEGMENT
$T1 = 64
this$ = 96
count$ = 104
??$push@M@BufferLayout@buffers@core@@QEAAXI@Z PROC	; core::buffers::BufferLayout::push<float>, COMDAT

; 59   : 		{

$LN3:
	mov	DWORD PTR [rsp+16], edx
	mov	QWORD PTR [rsp+8], rcx
	push	rbp
	sub	rsp, 112				; 00000070H
	lea	rbp, QWORD PTR [rsp+32]
	lea	rcx, OFFSET FLAT:__6DC649C7_bufferlayout.h
	call	__CheckForDebuggerJustMyCode

; 60   : 			elements.push_back({ GL_FLOAT, count, GL_FALSE }); 

	mov	DWORD PTR $T1[rbp], 5126		; 00001406H
	mov	eax, DWORD PTR count$[rbp]
	mov	DWORD PTR $T1[rbp+4], eax
	mov	DWORD PTR $T1[rbp+8], 0
	mov	rax, QWORD PTR this$[rbp]
	lea	rdx, QWORD PTR $T1[rbp]
	mov	rcx, rax
	call	?push_back@?$vector@UBufferElement@buffers@core@@V?$allocator@UBufferElement@buffers@core@@@std@@@std@@QEAAX$$QEAUBufferElement@buffers@core@@@Z ; std::vector<core::buffers::BufferElement,std::allocator<core::buffers::BufferElement> >::push_back

; 61   : 			stride += count * GLsizeof(GL_FLOAT);

	mov	ecx, 5126				; 00001406H
	call	?SizeOfType@BufferElement@buffers@core@@SAII@Z ; core::buffers::BufferElement::SizeOfType
	mov	ecx, DWORD PTR count$[rbp]
	imul	ecx, eax
	mov	eax, ecx
	mov	rcx, QWORD PTR this$[rbp]
	add	eax, DWORD PTR [rcx+32]
	mov	rcx, QWORD PTR this$[rbp]
	mov	DWORD PTR [rcx+32], eax

; 62   : 		}

	lea	rsp, QWORD PTR [rbp+80]
	pop	rbp
	ret	0
??$push@M@BufferLayout@buffers@core@@QEAAXI@Z ENDP	; core::buffers::BufferLayout::push<float>
_TEXT	ENDS
; Function compile flags: /Odtp /RTCu /ZI
; File l:\dev\featherfallengine\featherfall_engine-core\src\buffers\bufferlayout.h
;	COMDAT ??0BufferLayout@buffers@core@@QEAA@XZ
_TEXT	SEGMENT
this$ = 80
??0BufferLayout@buffers@core@@QEAA@XZ PROC		; core::buffers::BufferLayout::BufferLayout, COMDAT

; 45   : 		{

$LN4:
	mov	QWORD PTR [rsp+8], rcx
	push	rbp
	sub	rsp, 96					; 00000060H
	lea	rbp, QWORD PTR [rsp+32]
	lea	rcx, OFFSET FLAT:__6DC649C7_bufferlayout.h
	call	__CheckForDebuggerJustMyCode
	mov	rax, QWORD PTR this$[rbp]
	mov	rcx, rax
	call	??0?$vector@UBufferElement@buffers@core@@V?$allocator@UBufferElement@buffers@core@@@std@@@std@@QEAA@XZ ; std::vector<core::buffers::BufferElement,std::allocator<core::buffers::BufferElement> >::vector<core::buffers::BufferElement,std::allocator<core::buffers::BufferElement> >

; 44   : 			: stride(0)

	mov	rax, QWORD PTR this$[rbp]
	mov	DWORD PTR [rax+32], 0

; 46   : 		}

	mov	rax, QWORD PTR this$[rbp]
	lea	rsp, QWORD PTR [rbp+64]
	pop	rbp
	ret	0
??0BufferLayout@buffers@core@@QEAA@XZ ENDP		; core::buffers::BufferLayout::BufferLayout
_TEXT	ENDS
; Function compile flags: /Odtp /RTCu /ZI
; File c:\program files (x86)\microsoft visual studio\2017\enterprise\vc\tools\msvc\14.15.26726\include\vector
;	COMDAT ?_Orphan_range@?$vector@UBufferElement@buffers@core@@V?$allocator@UBufferElement@buffers@core@@@std@@@std@@AEBAXPEAUBufferElement@buffers@core@@0@Z
_TEXT	SEGMENT
_Lock$ = 0
_Pnext$ = 8
$T1 = 80
__$ArrayPad$ = 88
this$ = 112
_First$ = 120
_Last$ = 128
?_Orphan_range@?$vector@UBufferElement@buffers@core@@V?$allocator@UBufferElement@buffers@core@@@std@@@std@@AEBAXPEAUBufferElement@buffers@core@@0@Z PROC ; std::vector<core::buffers::BufferElement,std::allocator<core::buffers::BufferElement> >::_Orphan_range, COMDAT

; 1936 : 		{	// orphan iterators within specified (inclusive) range

$LN10:
	mov	QWORD PTR [rsp+24], r8
	mov	QWORD PTR [rsp+16], rdx
	mov	QWORD PTR [rsp+8], rcx
	push	rbp
	sub	rsp, 128				; 00000080H
	lea	rbp, QWORD PTR [rsp+32]
	mov	QWORD PTR $T1[rbp], -2
	mov	rax, QWORD PTR __security_cookie
	xor	rax, rbp
	mov	QWORD PTR __$ArrayPad$[rbp], rax
	lea	rcx, OFFSET FLAT:__327B7881_vector
	call	__CheckForDebuggerJustMyCode

; 1937 : 		_Lockit _Lock(_LOCK_DEBUG);

	mov	edx, 3
	lea	rcx, QWORD PTR _Lock$[rbp]
	call	QWORD PTR __imp_??0_Lockit@std@@QEAA@H@Z
	npad	1

; 1938 : 
; 1939 : 		const_iterator ** _Pnext = reinterpret_cast<const_iterator **>(this->_Getpfirst());

	mov	rcx, QWORD PTR this$[rbp]
	call	?_Getpfirst@?$_Vector_alloc@U?$_Vec_base_types@UBufferElement@buffers@core@@V?$allocator@UBufferElement@buffers@core@@@std@@@std@@@std@@QEBAPEAPEAU_Iterator_base12@2@XZ ; std::_Vector_alloc<std::_Vec_base_types<core::buffers::BufferElement,std::allocator<core::buffers::BufferElement> > >::_Getpfirst
	mov	QWORD PTR _Pnext$[rbp], rax

; 1940 : 
; 1941 : 		if (_Pnext)

	cmp	QWORD PTR _Pnext$[rbp], 0
	je	SHORT $LN4@Orphan_ran
$LN2@Orphan_ran:

; 1942 : 			{
; 1943 : 			while (*_Pnext)

	mov	rax, QWORD PTR _Pnext$[rbp]
	cmp	QWORD PTR [rax], 0
	je	SHORT $LN4@Orphan_ran

; 1944 : 				{
; 1945 : 				if ((*_Pnext)->_Ptr < _First || _Last < (*_Pnext)->_Ptr)

	mov	rax, QWORD PTR _Pnext$[rbp]
	mov	rax, QWORD PTR [rax]
	mov	rcx, QWORD PTR _First$[rbp]
	cmp	QWORD PTR [rax+16], rcx
	jb	SHORT $LN7@Orphan_ran
	mov	rax, QWORD PTR _Pnext$[rbp]
	mov	rax, QWORD PTR [rax]
	mov	rax, QWORD PTR [rax+16]
	cmp	QWORD PTR _Last$[rbp], rax
	jae	SHORT $LN5@Orphan_ran
$LN7@Orphan_ran:

; 1946 : 					{	// skip the iterator
; 1947 : 					_Pnext = reinterpret_cast<const_iterator **>((*_Pnext)->_Getpnext());

	mov	rax, QWORD PTR _Pnext$[rbp]
	mov	rcx, QWORD PTR [rax]
	call	?_Getpnext@_Iterator_base12@std@@QEAAPEAPEAU12@XZ ; std::_Iterator_base12::_Getpnext
	mov	QWORD PTR _Pnext$[rbp], rax

; 1948 : 					}
; 1949 : 				else

	jmp	SHORT $LN6@Orphan_ran
$LN5@Orphan_ran:

; 1950 : 					{	// orphan the iterator
; 1951 : 					(*_Pnext)->_Clrcont();

	mov	rax, QWORD PTR _Pnext$[rbp]
	mov	rcx, QWORD PTR [rax]
	call	?_Clrcont@_Iterator_base12@std@@QEAAXXZ	; std::_Iterator_base12::_Clrcont

; 1952 : 					*_Pnext = *reinterpret_cast<const_iterator **>((*_Pnext)->_Getpnext());

	mov	rax, QWORD PTR _Pnext$[rbp]
	mov	rcx, QWORD PTR [rax]
	call	?_Getpnext@_Iterator_base12@std@@QEAAPEAPEAU12@XZ ; std::_Iterator_base12::_Getpnext
	mov	rcx, QWORD PTR _Pnext$[rbp]
	mov	rax, QWORD PTR [rax]
	mov	QWORD PTR [rcx], rax
$LN6@Orphan_ran:

; 1953 : 					}
; 1954 : 				}

	jmp	SHORT $LN2@Orphan_ran
$LN4@Orphan_ran:

; 1955 : 			}
; 1956 : 		}

	lea	rcx, QWORD PTR _Lock$[rbp]
	call	QWORD PTR __imp_??1_Lockit@std@@QEAA@XZ
	mov	rcx, QWORD PTR __$ArrayPad$[rbp]
	xor	rcx, rbp
	call	__security_check_cookie
	lea	rsp, QWORD PTR [rbp+96]
	pop	rbp
	ret	0
?_Orphan_range@?$vector@UBufferElement@buffers@core@@V?$allocator@UBufferElement@buffers@core@@@std@@@std@@AEBAXPEAUBufferElement@buffers@core@@0@Z ENDP ; std::vector<core::buffers::BufferElement,std::allocator<core::buffers::BufferElement> >::_Orphan_range
_TEXT	ENDS
;	COMDAT text$x
text$x	SEGMENT
_Lock$ = 0
_Pnext$ = 8
$T1 = 80
__$ArrayPad$ = 88
this$ = 112
_First$ = 120
_Last$ = 128
?dtor$0@?0??_Orphan_range@?$vector@UBufferElement@buffers@core@@V?$allocator@UBufferElement@buffers@core@@@std@@@std@@AEBAXPEAUBufferElement@buffers@core@@0@Z@4HA PROC ; `std::vector<core::buffers::BufferElement,std::allocator<core::buffers::BufferElement> >::_Orphan_range'::`1'::dtor$0
	push	rbp
	sub	rsp, 32					; 00000020H
	lea	rbp, QWORD PTR [rdx+32]
	lea	rcx, QWORD PTR _Lock$[rbp]
	call	QWORD PTR __imp_??1_Lockit@std@@QEAA@XZ
	add	rsp, 32					; 00000020H
	pop	rbp
	ret	0
?dtor$0@?0??_Orphan_range@?$vector@UBufferElement@buffers@core@@V?$allocator@UBufferElement@buffers@core@@@std@@@std@@AEBAXPEAUBufferElement@buffers@core@@0@Z@4HA ENDP ; `std::vector<core::buffers::BufferElement,std::allocator<core::buffers::BufferElement> >::_Orphan_range'::`1'::dtor$0
text$x	ENDS
; Function compile flags: /Odtp /RTCu /ZI
;	COMDAT text$x
text$x	SEGMENT
_Lock$ = 0
_Pnext$ = 8
$T1 = 80
__$ArrayPad$ = 88
this$ = 112
_First$ = 120
_Last$ = 128
?dtor$0@?0??_Orphan_range@?$vector@UBufferElement@buffers@core@@V?$allocator@UBufferElement@buffers@core@@@std@@@std@@AEBAXPEAUBufferElement@buffers@core@@0@Z@4HA PROC ; `std::vector<core::buffers::BufferElement,std::allocator<core::buffers::BufferElement> >::_Orphan_range'::`1'::dtor$0
	push	rbp
	sub	rsp, 32					; 00000020H
	lea	rbp, QWORD PTR [rdx+32]
	lea	rcx, QWORD PTR _Lock$[rbp]
	call	QWORD PTR __imp_??1_Lockit@std@@QEAA@XZ
	add	rsp, 32					; 00000020H
	pop	rbp
	ret	0
?dtor$0@?0??_Orphan_range@?$vector@UBufferElement@buffers@core@@V?$allocator@UBufferElement@buffers@core@@@std@@@std@@AEBAXPEAUBufferElement@buffers@core@@0@Z@4HA ENDP ; `std::vector<core::buffers::BufferElement,std::allocator<core::buffers::BufferElement> >::_Orphan_range'::`1'::dtor$0
text$x	ENDS
; Function compile flags: /Odtp /RTCu /ZI
; File c:\program files (x86)\microsoft visual studio\2017\enterprise\vc\tools\msvc\14.15.26726\include\vector
;	COMDAT ?_Xlength@?$vector@UBufferElement@buffers@core@@V?$allocator@UBufferElement@buffers@core@@@std@@@std@@CAXXZ
_TEXT	SEGMENT
?_Xlength@?$vector@UBufferElement@buffers@core@@V?$allocator@UBufferElement@buffers@core@@@std@@@std@@CAXXZ PROC ; std::vector<core::buffers::BufferElement,std::allocator<core::buffers::BufferElement> >::_Xlength, COMDAT

; 1925 : 		{	// report a length_error

$LN3:
	push	rbp
	sub	rsp, 96					; 00000060H
	lea	rbp, QWORD PTR [rsp+32]
	lea	rcx, OFFSET FLAT:__327B7881_vector
	call	__CheckForDebuggerJustMyCode

; 1926 : 		_Xlength_error("vector<T> too long");

	lea	rcx, OFFSET FLAT:??_C@_0BD@OLBABOEK@vector?$DMT?$DO?5too?5long@
	call	?_Xlength_error@std@@YAXPEBD@Z		; std::_Xlength_error
$LN2@Xlength:

; 1927 : 		}

	lea	rsp, QWORD PTR [rbp+64]
	pop	rbp
	ret	0
?_Xlength@?$vector@UBufferElement@buffers@core@@V?$allocator@UBufferElement@buffers@core@@@std@@@std@@CAXXZ ENDP ; std::vector<core::buffers::BufferElement,std::allocator<core::buffers::BufferElement> >::_Xlength
_TEXT	ENDS
; Function compile flags: /Odtp /RTCu /ZI
; File c:\program files (x86)\microsoft visual studio\2017\enterprise\vc\tools\msvc\14.15.26726\include\vector
;	COMDAT ?_Tidy@?$vector@UBufferElement@buffers@core@@V?$allocator@UBufferElement@buffers@core@@@std@@@std@@AEAAXXZ
_TEXT	SEGMENT
tv131 = 64
tv82 = 64
tv138 = 72
this$ = 96
?_Tidy@?$vector@UBufferElement@buffers@core@@V?$allocator@UBufferElement@buffers@core@@@std@@@std@@AEAAXXZ PROC ; std::vector<core::buffers::BufferElement,std::allocator<core::buffers::BufferElement> >::_Tidy, COMDAT

; 1910 : 		{	// free all storage

$LN4:
	mov	QWORD PTR [rsp+8], rcx
	push	rbp
	sub	rsp, 112				; 00000070H
	lea	rbp, QWORD PTR [rsp+32]
	lea	rcx, OFFSET FLAT:__327B7881_vector
	call	__CheckForDebuggerJustMyCode

; 1911 : 		this->_Orphan_all();

	mov	rcx, QWORD PTR this$[rbp]
	call	?_Orphan_all@?$_Vector_alloc@U?$_Vec_base_types@UBufferElement@buffers@core@@V?$allocator@UBufferElement@buffers@core@@@std@@@std@@@std@@QEAAXXZ ; std::_Vector_alloc<std::_Vec_base_types<core::buffers::BufferElement,std::allocator<core::buffers::BufferElement> > >::_Orphan_all

; 1912 : 
; 1913 : 		if (this->_Myfirst() != pointer())

	mov	rcx, QWORD PTR this$[rbp]
	call	?_Myfirst@?$_Vector_alloc@U?$_Vec_base_types@UBufferElement@buffers@core@@V?$allocator@UBufferElement@buffers@core@@@std@@@std@@@std@@QEAAAEAPEAUBufferElement@buffers@core@@XZ ; std::_Vector_alloc<std::_Vec_base_types<core::buffers::BufferElement,std::allocator<core::buffers::BufferElement> > >::_Myfirst
	cmp	QWORD PTR [rax], 0
	je	$LN2@Tidy

; 1914 : 			{	// destroy and deallocate old array
; 1915 : 			_Destroy(this->_Myfirst(), this->_Mylast());

	mov	rcx, QWORD PTR this$[rbp]
	call	?_Mylast@?$_Vector_alloc@U?$_Vec_base_types@UBufferElement@buffers@core@@V?$allocator@UBufferElement@buffers@core@@@std@@@std@@@std@@QEAAAEAPEAUBufferElement@buffers@core@@XZ ; std::_Vector_alloc<std::_Vec_base_types<core::buffers::BufferElement,std::allocator<core::buffers::BufferElement> > >::_Mylast
	mov	QWORD PTR tv82[rbp], rax
	mov	rcx, QWORD PTR this$[rbp]
	call	?_Myfirst@?$_Vector_alloc@U?$_Vec_base_types@UBufferElement@buffers@core@@V?$allocator@UBufferElement@buffers@core@@@std@@@std@@@std@@QEAAAEAPEAUBufferElement@buffers@core@@XZ ; std::_Vector_alloc<std::_Vec_base_types<core::buffers::BufferElement,std::allocator<core::buffers::BufferElement> > >::_Myfirst
	mov	rcx, QWORD PTR tv82[rbp]
	mov	r8, QWORD PTR [rcx]
	mov	rdx, QWORD PTR [rax]
	mov	rcx, QWORD PTR this$[rbp]
	call	?_Destroy@?$vector@UBufferElement@buffers@core@@V?$allocator@UBufferElement@buffers@core@@@std@@@std@@AEAAXPEAUBufferElement@buffers@core@@0@Z ; std::vector<core::buffers::BufferElement,std::allocator<core::buffers::BufferElement> >::_Destroy

; 1916 : 			this->_Getal().deallocate(this->_Myfirst(), capacity());

	mov	rcx, QWORD PTR this$[rbp]
	call	?capacity@?$vector@UBufferElement@buffers@core@@V?$allocator@UBufferElement@buffers@core@@@std@@@std@@QEBA_KXZ ; std::vector<core::buffers::BufferElement,std::allocator<core::buffers::BufferElement> >::capacity
	mov	QWORD PTR tv131[rbp], rax
	mov	rcx, QWORD PTR this$[rbp]
	call	?_Myfirst@?$_Vector_alloc@U?$_Vec_base_types@UBufferElement@buffers@core@@V?$allocator@UBufferElement@buffers@core@@@std@@@std@@@std@@QEAAAEAPEAUBufferElement@buffers@core@@XZ ; std::_Vector_alloc<std::_Vec_base_types<core::buffers::BufferElement,std::allocator<core::buffers::BufferElement> > >::_Myfirst
	mov	QWORD PTR tv138[rbp], rax
	mov	rcx, QWORD PTR this$[rbp]
	call	?_Getal@?$_Vector_alloc@U?$_Vec_base_types@UBufferElement@buffers@core@@V?$allocator@UBufferElement@buffers@core@@@std@@@std@@@std@@QEAAAEAV?$allocator@UBufferElement@buffers@core@@@2@XZ ; std::_Vector_alloc<std::_Vec_base_types<core::buffers::BufferElement,std::allocator<core::buffers::BufferElement> > >::_Getal
	mov	rcx, QWORD PTR tv131[rbp]
	mov	r8, rcx
	mov	rcx, QWORD PTR tv138[rbp]
	mov	rdx, QWORD PTR [rcx]
	mov	rcx, rax
	call	?deallocate@?$allocator@UBufferElement@buffers@core@@@std@@QEAAXQEAUBufferElement@buffers@core@@_K@Z ; std::allocator<core::buffers::BufferElement>::deallocate

; 1917 : 
; 1918 : 			this->_Myfirst() = pointer();

	mov	rcx, QWORD PTR this$[rbp]
	call	?_Myfirst@?$_Vector_alloc@U?$_Vec_base_types@UBufferElement@buffers@core@@V?$allocator@UBufferElement@buffers@core@@@std@@@std@@@std@@QEAAAEAPEAUBufferElement@buffers@core@@XZ ; std::_Vector_alloc<std::_Vec_base_types<core::buffers::BufferElement,std::allocator<core::buffers::BufferElement> > >::_Myfirst
	mov	QWORD PTR [rax], 0

; 1919 : 			this->_Mylast() = pointer();

	mov	rcx, QWORD PTR this$[rbp]
	call	?_Mylast@?$_Vector_alloc@U?$_Vec_base_types@UBufferElement@buffers@core@@V?$allocator@UBufferElement@buffers@core@@@std@@@std@@@std@@QEAAAEAPEAUBufferElement@buffers@core@@XZ ; std::_Vector_alloc<std::_Vec_base_types<core::buffers::BufferElement,std::allocator<core::buffers::BufferElement> > >::_Mylast
	mov	QWORD PTR [rax], 0

; 1920 : 			this->_Myend() = pointer();

	mov	rcx, QWORD PTR this$[rbp]
	call	?_Myend@?$_Vector_alloc@U?$_Vec_base_types@UBufferElement@buffers@core@@V?$allocator@UBufferElement@buffers@core@@@std@@@std@@@std@@QEAAAEAPEAUBufferElement@buffers@core@@XZ ; std::_Vector_alloc<std::_Vec_base_types<core::buffers::BufferElement,std::allocator<core::buffers::BufferElement> > >::_Myend
	mov	QWORD PTR [rax], 0
$LN2@Tidy:

; 1921 : 			}
; 1922 : 		}

	lea	rsp, QWORD PTR [rbp+80]
	pop	rbp
	ret	0
?_Tidy@?$vector@UBufferElement@buffers@core@@V?$allocator@UBufferElement@buffers@core@@@std@@@std@@AEAAXXZ ENDP ; std::vector<core::buffers::BufferElement,std::allocator<core::buffers::BufferElement> >::_Tidy
_TEXT	ENDS
; Function compile flags: /Odtp /RTCu /ZI
; File c:\program files (x86)\microsoft visual studio\2017\enterprise\vc\tools\msvc\14.15.26726\include\vector
;	COMDAT ?_Change_array@?$vector@UBufferElement@buffers@core@@V?$allocator@UBufferElement@buffers@core@@@std@@@std@@AEAAXQEAUBufferElement@buffers@core@@_K1@Z
_TEXT	SEGMENT
tv161 = 64
tv153 = 64
tv131 = 64
tv82 = 64
tv138 = 72
this$ = 96
_Newvec$ = 104
_Newsize$ = 112
_Newcapacity$ = 120
?_Change_array@?$vector@UBufferElement@buffers@core@@V?$allocator@UBufferElement@buffers@core@@@std@@@std@@AEAAXQEAUBufferElement@buffers@core@@_K1@Z PROC ; std::vector<core::buffers::BufferElement,std::allocator<core::buffers::BufferElement> >::_Change_array, COMDAT

; 1895 : 		{	// orphan all iterators, discard old array, acquire new array

$LN4:
	mov	QWORD PTR [rsp+32], r9
	mov	QWORD PTR [rsp+24], r8
	mov	QWORD PTR [rsp+16], rdx
	mov	QWORD PTR [rsp+8], rcx
	push	rbp
	sub	rsp, 112				; 00000070H
	lea	rbp, QWORD PTR [rsp+32]
	lea	rcx, OFFSET FLAT:__327B7881_vector
	call	__CheckForDebuggerJustMyCode

; 1896 : 		this->_Orphan_all();

	mov	rcx, QWORD PTR this$[rbp]
	call	?_Orphan_all@?$_Vector_alloc@U?$_Vec_base_types@UBufferElement@buffers@core@@V?$allocator@UBufferElement@buffers@core@@@std@@@std@@@std@@QEAAXXZ ; std::_Vector_alloc<std::_Vec_base_types<core::buffers::BufferElement,std::allocator<core::buffers::BufferElement> > >::_Orphan_all

; 1897 : 
; 1898 : 		if (this->_Myfirst() != pointer())

	mov	rcx, QWORD PTR this$[rbp]
	call	?_Myfirst@?$_Vector_alloc@U?$_Vec_base_types@UBufferElement@buffers@core@@V?$allocator@UBufferElement@buffers@core@@@std@@@std@@@std@@QEAAAEAPEAUBufferElement@buffers@core@@XZ ; std::_Vector_alloc<std::_Vec_base_types<core::buffers::BufferElement,std::allocator<core::buffers::BufferElement> > >::_Myfirst
	cmp	QWORD PTR [rax], 0
	je	SHORT $LN2@Change_arr

; 1899 : 			{	// destroy and deallocate old array
; 1900 : 			_Destroy(this->_Myfirst(), this->_Mylast());

	mov	rcx, QWORD PTR this$[rbp]
	call	?_Mylast@?$_Vector_alloc@U?$_Vec_base_types@UBufferElement@buffers@core@@V?$allocator@UBufferElement@buffers@core@@@std@@@std@@@std@@QEAAAEAPEAUBufferElement@buffers@core@@XZ ; std::_Vector_alloc<std::_Vec_base_types<core::buffers::BufferElement,std::allocator<core::buffers::BufferElement> > >::_Mylast
	mov	QWORD PTR tv82[rbp], rax
	mov	rcx, QWORD PTR this$[rbp]
	call	?_Myfirst@?$_Vector_alloc@U?$_Vec_base_types@UBufferElement@buffers@core@@V?$allocator@UBufferElement@buffers@core@@@std@@@std@@@std@@QEAAAEAPEAUBufferElement@buffers@core@@XZ ; std::_Vector_alloc<std::_Vec_base_types<core::buffers::BufferElement,std::allocator<core::buffers::BufferElement> > >::_Myfirst
	mov	rcx, QWORD PTR tv82[rbp]
	mov	r8, QWORD PTR [rcx]
	mov	rdx, QWORD PTR [rax]
	mov	rcx, QWORD PTR this$[rbp]
	call	?_Destroy@?$vector@UBufferElement@buffers@core@@V?$allocator@UBufferElement@buffers@core@@@std@@@std@@AEAAXPEAUBufferElement@buffers@core@@0@Z ; std::vector<core::buffers::BufferElement,std::allocator<core::buffers::BufferElement> >::_Destroy

; 1901 : 			this->_Getal().deallocate(this->_Myfirst(), capacity());

	mov	rcx, QWORD PTR this$[rbp]
	call	?capacity@?$vector@UBufferElement@buffers@core@@V?$allocator@UBufferElement@buffers@core@@@std@@@std@@QEBA_KXZ ; std::vector<core::buffers::BufferElement,std::allocator<core::buffers::BufferElement> >::capacity
	mov	QWORD PTR tv131[rbp], rax
	mov	rcx, QWORD PTR this$[rbp]
	call	?_Myfirst@?$_Vector_alloc@U?$_Vec_base_types@UBufferElement@buffers@core@@V?$allocator@UBufferElement@buffers@core@@@std@@@std@@@std@@QEAAAEAPEAUBufferElement@buffers@core@@XZ ; std::_Vector_alloc<std::_Vec_base_types<core::buffers::BufferElement,std::allocator<core::buffers::BufferElement> > >::_Myfirst
	mov	QWORD PTR tv138[rbp], rax
	mov	rcx, QWORD PTR this$[rbp]
	call	?_Getal@?$_Vector_alloc@U?$_Vec_base_types@UBufferElement@buffers@core@@V?$allocator@UBufferElement@buffers@core@@@std@@@std@@@std@@QEAAAEAV?$allocator@UBufferElement@buffers@core@@@2@XZ ; std::_Vector_alloc<std::_Vec_base_types<core::buffers::BufferElement,std::allocator<core::buffers::BufferElement> > >::_Getal
	mov	rcx, QWORD PTR tv131[rbp]
	mov	r8, rcx
	mov	rcx, QWORD PTR tv138[rbp]
	mov	rdx, QWORD PTR [rcx]
	mov	rcx, rax
	call	?deallocate@?$allocator@UBufferElement@buffers@core@@@std@@QEAAXQEAUBufferElement@buffers@core@@_K@Z ; std::allocator<core::buffers::BufferElement>::deallocate
$LN2@Change_arr:

; 1902 : 			}
; 1903 : 
; 1904 : 		this->_Myfirst() = _Newvec;

	mov	rcx, QWORD PTR this$[rbp]
	call	?_Myfirst@?$_Vector_alloc@U?$_Vec_base_types@UBufferElement@buffers@core@@V?$allocator@UBufferElement@buffers@core@@@std@@@std@@@std@@QEAAAEAPEAUBufferElement@buffers@core@@XZ ; std::_Vector_alloc<std::_Vec_base_types<core::buffers::BufferElement,std::allocator<core::buffers::BufferElement> > >::_Myfirst
	mov	rcx, QWORD PTR _Newvec$[rbp]
	mov	QWORD PTR [rax], rcx

; 1905 : 		this->_Mylast() = _Newvec + _Newsize;

	imul	rax, QWORD PTR _Newsize$[rbp], 12
	mov	rcx, QWORD PTR _Newvec$[rbp]
	add	rcx, rax
	mov	rax, rcx
	mov	QWORD PTR tv153[rbp], rax
	mov	rcx, QWORD PTR this$[rbp]
	call	?_Mylast@?$_Vector_alloc@U?$_Vec_base_types@UBufferElement@buffers@core@@V?$allocator@UBufferElement@buffers@core@@@std@@@std@@@std@@QEAAAEAPEAUBufferElement@buffers@core@@XZ ; std::_Vector_alloc<std::_Vec_base_types<core::buffers::BufferElement,std::allocator<core::buffers::BufferElement> > >::_Mylast
	mov	rcx, QWORD PTR tv153[rbp]
	mov	QWORD PTR [rax], rcx

; 1906 : 		this->_Myend() = _Newvec + _Newcapacity;

	imul	rax, QWORD PTR _Newcapacity$[rbp], 12
	mov	rcx, QWORD PTR _Newvec$[rbp]
	add	rcx, rax
	mov	rax, rcx
	mov	QWORD PTR tv161[rbp], rax
	mov	rcx, QWORD PTR this$[rbp]
	call	?_Myend@?$_Vector_alloc@U?$_Vec_base_types@UBufferElement@buffers@core@@V?$allocator@UBufferElement@buffers@core@@@std@@@std@@@std@@QEAAAEAPEAUBufferElement@buffers@core@@XZ ; std::_Vector_alloc<std::_Vec_base_types<core::buffers::BufferElement,std::allocator<core::buffers::BufferElement> > >::_Myend
	mov	rcx, QWORD PTR tv161[rbp]
	mov	QWORD PTR [rax], rcx

; 1907 : 		}

	lea	rsp, QWORD PTR [rbp+80]
	pop	rbp
	ret	0
?_Change_array@?$vector@UBufferElement@buffers@core@@V?$allocator@UBufferElement@buffers@core@@@std@@@std@@AEAAXQEAUBufferElement@buffers@core@@_K1@Z ENDP ; std::vector<core::buffers::BufferElement,std::allocator<core::buffers::BufferElement> >::_Change_array
_TEXT	ENDS
; Function compile flags: /Odtp /RTCu /ZI
; File c:\program files (x86)\microsoft visual studio\2017\enterprise\vc\tools\msvc\14.15.26726\include\vector
;	COMDAT ?_Calculate_growth@?$vector@UBufferElement@buffers@core@@V?$allocator@UBufferElement@buffers@core@@@std@@@std@@AEBA_K_K@Z
_TEXT	SEGMENT
_Oldcapacity$ = 0
_Geometric$ = 8
tv67 = 80
this$ = 112
_Newsize$ = 120
?_Calculate_growth@?$vector@UBufferElement@buffers@core@@V?$allocator@UBufferElement@buffers@core@@@std@@@std@@AEBA_K_K@Z PROC ; std::vector<core::buffers::BufferElement,std::allocator<core::buffers::BufferElement> >::_Calculate_growth, COMDAT

; 1853 : 		{	// given _Oldcapacity and _Newsize, calculate geometric growth

$LN5:
	mov	QWORD PTR [rsp+16], rdx
	mov	QWORD PTR [rsp+8], rcx
	push	rbp
	sub	rsp, 128				; 00000080H
	lea	rbp, QWORD PTR [rsp+32]
	lea	rcx, OFFSET FLAT:__327B7881_vector
	call	__CheckForDebuggerJustMyCode

; 1854 : 		const size_type _Oldcapacity = capacity();

	mov	rcx, QWORD PTR this$[rbp]
	call	?capacity@?$vector@UBufferElement@buffers@core@@V?$allocator@UBufferElement@buffers@core@@@std@@@std@@QEBA_KXZ ; std::vector<core::buffers::BufferElement,std::allocator<core::buffers::BufferElement> >::capacity
	mov	QWORD PTR _Oldcapacity$[rbp], rax

; 1855 : 
; 1856 : 		if (_Oldcapacity > max_size() - _Oldcapacity / 2)

	mov	rcx, QWORD PTR this$[rbp]
	call	?max_size@?$vector@UBufferElement@buffers@core@@V?$allocator@UBufferElement@buffers@core@@@std@@@std@@QEBA_KXZ ; std::vector<core::buffers::BufferElement,std::allocator<core::buffers::BufferElement> >::max_size
	mov	QWORD PTR tv67[rbp], rax
	xor	edx, edx
	mov	rax, QWORD PTR _Oldcapacity$[rbp]
	mov	ecx, 2
	div	rcx
	mov	rcx, QWORD PTR tv67[rbp]
	sub	rcx, rax
	mov	rax, rcx
	cmp	QWORD PTR _Oldcapacity$[rbp], rax
	jbe	SHORT $LN2@Calculate_

; 1857 : 			{
; 1858 : 			return (_Newsize);	// geometric growth would overflow

	mov	rax, QWORD PTR _Newsize$[rbp]
	jmp	SHORT $LN1@Calculate_
$LN2@Calculate_:

; 1859 : 			}
; 1860 : 
; 1861 : 		const size_type _Geometric = _Oldcapacity + _Oldcapacity / 2;

	xor	edx, edx
	mov	rax, QWORD PTR _Oldcapacity$[rbp]
	mov	ecx, 2
	div	rcx
	mov	rcx, QWORD PTR _Oldcapacity$[rbp]
	add	rcx, rax
	mov	rax, rcx
	mov	QWORD PTR _Geometric$[rbp], rax

; 1862 : 
; 1863 : 		if (_Geometric < _Newsize)

	mov	rax, QWORD PTR _Newsize$[rbp]
	cmp	QWORD PTR _Geometric$[rbp], rax
	jae	SHORT $LN3@Calculate_

; 1864 : 			{
; 1865 : 			return (_Newsize);	// geometric growth would be insufficient

	mov	rax, QWORD PTR _Newsize$[rbp]
	jmp	SHORT $LN1@Calculate_
$LN3@Calculate_:

; 1866 : 			}
; 1867 : 
; 1868 : 		return (_Geometric);	// geometric growth is sufficient

	mov	rax, QWORD PTR _Geometric$[rbp]
$LN1@Calculate_:

; 1869 : 		}

	lea	rsp, QWORD PTR [rbp+96]
	pop	rbp
	ret	0
?_Calculate_growth@?$vector@UBufferElement@buffers@core@@V?$allocator@UBufferElement@buffers@core@@@std@@@std@@AEBA_K_K@Z ENDP ; std::vector<core::buffers::BufferElement,std::allocator<core::buffers::BufferElement> >::_Calculate_growth
_TEXT	ENDS
; Function compile flags: /Odtp /RTCu /ZI
; File c:\program files (x86)\microsoft visual studio\2017\enterprise\vc\tools\msvc\14.15.26726\include\vector
;	COMDAT ?_Destroy@?$vector@UBufferElement@buffers@core@@V?$allocator@UBufferElement@buffers@core@@@std@@@std@@AEAAXPEAUBufferElement@buffers@core@@0@Z
_TEXT	SEGMENT
this$ = 80
_First$ = 88
_Last$ = 96
?_Destroy@?$vector@UBufferElement@buffers@core@@V?$allocator@UBufferElement@buffers@core@@@std@@@std@@AEAAXPEAUBufferElement@buffers@core@@0@Z PROC ; std::vector<core::buffers::BufferElement,std::allocator<core::buffers::BufferElement> >::_Destroy, COMDAT

; 1848 : 		{	// destroy [_First, _Last) using allocator

$LN3:
	mov	QWORD PTR [rsp+24], r8
	mov	QWORD PTR [rsp+16], rdx
	mov	QWORD PTR [rsp+8], rcx
	push	rbp
	sub	rsp, 96					; 00000060H
	lea	rbp, QWORD PTR [rsp+32]
	lea	rcx, OFFSET FLAT:__327B7881_vector
	call	__CheckForDebuggerJustMyCode

; 1849 : 		_Destroy_range(_First, _Last, this->_Getal());

	mov	rcx, QWORD PTR this$[rbp]
	call	?_Getal@?$_Vector_alloc@U?$_Vec_base_types@UBufferElement@buffers@core@@V?$allocator@UBufferElement@buffers@core@@@std@@@std@@@std@@QEAAAEAV?$allocator@UBufferElement@buffers@core@@@2@XZ ; std::_Vector_alloc<std::_Vec_base_types<core::buffers::BufferElement,std::allocator<core::buffers::BufferElement> > >::_Getal
	mov	r8, rax
	mov	rdx, QWORD PTR _Last$[rbp]
	mov	rcx, QWORD PTR _First$[rbp]
	call	??$_Destroy_range@V?$allocator@UBufferElement@buffers@core@@@std@@@std@@YAXPEAUBufferElement@buffers@core@@0AEAV?$allocator@UBufferElement@buffers@core@@@0@@Z ; std::_Destroy_range<std::allocator<core::buffers::BufferElement> >

; 1850 : 		}

	lea	rsp, QWORD PTR [rbp+64]
	pop	rbp
	ret	0
?_Destroy@?$vector@UBufferElement@buffers@core@@V?$allocator@UBufferElement@buffers@core@@@std@@@std@@AEAAXPEAUBufferElement@buffers@core@@0@Z ENDP ; std::vector<core::buffers::BufferElement,std::allocator<core::buffers::BufferElement> >::_Destroy
_TEXT	ENDS
; Function compile flags: /Odtp /RTCu /ZI
; File c:\program files (x86)\microsoft visual studio\2017\enterprise\vc\tools\msvc\14.15.26726\include\vector
;	COMDAT ?_Umove_if_noexcept@?$vector@UBufferElement@buffers@core@@V?$allocator@UBufferElement@buffers@core@@@std@@@std@@AEAAXPEAUBufferElement@buffers@core@@00@Z
_TEXT	SEGMENT
$T1 = 64
this$ = 112
_First$ = 120
_Last$ = 128
_Dest$ = 136
?_Umove_if_noexcept@?$vector@UBufferElement@buffers@core@@V?$allocator@UBufferElement@buffers@core@@@std@@@std@@AEAAXPEAUBufferElement@buffers@core@@00@Z PROC ; std::vector<core::buffers::BufferElement,std::allocator<core::buffers::BufferElement> >::_Umove_if_noexcept, COMDAT

; 1842 : 		{	// move_if_noexcept [_First, _Last) to raw _Dest, using allocator

$LN3:
	mov	QWORD PTR [rsp+32], r9
	mov	QWORD PTR [rsp+24], r8
	mov	QWORD PTR [rsp+16], rdx
	mov	QWORD PTR [rsp+8], rcx
	push	rbp
	push	rdi
	sub	rsp, 136				; 00000088H
	lea	rbp, QWORD PTR [rsp+48]
	lea	rcx, OFFSET FLAT:__327B7881_vector
	call	__CheckForDebuggerJustMyCode

; 1843 : 		_Umove_if_noexcept1(_First, _Last, _Dest,

	lea	rax, QWORD PTR $T1[rbp]
	mov	rdi, rax
	xor	eax, eax
	mov	ecx, 1
	rep stosb
	movzx	eax, BYTE PTR $T1[rbp]
	mov	BYTE PTR [rsp+32], al
	mov	r9, QWORD PTR _Dest$[rbp]
	mov	r8, QWORD PTR _Last$[rbp]
	mov	rdx, QWORD PTR _First$[rbp]
	mov	rcx, QWORD PTR this$[rbp]
	call	?_Umove_if_noexcept1@?$vector@UBufferElement@buffers@core@@V?$allocator@UBufferElement@buffers@core@@@std@@@std@@AEAAXPEAUBufferElement@buffers@core@@00U?$integral_constant@_N$00@2@@Z ; std::vector<core::buffers::BufferElement,std::allocator<core::buffers::BufferElement> >::_Umove_if_noexcept1

; 1844 : 			bool_constant<disjunction_v<is_nothrow_move_constructible<_Ty>, negation<is_copy_constructible<_Ty>>>>{});
; 1845 : 		}

	lea	rsp, QWORD PTR [rbp+88]
	pop	rdi
	pop	rbp
	ret	0
?_Umove_if_noexcept@?$vector@UBufferElement@buffers@core@@V?$allocator@UBufferElement@buffers@core@@@std@@@std@@AEAAXPEAUBufferElement@buffers@core@@00@Z ENDP ; std::vector<core::buffers::BufferElement,std::allocator<core::buffers::BufferElement> >::_Umove_if_noexcept
_TEXT	ENDS
; Function compile flags: /Odtp /RTCu /ZI
; File c:\program files (x86)\microsoft visual studio\2017\enterprise\vc\tools\msvc\14.15.26726\include\vector
;	COMDAT ?_Umove_if_noexcept1@?$vector@UBufferElement@buffers@core@@V?$allocator@UBufferElement@buffers@core@@@std@@@std@@AEAAXPEAUBufferElement@buffers@core@@00U?$integral_constant@_N$00@2@@Z
_TEXT	SEGMENT
this$ = 80
_First$ = 88
_Last$ = 96
_Dest$ = 104
__formal$ = 112
?_Umove_if_noexcept1@?$vector@UBufferElement@buffers@core@@V?$allocator@UBufferElement@buffers@core@@@std@@@std@@AEAAXPEAUBufferElement@buffers@core@@00U?$integral_constant@_N$00@2@@Z PROC ; std::vector<core::buffers::BufferElement,std::allocator<core::buffers::BufferElement> >::_Umove_if_noexcept1, COMDAT

; 1832 : 		{	// move [_First, _Last) to raw _Dest, using allocator

$LN3:
	mov	QWORD PTR [rsp+32], r9
	mov	QWORD PTR [rsp+24], r8
	mov	QWORD PTR [rsp+16], rdx
	mov	QWORD PTR [rsp+8], rcx
	push	rbp
	sub	rsp, 96					; 00000060H
	lea	rbp, QWORD PTR [rsp+32]
	lea	rcx, OFFSET FLAT:__327B7881_vector
	call	__CheckForDebuggerJustMyCode

; 1833 : 		_Uninitialized_move(_First, _Last, _Dest, this->_Getal());

	mov	rcx, QWORD PTR this$[rbp]
	call	?_Getal@?$_Vector_alloc@U?$_Vec_base_types@UBufferElement@buffers@core@@V?$allocator@UBufferElement@buffers@core@@@std@@@std@@@std@@QEAAAEAV?$allocator@UBufferElement@buffers@core@@@2@XZ ; std::_Vector_alloc<std::_Vec_base_types<core::buffers::BufferElement,std::allocator<core::buffers::BufferElement> > >::_Getal
	mov	r9, rax
	mov	r8, QWORD PTR _Dest$[rbp]
	mov	rdx, QWORD PTR _Last$[rbp]
	mov	rcx, QWORD PTR _First$[rbp]
	call	??$_Uninitialized_move@PEAUBufferElement@buffers@core@@PEAU123@V?$allocator@UBufferElement@buffers@core@@@std@@@std@@YAPEAUBufferElement@buffers@core@@QEAU123@0PEAU123@AEAV?$allocator@UBufferElement@buffers@core@@@0@@Z ; std::_Uninitialized_move<core::buffers::BufferElement *,core::buffers::BufferElement *,std::allocator<core::buffers::BufferElement> >

; 1834 : 		}

	lea	rsp, QWORD PTR [rbp+64]
	pop	rbp
	ret	0
?_Umove_if_noexcept1@?$vector@UBufferElement@buffers@core@@V?$allocator@UBufferElement@buffers@core@@@std@@@std@@AEAAXPEAUBufferElement@buffers@core@@00U?$integral_constant@_N$00@2@@Z ENDP ; std::vector<core::buffers::BufferElement,std::allocator<core::buffers::BufferElement> >::_Umove_if_noexcept1
_TEXT	ENDS
; Function compile flags: /Odtp /RTCu /ZI
; File c:\program files (x86)\microsoft visual studio\2017\enterprise\vc\tools\msvc\14.15.26726\include\vector
;	COMDAT ?_Umove@?$vector@UBufferElement@buffers@core@@V?$allocator@UBufferElement@buffers@core@@@std@@@std@@AEAAPEAUBufferElement@buffers@core@@PEAU345@00@Z
_TEXT	SEGMENT
this$ = 80
_First$ = 88
_Last$ = 96
_Dest$ = 104
?_Umove@?$vector@UBufferElement@buffers@core@@V?$allocator@UBufferElement@buffers@core@@@std@@@std@@AEAAPEAUBufferElement@buffers@core@@PEAU345@00@Z PROC ; std::vector<core::buffers::BufferElement,std::allocator<core::buffers::BufferElement> >::_Umove, COMDAT

; 1827 : 		{	// move [_First, _Last) to raw _Dest, using allocator

$LN3:
	mov	QWORD PTR [rsp+32], r9
	mov	QWORD PTR [rsp+24], r8
	mov	QWORD PTR [rsp+16], rdx
	mov	QWORD PTR [rsp+8], rcx
	push	rbp
	sub	rsp, 96					; 00000060H
	lea	rbp, QWORD PTR [rsp+32]
	lea	rcx, OFFSET FLAT:__327B7881_vector
	call	__CheckForDebuggerJustMyCode

; 1828 : 		return (_Uninitialized_move(_First, _Last, _Dest, this->_Getal()));

	mov	rcx, QWORD PTR this$[rbp]
	call	?_Getal@?$_Vector_alloc@U?$_Vec_base_types@UBufferElement@buffers@core@@V?$allocator@UBufferElement@buffers@core@@@std@@@std@@@std@@QEAAAEAV?$allocator@UBufferElement@buffers@core@@@2@XZ ; std::_Vector_alloc<std::_Vec_base_types<core::buffers::BufferElement,std::allocator<core::buffers::BufferElement> > >::_Getal
	mov	r9, rax
	mov	r8, QWORD PTR _Dest$[rbp]
	mov	rdx, QWORD PTR _Last$[rbp]
	mov	rcx, QWORD PTR _First$[rbp]
	call	??$_Uninitialized_move@PEAUBufferElement@buffers@core@@PEAU123@V?$allocator@UBufferElement@buffers@core@@@std@@@std@@YAPEAUBufferElement@buffers@core@@QEAU123@0PEAU123@AEAV?$allocator@UBufferElement@buffers@core@@@0@@Z ; std::_Uninitialized_move<core::buffers::BufferElement *,core::buffers::BufferElement *,std::allocator<core::buffers::BufferElement> >

; 1829 : 		}

	lea	rsp, QWORD PTR [rbp+64]
	pop	rbp
	ret	0
?_Umove@?$vector@UBufferElement@buffers@core@@V?$allocator@UBufferElement@buffers@core@@@std@@@std@@AEAAPEAUBufferElement@buffers@core@@PEAU345@00@Z ENDP ; std::vector<core::buffers::BufferElement,std::allocator<core::buffers::BufferElement> >::_Umove
_TEXT	ENDS
; Function compile flags: /Odtp /RTCu /ZI
; File c:\program files (x86)\microsoft visual studio\2017\enterprise\vc\tools\msvc\14.15.26726\include\vector
;	COMDAT ?_Has_unused_capacity@?$vector@UBufferElement@buffers@core@@V?$allocator@UBufferElement@buffers@core@@@std@@@std@@AEBA_NXZ
_TEXT	SEGMENT
$T1 = 64
tv69 = 72
tv77 = 80
this$ = 112
?_Has_unused_capacity@?$vector@UBufferElement@buffers@core@@V?$allocator@UBufferElement@buffers@core@@@std@@@std@@AEBA_NXZ PROC ; std::vector<core::buffers::BufferElement,std::allocator<core::buffers::BufferElement> >::_Has_unused_capacity, COMDAT

; 1725 : 		{	// micro-optimization for capacity() != size()

$LN5:
	mov	QWORD PTR [rsp+8], rcx
	push	rbp
	sub	rsp, 128				; 00000080H
	lea	rbp, QWORD PTR [rsp+32]
	mov	QWORD PTR $T1[rbp], -2
	lea	rcx, OFFSET FLAT:__327B7881_vector
	call	__CheckForDebuggerJustMyCode
	npad	1

; 1726 : 		return (this->_Myend() != this->_Mylast());

	mov	rcx, QWORD PTR this$[rbp]
	call	?_Myend@?$_Vector_alloc@U?$_Vec_base_types@UBufferElement@buffers@core@@V?$allocator@UBufferElement@buffers@core@@@std@@@std@@@std@@QEBAAEBQEAUBufferElement@buffers@core@@XZ ; std::_Vector_alloc<std::_Vec_base_types<core::buffers::BufferElement,std::allocator<core::buffers::BufferElement> > >::_Myend
	npad	1
	mov	QWORD PTR tv69[rbp], rax
	mov	rcx, QWORD PTR this$[rbp]
	call	?_Mylast@?$_Vector_alloc@U?$_Vec_base_types@UBufferElement@buffers@core@@V?$allocator@UBufferElement@buffers@core@@@std@@@std@@@std@@QEBAAEBQEAUBufferElement@buffers@core@@XZ ; std::_Vector_alloc<std::_Vec_base_types<core::buffers::BufferElement,std::allocator<core::buffers::BufferElement> > >::_Mylast
	npad	1
	mov	rax, QWORD PTR [rax]
	mov	rcx, QWORD PTR tv69[rbp]
	cmp	QWORD PTR [rcx], rax
	je	SHORT $LN3@Has_unused
	mov	DWORD PTR tv77[rbp], 1
	jmp	SHORT $LN4@Has_unused
$LN3@Has_unused:
	mov	DWORD PTR tv77[rbp], 0
$LN4@Has_unused:
	movzx	eax, BYTE PTR tv77[rbp]

; 1727 : 		}

	lea	rsp, QWORD PTR [rbp+96]
	pop	rbp
	ret	0
?_Has_unused_capacity@?$vector@UBufferElement@buffers@core@@V?$allocator@UBufferElement@buffers@core@@@std@@@std@@AEBA_NXZ ENDP ; std::vector<core::buffers::BufferElement,std::allocator<core::buffers::BufferElement> >::_Has_unused_capacity
_TEXT	ENDS
; Function compile flags: /Odtp /RTCu /ZI
; File c:\program files (x86)\microsoft visual studio\2017\enterprise\vc\tools\msvc\14.15.26726\include\vector
;	COMDAT ?capacity@?$vector@UBufferElement@buffers@core@@V?$allocator@UBufferElement@buffers@core@@@std@@@std@@QEBA_KXZ
_TEXT	SEGMENT
$T1 = 64
tv69 = 72
this$ = 96
?capacity@?$vector@UBufferElement@buffers@core@@V?$allocator@UBufferElement@buffers@core@@@std@@@std@@QEBA_KXZ PROC ; std::vector<core::buffers::BufferElement,std::allocator<core::buffers::BufferElement> >::capacity, COMDAT

; 1714 : 		{	// return current length of allocated storage

$LN3:
	mov	QWORD PTR [rsp+8], rcx
	push	rbp
	sub	rsp, 112				; 00000070H
	lea	rbp, QWORD PTR [rsp+32]
	mov	QWORD PTR $T1[rbp], -2
	lea	rcx, OFFSET FLAT:__327B7881_vector
	call	__CheckForDebuggerJustMyCode
	npad	1

; 1715 : 		return (static_cast<size_type>(this->_Myend() - this->_Myfirst()));

	mov	rcx, QWORD PTR this$[rbp]
	call	?_Myend@?$_Vector_alloc@U?$_Vec_base_types@UBufferElement@buffers@core@@V?$allocator@UBufferElement@buffers@core@@@std@@@std@@@std@@QEBAAEBQEAUBufferElement@buffers@core@@XZ ; std::_Vector_alloc<std::_Vec_base_types<core::buffers::BufferElement,std::allocator<core::buffers::BufferElement> > >::_Myend
	npad	1
	mov	QWORD PTR tv69[rbp], rax
	mov	rcx, QWORD PTR this$[rbp]
	call	?_Myfirst@?$_Vector_alloc@U?$_Vec_base_types@UBufferElement@buffers@core@@V?$allocator@UBufferElement@buffers@core@@@std@@@std@@@std@@QEBAAEBQEAUBufferElement@buffers@core@@XZ ; std::_Vector_alloc<std::_Vec_base_types<core::buffers::BufferElement,std::allocator<core::buffers::BufferElement> > >::_Myfirst
	npad	1
	mov	rax, QWORD PTR [rax]
	mov	rcx, QWORD PTR tv69[rbp]
	mov	rcx, QWORD PTR [rcx]
	sub	rcx, rax
	mov	rax, rcx
	cdq
	mov	ecx, 12
	idiv	rcx

; 1716 : 		}

	lea	rsp, QWORD PTR [rbp+80]
	pop	rbp
	ret	0
?capacity@?$vector@UBufferElement@buffers@core@@V?$allocator@UBufferElement@buffers@core@@@std@@@std@@QEBA_KXZ ENDP ; std::vector<core::buffers::BufferElement,std::allocator<core::buffers::BufferElement> >::capacity
_TEXT	ENDS
; Function compile flags: /Odtp /RTCu /ZI
; File c:\program files (x86)\microsoft visual studio\2017\enterprise\vc\tools\msvc\14.15.26726\include\vector
;	COMDAT ?max_size@?$vector@UBufferElement@buffers@core@@V?$allocator@UBufferElement@buffers@core@@@std@@@std@@QEBA_KXZ
_TEXT	SEGMENT
$T1 = 64
$T2 = 72
$T3 = 80
this$ = 112
?max_size@?$vector@UBufferElement@buffers@core@@V?$allocator@UBufferElement@buffers@core@@@std@@@std@@QEBA_KXZ PROC ; std::vector<core::buffers::BufferElement,std::allocator<core::buffers::BufferElement> >::max_size, COMDAT

; 1708 : 		{	// return maximum possible length of sequence

$LN3:
	mov	QWORD PTR [rsp+8], rcx
	push	rbp
	sub	rsp, 128				; 00000080H
	lea	rbp, QWORD PTR [rsp+32]
	mov	QWORD PTR $T3[rbp], -2
	lea	rcx, OFFSET FLAT:__327B7881_vector
	call	__CheckForDebuggerJustMyCode
	npad	1

; 1709 : 		return (_Min_value(static_cast<size_type>((numeric_limits<difference_type>::max)()),

	mov	rcx, QWORD PTR this$[rbp]
	call	?_Getal@?$_Vector_alloc@U?$_Vec_base_types@UBufferElement@buffers@core@@V?$allocator@UBufferElement@buffers@core@@@std@@@std@@@std@@QEBAAEBV?$allocator@UBufferElement@buffers@core@@@2@XZ ; std::_Vector_alloc<std::_Vec_base_types<core::buffers::BufferElement,std::allocator<core::buffers::BufferElement> > >::_Getal
	npad	1
	mov	rcx, rax
	call	?max_size@?$_Default_allocator_traits@V?$allocator@UBufferElement@buffers@core@@@std@@@std@@SA_KAEBV?$allocator@UBufferElement@buffers@core@@@2@@Z ; std::_Default_allocator_traits<std::allocator<core::buffers::BufferElement> >::max_size
	npad	1
	mov	QWORD PTR $T1[rbp], rax
	call	?max@?$numeric_limits@_J@std@@SA_JXZ	; std::numeric_limits<__int64>::max
	npad	1
	mov	QWORD PTR $T2[rbp], rax
	lea	rdx, QWORD PTR $T1[rbp]
	lea	rcx, QWORD PTR $T2[rbp]
	call	??$_Min_value@_K@std@@YAAEB_KAEB_K0@Z	; std::_Min_value<unsigned __int64>
	npad	1
	mov	rax, QWORD PTR [rax]

; 1710 : 			_Alty_traits::max_size(this->_Getal())));
; 1711 : 		}

	lea	rsp, QWORD PTR [rbp+96]
	pop	rbp
	ret	0
?max_size@?$vector@UBufferElement@buffers@core@@V?$allocator@UBufferElement@buffers@core@@@std@@@std@@QEBA_KXZ ENDP ; std::vector<core::buffers::BufferElement,std::allocator<core::buffers::BufferElement> >::max_size
_TEXT	ENDS
; Function compile flags: /Odtp /RTCu /ZI
; File c:\program files (x86)\microsoft visual studio\2017\enterprise\vc\tools\msvc\14.15.26726\include\vector
;	COMDAT ?size@?$vector@UBufferElement@buffers@core@@V?$allocator@UBufferElement@buffers@core@@@std@@@std@@QEBA_KXZ
_TEXT	SEGMENT
$T1 = 64
tv69 = 72
this$ = 96
?size@?$vector@UBufferElement@buffers@core@@V?$allocator@UBufferElement@buffers@core@@@std@@@std@@QEBA_KXZ PROC ; std::vector<core::buffers::BufferElement,std::allocator<core::buffers::BufferElement> >::size, COMDAT

; 1703 : 		{	// return length of sequence

$LN3:
	mov	QWORD PTR [rsp+8], rcx
	push	rbp
	sub	rsp, 112				; 00000070H
	lea	rbp, QWORD PTR [rsp+32]
	mov	QWORD PTR $T1[rbp], -2
	lea	rcx, OFFSET FLAT:__327B7881_vector
	call	__CheckForDebuggerJustMyCode
	npad	1

; 1704 : 		return (static_cast<size_type>(this->_Mylast() - this->_Myfirst()));

	mov	rcx, QWORD PTR this$[rbp]
	call	?_Mylast@?$_Vector_alloc@U?$_Vec_base_types@UBufferElement@buffers@core@@V?$allocator@UBufferElement@buffers@core@@@std@@@std@@@std@@QEBAAEBQEAUBufferElement@buffers@core@@XZ ; std::_Vector_alloc<std::_Vec_base_types<core::buffers::BufferElement,std::allocator<core::buffers::BufferElement> > >::_Mylast
	npad	1
	mov	QWORD PTR tv69[rbp], rax
	mov	rcx, QWORD PTR this$[rbp]
	call	?_Myfirst@?$_Vector_alloc@U?$_Vec_base_types@UBufferElement@buffers@core@@V?$allocator@UBufferElement@buffers@core@@@std@@@std@@@std@@QEBAAEBQEAUBufferElement@buffers@core@@XZ ; std::_Vector_alloc<std::_Vec_base_types<core::buffers::BufferElement,std::allocator<core::buffers::BufferElement> > >::_Myfirst
	npad	1
	mov	rax, QWORD PTR [rax]
	mov	rcx, QWORD PTR tv69[rbp]
	mov	rcx, QWORD PTR [rcx]
	sub	rcx, rax
	mov	rax, rcx
	cdq
	mov	ecx, 12
	idiv	rcx

; 1705 : 		}

	lea	rsp, QWORD PTR [rbp+80]
	pop	rbp
	ret	0
?size@?$vector@UBufferElement@buffers@core@@V?$allocator@UBufferElement@buffers@core@@@std@@@std@@QEBA_KXZ ENDP ; std::vector<core::buffers::BufferElement,std::allocator<core::buffers::BufferElement> >::size
_TEXT	ENDS
; Function compile flags: /Odtp /RTCu /ZI
; File c:\program files (x86)\microsoft visual studio\2017\enterprise\vc\tools\msvc\14.15.26726\include\vector
;	COMDAT ?push_back@?$vector@UBufferElement@buffers@core@@V?$allocator@UBufferElement@buffers@core@@@std@@@std@@QEAAX$$QEAUBufferElement@buffers@core@@@Z
_TEXT	SEGMENT
this$ = 80
_Val$ = 88
?push_back@?$vector@UBufferElement@buffers@core@@V?$allocator@UBufferElement@buffers@core@@@std@@@std@@QEAAX$$QEAUBufferElement@buffers@core@@@Z PROC ; std::vector<core::buffers::BufferElement,std::allocator<core::buffers::BufferElement> >::push_back, COMDAT

; 936  : 		{	// insert by moving into element at end, provide strong guarantee

$LN3:
	mov	QWORD PTR [rsp+16], rdx
	mov	QWORD PTR [rsp+8], rcx
	push	rbp
	sub	rsp, 96					; 00000060H
	lea	rbp, QWORD PTR [rsp+32]
	lea	rcx, OFFSET FLAT:__327B7881_vector
	call	__CheckForDebuggerJustMyCode

; 937  : 		emplace_back(_STD move(_Val));

	mov	rcx, QWORD PTR _Val$[rbp]
	call	??$move@AEAUBufferElement@buffers@core@@@std@@YA$$QEAUBufferElement@buffers@core@@AEAU123@@Z ; std::move<core::buffers::BufferElement &>
	mov	rdx, rax
	mov	rcx, QWORD PTR this$[rbp]
	call	??$emplace_back@UBufferElement@buffers@core@@@?$vector@UBufferElement@buffers@core@@V?$allocator@UBufferElement@buffers@core@@@std@@@std@@QEAA@$$QEAUBufferElement@buffers@core@@@Z ; std::vector<core::buffers::BufferElement,std::allocator<core::buffers::BufferElement> >::emplace_back<core::buffers::BufferElement>

; 938  : 		}

	lea	rsp, QWORD PTR [rbp+64]
	pop	rbp
	ret	0
?push_back@?$vector@UBufferElement@buffers@core@@V?$allocator@UBufferElement@buffers@core@@@std@@@std@@QEAAX$$QEAUBufferElement@buffers@core@@@Z ENDP ; std::vector<core::buffers::BufferElement,std::allocator<core::buffers::BufferElement> >::push_back
_TEXT	ENDS
; Function compile flags: /Odtp /RTCu /ZI
; File c:\program files (x86)\microsoft visual studio\2017\enterprise\vc\tools\msvc\14.15.26726\include\vector
;	COMDAT ??1?$vector@UBufferElement@buffers@core@@V?$allocator@UBufferElement@buffers@core@@@std@@@std@@QEAA@XZ
_TEXT	SEGMENT
$T1 = 64
this$ = 96
??1?$vector@UBufferElement@buffers@core@@V?$allocator@UBufferElement@buffers@core@@@std@@@std@@QEAA@XZ PROC ; std::vector<core::buffers::BufferElement,std::allocator<core::buffers::BufferElement> >::~vector<core::buffers::BufferElement,std::allocator<core::buffers::BufferElement> >, COMDAT

; 893  : 		{	// destroy the object

$LN3:
	mov	QWORD PTR [rsp+8], rcx
	push	rbp
	sub	rsp, 112				; 00000070H
	lea	rbp, QWORD PTR [rsp+32]
	mov	QWORD PTR $T1[rbp], -2
	lea	rcx, OFFSET FLAT:__327B7881_vector
	call	__CheckForDebuggerJustMyCode
	npad	1

; 894  : 		_Tidy();

	mov	rcx, QWORD PTR this$[rbp]
	call	?_Tidy@?$vector@UBufferElement@buffers@core@@V?$allocator@UBufferElement@buffers@core@@@std@@@std@@AEAAXXZ ; std::vector<core::buffers::BufferElement,std::allocator<core::buffers::BufferElement> >::_Tidy
	npad	1

; 895  : 		}

	mov	rcx, QWORD PTR this$[rbp]
	call	??1?$_Vector_alloc@U?$_Vec_base_types@UBufferElement@buffers@core@@V?$allocator@UBufferElement@buffers@core@@@std@@@std@@@std@@QEAA@XZ ; std::_Vector_alloc<std::_Vec_base_types<core::buffers::BufferElement,std::allocator<core::buffers::BufferElement> > >::~_Vector_alloc<std::_Vec_base_types<core::buffers::BufferElement,std::allocator<core::buffers::BufferElement> > >
	npad	1
	lea	rsp, QWORD PTR [rbp+80]
	pop	rbp
	ret	0
??1?$vector@UBufferElement@buffers@core@@V?$allocator@UBufferElement@buffers@core@@@std@@@std@@QEAA@XZ ENDP ; std::vector<core::buffers::BufferElement,std::allocator<core::buffers::BufferElement> >::~vector<core::buffers::BufferElement,std::allocator<core::buffers::BufferElement> >
_TEXT	ENDS
; Function compile flags: /Odtp /RTCu /ZI
; File c:\program files (x86)\microsoft visual studio\2017\enterprise\vc\tools\msvc\14.15.26726\include\vector
;	COMDAT ??0?$vector@UBufferElement@buffers@core@@V?$allocator@UBufferElement@buffers@core@@@std@@@std@@QEAA@XZ
_TEXT	SEGMENT
$T1 = 64
this$ = 96
??0?$vector@UBufferElement@buffers@core@@V?$allocator@UBufferElement@buffers@core@@@std@@@std@@QEAA@XZ PROC ; std::vector<core::buffers::BufferElement,std::allocator<core::buffers::BufferElement> >::vector<core::buffers::BufferElement,std::allocator<core::buffers::BufferElement> >, COMDAT

; 651  : 		{	// construct empty vector

$LN3:
	mov	QWORD PTR [rsp+8], rcx
	push	rbp
	sub	rsp, 112				; 00000070H
	lea	rbp, QWORD PTR [rsp+32]
	mov	QWORD PTR $T1[rbp], -2
	lea	rcx, OFFSET FLAT:__327B7881_vector
	call	__CheckForDebuggerJustMyCode
	npad	1

; 650  : 		: _Mybase()

	mov	rcx, QWORD PTR this$[rbp]
	call	??0?$_Vector_alloc@U?$_Vec_base_types@UBufferElement@buffers@core@@V?$allocator@UBufferElement@buffers@core@@@std@@@std@@@std@@QEAA@XZ ; std::_Vector_alloc<std::_Vec_base_types<core::buffers::BufferElement,std::allocator<core::buffers::BufferElement> > >::_Vector_alloc<std::_Vec_base_types<core::buffers::BufferElement,std::allocator<core::buffers::BufferElement> > >
	npad	1

; 652  : 		}

	mov	rax, QWORD PTR this$[rbp]
	lea	rsp, QWORD PTR [rbp+80]
	pop	rbp
	ret	0
??0?$vector@UBufferElement@buffers@core@@V?$allocator@UBufferElement@buffers@core@@@std@@@std@@QEAA@XZ ENDP ; std::vector<core::buffers::BufferElement,std::allocator<core::buffers::BufferElement> >::vector<core::buffers::BufferElement,std::allocator<core::buffers::BufferElement> >
_TEXT	ENDS
; Function compile flags: /Odtp /RTCu /ZI
; File c:\program files (x86)\microsoft visual studio\2017\enterprise\vc\tools\msvc\14.15.26726\include\xutility
;	COMDAT ?_Get_second@?$_Compressed_pair@V?$allocator@UBufferElement@buffers@core@@@std@@V?$_Vector_val@U?$_Simple_types@UBufferElement@buffers@core@@@std@@@2@$00@std@@QEBAAEBV?$_Vector_val@U?$_Simple_types@UBufferElement@buffers@core@@@std@@@2@XZ
_TEXT	SEGMENT
$T1 = 64
this$ = 96
?_Get_second@?$_Compressed_pair@V?$allocator@UBufferElement@buffers@core@@@std@@V?$_Vector_val@U?$_Simple_types@UBufferElement@buffers@core@@@std@@@2@$00@std@@QEBAAEBV?$_Vector_val@U?$_Simple_types@UBufferElement@buffers@core@@@std@@@2@XZ PROC ; std::_Compressed_pair<std::allocator<core::buffers::BufferElement>,std::_Vector_val<std::_Simple_types<core::buffers::BufferElement> >,1>::_Get_second, COMDAT

; 306  : 		{	// return const reference to second

$LN3:
	mov	QWORD PTR [rsp+8], rcx
	push	rbp
	sub	rsp, 112				; 00000070H
	lea	rbp, QWORD PTR [rsp+32]
	mov	QWORD PTR $T1[rbp], -2
	lea	rcx, OFFSET FLAT:__E8FD1B86_xutility
	call	__CheckForDebuggerJustMyCode
	npad	1

; 307  : 		return (_Myval2);

	mov	rax, QWORD PTR this$[rbp]

; 308  : 		}

	lea	rsp, QWORD PTR [rbp+80]
	pop	rbp
	ret	0
?_Get_second@?$_Compressed_pair@V?$allocator@UBufferElement@buffers@core@@@std@@V?$_Vector_val@U?$_Simple_types@UBufferElement@buffers@core@@@std@@@2@$00@std@@QEBAAEBV?$_Vector_val@U?$_Simple_types@UBufferElement@buffers@core@@@std@@@2@XZ ENDP ; std::_Compressed_pair<std::allocator<core::buffers::BufferElement>,std::_Vector_val<std::_Simple_types<core::buffers::BufferElement> >,1>::_Get_second
_TEXT	ENDS
; Function compile flags: /Odtp /RTCu /ZI
; File c:\program files (x86)\microsoft visual studio\2017\enterprise\vc\tools\msvc\14.15.26726\include\xutility
;	COMDAT ?_Get_second@?$_Compressed_pair@V?$allocator@UBufferElement@buffers@core@@@std@@V?$_Vector_val@U?$_Simple_types@UBufferElement@buffers@core@@@std@@@2@$00@std@@QEAAAEAV?$_Vector_val@U?$_Simple_types@UBufferElement@buffers@core@@@std@@@2@XZ
_TEXT	SEGMENT
$T1 = 64
this$ = 96
?_Get_second@?$_Compressed_pair@V?$allocator@UBufferElement@buffers@core@@@std@@V?$_Vector_val@U?$_Simple_types@UBufferElement@buffers@core@@@std@@@2@$00@std@@QEAAAEAV?$_Vector_val@U?$_Simple_types@UBufferElement@buffers@core@@@std@@@2@XZ PROC ; std::_Compressed_pair<std::allocator<core::buffers::BufferElement>,std::_Vector_val<std::_Simple_types<core::buffers::BufferElement> >,1>::_Get_second, COMDAT

; 301  : 		{	// return reference to second

$LN3:
	mov	QWORD PTR [rsp+8], rcx
	push	rbp
	sub	rsp, 112				; 00000070H
	lea	rbp, QWORD PTR [rsp+32]
	mov	QWORD PTR $T1[rbp], -2
	lea	rcx, OFFSET FLAT:__E8FD1B86_xutility
	call	__CheckForDebuggerJustMyCode
	npad	1

; 302  : 		return (_Myval2);

	mov	rax, QWORD PTR this$[rbp]

; 303  : 		}

	lea	rsp, QWORD PTR [rbp+80]
	pop	rbp
	ret	0
?_Get_second@?$_Compressed_pair@V?$allocator@UBufferElement@buffers@core@@@std@@V?$_Vector_val@U?$_Simple_types@UBufferElement@buffers@core@@@std@@@2@$00@std@@QEAAAEAV?$_Vector_val@U?$_Simple_types@UBufferElement@buffers@core@@@std@@@2@XZ ENDP ; std::_Compressed_pair<std::allocator<core::buffers::BufferElement>,std::_Vector_val<std::_Simple_types<core::buffers::BufferElement> >,1>::_Get_second
_TEXT	ENDS
; Function compile flags: /Odtp /RTCu /ZI
; File c:\program files (x86)\microsoft visual studio\2017\enterprise\vc\tools\msvc\14.15.26726\include\xutility
;	COMDAT ?_Get_first@?$_Compressed_pair@V?$allocator@UBufferElement@buffers@core@@@std@@V?$_Vector_val@U?$_Simple_types@UBufferElement@buffers@core@@@std@@@2@$00@std@@QEBAAEBV?$allocator@UBufferElement@buffers@core@@@2@XZ
_TEXT	SEGMENT
$T1 = 64
this$ = 96
?_Get_first@?$_Compressed_pair@V?$allocator@UBufferElement@buffers@core@@@std@@V?$_Vector_val@U?$_Simple_types@UBufferElement@buffers@core@@@std@@@2@$00@std@@QEBAAEBV?$allocator@UBufferElement@buffers@core@@@2@XZ PROC ; std::_Compressed_pair<std::allocator<core::buffers::BufferElement>,std::_Vector_val<std::_Simple_types<core::buffers::BufferElement> >,1>::_Get_first, COMDAT

; 296  : 		{	// return const reference to first

$LN3:
	mov	QWORD PTR [rsp+8], rcx
	push	rbp
	sub	rsp, 112				; 00000070H
	lea	rbp, QWORD PTR [rsp+32]
	mov	QWORD PTR $T1[rbp], -2
	lea	rcx, OFFSET FLAT:__E8FD1B86_xutility
	call	__CheckForDebuggerJustMyCode
	npad	1

; 297  : 		return (*this);

	mov	rax, QWORD PTR this$[rbp]

; 298  : 		}

	lea	rsp, QWORD PTR [rbp+80]
	pop	rbp
	ret	0
?_Get_first@?$_Compressed_pair@V?$allocator@UBufferElement@buffers@core@@@std@@V?$_Vector_val@U?$_Simple_types@UBufferElement@buffers@core@@@std@@@2@$00@std@@QEBAAEBV?$allocator@UBufferElement@buffers@core@@@2@XZ ENDP ; std::_Compressed_pair<std::allocator<core::buffers::BufferElement>,std::_Vector_val<std::_Simple_types<core::buffers::BufferElement> >,1>::_Get_first
_TEXT	ENDS
; Function compile flags: /Odtp /RTCu /ZI
; File c:\program files (x86)\microsoft visual studio\2017\enterprise\vc\tools\msvc\14.15.26726\include\xutility
;	COMDAT ?_Get_first@?$_Compressed_pair@V?$allocator@UBufferElement@buffers@core@@@std@@V?$_Vector_val@U?$_Simple_types@UBufferElement@buffers@core@@@std@@@2@$00@std@@QEAAAEAV?$allocator@UBufferElement@buffers@core@@@2@XZ
_TEXT	SEGMENT
$T1 = 64
this$ = 96
?_Get_first@?$_Compressed_pair@V?$allocator@UBufferElement@buffers@core@@@std@@V?$_Vector_val@U?$_Simple_types@UBufferElement@buffers@core@@@std@@@2@$00@std@@QEAAAEAV?$allocator@UBufferElement@buffers@core@@@2@XZ PROC ; std::_Compressed_pair<std::allocator<core::buffers::BufferElement>,std::_Vector_val<std::_Simple_types<core::buffers::BufferElement> >,1>::_Get_first, COMDAT

; 291  : 		{	// return reference to first

$LN3:
	mov	QWORD PTR [rsp+8], rcx
	push	rbp
	sub	rsp, 112				; 00000070H
	lea	rbp, QWORD PTR [rsp+32]
	mov	QWORD PTR $T1[rbp], -2
	lea	rcx, OFFSET FLAT:__E8FD1B86_xutility
	call	__CheckForDebuggerJustMyCode
	npad	1

; 292  : 		return (*this);

	mov	rax, QWORD PTR this$[rbp]

; 293  : 		}

	lea	rsp, QWORD PTR [rbp+80]
	pop	rbp
	ret	0
?_Get_first@?$_Compressed_pair@V?$allocator@UBufferElement@buffers@core@@@std@@V?$_Vector_val@U?$_Simple_types@UBufferElement@buffers@core@@@std@@@2@$00@std@@QEAAAEAV?$allocator@UBufferElement@buffers@core@@@2@XZ ENDP ; std::_Compressed_pair<std::allocator<core::buffers::BufferElement>,std::_Vector_val<std::_Simple_types<core::buffers::BufferElement> >,1>::_Get_first
_TEXT	ENDS
; Function compile flags: /Odtp /RTCu /ZI
; File c:\program files (x86)\microsoft visual studio\2017\enterprise\vc\tools\msvc\14.15.26726\include\vector
;	COMDAT ??0?$_Vector_val@U?$_Simple_types@UBufferElement@buffers@core@@@std@@@std@@QEAA@XZ
_TEXT	SEGMENT
this$ = 80
??0?$_Vector_val@U?$_Simple_types@UBufferElement@buffers@core@@@std@@@std@@QEAA@XZ PROC ; std::_Vector_val<std::_Simple_types<core::buffers::BufferElement> >::_Vector_val<std::_Simple_types<core::buffers::BufferElement> >, COMDAT

; 392  : 		{	// initialize values

$LN3:
	mov	QWORD PTR [rsp+8], rcx
	push	rbp
	sub	rsp, 96					; 00000060H
	lea	rbp, QWORD PTR [rsp+32]
	lea	rcx, OFFSET FLAT:__327B7881_vector
	call	__CheckForDebuggerJustMyCode
	mov	rcx, QWORD PTR this$[rbp]
	call	??0_Container_base12@std@@QEAA@XZ	; std::_Container_base12::_Container_base12

; 389  : 		: _Myfirst(),

	mov	rax, QWORD PTR this$[rbp]
	mov	QWORD PTR [rax+8], 0

; 390  : 		_Mylast(),

	mov	rax, QWORD PTR this$[rbp]
	mov	QWORD PTR [rax+16], 0

; 391  : 		_Myend()

	mov	rax, QWORD PTR this$[rbp]
	mov	QWORD PTR [rax+24], 0

; 393  : 		}

	mov	rax, QWORD PTR this$[rbp]
	lea	rsp, QWORD PTR [rbp+64]
	pop	rbp
	ret	0
??0?$_Vector_val@U?$_Simple_types@UBufferElement@buffers@core@@@std@@@std@@QEAA@XZ ENDP ; std::_Vector_val<std::_Simple_types<core::buffers::BufferElement> >::_Vector_val<std::_Simple_types<core::buffers::BufferElement> >
_TEXT	ENDS
; Function compile flags: /Odtp /RTCu /ZI
; File c:\program files (x86)\microsoft visual studio\2017\enterprise\vc\tools\msvc\14.15.26726\include\vector
;	COMDAT ?_Myend@?$_Vector_alloc@U?$_Vec_base_types@UBufferElement@buffers@core@@V?$allocator@UBufferElement@buffers@core@@@std@@@std@@@std@@QEBAAEBQEAUBufferElement@buffers@core@@XZ
_TEXT	SEGMENT
$T1 = 64
this$ = 96
?_Myend@?$_Vector_alloc@U?$_Vec_base_types@UBufferElement@buffers@core@@V?$allocator@UBufferElement@buffers@core@@@std@@@std@@@std@@QEBAAEBQEAUBufferElement@buffers@core@@XZ PROC ; std::_Vector_alloc<std::_Vec_base_types<core::buffers::BufferElement,std::allocator<core::buffers::BufferElement> > >::_Myend, COMDAT

; 600  : 		{	// return const reference to _Myend

$LN3:
	mov	QWORD PTR [rsp+8], rcx
	push	rbp
	sub	rsp, 112				; 00000070H
	lea	rbp, QWORD PTR [rsp+32]
	mov	QWORD PTR $T1[rbp], -2
	lea	rcx, OFFSET FLAT:__327B7881_vector
	call	__CheckForDebuggerJustMyCode
	npad	1

; 601  : 		return (_Get_data()._Myend);

	mov	rcx, QWORD PTR this$[rbp]
	call	?_Get_data@?$_Vector_alloc@U?$_Vec_base_types@UBufferElement@buffers@core@@V?$allocator@UBufferElement@buffers@core@@@std@@@std@@@std@@QEBAAEBV?$_Vector_val@U?$_Simple_types@UBufferElement@buffers@core@@@std@@@2@XZ ; std::_Vector_alloc<std::_Vec_base_types<core::buffers::BufferElement,std::allocator<core::buffers::BufferElement> > >::_Get_data
	npad	1
	add	rax, 24

; 602  : 		}

	lea	rsp, QWORD PTR [rbp+80]
	pop	rbp
	ret	0
?_Myend@?$_Vector_alloc@U?$_Vec_base_types@UBufferElement@buffers@core@@V?$allocator@UBufferElement@buffers@core@@@std@@@std@@@std@@QEBAAEBQEAUBufferElement@buffers@core@@XZ ENDP ; std::_Vector_alloc<std::_Vec_base_types<core::buffers::BufferElement,std::allocator<core::buffers::BufferElement> > >::_Myend
_TEXT	ENDS
; Function compile flags: /Odtp /RTCu /ZI
; File c:\program files (x86)\microsoft visual studio\2017\enterprise\vc\tools\msvc\14.15.26726\include\vector
;	COMDAT ?_Myend@?$_Vector_alloc@U?$_Vec_base_types@UBufferElement@buffers@core@@V?$allocator@UBufferElement@buffers@core@@@std@@@std@@@std@@QEAAAEAPEAUBufferElement@buffers@core@@XZ
_TEXT	SEGMENT
$T1 = 64
this$ = 96
?_Myend@?$_Vector_alloc@U?$_Vec_base_types@UBufferElement@buffers@core@@V?$allocator@UBufferElement@buffers@core@@@std@@@std@@@std@@QEAAAEAPEAUBufferElement@buffers@core@@XZ PROC ; std::_Vector_alloc<std::_Vec_base_types<core::buffers::BufferElement,std::allocator<core::buffers::BufferElement> > >::_Myend, COMDAT

; 595  : 		{	// return reference to _Myend

$LN3:
	mov	QWORD PTR [rsp+8], rcx
	push	rbp
	sub	rsp, 112				; 00000070H
	lea	rbp, QWORD PTR [rsp+32]
	mov	QWORD PTR $T1[rbp], -2
	lea	rcx, OFFSET FLAT:__327B7881_vector
	call	__CheckForDebuggerJustMyCode
	npad	1

; 596  : 		return (_Get_data()._Myend);

	mov	rcx, QWORD PTR this$[rbp]
	call	?_Get_data@?$_Vector_alloc@U?$_Vec_base_types@UBufferElement@buffers@core@@V?$allocator@UBufferElement@buffers@core@@@std@@@std@@@std@@QEAAAEAV?$_Vector_val@U?$_Simple_types@UBufferElement@buffers@core@@@std@@@2@XZ ; std::_Vector_alloc<std::_Vec_base_types<core::buffers::BufferElement,std::allocator<core::buffers::BufferElement> > >::_Get_data
	npad	1
	add	rax, 24

; 597  : 		}

	lea	rsp, QWORD PTR [rbp+80]
	pop	rbp
	ret	0
?_Myend@?$_Vector_alloc@U?$_Vec_base_types@UBufferElement@buffers@core@@V?$allocator@UBufferElement@buffers@core@@@std@@@std@@@std@@QEAAAEAPEAUBufferElement@buffers@core@@XZ ENDP ; std::_Vector_alloc<std::_Vec_base_types<core::buffers::BufferElement,std::allocator<core::buffers::BufferElement> > >::_Myend
_TEXT	ENDS
; Function compile flags: /Odtp /RTCu /ZI
; File c:\program files (x86)\microsoft visual studio\2017\enterprise\vc\tools\msvc\14.15.26726\include\vector
;	COMDAT ?_Mylast@?$_Vector_alloc@U?$_Vec_base_types@UBufferElement@buffers@core@@V?$allocator@UBufferElement@buffers@core@@@std@@@std@@@std@@QEBAAEBQEAUBufferElement@buffers@core@@XZ
_TEXT	SEGMENT
$T1 = 64
this$ = 96
?_Mylast@?$_Vector_alloc@U?$_Vec_base_types@UBufferElement@buffers@core@@V?$allocator@UBufferElement@buffers@core@@@std@@@std@@@std@@QEBAAEBQEAUBufferElement@buffers@core@@XZ PROC ; std::_Vector_alloc<std::_Vec_base_types<core::buffers::BufferElement,std::allocator<core::buffers::BufferElement> > >::_Mylast, COMDAT

; 590  : 		{	// return const reference to _Mylast

$LN3:
	mov	QWORD PTR [rsp+8], rcx
	push	rbp
	sub	rsp, 112				; 00000070H
	lea	rbp, QWORD PTR [rsp+32]
	mov	QWORD PTR $T1[rbp], -2
	lea	rcx, OFFSET FLAT:__327B7881_vector
	call	__CheckForDebuggerJustMyCode
	npad	1

; 591  : 		return (_Get_data()._Mylast);

	mov	rcx, QWORD PTR this$[rbp]
	call	?_Get_data@?$_Vector_alloc@U?$_Vec_base_types@UBufferElement@buffers@core@@V?$allocator@UBufferElement@buffers@core@@@std@@@std@@@std@@QEBAAEBV?$_Vector_val@U?$_Simple_types@UBufferElement@buffers@core@@@std@@@2@XZ ; std::_Vector_alloc<std::_Vec_base_types<core::buffers::BufferElement,std::allocator<core::buffers::BufferElement> > >::_Get_data
	npad	1
	add	rax, 16

; 592  : 		}

	lea	rsp, QWORD PTR [rbp+80]
	pop	rbp
	ret	0
?_Mylast@?$_Vector_alloc@U?$_Vec_base_types@UBufferElement@buffers@core@@V?$allocator@UBufferElement@buffers@core@@@std@@@std@@@std@@QEBAAEBQEAUBufferElement@buffers@core@@XZ ENDP ; std::_Vector_alloc<std::_Vec_base_types<core::buffers::BufferElement,std::allocator<core::buffers::BufferElement> > >::_Mylast
_TEXT	ENDS
; Function compile flags: /Odtp /RTCu /ZI
; File c:\program files (x86)\microsoft visual studio\2017\enterprise\vc\tools\msvc\14.15.26726\include\vector
;	COMDAT ?_Mylast@?$_Vector_alloc@U?$_Vec_base_types@UBufferElement@buffers@core@@V?$allocator@UBufferElement@buffers@core@@@std@@@std@@@std@@QEAAAEAPEAUBufferElement@buffers@core@@XZ
_TEXT	SEGMENT
$T1 = 64
this$ = 96
?_Mylast@?$_Vector_alloc@U?$_Vec_base_types@UBufferElement@buffers@core@@V?$allocator@UBufferElement@buffers@core@@@std@@@std@@@std@@QEAAAEAPEAUBufferElement@buffers@core@@XZ PROC ; std::_Vector_alloc<std::_Vec_base_types<core::buffers::BufferElement,std::allocator<core::buffers::BufferElement> > >::_Mylast, COMDAT

; 585  : 		{	// return reference to _Mylast

$LN3:
	mov	QWORD PTR [rsp+8], rcx
	push	rbp
	sub	rsp, 112				; 00000070H
	lea	rbp, QWORD PTR [rsp+32]
	mov	QWORD PTR $T1[rbp], -2
	lea	rcx, OFFSET FLAT:__327B7881_vector
	call	__CheckForDebuggerJustMyCode
	npad	1

; 586  : 		return (_Get_data()._Mylast);

	mov	rcx, QWORD PTR this$[rbp]
	call	?_Get_data@?$_Vector_alloc@U?$_Vec_base_types@UBufferElement@buffers@core@@V?$allocator@UBufferElement@buffers@core@@@std@@@std@@@std@@QEAAAEAV?$_Vector_val@U?$_Simple_types@UBufferElement@buffers@core@@@std@@@2@XZ ; std::_Vector_alloc<std::_Vec_base_types<core::buffers::BufferElement,std::allocator<core::buffers::BufferElement> > >::_Get_data
	npad	1
	add	rax, 16

; 587  : 		}

	lea	rsp, QWORD PTR [rbp+80]
	pop	rbp
	ret	0
?_Mylast@?$_Vector_alloc@U?$_Vec_base_types@UBufferElement@buffers@core@@V?$allocator@UBufferElement@buffers@core@@@std@@@std@@@std@@QEAAAEAPEAUBufferElement@buffers@core@@XZ ENDP ; std::_Vector_alloc<std::_Vec_base_types<core::buffers::BufferElement,std::allocator<core::buffers::BufferElement> > >::_Mylast
_TEXT	ENDS
; Function compile flags: /Odtp /RTCu /ZI
; File c:\program files (x86)\microsoft visual studio\2017\enterprise\vc\tools\msvc\14.15.26726\include\vector
;	COMDAT ?_Myfirst@?$_Vector_alloc@U?$_Vec_base_types@UBufferElement@buffers@core@@V?$allocator@UBufferElement@buffers@core@@@std@@@std@@@std@@QEBAAEBQEAUBufferElement@buffers@core@@XZ
_TEXT	SEGMENT
$T1 = 64
this$ = 96
?_Myfirst@?$_Vector_alloc@U?$_Vec_base_types@UBufferElement@buffers@core@@V?$allocator@UBufferElement@buffers@core@@@std@@@std@@@std@@QEBAAEBQEAUBufferElement@buffers@core@@XZ PROC ; std::_Vector_alloc<std::_Vec_base_types<core::buffers::BufferElement,std::allocator<core::buffers::BufferElement> > >::_Myfirst, COMDAT

; 580  : 		{	// return const reference to _Myfirst

$LN3:
	mov	QWORD PTR [rsp+8], rcx
	push	rbp
	sub	rsp, 112				; 00000070H
	lea	rbp, QWORD PTR [rsp+32]
	mov	QWORD PTR $T1[rbp], -2
	lea	rcx, OFFSET FLAT:__327B7881_vector
	call	__CheckForDebuggerJustMyCode
	npad	1

; 581  : 		return (_Get_data()._Myfirst);

	mov	rcx, QWORD PTR this$[rbp]
	call	?_Get_data@?$_Vector_alloc@U?$_Vec_base_types@UBufferElement@buffers@core@@V?$allocator@UBufferElement@buffers@core@@@std@@@std@@@std@@QEBAAEBV?$_Vector_val@U?$_Simple_types@UBufferElement@buffers@core@@@std@@@2@XZ ; std::_Vector_alloc<std::_Vec_base_types<core::buffers::BufferElement,std::allocator<core::buffers::BufferElement> > >::_Get_data
	npad	1
	add	rax, 8

; 582  : 		}

	lea	rsp, QWORD PTR [rbp+80]
	pop	rbp
	ret	0
?_Myfirst@?$_Vector_alloc@U?$_Vec_base_types@UBufferElement@buffers@core@@V?$allocator@UBufferElement@buffers@core@@@std@@@std@@@std@@QEBAAEBQEAUBufferElement@buffers@core@@XZ ENDP ; std::_Vector_alloc<std::_Vec_base_types<core::buffers::BufferElement,std::allocator<core::buffers::BufferElement> > >::_Myfirst
_TEXT	ENDS
; Function compile flags: /Odtp /RTCu /ZI
; File c:\program files (x86)\microsoft visual studio\2017\enterprise\vc\tools\msvc\14.15.26726\include\vector
;	COMDAT ?_Myfirst@?$_Vector_alloc@U?$_Vec_base_types@UBufferElement@buffers@core@@V?$allocator@UBufferElement@buffers@core@@@std@@@std@@@std@@QEAAAEAPEAUBufferElement@buffers@core@@XZ
_TEXT	SEGMENT
$T1 = 64
this$ = 96
?_Myfirst@?$_Vector_alloc@U?$_Vec_base_types@UBufferElement@buffers@core@@V?$allocator@UBufferElement@buffers@core@@@std@@@std@@@std@@QEAAAEAPEAUBufferElement@buffers@core@@XZ PROC ; std::_Vector_alloc<std::_Vec_base_types<core::buffers::BufferElement,std::allocator<core::buffers::BufferElement> > >::_Myfirst, COMDAT

; 575  : 		{	// return reference to _Myfirst

$LN3:
	mov	QWORD PTR [rsp+8], rcx
	push	rbp
	sub	rsp, 112				; 00000070H
	lea	rbp, QWORD PTR [rsp+32]
	mov	QWORD PTR $T1[rbp], -2
	lea	rcx, OFFSET FLAT:__327B7881_vector
	call	__CheckForDebuggerJustMyCode
	npad	1

; 576  : 		return (_Get_data()._Myfirst);

	mov	rcx, QWORD PTR this$[rbp]
	call	?_Get_data@?$_Vector_alloc@U?$_Vec_base_types@UBufferElement@buffers@core@@V?$allocator@UBufferElement@buffers@core@@@std@@@std@@@std@@QEAAAEAV?$_Vector_val@U?$_Simple_types@UBufferElement@buffers@core@@@std@@@2@XZ ; std::_Vector_alloc<std::_Vec_base_types<core::buffers::BufferElement,std::allocator<core::buffers::BufferElement> > >::_Get_data
	npad	1
	add	rax, 8

; 577  : 		}

	lea	rsp, QWORD PTR [rbp+80]
	pop	rbp
	ret	0
?_Myfirst@?$_Vector_alloc@U?$_Vec_base_types@UBufferElement@buffers@core@@V?$allocator@UBufferElement@buffers@core@@@std@@@std@@@std@@QEAAAEAPEAUBufferElement@buffers@core@@XZ ENDP ; std::_Vector_alloc<std::_Vec_base_types<core::buffers::BufferElement,std::allocator<core::buffers::BufferElement> > >::_Myfirst
_TEXT	ENDS
; Function compile flags: /Odtp /RTCu /ZI
; File c:\program files (x86)\microsoft visual studio\2017\enterprise\vc\tools\msvc\14.15.26726\include\vector
;	COMDAT ?_Get_data@?$_Vector_alloc@U?$_Vec_base_types@UBufferElement@buffers@core@@V?$allocator@UBufferElement@buffers@core@@@std@@@std@@@std@@QEBAAEBV?$_Vector_val@U?$_Simple_types@UBufferElement@buffers@core@@@std@@@2@XZ
_TEXT	SEGMENT
$T1 = 64
this$ = 96
?_Get_data@?$_Vector_alloc@U?$_Vec_base_types@UBufferElement@buffers@core@@V?$allocator@UBufferElement@buffers@core@@@std@@@std@@@std@@QEBAAEBV?$_Vector_val@U?$_Simple_types@UBufferElement@buffers@core@@@std@@@2@XZ PROC ; std::_Vector_alloc<std::_Vec_base_types<core::buffers::BufferElement,std::allocator<core::buffers::BufferElement> > >::_Get_data, COMDAT

; 559  : 		{	// return const reference to _Vector_val

$LN3:
	mov	QWORD PTR [rsp+8], rcx
	push	rbp
	sub	rsp, 112				; 00000070H
	lea	rbp, QWORD PTR [rsp+32]
	mov	QWORD PTR $T1[rbp], -2
	lea	rcx, OFFSET FLAT:__327B7881_vector
	call	__CheckForDebuggerJustMyCode
	npad	1

; 560  : 		return (_Mypair._Get_second());

	mov	rax, QWORD PTR this$[rbp]
	mov	rcx, rax
	call	?_Get_second@?$_Compressed_pair@V?$allocator@UBufferElement@buffers@core@@@std@@V?$_Vector_val@U?$_Simple_types@UBufferElement@buffers@core@@@std@@@2@$00@std@@QEBAAEBV?$_Vector_val@U?$_Simple_types@UBufferElement@buffers@core@@@std@@@2@XZ ; std::_Compressed_pair<std::allocator<core::buffers::BufferElement>,std::_Vector_val<std::_Simple_types<core::buffers::BufferElement> >,1>::_Get_second
	npad	1

; 561  : 		}

	lea	rsp, QWORD PTR [rbp+80]
	pop	rbp
	ret	0
?_Get_data@?$_Vector_alloc@U?$_Vec_base_types@UBufferElement@buffers@core@@V?$allocator@UBufferElement@buffers@core@@@std@@@std@@@std@@QEBAAEBV?$_Vector_val@U?$_Simple_types@UBufferElement@buffers@core@@@std@@@2@XZ ENDP ; std::_Vector_alloc<std::_Vec_base_types<core::buffers::BufferElement,std::allocator<core::buffers::BufferElement> > >::_Get_data
_TEXT	ENDS
; Function compile flags: /Odtp /RTCu /ZI
; File c:\program files (x86)\microsoft visual studio\2017\enterprise\vc\tools\msvc\14.15.26726\include\vector
;	COMDAT ?_Get_data@?$_Vector_alloc@U?$_Vec_base_types@UBufferElement@buffers@core@@V?$allocator@UBufferElement@buffers@core@@@std@@@std@@@std@@QEAAAEAV?$_Vector_val@U?$_Simple_types@UBufferElement@buffers@core@@@std@@@2@XZ
_TEXT	SEGMENT
$T1 = 64
this$ = 96
?_Get_data@?$_Vector_alloc@U?$_Vec_base_types@UBufferElement@buffers@core@@V?$allocator@UBufferElement@buffers@core@@@std@@@std@@@std@@QEAAAEAV?$_Vector_val@U?$_Simple_types@UBufferElement@buffers@core@@@std@@@2@XZ PROC ; std::_Vector_alloc<std::_Vec_base_types<core::buffers::BufferElement,std::allocator<core::buffers::BufferElement> > >::_Get_data, COMDAT

; 554  : 		{	// return reference to _Vector_val

$LN3:
	mov	QWORD PTR [rsp+8], rcx
	push	rbp
	sub	rsp, 112				; 00000070H
	lea	rbp, QWORD PTR [rsp+32]
	mov	QWORD PTR $T1[rbp], -2
	lea	rcx, OFFSET FLAT:__327B7881_vector
	call	__CheckForDebuggerJustMyCode
	npad	1

; 555  : 		return (_Mypair._Get_second());

	mov	rax, QWORD PTR this$[rbp]
	mov	rcx, rax
	call	?_Get_second@?$_Compressed_pair@V?$allocator@UBufferElement@buffers@core@@@std@@V?$_Vector_val@U?$_Simple_types@UBufferElement@buffers@core@@@std@@@2@$00@std@@QEAAAEAV?$_Vector_val@U?$_Simple_types@UBufferElement@buffers@core@@@std@@@2@XZ ; std::_Compressed_pair<std::allocator<core::buffers::BufferElement>,std::_Vector_val<std::_Simple_types<core::buffers::BufferElement> >,1>::_Get_second
	npad	1

; 556  : 		}

	lea	rsp, QWORD PTR [rbp+80]
	pop	rbp
	ret	0
?_Get_data@?$_Vector_alloc@U?$_Vec_base_types@UBufferElement@buffers@core@@V?$allocator@UBufferElement@buffers@core@@@std@@@std@@@std@@QEAAAEAV?$_Vector_val@U?$_Simple_types@UBufferElement@buffers@core@@@std@@@2@XZ ENDP ; std::_Vector_alloc<std::_Vec_base_types<core::buffers::BufferElement,std::allocator<core::buffers::BufferElement> > >::_Get_data
_TEXT	ENDS
; Function compile flags: /Odtp /RTCu /ZI
; File c:\program files (x86)\microsoft visual studio\2017\enterprise\vc\tools\msvc\14.15.26726\include\vector
;	COMDAT ?_Getal@?$_Vector_alloc@U?$_Vec_base_types@UBufferElement@buffers@core@@V?$allocator@UBufferElement@buffers@core@@@std@@@std@@@std@@QEBAAEBV?$allocator@UBufferElement@buffers@core@@@2@XZ
_TEXT	SEGMENT
$T1 = 64
this$ = 96
?_Getal@?$_Vector_alloc@U?$_Vec_base_types@UBufferElement@buffers@core@@V?$allocator@UBufferElement@buffers@core@@@std@@@std@@@std@@QEBAAEBV?$allocator@UBufferElement@buffers@core@@@2@XZ PROC ; std::_Vector_alloc<std::_Vec_base_types<core::buffers::BufferElement,std::allocator<core::buffers::BufferElement> > >::_Getal, COMDAT

; 549  : 		{	// return const reference to allocator

$LN3:
	mov	QWORD PTR [rsp+8], rcx
	push	rbp
	sub	rsp, 112				; 00000070H
	lea	rbp, QWORD PTR [rsp+32]
	mov	QWORD PTR $T1[rbp], -2
	lea	rcx, OFFSET FLAT:__327B7881_vector
	call	__CheckForDebuggerJustMyCode
	npad	1

; 550  : 		return (_Mypair._Get_first());

	mov	rax, QWORD PTR this$[rbp]
	mov	rcx, rax
	call	?_Get_first@?$_Compressed_pair@V?$allocator@UBufferElement@buffers@core@@@std@@V?$_Vector_val@U?$_Simple_types@UBufferElement@buffers@core@@@std@@@2@$00@std@@QEBAAEBV?$allocator@UBufferElement@buffers@core@@@2@XZ ; std::_Compressed_pair<std::allocator<core::buffers::BufferElement>,std::_Vector_val<std::_Simple_types<core::buffers::BufferElement> >,1>::_Get_first
	npad	1

; 551  : 		}

	lea	rsp, QWORD PTR [rbp+80]
	pop	rbp
	ret	0
?_Getal@?$_Vector_alloc@U?$_Vec_base_types@UBufferElement@buffers@core@@V?$allocator@UBufferElement@buffers@core@@@std@@@std@@@std@@QEBAAEBV?$allocator@UBufferElement@buffers@core@@@2@XZ ENDP ; std::_Vector_alloc<std::_Vec_base_types<core::buffers::BufferElement,std::allocator<core::buffers::BufferElement> > >::_Getal
_TEXT	ENDS
; Function compile flags: /Odtp /RTCu /ZI
; File c:\program files (x86)\microsoft visual studio\2017\enterprise\vc\tools\msvc\14.15.26726\include\vector
;	COMDAT ?_Getal@?$_Vector_alloc@U?$_Vec_base_types@UBufferElement@buffers@core@@V?$allocator@UBufferElement@buffers@core@@@std@@@std@@@std@@QEAAAEAV?$allocator@UBufferElement@buffers@core@@@2@XZ
_TEXT	SEGMENT
$T1 = 64
this$ = 96
?_Getal@?$_Vector_alloc@U?$_Vec_base_types@UBufferElement@buffers@core@@V?$allocator@UBufferElement@buffers@core@@@std@@@std@@@std@@QEAAAEAV?$allocator@UBufferElement@buffers@core@@@2@XZ PROC ; std::_Vector_alloc<std::_Vec_base_types<core::buffers::BufferElement,std::allocator<core::buffers::BufferElement> > >::_Getal, COMDAT

; 544  : 		{	// return reference to allocator

$LN3:
	mov	QWORD PTR [rsp+8], rcx
	push	rbp
	sub	rsp, 112				; 00000070H
	lea	rbp, QWORD PTR [rsp+32]
	mov	QWORD PTR $T1[rbp], -2
	lea	rcx, OFFSET FLAT:__327B7881_vector
	call	__CheckForDebuggerJustMyCode
	npad	1

; 545  : 		return (_Mypair._Get_first());

	mov	rax, QWORD PTR this$[rbp]
	mov	rcx, rax
	call	?_Get_first@?$_Compressed_pair@V?$allocator@UBufferElement@buffers@core@@@std@@V?$_Vector_val@U?$_Simple_types@UBufferElement@buffers@core@@@std@@@2@$00@std@@QEAAAEAV?$allocator@UBufferElement@buffers@core@@@2@XZ ; std::_Compressed_pair<std::allocator<core::buffers::BufferElement>,std::_Vector_val<std::_Simple_types<core::buffers::BufferElement> >,1>::_Get_first
	npad	1

; 546  : 		}

	lea	rsp, QWORD PTR [rbp+80]
	pop	rbp
	ret	0
?_Getal@?$_Vector_alloc@U?$_Vec_base_types@UBufferElement@buffers@core@@V?$allocator@UBufferElement@buffers@core@@@std@@@std@@@std@@QEAAAEAV?$allocator@UBufferElement@buffers@core@@@2@XZ ENDP ; std::_Vector_alloc<std::_Vec_base_types<core::buffers::BufferElement,std::allocator<core::buffers::BufferElement> > >::_Getal
_TEXT	ENDS
; Function compile flags: /Odtp /RTCu /ZI
; File c:\program files (x86)\microsoft visual studio\2017\enterprise\vc\tools\msvc\14.15.26726\include\vector
;	COMDAT ?_Orphan_all@?$_Vector_alloc@U?$_Vec_base_types@UBufferElement@buffers@core@@V?$allocator@UBufferElement@buffers@core@@@std@@@std@@@std@@QEAAXXZ
_TEXT	SEGMENT
this$ = 80
?_Orphan_all@?$_Vector_alloc@U?$_Vec_base_types@UBufferElement@buffers@core@@V?$allocator@UBufferElement@buffers@core@@@std@@@std@@@std@@QEAAXXZ PROC ; std::_Vector_alloc<std::_Vec_base_types<core::buffers::BufferElement,std::allocator<core::buffers::BufferElement> > >::_Orphan_all, COMDAT

; 534  : 		{	// orphan all iterators

$LN3:
	mov	QWORD PTR [rsp+8], rcx
	push	rbp
	sub	rsp, 96					; 00000060H
	lea	rbp, QWORD PTR [rsp+32]
	lea	rcx, OFFSET FLAT:__327B7881_vector
	call	__CheckForDebuggerJustMyCode

; 535  : 		_Get_data()._Orphan_all();

	mov	rcx, QWORD PTR this$[rbp]
	call	?_Get_data@?$_Vector_alloc@U?$_Vec_base_types@UBufferElement@buffers@core@@V?$allocator@UBufferElement@buffers@core@@@std@@@std@@@std@@QEAAAEAV?$_Vector_val@U?$_Simple_types@UBufferElement@buffers@core@@@std@@@2@XZ ; std::_Vector_alloc<std::_Vec_base_types<core::buffers::BufferElement,std::allocator<core::buffers::BufferElement> > >::_Get_data
	mov	rcx, rax
	call	?_Orphan_all@_Container_base12@std@@QEAAXXZ ; std::_Container_base12::_Orphan_all

; 536  : 		}

	lea	rsp, QWORD PTR [rbp+64]
	pop	rbp
	ret	0
?_Orphan_all@?$_Vector_alloc@U?$_Vec_base_types@UBufferElement@buffers@core@@V?$allocator@UBufferElement@buffers@core@@@std@@@std@@@std@@QEAAXXZ ENDP ; std::_Vector_alloc<std::_Vec_base_types<core::buffers::BufferElement,std::allocator<core::buffers::BufferElement> > >::_Orphan_all
_TEXT	ENDS
; Function compile flags: /Odtp /RTCu /ZI
; File c:\program files (x86)\microsoft visual studio\2017\enterprise\vc\tools\msvc\14.15.26726\include\vector
;	COMDAT ?_Myproxy@?$_Vector_alloc@U?$_Vec_base_types@UBufferElement@buffers@core@@V?$allocator@UBufferElement@buffers@core@@@std@@@std@@@std@@QEAAAEAPEAU_Container_proxy@2@XZ
_TEXT	SEGMENT
$T1 = 64
this$ = 96
?_Myproxy@?$_Vector_alloc@U?$_Vec_base_types@UBufferElement@buffers@core@@V?$allocator@UBufferElement@buffers@core@@@std@@@std@@@std@@QEAAAEAPEAU_Container_proxy@2@XZ PROC ; std::_Vector_alloc<std::_Vec_base_types<core::buffers::BufferElement,std::allocator<core::buffers::BufferElement> > >::_Myproxy, COMDAT

; 523  : 		{	// return reference to _Myproxy

$LN3:
	mov	QWORD PTR [rsp+8], rcx
	push	rbp
	sub	rsp, 112				; 00000070H
	lea	rbp, QWORD PTR [rsp+32]
	mov	QWORD PTR $T1[rbp], -2
	lea	rcx, OFFSET FLAT:__327B7881_vector
	call	__CheckForDebuggerJustMyCode
	npad	1

; 524  : 		return (_Get_data()._Myproxy);

	mov	rcx, QWORD PTR this$[rbp]
	call	?_Get_data@?$_Vector_alloc@U?$_Vec_base_types@UBufferElement@buffers@core@@V?$allocator@UBufferElement@buffers@core@@@std@@@std@@@std@@QEAAAEAV?$_Vector_val@U?$_Simple_types@UBufferElement@buffers@core@@@std@@@2@XZ ; std::_Vector_alloc<std::_Vec_base_types<core::buffers::BufferElement,std::allocator<core::buffers::BufferElement> > >::_Get_data
	npad	1

; 525  : 		}

	lea	rsp, QWORD PTR [rbp+80]
	pop	rbp
	ret	0
?_Myproxy@?$_Vector_alloc@U?$_Vec_base_types@UBufferElement@buffers@core@@V?$allocator@UBufferElement@buffers@core@@@std@@@std@@@std@@QEAAAEAPEAU_Container_proxy@2@XZ ENDP ; std::_Vector_alloc<std::_Vec_base_types<core::buffers::BufferElement,std::allocator<core::buffers::BufferElement> > >::_Myproxy
_TEXT	ENDS
; Function compile flags: /Odtp /RTCu /ZI
; File c:\program files (x86)\microsoft visual studio\2017\enterprise\vc\tools\msvc\14.15.26726\include\vector
;	COMDAT ?_Getpfirst@?$_Vector_alloc@U?$_Vec_base_types@UBufferElement@buffers@core@@V?$allocator@UBufferElement@buffers@core@@@std@@@std@@@std@@QEBAPEAPEAU_Iterator_base12@2@XZ
_TEXT	SEGMENT
this$ = 80
?_Getpfirst@?$_Vector_alloc@U?$_Vec_base_types@UBufferElement@buffers@core@@V?$allocator@UBufferElement@buffers@core@@@std@@@std@@@std@@QEBAPEAPEAU_Iterator_base12@2@XZ PROC ; std::_Vector_alloc<std::_Vec_base_types<core::buffers::BufferElement,std::allocator<core::buffers::BufferElement> > >::_Getpfirst, COMDAT

; 518  : 		{	// get address of iterator chain

$LN3:
	mov	QWORD PTR [rsp+8], rcx
	push	rbp
	sub	rsp, 96					; 00000060H
	lea	rbp, QWORD PTR [rsp+32]
	lea	rcx, OFFSET FLAT:__327B7881_vector
	call	__CheckForDebuggerJustMyCode

; 519  : 		return (_Get_data()._Getpfirst());

	mov	rcx, QWORD PTR this$[rbp]
	call	?_Get_data@?$_Vector_alloc@U?$_Vec_base_types@UBufferElement@buffers@core@@V?$allocator@UBufferElement@buffers@core@@@std@@@std@@@std@@QEBAAEBV?$_Vector_val@U?$_Simple_types@UBufferElement@buffers@core@@@std@@@2@XZ ; std::_Vector_alloc<std::_Vec_base_types<core::buffers::BufferElement,std::allocator<core::buffers::BufferElement> > >::_Get_data
	mov	rcx, rax
	call	?_Getpfirst@_Container_base12@std@@QEBAPEAPEAU_Iterator_base12@2@XZ ; std::_Container_base12::_Getpfirst

; 520  : 		}

	lea	rsp, QWORD PTR [rbp+64]
	pop	rbp
	ret	0
?_Getpfirst@?$_Vector_alloc@U?$_Vec_base_types@UBufferElement@buffers@core@@V?$allocator@UBufferElement@buffers@core@@@std@@@std@@@std@@QEBAPEAPEAU_Iterator_base12@2@XZ ENDP ; std::_Vector_alloc<std::_Vec_base_types<core::buffers::BufferElement,std::allocator<core::buffers::BufferElement> > >::_Getpfirst
_TEXT	ENDS
; Function compile flags: /Odtp /RTCu /ZI
; File c:\program files (x86)\microsoft visual studio\2017\enterprise\vc\tools\msvc\14.15.26726\include\vector
;	COMDAT ?_Free_proxy@?$_Vector_alloc@U?$_Vec_base_types@UBufferElement@buffers@core@@V?$allocator@UBufferElement@buffers@core@@@std@@@std@@@std@@QEAAXXZ
_TEXT	SEGMENT
_Proxy_allocator$ = 0
__$ArrayPad$ = 72
this$ = 96
?_Free_proxy@?$_Vector_alloc@U?$_Vec_base_types@UBufferElement@buffers@core@@V?$allocator@UBufferElement@buffers@core@@@std@@@std@@@std@@QEAAXXZ PROC ; std::_Vector_alloc<std::_Vec_base_types<core::buffers::BufferElement,std::allocator<core::buffers::BufferElement> > >::_Free_proxy, COMDAT

; 509  : 		{	// destroy proxy

$LN3:
	mov	QWORD PTR [rsp+8], rcx
	push	rbp
	sub	rsp, 112				; 00000070H
	lea	rbp, QWORD PTR [rsp+32]
	mov	rax, QWORD PTR __security_cookie
	xor	rax, rbp
	mov	QWORD PTR __$ArrayPad$[rbp], rax
	lea	rcx, OFFSET FLAT:__327B7881_vector
	call	__CheckForDebuggerJustMyCode

; 510  : 		_Alproxy _Proxy_allocator(_Getal());

	mov	rcx, QWORD PTR this$[rbp]
	call	?_Getal@?$_Vector_alloc@U?$_Vec_base_types@UBufferElement@buffers@core@@V?$allocator@UBufferElement@buffers@core@@@std@@@std@@@std@@QEAAAEAV?$allocator@UBufferElement@buffers@core@@@2@XZ ; std::_Vector_alloc<std::_Vec_base_types<core::buffers::BufferElement,std::allocator<core::buffers::BufferElement> > >::_Getal
	mov	rdx, rax
	lea	rcx, QWORD PTR _Proxy_allocator$[rbp]
	call	??$?0UBufferElement@buffers@core@@@?$allocator@U_Container_proxy@std@@@std@@QEAA@AEBV?$allocator@UBufferElement@buffers@core@@@1@@Z ; std::allocator<std::_Container_proxy>::allocator<std::_Container_proxy><core::buffers::BufferElement>

; 511  : 		_Orphan_all();

	mov	rcx, QWORD PTR this$[rbp]
	call	?_Orphan_all@?$_Vector_alloc@U?$_Vec_base_types@UBufferElement@buffers@core@@V?$allocator@UBufferElement@buffers@core@@@std@@@std@@@std@@QEAAXXZ ; std::_Vector_alloc<std::_Vec_base_types<core::buffers::BufferElement,std::allocator<core::buffers::BufferElement> > >::_Orphan_all

; 512  : 		_Alproxy_traits::destroy(_Proxy_allocator, _Myproxy());

	mov	rcx, QWORD PTR this$[rbp]
	call	?_Myproxy@?$_Vector_alloc@U?$_Vec_base_types@UBufferElement@buffers@core@@V?$allocator@UBufferElement@buffers@core@@@std@@@std@@@std@@QEAAAEAPEAU_Container_proxy@2@XZ ; std::_Vector_alloc<std::_Vec_base_types<core::buffers::BufferElement,std::allocator<core::buffers::BufferElement> > >::_Myproxy
	mov	rdx, QWORD PTR [rax]
	lea	rcx, QWORD PTR _Proxy_allocator$[rbp]
	call	??$destroy@U_Container_proxy@std@@@?$_Default_allocator_traits@V?$allocator@U_Container_proxy@std@@@std@@@std@@SAXAEAV?$allocator@U_Container_proxy@std@@@1@QEAU_Container_proxy@1@@Z ; std::_Default_allocator_traits<std::allocator<std::_Container_proxy> >::destroy<std::_Container_proxy>

; 513  : 		_Deallocate_plain(_Proxy_allocator, _Myproxy());

	mov	rcx, QWORD PTR this$[rbp]
	call	?_Myproxy@?$_Vector_alloc@U?$_Vec_base_types@UBufferElement@buffers@core@@V?$allocator@UBufferElement@buffers@core@@@std@@@std@@@std@@QEAAAEAPEAU_Container_proxy@2@XZ ; std::_Vector_alloc<std::_Vec_base_types<core::buffers::BufferElement,std::allocator<core::buffers::BufferElement> > >::_Myproxy
	mov	rdx, QWORD PTR [rax]
	lea	rcx, QWORD PTR _Proxy_allocator$[rbp]
	call	??$_Deallocate_plain@V?$allocator@U_Container_proxy@std@@@std@@$0A@@std@@YAXAEAV?$allocator@U_Container_proxy@std@@@0@QEAU_Container_proxy@0@@Z ; std::_Deallocate_plain<std::allocator<std::_Container_proxy>,0>

; 514  : 		_Myproxy() = nullptr;

	mov	rcx, QWORD PTR this$[rbp]
	call	?_Myproxy@?$_Vector_alloc@U?$_Vec_base_types@UBufferElement@buffers@core@@V?$allocator@UBufferElement@buffers@core@@@std@@@std@@@std@@QEAAAEAPEAU_Container_proxy@2@XZ ; std::_Vector_alloc<std::_Vec_base_types<core::buffers::BufferElement,std::allocator<core::buffers::BufferElement> > >::_Myproxy
	mov	QWORD PTR [rax], 0

; 515  : 		}

	mov	rcx, QWORD PTR __$ArrayPad$[rbp]
	xor	rcx, rbp
	call	__security_check_cookie
	lea	rsp, QWORD PTR [rbp+80]
	pop	rbp
	ret	0
?_Free_proxy@?$_Vector_alloc@U?$_Vec_base_types@UBufferElement@buffers@core@@V?$allocator@UBufferElement@buffers@core@@@std@@@std@@@std@@QEAAXXZ ENDP ; std::_Vector_alloc<std::_Vec_base_types<core::buffers::BufferElement,std::allocator<core::buffers::BufferElement> > >::_Free_proxy
_TEXT	ENDS
; Function compile flags: /Odtp /RTCu /ZI
; File c:\program files (x86)\microsoft visual studio\2017\enterprise\vc\tools\msvc\14.15.26726\include\vector
;	COMDAT ?_Alloc_proxy@?$_Vector_alloc@U?$_Vec_base_types@UBufferElement@buffers@core@@V?$allocator@UBufferElement@buffers@core@@@std@@@std@@@std@@QEAAXXZ
_TEXT	SEGMENT
_Proxy_allocator$ = 0
$T1 = 72
tv91 = 88
tv79 = 88
tv70 = 88
__$ArrayPad$ = 96
this$ = 128
?_Alloc_proxy@?$_Vector_alloc@U?$_Vec_base_types@UBufferElement@buffers@core@@V?$allocator@UBufferElement@buffers@core@@@std@@@std@@@std@@QEAAXXZ PROC ; std::_Vector_alloc<std::_Vec_base_types<core::buffers::BufferElement,std::allocator<core::buffers::BufferElement> > >::_Alloc_proxy, COMDAT

; 501  : 		{	// construct proxy

$LN3:
	mov	QWORD PTR [rsp+8], rcx
	push	rbp
	sub	rsp, 144				; 00000090H
	lea	rbp, QWORD PTR [rsp+32]
	mov	rax, QWORD PTR __security_cookie
	xor	rax, rbp
	mov	QWORD PTR __$ArrayPad$[rbp], rax
	lea	rcx, OFFSET FLAT:__327B7881_vector
	call	__CheckForDebuggerJustMyCode

; 502  : 		_Alproxy _Proxy_allocator(_Getal());

	mov	rcx, QWORD PTR this$[rbp]
	call	?_Getal@?$_Vector_alloc@U?$_Vec_base_types@UBufferElement@buffers@core@@V?$allocator@UBufferElement@buffers@core@@@std@@@std@@@std@@QEAAAEAV?$allocator@UBufferElement@buffers@core@@@2@XZ ; std::_Vector_alloc<std::_Vec_base_types<core::buffers::BufferElement,std::allocator<core::buffers::BufferElement> > >::_Getal
	mov	rdx, rax
	lea	rcx, QWORD PTR _Proxy_allocator$[rbp]
	call	??$?0UBufferElement@buffers@core@@@?$allocator@U_Container_proxy@std@@@std@@QEAA@AEBV?$allocator@UBufferElement@buffers@core@@@1@@Z ; std::allocator<std::_Container_proxy>::allocator<std::_Container_proxy><core::buffers::BufferElement>

; 503  : 		_Myproxy() = _Unfancy(_Proxy_allocator.allocate(1));

	mov	edx, 1
	lea	rcx, QWORD PTR _Proxy_allocator$[rbp]
	call	?allocate@?$allocator@U_Container_proxy@std@@@std@@QEAAPEAU_Container_proxy@2@_K@Z ; std::allocator<std::_Container_proxy>::allocate
	mov	rcx, rax
	call	??$_Unfancy@U_Container_proxy@std@@@std@@YAPEAU_Container_proxy@0@PEAU10@@Z ; std::_Unfancy<std::_Container_proxy>
	mov	QWORD PTR tv70[rbp], rax
	mov	rcx, QWORD PTR this$[rbp]
	call	?_Myproxy@?$_Vector_alloc@U?$_Vec_base_types@UBufferElement@buffers@core@@V?$allocator@UBufferElement@buffers@core@@@std@@@std@@@std@@QEAAAEAPEAU_Container_proxy@2@XZ ; std::_Vector_alloc<std::_Vec_base_types<core::buffers::BufferElement,std::allocator<core::buffers::BufferElement> > >::_Myproxy
	mov	rcx, QWORD PTR tv70[rbp]
	mov	QWORD PTR [rax], rcx

; 504  : 		_Alproxy_traits::construct(_Proxy_allocator, _Myproxy(), _Container_proxy());

	lea	rcx, QWORD PTR $T1[rbp]
	call	??0_Container_proxy@std@@QEAA@XZ	; std::_Container_proxy::_Container_proxy
	mov	QWORD PTR tv79[rbp], rax
	mov	rcx, QWORD PTR this$[rbp]
	call	?_Myproxy@?$_Vector_alloc@U?$_Vec_base_types@UBufferElement@buffers@core@@V?$allocator@UBufferElement@buffers@core@@@std@@@std@@@std@@QEAAAEAPEAU_Container_proxy@2@XZ ; std::_Vector_alloc<std::_Vec_base_types<core::buffers::BufferElement,std::allocator<core::buffers::BufferElement> > >::_Myproxy
	mov	rcx, QWORD PTR tv79[rbp]
	mov	r8, rcx
	mov	rdx, QWORD PTR [rax]
	lea	rcx, QWORD PTR _Proxy_allocator$[rbp]
	call	??$construct@U_Container_proxy@std@@U12@@?$_Default_allocator_traits@V?$allocator@U_Container_proxy@std@@@std@@@std@@SAXAEAV?$allocator@U_Container_proxy@std@@@1@QEAU_Container_proxy@1@$$QEAU31@@Z ; std::_Default_allocator_traits<std::allocator<std::_Container_proxy> >::construct<std::_Container_proxy,std::_Container_proxy>

; 505  : 		_Myproxy()->_Mycont = _STD addressof(_Get_data());

	mov	rcx, QWORD PTR this$[rbp]
	call	?_Get_data@?$_Vector_alloc@U?$_Vec_base_types@UBufferElement@buffers@core@@V?$allocator@UBufferElement@buffers@core@@@std@@@std@@@std@@QEAAAEAV?$_Vector_val@U?$_Simple_types@UBufferElement@buffers@core@@@std@@@2@XZ ; std::_Vector_alloc<std::_Vec_base_types<core::buffers::BufferElement,std::allocator<core::buffers::BufferElement> > >::_Get_data
	mov	rcx, rax
	call	??$addressof@V?$_Vector_val@U?$_Simple_types@UBufferElement@buffers@core@@@std@@@std@@@std@@YAPEAV?$_Vector_val@U?$_Simple_types@UBufferElement@buffers@core@@@std@@@0@AEAV10@@Z ; std::addressof<std::_Vector_val<std::_Simple_types<core::buffers::BufferElement> > >
	mov	QWORD PTR tv91[rbp], rax
	mov	rcx, QWORD PTR this$[rbp]
	call	?_Myproxy@?$_Vector_alloc@U?$_Vec_base_types@UBufferElement@buffers@core@@V?$allocator@UBufferElement@buffers@core@@@std@@@std@@@std@@QEAAAEAPEAU_Container_proxy@2@XZ ; std::_Vector_alloc<std::_Vec_base_types<core::buffers::BufferElement,std::allocator<core::buffers::BufferElement> > >::_Myproxy
	mov	rax, QWORD PTR [rax]
	mov	rcx, QWORD PTR tv91[rbp]
	mov	QWORD PTR [rax], rcx

; 506  : 		}

	mov	rcx, QWORD PTR __$ArrayPad$[rbp]
	xor	rcx, rbp
	call	__security_check_cookie
	lea	rsp, QWORD PTR [rbp+112]
	pop	rbp
	ret	0
?_Alloc_proxy@?$_Vector_alloc@U?$_Vec_base_types@UBufferElement@buffers@core@@V?$allocator@UBufferElement@buffers@core@@@std@@@std@@@std@@QEAAXXZ ENDP ; std::_Vector_alloc<std::_Vec_base_types<core::buffers::BufferElement,std::allocator<core::buffers::BufferElement> > >::_Alloc_proxy
_TEXT	ENDS
; Function compile flags: /Odtp /RTCu /ZI
; File c:\program files (x86)\microsoft visual studio\2017\enterprise\vc\tools\msvc\14.15.26726\include\vector
;	COMDAT ??1?$_Vector_alloc@U?$_Vec_base_types@UBufferElement@buffers@core@@V?$allocator@UBufferElement@buffers@core@@@std@@@std@@@std@@QEAA@XZ
_TEXT	SEGMENT
$T1 = 64
this$ = 96
??1?$_Vector_alloc@U?$_Vec_base_types@UBufferElement@buffers@core@@V?$allocator@UBufferElement@buffers@core@@@std@@@std@@@std@@QEAA@XZ PROC ; std::_Vector_alloc<std::_Vec_base_types<core::buffers::BufferElement,std::allocator<core::buffers::BufferElement> > >::~_Vector_alloc<std::_Vec_base_types<core::buffers::BufferElement,std::allocator<core::buffers::BufferElement> > >, COMDAT

; 460  : 		{	// destroy proxy

$LN3:
	mov	QWORD PTR [rsp+8], rcx
	push	rbp
	sub	rsp, 112				; 00000070H
	lea	rbp, QWORD PTR [rsp+32]
	mov	QWORD PTR $T1[rbp], -2
	lea	rcx, OFFSET FLAT:__327B7881_vector
	call	__CheckForDebuggerJustMyCode
	npad	1

; 461  : 		_Free_proxy();

	mov	rcx, QWORD PTR this$[rbp]
	call	?_Free_proxy@?$_Vector_alloc@U?$_Vec_base_types@UBufferElement@buffers@core@@V?$allocator@UBufferElement@buffers@core@@@std@@@std@@@std@@QEAAXXZ ; std::_Vector_alloc<std::_Vec_base_types<core::buffers::BufferElement,std::allocator<core::buffers::BufferElement> > >::_Free_proxy
	npad	1

; 462  : 		}

	lea	rsp, QWORD PTR [rbp+80]
	pop	rbp
	ret	0
??1?$_Vector_alloc@U?$_Vec_base_types@UBufferElement@buffers@core@@V?$allocator@UBufferElement@buffers@core@@@std@@@std@@@std@@QEAA@XZ ENDP ; std::_Vector_alloc<std::_Vec_base_types<core::buffers::BufferElement,std::allocator<core::buffers::BufferElement> > >::~_Vector_alloc<std::_Vec_base_types<core::buffers::BufferElement,std::allocator<core::buffers::BufferElement> > >
_TEXT	ENDS
; Function compile flags: /Odtp /RTCu /ZI
; File c:\program files (x86)\microsoft visual studio\2017\enterprise\vc\tools\msvc\14.15.26726\include\vector
;	COMDAT ??0?$_Vector_alloc@U?$_Vec_base_types@UBufferElement@buffers@core@@V?$allocator@UBufferElement@buffers@core@@@std@@@std@@@std@@QEAA@XZ
_TEXT	SEGMENT
$T1 = 64
this$ = 96
??0?$_Vector_alloc@U?$_Vec_base_types@UBufferElement@buffers@core@@V?$allocator@UBufferElement@buffers@core@@@std@@@std@@@std@@QEAA@XZ PROC ; std::_Vector_alloc<std::_Vec_base_types<core::buffers::BufferElement,std::allocator<core::buffers::BufferElement> > >::_Vector_alloc<std::_Vec_base_types<core::buffers::BufferElement,std::allocator<core::buffers::BufferElement> > >, COMDAT

; 446  : 		{	// default construct allocator

$LN3:
	mov	QWORD PTR [rsp+8], rcx
	push	rbp
	sub	rsp, 112				; 00000070H
	lea	rbp, QWORD PTR [rsp+32]
	lea	rcx, OFFSET FLAT:__327B7881_vector
	call	__CheckForDebuggerJustMyCode

; 445  : 		: _Mypair(_Zero_then_variadic_args_t())

	mov	rax, QWORD PTR this$[rbp]
	movzx	edx, BYTE PTR $T1[rbp]
	mov	rcx, rax
	call	??$?0$$V@?$_Compressed_pair@V?$allocator@UBufferElement@buffers@core@@@std@@V?$_Vector_val@U?$_Simple_types@UBufferElement@buffers@core@@@std@@@2@$00@std@@QEAA@U_Zero_then_variadic_args_t@1@@Z ; std::_Compressed_pair<std::allocator<core::buffers::BufferElement>,std::_Vector_val<std::_Simple_types<core::buffers::BufferElement> >,1>::_Compressed_pair<std::allocator<core::buffers::BufferElement>,std::_Vector_val<std::_Simple_types<core::buffers::BufferElement> >,1><>

; 447  : 		_Alloc_proxy();

	mov	rcx, QWORD PTR this$[rbp]
	call	?_Alloc_proxy@?$_Vector_alloc@U?$_Vec_base_types@UBufferElement@buffers@core@@V?$allocator@UBufferElement@buffers@core@@@std@@@std@@@std@@QEAAXXZ ; std::_Vector_alloc<std::_Vec_base_types<core::buffers::BufferElement,std::allocator<core::buffers::BufferElement> > >::_Alloc_proxy

; 448  : 		}

	mov	rax, QWORD PTR this$[rbp]
	lea	rsp, QWORD PTR [rbp+80]
	pop	rbp
	ret	0
??0?$_Vector_alloc@U?$_Vec_base_types@UBufferElement@buffers@core@@V?$allocator@UBufferElement@buffers@core@@@std@@@std@@@std@@QEAA@XZ ENDP ; std::_Vector_alloc<std::_Vec_base_types<core::buffers::BufferElement,std::allocator<core::buffers::BufferElement> > >::_Vector_alloc<std::_Vec_base_types<core::buffers::BufferElement,std::allocator<core::buffers::BufferElement> > >
_TEXT	ENDS
; Function compile flags: /Odtp /RTCu /ZI
; File c:\program files (x86)\microsoft visual studio\2017\enterprise\vc\tools\msvc\14.15.26726\include\xmemory0
;	COMDAT ?max_size@?$_Default_allocator_traits@V?$allocator@UBufferElement@buffers@core@@@std@@@std@@SA_KAEBV?$allocator@UBufferElement@buffers@core@@@2@@Z
_TEXT	SEGMENT
$T1 = 64
__formal$ = 96
?max_size@?$_Default_allocator_traits@V?$allocator@UBufferElement@buffers@core@@@std@@@std@@SA_KAEBV?$allocator@UBufferElement@buffers@core@@@2@@Z PROC ; std::_Default_allocator_traits<std::allocator<core::buffers::BufferElement> >::max_size, COMDAT

; 891  : 		{	// get maximum size

$LN3:
	mov	QWORD PTR [rsp+8], rcx
	push	rbp
	sub	rsp, 112				; 00000070H
	lea	rbp, QWORD PTR [rsp+32]
	mov	QWORD PTR $T1[rbp], -2
	lea	rcx, OFFSET FLAT:__39AEDAD7_xmemory0
	call	__CheckForDebuggerJustMyCode
	npad	1

; 892  : 		return (static_cast<size_t>(-1) / sizeof(value_type));

	mov	rax, 1537228672809129301		; 1555555555555555H

; 893  : 		}

	lea	rsp, QWORD PTR [rbp+80]
	pop	rbp
	ret	0
?max_size@?$_Default_allocator_traits@V?$allocator@UBufferElement@buffers@core@@@std@@@std@@SA_KAEBV?$allocator@UBufferElement@buffers@core@@@2@@Z ENDP ; std::_Default_allocator_traits<std::allocator<core::buffers::BufferElement> >::max_size
_TEXT	ENDS
; Function compile flags: /Odtp /RTCu /ZI
; File c:\program files (x86)\microsoft visual studio\2017\enterprise\vc\tools\msvc\14.15.26726\include\xmemory0
;	COMDAT ?allocate@?$allocator@UBufferElement@buffers@core@@@std@@QEAAPEAUBufferElement@buffers@core@@_K@Z
_TEXT	SEGMENT
this$ = 80
_Count$ = 88
?allocate@?$allocator@UBufferElement@buffers@core@@@std@@QEAAPEAUBufferElement@buffers@core@@_K@Z PROC ; std::allocator<core::buffers::BufferElement>::allocate, COMDAT

; 996  : 		{	// allocate array of _Count elements

$LN3:
	mov	QWORD PTR [rsp+16], rdx
	mov	QWORD PTR [rsp+8], rcx
	push	rbp
	sub	rsp, 96					; 00000060H
	lea	rbp, QWORD PTR [rsp+32]
	lea	rcx, OFFSET FLAT:__39AEDAD7_xmemory0
	call	__CheckForDebuggerJustMyCode

; 997  : 		return (static_cast<_Ty *>(_Allocate<_New_alignof<_Ty>>(_Get_size_of_n<sizeof(_Ty)>(_Count))));

	mov	rcx, QWORD PTR _Count$[rbp]
	call	??$_Get_size_of_n@$0M@@std@@YA_K_K@Z	; std::_Get_size_of_n<12>
	mov	rcx, rax
	call	??$_Allocate@$0BA@U_Default_allocate_traits@std@@$0A@@std@@YAPEAX_K@Z ; std::_Allocate<16,std::_Default_allocate_traits,0>

; 998  : 		}

	lea	rsp, QWORD PTR [rbp+64]
	pop	rbp
	ret	0
?allocate@?$allocator@UBufferElement@buffers@core@@@std@@QEAAPEAUBufferElement@buffers@core@@_K@Z ENDP ; std::allocator<core::buffers::BufferElement>::allocate
_TEXT	ENDS
; Function compile flags: /Odtp /RTCu /ZI
; File c:\program files (x86)\microsoft visual studio\2017\enterprise\vc\tools\msvc\14.15.26726\include\xmemory0
;	COMDAT ?deallocate@?$allocator@UBufferElement@buffers@core@@@std@@QEAAXQEAUBufferElement@buffers@core@@_K@Z
_TEXT	SEGMENT
this$ = 80
_Ptr$ = 88
_Count$ = 96
?deallocate@?$allocator@UBufferElement@buffers@core@@@std@@QEAAXQEAUBufferElement@buffers@core@@_K@Z PROC ; std::allocator<core::buffers::BufferElement>::deallocate, COMDAT

; 990  : 		{	// deallocate object at _Ptr

$LN3:
	mov	QWORD PTR [rsp+24], r8
	mov	QWORD PTR [rsp+16], rdx
	mov	QWORD PTR [rsp+8], rcx
	push	rbp
	sub	rsp, 96					; 00000060H
	lea	rbp, QWORD PTR [rsp+32]
	lea	rcx, OFFSET FLAT:__39AEDAD7_xmemory0
	call	__CheckForDebuggerJustMyCode

; 991  : 		// no overflow check on the following multiply; we assume _Allocate did that check
; 992  : 		_Deallocate<_New_alignof<_Ty>>(_Ptr, sizeof(_Ty) * _Count);

	imul	rax, QWORD PTR _Count$[rbp], 12
	mov	rdx, rax
	mov	rcx, QWORD PTR _Ptr$[rbp]
	call	??$_Deallocate@$0BA@$0A@@std@@YAXPEAX_K@Z ; std::_Deallocate<16,0>

; 993  : 		}

	lea	rsp, QWORD PTR [rbp+64]
	pop	rbp
	ret	0
?deallocate@?$allocator@UBufferElement@buffers@core@@@std@@QEAAXQEAUBufferElement@buffers@core@@_K@Z ENDP ; std::allocator<core::buffers::BufferElement>::deallocate
_TEXT	ENDS
; Function compile flags: /Odtp /RTCu /ZI
; File c:\program files (x86)\microsoft visual studio\2017\enterprise\vc\tools\msvc\14.15.26726\include\xmemory0
;	COMDAT ??0?$allocator@UBufferElement@buffers@core@@@std@@QEAA@XZ
_TEXT	SEGMENT
$T1 = 64
this$ = 96
??0?$allocator@UBufferElement@buffers@core@@@std@@QEAA@XZ PROC ; std::allocator<core::buffers::BufferElement>::allocator<core::buffers::BufferElement>, COMDAT

; 979  : 	constexpr allocator() noexcept

$LN3:
	mov	QWORD PTR [rsp+8], rcx
	push	rbp
	sub	rsp, 112				; 00000070H
	lea	rbp, QWORD PTR [rsp+32]
	mov	QWORD PTR $T1[rbp], -2
	lea	rcx, OFFSET FLAT:__39AEDAD7_xmemory0
	call	__CheckForDebuggerJustMyCode
	npad	1

; 980  : 		{	// construct default allocator (do nothing)
; 981  : 		}

	mov	rax, QWORD PTR this$[rbp]
	lea	rsp, QWORD PTR [rbp+80]
	pop	rbp
	ret	0
??0?$allocator@UBufferElement@buffers@core@@@std@@QEAA@XZ ENDP ; std::allocator<core::buffers::BufferElement>::allocator<core::buffers::BufferElement>
_TEXT	ENDS
; Function compile flags: /Odtp /RTCu /ZI
; File l:\dev\featherfallengine\featherfall_engine-core\src\buffers\bufferlayout.h
;	COMDAT ?SizeOfType@BufferElement@buffers@core@@SAII@Z
_TEXT	SEGMENT
tv64 = 64
type$ = 96
?SizeOfType@BufferElement@buffers@core@@SAII@Z PROC	; core::buffers::BufferElement::SizeOfType, COMDAT

; 15   : 		static unsigned int SizeOfType(unsigned int type) {

$LN9:
	mov	DWORD PTR [rsp+8], ecx
	push	rbp
	sub	rsp, 112				; 00000070H
	lea	rbp, QWORD PTR [rsp+32]
	lea	rcx, OFFSET FLAT:__6DC649C7_bufferlayout.h
	call	__CheckForDebuggerJustMyCode

; 16   : 			switch (type) {

	mov	eax, DWORD PTR type$[rbp]
	mov	DWORD PTR tv64[rbp], eax
	cmp	DWORD PTR tv64[rbp], 5121		; 00001401H
	je	SHORT $LN6@SizeOfType
	cmp	DWORD PTR tv64[rbp], 5125		; 00001405H
	je	SHORT $LN5@SizeOfType
	cmp	DWORD PTR tv64[rbp], 5126		; 00001406H
	je	SHORT $LN4@SizeOfType
	jmp	SHORT $LN2@SizeOfType
$LN4@SizeOfType:

; 17   : 			case GL_FLOAT:
; 18   : 				return sizeof(GLfloat);

	mov	eax, 4
	jmp	SHORT $LN1@SizeOfType
$LN5@SizeOfType:

; 19   : 
; 20   : 			case GL_UNSIGNED_INT:
; 21   : 				return sizeof(GLuint);

	mov	eax, 4
	jmp	SHORT $LN1@SizeOfType
$LN6@SizeOfType:

; 22   : 
; 23   : 			case GL_UNSIGNED_BYTE:
; 24   : 				return sizeof(GLubyte);

	mov	eax, 1
	jmp	SHORT $LN1@SizeOfType
$LN2@SizeOfType:

; 25   : 			}
; 26   : 
; 27   : 			FF_ASSERT(false);

	xor	eax, eax
	cmp	eax, 1
	je	SHORT $LN7@SizeOfType
	int	3
$LN7@SizeOfType:

; 28   : 			return 0;

	xor	eax, eax
$LN1@SizeOfType:

; 29   : 
; 30   : 		}

	lea	rsp, QWORD PTR [rbp+80]
	pop	rbp
	ret	0
?SizeOfType@BufferElement@buffers@core@@SAII@Z ENDP	; core::buffers::BufferElement::SizeOfType
_TEXT	ENDS
; Function compile flags: /Odtp /RTCu /ZI
; File c:\program files (x86)\microsoft visual studio\2017\enterprise\vc\tools\msvc\14.15.26726\include\xstring
;	COMDAT ?_Xlen@?$basic_string@DU?$char_traits@D@std@@V?$allocator@D@2@@std@@SAXXZ
_TEXT	SEGMENT
?_Xlen@?$basic_string@DU?$char_traits@D@std@@V?$allocator@D@2@@std@@SAXXZ PROC ; std::basic_string<char,std::char_traits<char>,std::allocator<char> >::_Xlen, COMDAT

; 4003 : 		{	// report a length_error

$LN3:
	push	rbp
	sub	rsp, 96					; 00000060H
	lea	rbp, QWORD PTR [rsp+32]
	lea	rcx, OFFSET FLAT:__D9BA934F_xstring
	call	__CheckForDebuggerJustMyCode

; 4004 : 		_Xlength_error("string too long");

	lea	rcx, OFFSET FLAT:??_C@_0BA@JFNIOLAK@string?5too?5long@
	call	?_Xlength_error@std@@YAXPEBD@Z		; std::_Xlength_error
$LN2@Xlen:

; 4005 : 		}

	lea	rsp, QWORD PTR [rbp+64]
	pop	rbp
	ret	0
?_Xlen@?$basic_string@DU?$char_traits@D@std@@V?$allocator@D@2@@std@@SAXXZ ENDP ; std::basic_string<char,std::char_traits<char>,std::allocator<char> >::_Xlen
_TEXT	ENDS
; Function compile flags: /Odtp /RTCu /ZI
; File c:\program files (x86)\microsoft visual studio\2017\enterprise\vc\tools\msvc\14.15.26726\include\xstring
;	COMDAT ?_Tidy_deallocate@?$basic_string@DU?$char_traits@D@std@@V?$allocator@D@2@@std@@QEAAXXZ
_TEXT	SEGMENT
_My_data$ = 0
_Ptr$1 = 8
_Al$2 = 16
$T3 = 88
this$ = 112
?_Tidy_deallocate@?$basic_string@DU?$char_traits@D@std@@V?$allocator@D@2@@std@@QEAAXXZ PROC ; std::basic_string<char,std::char_traits<char>,std::allocator<char> >::_Tidy_deallocate, COMDAT

; 3984 : 		{	// initialize buffer, deallocating any storage

$LN4:
	mov	QWORD PTR [rsp+8], rcx
	push	rbp
	sub	rsp, 128				; 00000080H
	lea	rbp, QWORD PTR [rsp+32]
	lea	rcx, OFFSET FLAT:__D9BA934F_xstring
	call	__CheckForDebuggerJustMyCode

; 3985 : 		this->_Orphan_all();

	mov	rcx, QWORD PTR this$[rbp]
	call	?_Orphan_all@?$_String_alloc@U?$_String_base_types@DV?$allocator@D@std@@@std@@@std@@QEAAXXZ ; std::_String_alloc<std::_String_base_types<char,std::allocator<char> > >::_Orphan_all

; 3986 : 		auto& _My_data = this->_Get_data();

	mov	rcx, QWORD PTR this$[rbp]
	call	?_Get_data@?$_String_alloc@U?$_String_base_types@DV?$allocator@D@std@@@std@@@std@@QEAAAEAV?$_String_val@U?$_Simple_types@D@std@@@2@XZ ; std::_String_alloc<std::_String_base_types<char,std::allocator<char> > >::_Get_data
	mov	QWORD PTR _My_data$[rbp], rax

; 3987 : 		if (_My_data._Large_string_engaged())

	mov	rcx, QWORD PTR _My_data$[rbp]
	call	?_Large_string_engaged@?$_String_val@U?$_Simple_types@D@std@@@std@@QEBA_NXZ ; std::_String_val<std::_Simple_types<char> >::_Large_string_engaged
	movzx	eax, al
	test	eax, eax
	je	SHORT $LN2@Tidy_deall

; 3988 : 			{
; 3989 : 			const pointer _Ptr = _My_data._Bx._Ptr;

	mov	rax, QWORD PTR _My_data$[rbp]
	mov	rax, QWORD PTR [rax+8]
	mov	QWORD PTR _Ptr$1[rbp], rax

; 3990 : 			auto& _Al = this->_Getal();

	mov	rcx, QWORD PTR this$[rbp]
	call	?_Getal@?$_String_alloc@U?$_String_base_types@DV?$allocator@D@std@@@std@@@std@@QEAAAEAV?$allocator@D@2@XZ ; std::_String_alloc<std::_String_base_types<char,std::allocator<char> > >::_Getal
	mov	QWORD PTR _Al$2[rbp], rax

; 3991 : 			_Alty_traits::destroy(_Al, _STD addressof(_My_data._Bx._Ptr));

	mov	rax, QWORD PTR _My_data$[rbp]
	add	rax, 8
	mov	rcx, rax
	call	??$addressof@PEAD@std@@YAPEAPEADAEAPEAD@Z ; std::addressof<char *>
	mov	rdx, rax
	mov	rcx, QWORD PTR _Al$2[rbp]
	call	??$destroy@PEAD@?$_Default_allocator_traits@V?$allocator@D@std@@@std@@SAXAEAV?$allocator@D@1@QEAPEAD@Z ; std::_Default_allocator_traits<std::allocator<char> >::destroy<char *>

; 3992 : 			_Al.deallocate(_Ptr, _My_data._Myres + 1);

	mov	rax, QWORD PTR _My_data$[rbp]
	mov	rax, QWORD PTR [rax+32]
	inc	rax
	mov	r8, rax
	mov	rdx, QWORD PTR _Ptr$1[rbp]
	mov	rcx, QWORD PTR _Al$2[rbp]
	call	?deallocate@?$allocator@D@std@@QEAAXQEAD_K@Z ; std::allocator<char>::deallocate
$LN2@Tidy_deall:

; 3993 : 			}
; 3994 : 
; 3995 : 		_My_data._Mysize = 0;

	mov	rax, QWORD PTR _My_data$[rbp]
	mov	QWORD PTR [rax+24], 0

; 3996 : 		_My_data._Myres = this->_BUF_SIZE - 1;

	mov	rax, QWORD PTR _My_data$[rbp]
	mov	QWORD PTR [rax+32], 15

; 3997 : 		// the _Traits::assign is last so the codegen doesn't think the char
; 3998 : 		// write can alias this
; 3999 : 		_Traits::assign(_My_data._Bx._Buf[0], _Elem());

	mov	BYTE PTR $T3[rbp], 0
	mov	eax, 1
	imul	rax, rax, 0
	mov	rcx, QWORD PTR _My_data$[rbp]
	lea	rax, QWORD PTR [rcx+rax+8]
	lea	rdx, QWORD PTR $T3[rbp]
	mov	rcx, rax
	call	?assign@?$char_traits@D@std@@SAXAEADAEBD@Z ; std::char_traits<char>::assign

; 4000 : 		}

	lea	rsp, QWORD PTR [rbp+96]
	pop	rbp
	ret	0
?_Tidy_deallocate@?$basic_string@DU?$char_traits@D@std@@V?$allocator@D@2@@std@@QEAAXXZ ENDP ; std::basic_string<char,std::char_traits<char>,std::allocator<char> >::_Tidy_deallocate
_TEXT	ENDS
; Function compile flags: /Odtp /RTCu /ZI
; File c:\program files (x86)\microsoft visual studio\2017\enterprise\vc\tools\msvc\14.15.26726\include\xstring
;	COMDAT ?_Tidy_init@?$basic_string@DU?$char_traits@D@std@@V?$allocator@D@2@@std@@QEAAXXZ
_TEXT	SEGMENT
_My_data$ = 0
$T1 = 72
this$ = 96
?_Tidy_init@?$basic_string@DU?$char_traits@D@std@@V?$allocator@D@2@@std@@QEAAXXZ PROC ; std::basic_string<char,std::char_traits<char>,std::allocator<char> >::_Tidy_init, COMDAT

; 3974 : 		{	// initialize basic_string data members

$LN3:
	mov	QWORD PTR [rsp+8], rcx
	push	rbp
	sub	rsp, 112				; 00000070H
	lea	rbp, QWORD PTR [rsp+32]
	lea	rcx, OFFSET FLAT:__D9BA934F_xstring
	call	__CheckForDebuggerJustMyCode

; 3975 : 		auto& _My_data = this->_Get_data();

	mov	rcx, QWORD PTR this$[rbp]
	call	?_Get_data@?$_String_alloc@U?$_String_base_types@DV?$allocator@D@std@@@std@@@std@@QEAAAEAV?$_String_val@U?$_Simple_types@D@std@@@2@XZ ; std::_String_alloc<std::_String_base_types<char,std::allocator<char> > >::_Get_data
	mov	QWORD PTR _My_data$[rbp], rax

; 3976 : 		_My_data._Mysize = 0;

	mov	rax, QWORD PTR _My_data$[rbp]
	mov	QWORD PTR [rax+24], 0

; 3977 : 		_My_data._Myres = this->_BUF_SIZE - 1;

	mov	rax, QWORD PTR _My_data$[rbp]
	mov	QWORD PTR [rax+32], 15

; 3978 : 		// the _Traits::assign is last so the codegen doesn't think the char
; 3979 : 		// write can alias this
; 3980 : 		_Traits::assign(_My_data._Bx._Buf[0], _Elem());

	mov	BYTE PTR $T1[rbp], 0
	mov	eax, 1
	imul	rax, rax, 0
	mov	rcx, QWORD PTR _My_data$[rbp]
	lea	rax, QWORD PTR [rcx+rax+8]
	lea	rdx, QWORD PTR $T1[rbp]
	mov	rcx, rax
	call	?assign@?$char_traits@D@std@@SAXAEADAEBD@Z ; std::char_traits<char>::assign

; 3981 : 		}

	lea	rsp, QWORD PTR [rbp+80]
	pop	rbp
	ret	0
?_Tidy_init@?$basic_string@DU?$char_traits@D@std@@V?$allocator@D@2@@std@@QEAAXXZ ENDP ; std::basic_string<char,std::char_traits<char>,std::allocator<char> >::_Tidy_init
_TEXT	ENDS
; Function compile flags: /Odtp /RTCu /ZI
; File c:\program files (x86)\microsoft visual studio\2017\enterprise\vc\tools\msvc\14.15.26726\include\xstring
;	COMDAT ?_Calculate_growth@?$basic_string@DU?$char_traits@D@std@@V?$allocator@D@2@@std@@QEBA_K_K@Z
_TEXT	SEGMENT
_Max$ = 0
_My_data$ = 8
_Masked$ = 16
_Old$ = 24
$T1 = 96
__$ArrayPad$ = 104
this$ = 128
_Requested$ = 136
?_Calculate_growth@?$basic_string@DU?$char_traits@D@std@@V?$allocator@D@2@@std@@QEBA_K_K@Z PROC ; std::basic_string<char,std::char_traits<char>,std::allocator<char> >::_Calculate_growth, COMDAT

; 3866 : 		{	// determines the next array size to allocate

$LN5:
	mov	QWORD PTR [rsp+16], rdx
	mov	QWORD PTR [rsp+8], rcx
	push	rbp
	sub	rsp, 144				; 00000090H
	lea	rbp, QWORD PTR [rsp+32]
	mov	rax, QWORD PTR __security_cookie
	xor	rax, rbp
	mov	QWORD PTR __$ArrayPad$[rbp], rax
	lea	rcx, OFFSET FLAT:__D9BA934F_xstring
	call	__CheckForDebuggerJustMyCode

; 3867 : 		const size_type _Max = max_size();

	mov	rcx, QWORD PTR this$[rbp]
	call	?max_size@?$basic_string@DU?$char_traits@D@std@@V?$allocator@D@2@@std@@QEBA_KXZ ; std::basic_string<char,std::char_traits<char>,std::allocator<char> >::max_size
	mov	QWORD PTR _Max$[rbp], rax

; 3868 : 		auto& _My_data = this->_Get_data();

	mov	rcx, QWORD PTR this$[rbp]
	call	?_Get_data@?$_String_alloc@U?$_String_base_types@DV?$allocator@D@std@@@std@@@std@@QEBAAEBV?$_String_val@U?$_Simple_types@D@std@@@2@XZ ; std::_String_alloc<std::_String_base_types<char,std::allocator<char> > >::_Get_data
	mov	QWORD PTR _My_data$[rbp], rax

; 3869 : 		const size_type _Masked = _Requested | this->_ALLOC_MASK;

	mov	rax, QWORD PTR _Requested$[rbp]
	or	rax, 15
	mov	QWORD PTR _Masked$[rbp], rax

; 3870 : 		if (_Masked > _Max)

	mov	rax, QWORD PTR _Max$[rbp]
	cmp	QWORD PTR _Masked$[rbp], rax
	jbe	SHORT $LN2@Calculate_

; 3871 : 			{	// the mask overflows, settle for max_size()
; 3872 : 			return (_Max);

	mov	rax, QWORD PTR _Max$[rbp]
	jmp	SHORT $LN1@Calculate_
$LN2@Calculate_:

; 3873 : 			}
; 3874 : 
; 3875 : 		const size_type _Old = _My_data._Myres;

	mov	rax, QWORD PTR _My_data$[rbp]
	mov	rax, QWORD PTR [rax+32]
	mov	QWORD PTR _Old$[rbp], rax

; 3876 : 		if (_Old > _Max - _Old / 2)

	xor	edx, edx
	mov	rax, QWORD PTR _Old$[rbp]
	mov	ecx, 2
	div	rcx
	mov	rcx, QWORD PTR _Max$[rbp]
	sub	rcx, rax
	mov	rax, rcx
	cmp	QWORD PTR _Old$[rbp], rax
	jbe	SHORT $LN3@Calculate_

; 3877 : 			{	// similarly, geometric overflows
; 3878 : 			return (_Max);

	mov	rax, QWORD PTR _Max$[rbp]
	jmp	SHORT $LN1@Calculate_
$LN3@Calculate_:

; 3879 : 			}
; 3880 : 
; 3881 : 		return (_Max_value(_Masked, _Old + _Old / 2));

	xor	edx, edx
	mov	rax, QWORD PTR _Old$[rbp]
	mov	ecx, 2
	div	rcx
	mov	rcx, QWORD PTR _Old$[rbp]
	add	rcx, rax
	mov	rax, rcx
	mov	QWORD PTR $T1[rbp], rax
	lea	rdx, QWORD PTR $T1[rbp]
	lea	rcx, QWORD PTR _Masked$[rbp]
	call	??$_Max_value@_K@std@@YAAEB_KAEB_K0@Z	; std::_Max_value<unsigned __int64>
	mov	rax, QWORD PTR [rax]
$LN1@Calculate_:

; 3882 : 		}

	mov	rcx, QWORD PTR __$ArrayPad$[rbp]
	xor	rcx, rbp
	call	__security_check_cookie
	lea	rsp, QWORD PTR [rbp+112]
	pop	rbp
	ret	0
?_Calculate_growth@?$basic_string@DU?$char_traits@D@std@@V?$allocator@D@2@@std@@QEBA_K_K@Z ENDP ; std::basic_string<char,std::char_traits<char>,std::allocator<char> >::_Calculate_growth
_TEXT	ENDS
; Function compile flags: /Odtp /RTCu /ZI
; File c:\program files (x86)\microsoft visual studio\2017\enterprise\vc\tools\msvc\14.15.26726\include\xstring
;	COMDAT ?max_size@?$basic_string@DU?$char_traits@D@std@@V?$allocator@D@2@@std@@QEBA_KXZ
_TEXT	SEGMENT
_Alloc_max$ = 0
_Storage_max$ = 8
$T1 = 80
$T2 = 88
$T3 = 96
$T4 = 104
__$ArrayPad$ = 112
this$ = 144
?max_size@?$basic_string@DU?$char_traits@D@std@@V?$allocator@D@2@@std@@QEBA_KXZ PROC ; std::basic_string<char,std::char_traits<char>,std::allocator<char> >::max_size, COMDAT

; 3306 : 		{	// return maximum possible length of sequence

$LN3:
	mov	QWORD PTR [rsp+8], rcx
	push	rbp
	sub	rsp, 160				; 000000a0H
	lea	rbp, QWORD PTR [rsp+32]
	mov	QWORD PTR $T4[rbp], -2
	mov	rax, QWORD PTR __security_cookie
	xor	rax, rbp
	mov	QWORD PTR __$ArrayPad$[rbp], rax
	lea	rcx, OFFSET FLAT:__D9BA934F_xstring
	call	__CheckForDebuggerJustMyCode
	npad	1

; 3307 : 		const size_type _Alloc_max = _Alty_traits::max_size(this->_Getal());

	mov	rcx, QWORD PTR this$[rbp]
	call	?_Getal@?$_String_alloc@U?$_String_base_types@DV?$allocator@D@std@@@std@@@std@@QEBAAEBV?$allocator@D@2@XZ ; std::_String_alloc<std::_String_base_types<char,std::allocator<char> > >::_Getal
	npad	1
	mov	rcx, rax
	call	?max_size@?$_Default_allocator_traits@V?$allocator@D@std@@@std@@SA_KAEBV?$allocator@D@2@@Z ; std::_Default_allocator_traits<std::allocator<char> >::max_size
	npad	1
	mov	QWORD PTR _Alloc_max$[rbp], rax

; 3308 : 		const size_type _Storage_max = // can always store small string
; 3309 : 			_Max_value(_Alloc_max, static_cast<size_type>(this->_BUF_SIZE));

	mov	QWORD PTR $T1[rbp], 16
	lea	rdx, QWORD PTR $T1[rbp]
	lea	rcx, QWORD PTR _Alloc_max$[rbp]
	call	??$_Max_value@_K@std@@YAAEB_KAEB_K0@Z	; std::_Max_value<unsigned __int64>
	npad	1
	mov	rax, QWORD PTR [rax]
	mov	QWORD PTR _Storage_max$[rbp], rax

; 3310 : 		return (_Min_value(

	mov	rax, QWORD PTR _Storage_max$[rbp]
	dec	rax
	mov	QWORD PTR $T2[rbp], rax
	call	?max@?$numeric_limits@_J@std@@SA_JXZ	; std::numeric_limits<__int64>::max
	npad	1
	mov	QWORD PTR $T3[rbp], rax
	lea	rdx, QWORD PTR $T2[rbp]
	lea	rcx, QWORD PTR $T3[rbp]
	call	??$_Min_value@_K@std@@YAAEB_KAEB_K0@Z	; std::_Min_value<unsigned __int64>
	npad	1
	mov	rax, QWORD PTR [rax]

; 3311 : 			static_cast<size_type>((numeric_limits<difference_type>::max)()),
; 3312 : 			_Storage_max - 1 // -1 is for null terminator and/or npos
; 3313 : 			));
; 3314 : 
; 3315 : 		}

	mov	rcx, QWORD PTR __$ArrayPad$[rbp]
	xor	rcx, rbp
	call	__security_check_cookie
	npad	1
	lea	rsp, QWORD PTR [rbp+128]
	pop	rbp
	ret	0
?max_size@?$basic_string@DU?$char_traits@D@std@@V?$allocator@D@2@@std@@QEBA_KXZ ENDP ; std::basic_string<char,std::char_traits<char>,std::allocator<char> >::max_size
_TEXT	ENDS
; Function compile flags: /Odtp /RTCu /ZI
; File c:\program files (x86)\microsoft visual studio\2017\enterprise\vc\tools\msvc\14.15.26726\include\xstring
;	COMDAT ?assign@?$basic_string@DU?$char_traits@D@std@@V?$allocator@D@2@@std@@QEAAAEAV12@QEBD@Z
_TEXT	SEGMENT
this$ = 80
_Ptr$ = 88
?assign@?$basic_string@DU?$char_traits@D@std@@V?$allocator@D@2@@std@@QEAAAEAV12@QEBD@Z PROC ; std::basic_string<char,std::char_traits<char>,std::allocator<char> >::assign, COMDAT

; 2675 : 		{	// assign [_Ptr, <null>)

$LN3:
	mov	QWORD PTR [rsp+16], rdx
	mov	QWORD PTR [rsp+8], rcx
	push	rbp
	sub	rsp, 96					; 00000060H
	lea	rbp, QWORD PTR [rsp+32]
	lea	rcx, OFFSET FLAT:__D9BA934F_xstring
	call	__CheckForDebuggerJustMyCode

; 2676 : 		return (assign(_Ptr, _Convert_size<size_type>(_Traits::length(_Ptr))));

	mov	rcx, QWORD PTR _Ptr$[rbp]
	call	?length@?$char_traits@D@std@@SA_KQEBD@Z	; std::char_traits<char>::length
	mov	rcx, rax
	call	??$_Convert_size@_K@std@@YA_K_K@Z	; std::_Convert_size<unsigned __int64>
	mov	r8, rax
	mov	rdx, QWORD PTR _Ptr$[rbp]
	mov	rcx, QWORD PTR this$[rbp]
	call	?assign@?$basic_string@DU?$char_traits@D@std@@V?$allocator@D@2@@std@@QEAAAEAV12@QEBD_K@Z ; std::basic_string<char,std::char_traits<char>,std::allocator<char> >::assign

; 2677 : 		}

	lea	rsp, QWORD PTR [rbp+64]
	pop	rbp
	ret	0
?assign@?$basic_string@DU?$char_traits@D@std@@V?$allocator@D@2@@std@@QEAAAEAV12@QEBD@Z ENDP ; std::basic_string<char,std::char_traits<char>,std::allocator<char> >::assign
_TEXT	ENDS
; Function compile flags: /Odtp /RTCu /ZI
; File c:\program files (x86)\microsoft visual studio\2017\enterprise\vc\tools\msvc\14.15.26726\include\xstring
;	COMDAT ?assign@?$basic_string@DU?$char_traits@D@std@@V?$allocator@D@2@@std@@QEAAAEAV12@QEBD_K@Z
_TEXT	SEGMENT
_My_data$ = 0
_Old_ptr$1 = 8
$T2 = 80
$T3 = 81
this$ = 128
_Ptr$ = 136
_Count$ = 144
?assign@?$basic_string@DU?$char_traits@D@std@@V?$allocator@D@2@@std@@QEAAAEAV12@QEBD_K@Z PROC ; std::basic_string<char,std::char_traits<char>,std::allocator<char> >::assign, COMDAT

; 2657 : 		{	// assign [_Ptr, _Ptr + _Count)

$LN4:
	mov	QWORD PTR [rsp+24], r8
	mov	QWORD PTR [rsp+16], rdx
	mov	QWORD PTR [rsp+8], rcx
	push	rbp
	push	rdi
	sub	rsp, 136				; 00000088H
	lea	rbp, QWORD PTR [rsp+32]
	lea	rcx, OFFSET FLAT:__D9BA934F_xstring
	call	__CheckForDebuggerJustMyCode

; 2658 : 		auto& _My_data = this->_Get_data();

	mov	rcx, QWORD PTR this$[rbp]
	call	?_Get_data@?$_String_alloc@U?$_String_base_types@DV?$allocator@D@std@@@std@@@std@@QEAAAEAV?$_String_val@U?$_Simple_types@D@std@@@2@XZ ; std::_String_alloc<std::_String_base_types<char,std::allocator<char> > >::_Get_data
	mov	QWORD PTR _My_data$[rbp], rax

; 2659 : 		if (_Count <= _My_data._Myres)

	mov	rax, QWORD PTR _My_data$[rbp]
	mov	rax, QWORD PTR [rax+32]
	cmp	QWORD PTR _Count$[rbp], rax
	ja	SHORT $LN2@assign

; 2660 : 			{
; 2661 : 			_Elem * const _Old_ptr = _My_data._Myptr();

	mov	rcx, QWORD PTR _My_data$[rbp]
	call	?_Myptr@?$_String_val@U?$_Simple_types@D@std@@@std@@QEAAPEADXZ ; std::_String_val<std::_Simple_types<char> >::_Myptr
	mov	QWORD PTR _Old_ptr$1[rbp], rax

; 2662 : 			_My_data._Mysize = _Count;

	mov	rax, QWORD PTR _My_data$[rbp]
	mov	rcx, QWORD PTR _Count$[rbp]
	mov	QWORD PTR [rax+24], rcx

; 2663 : 			_Traits::move(_Old_ptr, _Ptr, _Count);

	mov	r8, QWORD PTR _Count$[rbp]
	mov	rdx, QWORD PTR _Ptr$[rbp]
	mov	rcx, QWORD PTR _Old_ptr$1[rbp]
	call	?move@?$char_traits@D@std@@SAPEADQEADQEBD_K@Z ; std::char_traits<char>::move

; 2664 : 			_Traits::assign(_Old_ptr[_Count], _Elem());

	mov	BYTE PTR $T2[rbp], 0
	mov	rax, QWORD PTR _Count$[rbp]
	mov	rcx, QWORD PTR _Old_ptr$1[rbp]
	add	rcx, rax
	mov	rax, rcx
	lea	rdx, QWORD PTR $T2[rbp]
	mov	rcx, rax
	call	?assign@?$char_traits@D@std@@SAXAEADAEBD@Z ; std::char_traits<char>::assign

; 2665 : 			return (*this);

	mov	rax, QWORD PTR this$[rbp]
	jmp	SHORT $LN1@assign
$LN2@assign:

; 2666 : 			}
; 2667 : 
; 2668 : 		return (_Reallocate_for(_Count, [](_Elem * const _New_ptr, const size_type _Count, const _Elem * const _Ptr) {

	lea	rax, QWORD PTR $T3[rbp]
	mov	rdi, rax
	xor	eax, eax
	mov	ecx, 1
	rep stosb
	mov	r9, QWORD PTR _Ptr$[rbp]
	movzx	r8d, BYTE PTR $T3[rbp]
	mov	rdx, QWORD PTR _Count$[rbp]
	mov	rcx, QWORD PTR this$[rbp]
	call	??$_Reallocate_for@V<lambda_66f57f934f28d61049862f64df852ff0>@@PEBD@?$basic_string@DU?$char_traits@D@std@@V?$allocator@D@2@@std@@QEAAAEAV01@_KV<lambda_66f57f934f28d61049862f64df852ff0>@@PEBD@Z ; std::basic_string<char,std::char_traits<char>,std::allocator<char> >::_Reallocate_for<<lambda_66f57f934f28d61049862f64df852ff0>,char const *>
$LN1@assign:

; 2669 : 			_Traits::copy(_New_ptr, _Ptr, _Count);
; 2670 : 			_Traits::assign(_New_ptr[_Count], _Elem());
; 2671 : 			}, _Ptr));
; 2672 : 		}

	lea	rsp, QWORD PTR [rbp+104]
	pop	rdi
	pop	rbp
	ret	0
?assign@?$basic_string@DU?$char_traits@D@std@@V?$allocator@D@2@@std@@QEAAAEAV12@QEBD_K@Z ENDP ; std::basic_string<char,std::char_traits<char>,std::allocator<char> >::assign
_TEXT	ENDS
; Function compile flags: /Odtp /RTCu /ZI
; File c:\program files (x86)\microsoft visual studio\2017\enterprise\vc\tools\msvc\14.15.26726\include\xstring
;	COMDAT ??1?$basic_string@DU?$char_traits@D@std@@V?$allocator@D@2@@std@@QEAA@XZ
_TEXT	SEGMENT
$T1 = 64
this$ = 96
??1?$basic_string@DU?$char_traits@D@std@@V?$allocator@D@2@@std@@QEAA@XZ PROC ; std::basic_string<char,std::char_traits<char>,std::allocator<char> >::~basic_string<char,std::char_traits<char>,std::allocator<char> >, COMDAT

; 2459 : 		{	// destroy the string

$LN3:
	mov	QWORD PTR [rsp+8], rcx
	push	rbp
	sub	rsp, 112				; 00000070H
	lea	rbp, QWORD PTR [rsp+32]
	mov	QWORD PTR $T1[rbp], -2
	lea	rcx, OFFSET FLAT:__D9BA934F_xstring
	call	__CheckForDebuggerJustMyCode
	npad	1

; 2460 : 		_Tidy_deallocate();

	mov	rcx, QWORD PTR this$[rbp]
	call	?_Tidy_deallocate@?$basic_string@DU?$char_traits@D@std@@V?$allocator@D@2@@std@@QEAAXXZ ; std::basic_string<char,std::char_traits<char>,std::allocator<char> >::_Tidy_deallocate
	npad	1

; 2461 : 		}

	mov	rcx, QWORD PTR this$[rbp]
	call	??1?$_String_alloc@U?$_String_base_types@DV?$allocator@D@std@@@std@@@std@@QEAA@XZ ; std::_String_alloc<std::_String_base_types<char,std::allocator<char> > >::~_String_alloc<std::_String_base_types<char,std::allocator<char> > >
	npad	1
	lea	rsp, QWORD PTR [rbp+80]
	pop	rbp
	ret	0
??1?$basic_string@DU?$char_traits@D@std@@V?$allocator@D@2@@std@@QEAA@XZ ENDP ; std::basic_string<char,std::char_traits<char>,std::allocator<char> >::~basic_string<char,std::char_traits<char>,std::allocator<char> >
_TEXT	ENDS
; Function compile flags: /Odtp /RTCu /ZI
; File c:\program files (x86)\microsoft visual studio\2017\enterprise\vc\tools\msvc\14.15.26726\include\xstring
;	COMDAT ??0?$basic_string@DU?$char_traits@D@std@@V?$allocator@D@2@@std@@QEAA@QEBD@Z
_TEXT	SEGMENT
$T1 = 64
this$ = 96
_Ptr$ = 104
??0?$basic_string@DU?$char_traits@D@std@@V?$allocator@D@2@@std@@QEAA@QEBD@Z PROC ; std::basic_string<char,std::char_traits<char>,std::allocator<char> >::basic_string<char,std::char_traits<char>,std::allocator<char> >, COMDAT

; 2183 : 		{	// construct from [_Ptr, <null>)

$LN4:
	mov	QWORD PTR [rsp+16], rdx
	mov	QWORD PTR [rsp+8], rcx
	push	rbp
	sub	rsp, 112				; 00000070H
	lea	rbp, QWORD PTR [rsp+32]
	mov	QWORD PTR $T1[rbp], -2
	lea	rcx, OFFSET FLAT:__D9BA934F_xstring
	call	__CheckForDebuggerJustMyCode

; 2182 : 		: _Mybase()

	mov	rcx, QWORD PTR this$[rbp]
	call	??0?$_String_alloc@U?$_String_base_types@DV?$allocator@D@std@@@std@@@std@@QEAA@XZ ; std::_String_alloc<std::_String_base_types<char,std::allocator<char> > >::_String_alloc<std::_String_base_types<char,std::allocator<char> > >
	npad	1

; 2184 : 		_Tidy_init();

	mov	rcx, QWORD PTR this$[rbp]
	call	?_Tidy_init@?$basic_string@DU?$char_traits@D@std@@V?$allocator@D@2@@std@@QEAAXXZ ; std::basic_string<char,std::char_traits<char>,std::allocator<char> >::_Tidy_init

; 2185 : 		assign(_Ptr);

	mov	rdx, QWORD PTR _Ptr$[rbp]
	mov	rcx, QWORD PTR this$[rbp]
	call	?assign@?$basic_string@DU?$char_traits@D@std@@V?$allocator@D@2@@std@@QEAAAEAV12@QEBD@Z ; std::basic_string<char,std::char_traits<char>,std::allocator<char> >::assign
	npad	1

; 2186 : 		}

	mov	rax, QWORD PTR this$[rbp]
	lea	rsp, QWORD PTR [rbp+80]
	pop	rbp
	ret	0
??0?$basic_string@DU?$char_traits@D@std@@V?$allocator@D@2@@std@@QEAA@QEBD@Z ENDP ; std::basic_string<char,std::char_traits<char>,std::allocator<char> >::basic_string<char,std::char_traits<char>,std::allocator<char> >
_TEXT	ENDS
;	COMDAT text$x
text$x	SEGMENT
$T1 = 64
this$ = 96
_Ptr$ = 104
?dtor$0@?0???0?$basic_string@DU?$char_traits@D@std@@V?$allocator@D@2@@std@@QEAA@QEBD@Z@4HA PROC ; `std::basic_string<char,std::char_traits<char>,std::allocator<char> >::basic_string<char,std::char_traits<char>,std::allocator<char> >'::`1'::dtor$0
	push	rbp
	sub	rsp, 32					; 00000020H
	lea	rbp, QWORD PTR [rdx+32]
	mov	rcx, QWORD PTR this$[rbp]
	call	??1?$_String_alloc@U?$_String_base_types@DV?$allocator@D@std@@@std@@@std@@QEAA@XZ ; std::_String_alloc<std::_String_base_types<char,std::allocator<char> > >::~_String_alloc<std::_String_base_types<char,std::allocator<char> > >
	add	rsp, 32					; 00000020H
	pop	rbp
	ret	0
?dtor$0@?0???0?$basic_string@DU?$char_traits@D@std@@V?$allocator@D@2@@std@@QEAA@QEBD@Z@4HA ENDP ; `std::basic_string<char,std::char_traits<char>,std::allocator<char> >::basic_string<char,std::char_traits<char>,std::allocator<char> >'::`1'::dtor$0
text$x	ENDS
; Function compile flags: /Odtp /RTCu /ZI
;	COMDAT text$x
text$x	SEGMENT
$T1 = 64
this$ = 96
_Ptr$ = 104
?dtor$0@?0???0?$basic_string@DU?$char_traits@D@std@@V?$allocator@D@2@@std@@QEAA@QEBD@Z@4HA PROC ; `std::basic_string<char,std::char_traits<char>,std::allocator<char> >::basic_string<char,std::char_traits<char>,std::allocator<char> >'::`1'::dtor$0
	push	rbp
	sub	rsp, 32					; 00000020H
	lea	rbp, QWORD PTR [rdx+32]
	mov	rcx, QWORD PTR this$[rbp]
	call	??1?$_String_alloc@U?$_String_base_types@DV?$allocator@D@std@@@std@@@std@@QEAA@XZ ; std::_String_alloc<std::_String_base_types<char,std::allocator<char> > >::~_String_alloc<std::_String_base_types<char,std::allocator<char> > >
	add	rsp, 32					; 00000020H
	pop	rbp
	ret	0
?dtor$0@?0???0?$basic_string@DU?$char_traits@D@std@@V?$allocator@D@2@@std@@QEAA@QEBD@Z@4HA ENDP ; `std::basic_string<char,std::char_traits<char>,std::allocator<char> >::basic_string<char,std::char_traits<char>,std::allocator<char> >'::`1'::dtor$0
text$x	ENDS
; Function compile flags: /Odtp /RTCu /ZI
;	COMDAT ??1?$_Compressed_pair@V?$allocator@D@std@@V?$_String_val@U?$_Simple_types@D@std@@@2@$00@std@@QEAA@XZ
_TEXT	SEGMENT
this$ = 80
??1?$_Compressed_pair@V?$allocator@D@std@@V?$_String_val@U?$_Simple_types@D@std@@@2@$00@std@@QEAA@XZ PROC ; std::_Compressed_pair<std::allocator<char>,std::_String_val<std::_Simple_types<char> >,1>::~_Compressed_pair<std::allocator<char>,std::_String_val<std::_Simple_types<char> >,1>, COMDAT
$LN3:
	mov	QWORD PTR [rsp+8], rcx
	push	rbp
	sub	rsp, 96					; 00000060H
	lea	rbp, QWORD PTR [rsp+32]
	mov	rax, QWORD PTR this$[rbp]
	mov	rcx, rax
	call	??1?$_String_val@U?$_Simple_types@D@std@@@std@@QEAA@XZ
	lea	rsp, QWORD PTR [rbp+64]
	pop	rbp
	ret	0
??1?$_Compressed_pair@V?$allocator@D@std@@V?$_String_val@U?$_Simple_types@D@std@@@2@$00@std@@QEAA@XZ ENDP ; std::_Compressed_pair<std::allocator<char>,std::_String_val<std::_Simple_types<char> >,1>::~_Compressed_pair<std::allocator<char>,std::_String_val<std::_Simple_types<char> >,1>
_TEXT	ENDS
; Function compile flags: /Odtp /RTCu /ZI
; File c:\program files (x86)\microsoft visual studio\2017\enterprise\vc\tools\msvc\14.15.26726\include\xutility
;	COMDAT ?_Get_second@?$_Compressed_pair@V?$allocator@D@std@@V?$_String_val@U?$_Simple_types@D@std@@@2@$00@std@@QEBAAEBV?$_String_val@U?$_Simple_types@D@std@@@2@XZ
_TEXT	SEGMENT
$T1 = 64
this$ = 96
?_Get_second@?$_Compressed_pair@V?$allocator@D@std@@V?$_String_val@U?$_Simple_types@D@std@@@2@$00@std@@QEBAAEBV?$_String_val@U?$_Simple_types@D@std@@@2@XZ PROC ; std::_Compressed_pair<std::allocator<char>,std::_String_val<std::_Simple_types<char> >,1>::_Get_second, COMDAT

; 306  : 		{	// return const reference to second

$LN3:
	mov	QWORD PTR [rsp+8], rcx
	push	rbp
	sub	rsp, 112				; 00000070H
	lea	rbp, QWORD PTR [rsp+32]
	mov	QWORD PTR $T1[rbp], -2
	lea	rcx, OFFSET FLAT:__E8FD1B86_xutility
	call	__CheckForDebuggerJustMyCode
	npad	1

; 307  : 		return (_Myval2);

	mov	rax, QWORD PTR this$[rbp]

; 308  : 		}

	lea	rsp, QWORD PTR [rbp+80]
	pop	rbp
	ret	0
?_Get_second@?$_Compressed_pair@V?$allocator@D@std@@V?$_String_val@U?$_Simple_types@D@std@@@2@$00@std@@QEBAAEBV?$_String_val@U?$_Simple_types@D@std@@@2@XZ ENDP ; std::_Compressed_pair<std::allocator<char>,std::_String_val<std::_Simple_types<char> >,1>::_Get_second
_TEXT	ENDS
; Function compile flags: /Odtp /RTCu /ZI
; File c:\program files (x86)\microsoft visual studio\2017\enterprise\vc\tools\msvc\14.15.26726\include\xutility
;	COMDAT ?_Get_second@?$_Compressed_pair@V?$allocator@D@std@@V?$_String_val@U?$_Simple_types@D@std@@@2@$00@std@@QEAAAEAV?$_String_val@U?$_Simple_types@D@std@@@2@XZ
_TEXT	SEGMENT
$T1 = 64
this$ = 96
?_Get_second@?$_Compressed_pair@V?$allocator@D@std@@V?$_String_val@U?$_Simple_types@D@std@@@2@$00@std@@QEAAAEAV?$_String_val@U?$_Simple_types@D@std@@@2@XZ PROC ; std::_Compressed_pair<std::allocator<char>,std::_String_val<std::_Simple_types<char> >,1>::_Get_second, COMDAT

; 301  : 		{	// return reference to second

$LN3:
	mov	QWORD PTR [rsp+8], rcx
	push	rbp
	sub	rsp, 112				; 00000070H
	lea	rbp, QWORD PTR [rsp+32]
	mov	QWORD PTR $T1[rbp], -2
	lea	rcx, OFFSET FLAT:__E8FD1B86_xutility
	call	__CheckForDebuggerJustMyCode
	npad	1

; 302  : 		return (_Myval2);

	mov	rax, QWORD PTR this$[rbp]

; 303  : 		}

	lea	rsp, QWORD PTR [rbp+80]
	pop	rbp
	ret	0
?_Get_second@?$_Compressed_pair@V?$allocator@D@std@@V?$_String_val@U?$_Simple_types@D@std@@@2@$00@std@@QEAAAEAV?$_String_val@U?$_Simple_types@D@std@@@2@XZ ENDP ; std::_Compressed_pair<std::allocator<char>,std::_String_val<std::_Simple_types<char> >,1>::_Get_second
_TEXT	ENDS
; Function compile flags: /Odtp /RTCu /ZI
; File c:\program files (x86)\microsoft visual studio\2017\enterprise\vc\tools\msvc\14.15.26726\include\xutility
;	COMDAT ?_Get_first@?$_Compressed_pair@V?$allocator@D@std@@V?$_String_val@U?$_Simple_types@D@std@@@2@$00@std@@QEBAAEBV?$allocator@D@2@XZ
_TEXT	SEGMENT
$T1 = 64
this$ = 96
?_Get_first@?$_Compressed_pair@V?$allocator@D@std@@V?$_String_val@U?$_Simple_types@D@std@@@2@$00@std@@QEBAAEBV?$allocator@D@2@XZ PROC ; std::_Compressed_pair<std::allocator<char>,std::_String_val<std::_Simple_types<char> >,1>::_Get_first, COMDAT

; 296  : 		{	// return const reference to first

$LN3:
	mov	QWORD PTR [rsp+8], rcx
	push	rbp
	sub	rsp, 112				; 00000070H
	lea	rbp, QWORD PTR [rsp+32]
	mov	QWORD PTR $T1[rbp], -2
	lea	rcx, OFFSET FLAT:__E8FD1B86_xutility
	call	__CheckForDebuggerJustMyCode
	npad	1

; 297  : 		return (*this);

	mov	rax, QWORD PTR this$[rbp]

; 298  : 		}

	lea	rsp, QWORD PTR [rbp+80]
	pop	rbp
	ret	0
?_Get_first@?$_Compressed_pair@V?$allocator@D@std@@V?$_String_val@U?$_Simple_types@D@std@@@2@$00@std@@QEBAAEBV?$allocator@D@2@XZ ENDP ; std::_Compressed_pair<std::allocator<char>,std::_String_val<std::_Simple_types<char> >,1>::_Get_first
_TEXT	ENDS
; Function compile flags: /Odtp /RTCu /ZI
; File c:\program files (x86)\microsoft visual studio\2017\enterprise\vc\tools\msvc\14.15.26726\include\xutility
;	COMDAT ?_Get_first@?$_Compressed_pair@V?$allocator@D@std@@V?$_String_val@U?$_Simple_types@D@std@@@2@$00@std@@QEAAAEAV?$allocator@D@2@XZ
_TEXT	SEGMENT
$T1 = 64
this$ = 96
?_Get_first@?$_Compressed_pair@V?$allocator@D@std@@V?$_String_val@U?$_Simple_types@D@std@@@2@$00@std@@QEAAAEAV?$allocator@D@2@XZ PROC ; std::_Compressed_pair<std::allocator<char>,std::_String_val<std::_Simple_types<char> >,1>::_Get_first, COMDAT

; 291  : 		{	// return reference to first

$LN3:
	mov	QWORD PTR [rsp+8], rcx
	push	rbp
	sub	rsp, 112				; 00000070H
	lea	rbp, QWORD PTR [rsp+32]
	mov	QWORD PTR $T1[rbp], -2
	lea	rcx, OFFSET FLAT:__E8FD1B86_xutility
	call	__CheckForDebuggerJustMyCode
	npad	1

; 292  : 		return (*this);

	mov	rax, QWORD PTR this$[rbp]

; 293  : 		}

	lea	rsp, QWORD PTR [rbp+80]
	pop	rbp
	ret	0
?_Get_first@?$_Compressed_pair@V?$allocator@D@std@@V?$_String_val@U?$_Simple_types@D@std@@@2@$00@std@@QEAAAEAV?$allocator@D@2@XZ ENDP ; std::_Compressed_pair<std::allocator<char>,std::_String_val<std::_Simple_types<char> >,1>::_Get_first
_TEXT	ENDS
; Function compile flags: /Odtp /RTCu /ZI
; File c:\program files (x86)\microsoft visual studio\2017\enterprise\vc\tools\msvc\14.15.26726\include\xstring
;	COMDAT ?_Get_data@?$_String_alloc@U?$_String_base_types@DV?$allocator@D@std@@@std@@@std@@QEBAAEBV?$_String_val@U?$_Simple_types@D@std@@@2@XZ
_TEXT	SEGMENT
$T1 = 64
this$ = 96
?_Get_data@?$_String_alloc@U?$_String_base_types@DV?$allocator@D@std@@@std@@@std@@QEBAAEBV?$_String_val@U?$_Simple_types@D@std@@@2@XZ PROC ; std::_String_alloc<std::_String_base_types<char,std::allocator<char> > >::_Get_data, COMDAT

; 2047 : 		{	// return const reference to _String_val

$LN3:
	mov	QWORD PTR [rsp+8], rcx
	push	rbp
	sub	rsp, 112				; 00000070H
	lea	rbp, QWORD PTR [rsp+32]
	mov	QWORD PTR $T1[rbp], -2
	lea	rcx, OFFSET FLAT:__D9BA934F_xstring
	call	__CheckForDebuggerJustMyCode
	npad	1

; 2048 : 		return (_Mypair._Get_second());

	mov	rax, QWORD PTR this$[rbp]
	mov	rcx, rax
	call	?_Get_second@?$_Compressed_pair@V?$allocator@D@std@@V?$_String_val@U?$_Simple_types@D@std@@@2@$00@std@@QEBAAEBV?$_String_val@U?$_Simple_types@D@std@@@2@XZ ; std::_Compressed_pair<std::allocator<char>,std::_String_val<std::_Simple_types<char> >,1>::_Get_second
	npad	1

; 2049 : 		}

	lea	rsp, QWORD PTR [rbp+80]
	pop	rbp
	ret	0
?_Get_data@?$_String_alloc@U?$_String_base_types@DV?$allocator@D@std@@@std@@@std@@QEBAAEBV?$_String_val@U?$_Simple_types@D@std@@@2@XZ ENDP ; std::_String_alloc<std::_String_base_types<char,std::allocator<char> > >::_Get_data
_TEXT	ENDS
; Function compile flags: /Odtp /RTCu /ZI
; File c:\program files (x86)\microsoft visual studio\2017\enterprise\vc\tools\msvc\14.15.26726\include\xstring
;	COMDAT ?_Get_data@?$_String_alloc@U?$_String_base_types@DV?$allocator@D@std@@@std@@@std@@QEAAAEAV?$_String_val@U?$_Simple_types@D@std@@@2@XZ
_TEXT	SEGMENT
$T1 = 64
this$ = 96
?_Get_data@?$_String_alloc@U?$_String_base_types@DV?$allocator@D@std@@@std@@@std@@QEAAAEAV?$_String_val@U?$_Simple_types@D@std@@@2@XZ PROC ; std::_String_alloc<std::_String_base_types<char,std::allocator<char> > >::_Get_data, COMDAT

; 2042 : 		{	// return reference to _String_val

$LN3:
	mov	QWORD PTR [rsp+8], rcx
	push	rbp
	sub	rsp, 112				; 00000070H
	lea	rbp, QWORD PTR [rsp+32]
	mov	QWORD PTR $T1[rbp], -2
	lea	rcx, OFFSET FLAT:__D9BA934F_xstring
	call	__CheckForDebuggerJustMyCode
	npad	1

; 2043 : 		return (_Mypair._Get_second());

	mov	rax, QWORD PTR this$[rbp]
	mov	rcx, rax
	call	?_Get_second@?$_Compressed_pair@V?$allocator@D@std@@V?$_String_val@U?$_Simple_types@D@std@@@2@$00@std@@QEAAAEAV?$_String_val@U?$_Simple_types@D@std@@@2@XZ ; std::_Compressed_pair<std::allocator<char>,std::_String_val<std::_Simple_types<char> >,1>::_Get_second
	npad	1

; 2044 : 		}

	lea	rsp, QWORD PTR [rbp+80]
	pop	rbp
	ret	0
?_Get_data@?$_String_alloc@U?$_String_base_types@DV?$allocator@D@std@@@std@@@std@@QEAAAEAV?$_String_val@U?$_Simple_types@D@std@@@2@XZ ENDP ; std::_String_alloc<std::_String_base_types<char,std::allocator<char> > >::_Get_data
_TEXT	ENDS
; Function compile flags: /Odtp /RTCu /ZI
; File c:\program files (x86)\microsoft visual studio\2017\enterprise\vc\tools\msvc\14.15.26726\include\xstring
;	COMDAT ?_Getal@?$_String_alloc@U?$_String_base_types@DV?$allocator@D@std@@@std@@@std@@QEBAAEBV?$allocator@D@2@XZ
_TEXT	SEGMENT
$T1 = 64
this$ = 96
?_Getal@?$_String_alloc@U?$_String_base_types@DV?$allocator@D@std@@@std@@@std@@QEBAAEBV?$allocator@D@2@XZ PROC ; std::_String_alloc<std::_String_base_types<char,std::allocator<char> > >::_Getal, COMDAT

; 2037 : 		{	// return const reference to allocator

$LN3:
	mov	QWORD PTR [rsp+8], rcx
	push	rbp
	sub	rsp, 112				; 00000070H
	lea	rbp, QWORD PTR [rsp+32]
	mov	QWORD PTR $T1[rbp], -2
	lea	rcx, OFFSET FLAT:__D9BA934F_xstring
	call	__CheckForDebuggerJustMyCode
	npad	1

; 2038 : 		return (_Mypair._Get_first());

	mov	rax, QWORD PTR this$[rbp]
	mov	rcx, rax
	call	?_Get_first@?$_Compressed_pair@V?$allocator@D@std@@V?$_String_val@U?$_Simple_types@D@std@@@2@$00@std@@QEBAAEBV?$allocator@D@2@XZ ; std::_Compressed_pair<std::allocator<char>,std::_String_val<std::_Simple_types<char> >,1>::_Get_first
	npad	1

; 2039 : 		}

	lea	rsp, QWORD PTR [rbp+80]
	pop	rbp
	ret	0
?_Getal@?$_String_alloc@U?$_String_base_types@DV?$allocator@D@std@@@std@@@std@@QEBAAEBV?$allocator@D@2@XZ ENDP ; std::_String_alloc<std::_String_base_types<char,std::allocator<char> > >::_Getal
_TEXT	ENDS
; Function compile flags: /Odtp /RTCu /ZI
; File c:\program files (x86)\microsoft visual studio\2017\enterprise\vc\tools\msvc\14.15.26726\include\xstring
;	COMDAT ?_Getal@?$_String_alloc@U?$_String_base_types@DV?$allocator@D@std@@@std@@@std@@QEAAAEAV?$allocator@D@2@XZ
_TEXT	SEGMENT
$T1 = 64
this$ = 96
?_Getal@?$_String_alloc@U?$_String_base_types@DV?$allocator@D@std@@@std@@@std@@QEAAAEAV?$allocator@D@2@XZ PROC ; std::_String_alloc<std::_String_base_types<char,std::allocator<char> > >::_Getal, COMDAT

; 2032 : 		{	// return reference to allocator

$LN3:
	mov	QWORD PTR [rsp+8], rcx
	push	rbp
	sub	rsp, 112				; 00000070H
	lea	rbp, QWORD PTR [rsp+32]
	mov	QWORD PTR $T1[rbp], -2
	lea	rcx, OFFSET FLAT:__D9BA934F_xstring
	call	__CheckForDebuggerJustMyCode
	npad	1

; 2033 : 		return (_Mypair._Get_first());

	mov	rax, QWORD PTR this$[rbp]
	mov	rcx, rax
	call	?_Get_first@?$_Compressed_pair@V?$allocator@D@std@@V?$_String_val@U?$_Simple_types@D@std@@@2@$00@std@@QEAAAEAV?$allocator@D@2@XZ ; std::_Compressed_pair<std::allocator<char>,std::_String_val<std::_Simple_types<char> >,1>::_Get_first
	npad	1

; 2034 : 		}

	lea	rsp, QWORD PTR [rbp+80]
	pop	rbp
	ret	0
?_Getal@?$_String_alloc@U?$_String_base_types@DV?$allocator@D@std@@@std@@@std@@QEAAAEAV?$allocator@D@2@XZ ENDP ; std::_String_alloc<std::_String_base_types<char,std::allocator<char> > >::_Getal
_TEXT	ENDS
; Function compile flags: /Odtp /RTCu /ZI
; File c:\program files (x86)\microsoft visual studio\2017\enterprise\vc\tools\msvc\14.15.26726\include\xstring
;	COMDAT ?_Orphan_all@?$_String_alloc@U?$_String_base_types@DV?$allocator@D@std@@@std@@@std@@QEAAXXZ
_TEXT	SEGMENT
this$ = 80
?_Orphan_all@?$_String_alloc@U?$_String_base_types@DV?$allocator@D@std@@@std@@@std@@QEAAXXZ PROC ; std::_String_alloc<std::_String_base_types<char,std::allocator<char> > >::_Orphan_all, COMDAT

; 2022 : 		{	// orphan all iterators

$LN3:
	mov	QWORD PTR [rsp+8], rcx
	push	rbp
	sub	rsp, 96					; 00000060H
	lea	rbp, QWORD PTR [rsp+32]
	lea	rcx, OFFSET FLAT:__D9BA934F_xstring
	call	__CheckForDebuggerJustMyCode

; 2023 : 		_Get_data()._Orphan_all();

	mov	rcx, QWORD PTR this$[rbp]
	call	?_Get_data@?$_String_alloc@U?$_String_base_types@DV?$allocator@D@std@@@std@@@std@@QEAAAEAV?$_String_val@U?$_Simple_types@D@std@@@2@XZ ; std::_String_alloc<std::_String_base_types<char,std::allocator<char> > >::_Get_data
	mov	rcx, rax
	call	?_Orphan_all@_Container_base12@std@@QEAAXXZ ; std::_Container_base12::_Orphan_all

; 2024 : 		}

	lea	rsp, QWORD PTR [rbp+64]
	pop	rbp
	ret	0
?_Orphan_all@?$_String_alloc@U?$_String_base_types@DV?$allocator@D@std@@@std@@@std@@QEAAXXZ ENDP ; std::_String_alloc<std::_String_base_types<char,std::allocator<char> > >::_Orphan_all
_TEXT	ENDS
; Function compile flags: /Odtp /RTCu /ZI
; File c:\program files (x86)\microsoft visual studio\2017\enterprise\vc\tools\msvc\14.15.26726\include\xstring
;	COMDAT ?_Myproxy@?$_String_alloc@U?$_String_base_types@DV?$allocator@D@std@@@std@@@std@@QEAAAEAPEAU_Container_proxy@2@XZ
_TEXT	SEGMENT
$T1 = 64
this$ = 96
?_Myproxy@?$_String_alloc@U?$_String_base_types@DV?$allocator@D@std@@@std@@@std@@QEAAAEAPEAU_Container_proxy@2@XZ PROC ; std::_String_alloc<std::_String_base_types<char,std::allocator<char> > >::_Myproxy, COMDAT

; 2011 : 		{	// return reference to _Myproxy

$LN3:
	mov	QWORD PTR [rsp+8], rcx
	push	rbp
	sub	rsp, 112				; 00000070H
	lea	rbp, QWORD PTR [rsp+32]
	mov	QWORD PTR $T1[rbp], -2
	lea	rcx, OFFSET FLAT:__D9BA934F_xstring
	call	__CheckForDebuggerJustMyCode
	npad	1

; 2012 : 		return (_Get_data()._Myproxy);

	mov	rcx, QWORD PTR this$[rbp]
	call	?_Get_data@?$_String_alloc@U?$_String_base_types@DV?$allocator@D@std@@@std@@@std@@QEAAAEAV?$_String_val@U?$_Simple_types@D@std@@@2@XZ ; std::_String_alloc<std::_String_base_types<char,std::allocator<char> > >::_Get_data
	npad	1

; 2013 : 		}

	lea	rsp, QWORD PTR [rbp+80]
	pop	rbp
	ret	0
?_Myproxy@?$_String_alloc@U?$_String_base_types@DV?$allocator@D@std@@@std@@@std@@QEAAAEAPEAU_Container_proxy@2@XZ ENDP ; std::_String_alloc<std::_String_base_types<char,std::allocator<char> > >::_Myproxy
_TEXT	ENDS
; Function compile flags: /Odtp /RTCu /ZI
; File c:\program files (x86)\microsoft visual studio\2017\enterprise\vc\tools\msvc\14.15.26726\include\xstring
;	COMDAT ?_Free_proxy@?$_String_alloc@U?$_String_base_types@DV?$allocator@D@std@@@std@@@std@@QEAAXXZ
_TEXT	SEGMENT
_Proxy_allocator$ = 0
__$ArrayPad$ = 72
this$ = 96
?_Free_proxy@?$_String_alloc@U?$_String_base_types@DV?$allocator@D@std@@@std@@@std@@QEAAXXZ PROC ; std::_String_alloc<std::_String_base_types<char,std::allocator<char> > >::_Free_proxy, COMDAT

; 1997 : 		{	// destroy proxy

$LN3:
	mov	QWORD PTR [rsp+8], rcx
	push	rbp
	sub	rsp, 112				; 00000070H
	lea	rbp, QWORD PTR [rsp+32]
	mov	rax, QWORD PTR __security_cookie
	xor	rax, rbp
	mov	QWORD PTR __$ArrayPad$[rbp], rax
	lea	rcx, OFFSET FLAT:__D9BA934F_xstring
	call	__CheckForDebuggerJustMyCode

; 1998 : 		_Alproxy _Proxy_allocator(_Getal());

	mov	rcx, QWORD PTR this$[rbp]
	call	?_Getal@?$_String_alloc@U?$_String_base_types@DV?$allocator@D@std@@@std@@@std@@QEAAAEAV?$allocator@D@2@XZ ; std::_String_alloc<std::_String_base_types<char,std::allocator<char> > >::_Getal
	mov	rdx, rax
	lea	rcx, QWORD PTR _Proxy_allocator$[rbp]
	call	??$?0D@?$allocator@U_Container_proxy@std@@@std@@QEAA@AEBV?$allocator@D@1@@Z ; std::allocator<std::_Container_proxy>::allocator<std::_Container_proxy><char>

; 1999 : 		_Orphan_all();

	mov	rcx, QWORD PTR this$[rbp]
	call	?_Orphan_all@?$_String_alloc@U?$_String_base_types@DV?$allocator@D@std@@@std@@@std@@QEAAXXZ ; std::_String_alloc<std::_String_base_types<char,std::allocator<char> > >::_Orphan_all

; 2000 : 		_Alproxy_traits::destroy(_Proxy_allocator, _Myproxy());

	mov	rcx, QWORD PTR this$[rbp]
	call	?_Myproxy@?$_String_alloc@U?$_String_base_types@DV?$allocator@D@std@@@std@@@std@@QEAAAEAPEAU_Container_proxy@2@XZ ; std::_String_alloc<std::_String_base_types<char,std::allocator<char> > >::_Myproxy
	mov	rdx, QWORD PTR [rax]
	lea	rcx, QWORD PTR _Proxy_allocator$[rbp]
	call	??$destroy@U_Container_proxy@std@@@?$_Default_allocator_traits@V?$allocator@U_Container_proxy@std@@@std@@@std@@SAXAEAV?$allocator@U_Container_proxy@std@@@1@QEAU_Container_proxy@1@@Z ; std::_Default_allocator_traits<std::allocator<std::_Container_proxy> >::destroy<std::_Container_proxy>

; 2001 : 		_Deallocate_plain(_Proxy_allocator, _Myproxy());

	mov	rcx, QWORD PTR this$[rbp]
	call	?_Myproxy@?$_String_alloc@U?$_String_base_types@DV?$allocator@D@std@@@std@@@std@@QEAAAEAPEAU_Container_proxy@2@XZ ; std::_String_alloc<std::_String_base_types<char,std::allocator<char> > >::_Myproxy
	mov	rdx, QWORD PTR [rax]
	lea	rcx, QWORD PTR _Proxy_allocator$[rbp]
	call	??$_Deallocate_plain@V?$allocator@U_Container_proxy@std@@@std@@$0A@@std@@YAXAEAV?$allocator@U_Container_proxy@std@@@0@QEAU_Container_proxy@0@@Z ; std::_Deallocate_plain<std::allocator<std::_Container_proxy>,0>

; 2002 : 		_Myproxy() = nullptr;

	mov	rcx, QWORD PTR this$[rbp]
	call	?_Myproxy@?$_String_alloc@U?$_String_base_types@DV?$allocator@D@std@@@std@@@std@@QEAAAEAPEAU_Container_proxy@2@XZ ; std::_String_alloc<std::_String_base_types<char,std::allocator<char> > >::_Myproxy
	mov	QWORD PTR [rax], 0

; 2003 : 		}

	mov	rcx, QWORD PTR __$ArrayPad$[rbp]
	xor	rcx, rbp
	call	__security_check_cookie
	lea	rsp, QWORD PTR [rbp+80]
	pop	rbp
	ret	0
?_Free_proxy@?$_String_alloc@U?$_String_base_types@DV?$allocator@D@std@@@std@@@std@@QEAAXXZ ENDP ; std::_String_alloc<std::_String_base_types<char,std::allocator<char> > >::_Free_proxy
_TEXT	ENDS
; Function compile flags: /Odtp /RTCu /ZI
; File c:\program files (x86)\microsoft visual studio\2017\enterprise\vc\tools\msvc\14.15.26726\include\xstring
;	COMDAT ?_Alloc_proxy@?$_String_alloc@U?$_String_base_types@DV?$allocator@D@std@@@std@@@std@@QEAAXXZ
_TEXT	SEGMENT
_Proxy_allocator$ = 0
$T1 = 72
tv91 = 88
tv79 = 88
tv70 = 88
__$ArrayPad$ = 96
this$ = 128
?_Alloc_proxy@?$_String_alloc@U?$_String_base_types@DV?$allocator@D@std@@@std@@@std@@QEAAXXZ PROC ; std::_String_alloc<std::_String_base_types<char,std::allocator<char> > >::_Alloc_proxy, COMDAT

; 1989 : 		{	// construct proxy

$LN3:
	mov	QWORD PTR [rsp+8], rcx
	push	rbp
	sub	rsp, 144				; 00000090H
	lea	rbp, QWORD PTR [rsp+32]
	mov	rax, QWORD PTR __security_cookie
	xor	rax, rbp
	mov	QWORD PTR __$ArrayPad$[rbp], rax
	lea	rcx, OFFSET FLAT:__D9BA934F_xstring
	call	__CheckForDebuggerJustMyCode

; 1990 : 		_Alproxy _Proxy_allocator(_Getal());

	mov	rcx, QWORD PTR this$[rbp]
	call	?_Getal@?$_String_alloc@U?$_String_base_types@DV?$allocator@D@std@@@std@@@std@@QEAAAEAV?$allocator@D@2@XZ ; std::_String_alloc<std::_String_base_types<char,std::allocator<char> > >::_Getal
	mov	rdx, rax
	lea	rcx, QWORD PTR _Proxy_allocator$[rbp]
	call	??$?0D@?$allocator@U_Container_proxy@std@@@std@@QEAA@AEBV?$allocator@D@1@@Z ; std::allocator<std::_Container_proxy>::allocator<std::_Container_proxy><char>

; 1991 : 		_Myproxy() = _Unfancy(_Proxy_allocator.allocate(1));

	mov	edx, 1
	lea	rcx, QWORD PTR _Proxy_allocator$[rbp]
	call	?allocate@?$allocator@U_Container_proxy@std@@@std@@QEAAPEAU_Container_proxy@2@_K@Z ; std::allocator<std::_Container_proxy>::allocate
	mov	rcx, rax
	call	??$_Unfancy@U_Container_proxy@std@@@std@@YAPEAU_Container_proxy@0@PEAU10@@Z ; std::_Unfancy<std::_Container_proxy>
	mov	QWORD PTR tv70[rbp], rax
	mov	rcx, QWORD PTR this$[rbp]
	call	?_Myproxy@?$_String_alloc@U?$_String_base_types@DV?$allocator@D@std@@@std@@@std@@QEAAAEAPEAU_Container_proxy@2@XZ ; std::_String_alloc<std::_String_base_types<char,std::allocator<char> > >::_Myproxy
	mov	rcx, QWORD PTR tv70[rbp]
	mov	QWORD PTR [rax], rcx

; 1992 : 		_Alproxy_traits::construct(_Proxy_allocator, _Myproxy(), _Container_proxy());

	lea	rcx, QWORD PTR $T1[rbp]
	call	??0_Container_proxy@std@@QEAA@XZ	; std::_Container_proxy::_Container_proxy
	mov	QWORD PTR tv79[rbp], rax
	mov	rcx, QWORD PTR this$[rbp]
	call	?_Myproxy@?$_String_alloc@U?$_String_base_types@DV?$allocator@D@std@@@std@@@std@@QEAAAEAPEAU_Container_proxy@2@XZ ; std::_String_alloc<std::_String_base_types<char,std::allocator<char> > >::_Myproxy
	mov	rcx, QWORD PTR tv79[rbp]
	mov	r8, rcx
	mov	rdx, QWORD PTR [rax]
	lea	rcx, QWORD PTR _Proxy_allocator$[rbp]
	call	??$construct@U_Container_proxy@std@@U12@@?$_Default_allocator_traits@V?$allocator@U_Container_proxy@std@@@std@@@std@@SAXAEAV?$allocator@U_Container_proxy@std@@@1@QEAU_Container_proxy@1@$$QEAU31@@Z ; std::_Default_allocator_traits<std::allocator<std::_Container_proxy> >::construct<std::_Container_proxy,std::_Container_proxy>

; 1993 : 		_Myproxy()->_Mycont = _STD addressof(_Get_data());

	mov	rcx, QWORD PTR this$[rbp]
	call	?_Get_data@?$_String_alloc@U?$_String_base_types@DV?$allocator@D@std@@@std@@@std@@QEAAAEAV?$_String_val@U?$_Simple_types@D@std@@@2@XZ ; std::_String_alloc<std::_String_base_types<char,std::allocator<char> > >::_Get_data
	mov	rcx, rax
	call	??$addressof@V?$_String_val@U?$_Simple_types@D@std@@@std@@@std@@YAPEAV?$_String_val@U?$_Simple_types@D@std@@@0@AEAV10@@Z ; std::addressof<std::_String_val<std::_Simple_types<char> > >
	mov	QWORD PTR tv91[rbp], rax
	mov	rcx, QWORD PTR this$[rbp]
	call	?_Myproxy@?$_String_alloc@U?$_String_base_types@DV?$allocator@D@std@@@std@@@std@@QEAAAEAPEAU_Container_proxy@2@XZ ; std::_String_alloc<std::_String_base_types<char,std::allocator<char> > >::_Myproxy
	mov	rax, QWORD PTR [rax]
	mov	rcx, QWORD PTR tv91[rbp]
	mov	QWORD PTR [rax], rcx

; 1994 : 		}

	mov	rcx, QWORD PTR __$ArrayPad$[rbp]
	xor	rcx, rbp
	call	__security_check_cookie
	lea	rsp, QWORD PTR [rbp+112]
	pop	rbp
	ret	0
?_Alloc_proxy@?$_String_alloc@U?$_String_base_types@DV?$allocator@D@std@@@std@@@std@@QEAAXXZ ENDP ; std::_String_alloc<std::_String_base_types<char,std::allocator<char> > >::_Alloc_proxy
_TEXT	ENDS
; Function compile flags: /Odtp /RTCu /ZI
; File c:\program files (x86)\microsoft visual studio\2017\enterprise\vc\tools\msvc\14.15.26726\include\xstring
;	COMDAT ??1?$_String_alloc@U?$_String_base_types@DV?$allocator@D@std@@@std@@@std@@QEAA@XZ
_TEXT	SEGMENT
$T1 = 64
this$ = 96
??1?$_String_alloc@U?$_String_base_types@DV?$allocator@D@std@@@std@@@std@@QEAA@XZ PROC ; std::_String_alloc<std::_String_base_types<char,std::allocator<char> > >::~_String_alloc<std::_String_base_types<char,std::allocator<char> > >, COMDAT

; 1948 : 		{	// destroy the object

$LN3:
	mov	QWORD PTR [rsp+8], rcx
	push	rbp
	sub	rsp, 112				; 00000070H
	lea	rbp, QWORD PTR [rsp+32]
	mov	QWORD PTR $T1[rbp], -2
	lea	rcx, OFFSET FLAT:__D9BA934F_xstring
	call	__CheckForDebuggerJustMyCode
	npad	1

; 1949 : 		_Free_proxy();

	mov	rcx, QWORD PTR this$[rbp]
	call	?_Free_proxy@?$_String_alloc@U?$_String_base_types@DV?$allocator@D@std@@@std@@@std@@QEAAXXZ ; std::_String_alloc<std::_String_base_types<char,std::allocator<char> > >::_Free_proxy
	npad	1

; 1950 : 		}

	mov	rax, QWORD PTR this$[rbp]
	mov	rcx, rax
	call	??1?$_Compressed_pair@V?$allocator@D@std@@V?$_String_val@U?$_Simple_types@D@std@@@2@$00@std@@QEAA@XZ
	npad	1
	lea	rsp, QWORD PTR [rbp+80]
	pop	rbp
	ret	0
??1?$_String_alloc@U?$_String_base_types@DV?$allocator@D@std@@@std@@@std@@QEAA@XZ ENDP ; std::_String_alloc<std::_String_base_types<char,std::allocator<char> > >::~_String_alloc<std::_String_base_types<char,std::allocator<char> > >
_TEXT	ENDS
; Function compile flags: /Odtp /RTCu /ZI
; File c:\program files (x86)\microsoft visual studio\2017\enterprise\vc\tools\msvc\14.15.26726\include\xstring
;	COMDAT ??0?$_String_alloc@U?$_String_base_types@DV?$allocator@D@std@@@std@@@std@@QEAA@XZ
_TEXT	SEGMENT
$T1 = 64
$T2 = 72
this$ = 96
??0?$_String_alloc@U?$_String_base_types@DV?$allocator@D@std@@@std@@@std@@QEAA@XZ PROC ; std::_String_alloc<std::_String_base_types<char,std::allocator<char> > >::_String_alloc<std::_String_base_types<char,std::allocator<char> > >, COMDAT

; 1934 : 		{	// default construct allocator

$LN4:
	mov	QWORD PTR [rsp+8], rcx
	push	rbp
	sub	rsp, 112				; 00000070H
	lea	rbp, QWORD PTR [rsp+32]
	mov	QWORD PTR $T2[rbp], -2
	lea	rcx, OFFSET FLAT:__D9BA934F_xstring
	call	__CheckForDebuggerJustMyCode

; 1933 : 		: _Mypair(_Zero_then_variadic_args_t())

	mov	rax, QWORD PTR this$[rbp]
	movzx	edx, BYTE PTR $T1[rbp]
	mov	rcx, rax
	call	??$?0$$V@?$_Compressed_pair@V?$allocator@D@std@@V?$_String_val@U?$_Simple_types@D@std@@@2@$00@std@@QEAA@U_Zero_then_variadic_args_t@1@@Z ; std::_Compressed_pair<std::allocator<char>,std::_String_val<std::_Simple_types<char> >,1>::_Compressed_pair<std::allocator<char>,std::_String_val<std::_Simple_types<char> >,1><>
	npad	1

; 1935 : 		_Alloc_proxy();

	mov	rcx, QWORD PTR this$[rbp]
	call	?_Alloc_proxy@?$_String_alloc@U?$_String_base_types@DV?$allocator@D@std@@@std@@@std@@QEAAXXZ ; std::_String_alloc<std::_String_base_types<char,std::allocator<char> > >::_Alloc_proxy
	npad	1

; 1936 : 		}

	mov	rax, QWORD PTR this$[rbp]
	lea	rsp, QWORD PTR [rbp+80]
	pop	rbp
	ret	0
??0?$_String_alloc@U?$_String_base_types@DV?$allocator@D@std@@@std@@@std@@QEAA@XZ ENDP ; std::_String_alloc<std::_String_base_types<char,std::allocator<char> > >::_String_alloc<std::_String_base_types<char,std::allocator<char> > >
_TEXT	ENDS
;	COMDAT text$x
text$x	SEGMENT
$T1 = 64
$T2 = 72
this$ = 96
?dtor$0@?0???0?$_String_alloc@U?$_String_base_types@DV?$allocator@D@std@@@std@@@std@@QEAA@XZ@4HA PROC ; `std::_String_alloc<std::_String_base_types<char,std::allocator<char> > >::_String_alloc<std::_String_base_types<char,std::allocator<char> > >'::`1'::dtor$0
	push	rbp
	sub	rsp, 32					; 00000020H
	lea	rbp, QWORD PTR [rdx+32]
	mov	rcx, QWORD PTR this$[rbp]
	call	??1?$_Compressed_pair@V?$allocator@D@std@@V?$_String_val@U?$_Simple_types@D@std@@@2@$00@std@@QEAA@XZ
	add	rsp, 32					; 00000020H
	pop	rbp
	ret	0
?dtor$0@?0???0?$_String_alloc@U?$_String_base_types@DV?$allocator@D@std@@@std@@@std@@QEAA@XZ@4HA ENDP ; `std::_String_alloc<std::_String_base_types<char,std::allocator<char> > >::_String_alloc<std::_String_base_types<char,std::allocator<char> > >'::`1'::dtor$0
text$x	ENDS
; Function compile flags: /Odtp /RTCu /ZI
;	COMDAT text$x
text$x	SEGMENT
$T1 = 64
$T2 = 72
this$ = 96
?dtor$0@?0???0?$_String_alloc@U?$_String_base_types@DV?$allocator@D@std@@@std@@@std@@QEAA@XZ@4HA PROC ; `std::_String_alloc<std::_String_base_types<char,std::allocator<char> > >::_String_alloc<std::_String_base_types<char,std::allocator<char> > >'::`1'::dtor$0
	push	rbp
	sub	rsp, 32					; 00000020H
	lea	rbp, QWORD PTR [rdx+32]
	mov	rcx, QWORD PTR this$[rbp]
	call	??1?$_Compressed_pair@V?$allocator@D@std@@V?$_String_val@U?$_Simple_types@D@std@@@2@$00@std@@QEAA@XZ
	add	rsp, 32					; 00000020H
	pop	rbp
	ret	0
?dtor$0@?0???0?$_String_alloc@U?$_String_base_types@DV?$allocator@D@std@@@std@@@std@@QEAA@XZ@4HA ENDP ; `std::_String_alloc<std::_String_base_types<char,std::allocator<char> > >::_String_alloc<std::_String_base_types<char,std::allocator<char> > >'::`1'::dtor$0
text$x	ENDS
; Function compile flags: /Odtp /RTCu /ZI
;	COMDAT ??1?$_String_val@U?$_Simple_types@D@std@@@std@@QEAA@XZ
_TEXT	SEGMENT
this$ = 80
??1?$_String_val@U?$_Simple_types@D@std@@@std@@QEAA@XZ PROC ; std::_String_val<std::_Simple_types<char> >::~_String_val<std::_Simple_types<char> >, COMDAT
$LN3:
	mov	QWORD PTR [rsp+8], rcx
	push	rbp
	sub	rsp, 96					; 00000060H
	lea	rbp, QWORD PTR [rsp+32]
	mov	rax, QWORD PTR this$[rbp]
	add	rax, 8
	mov	rcx, rax
	call	??1_Bxty@?$_String_val@U?$_Simple_types@D@std@@@std@@QEAA@XZ ; std::_String_val<std::_Simple_types<char> >::_Bxty::~_Bxty
	lea	rsp, QWORD PTR [rbp+64]
	pop	rbp
	ret	0
??1?$_String_val@U?$_Simple_types@D@std@@@std@@QEAA@XZ ENDP ; std::_String_val<std::_Simple_types<char> >::~_String_val<std::_Simple_types<char> >
_TEXT	ENDS
; Function compile flags: /Odtp /RTCu /ZI
; File c:\program files (x86)\microsoft visual studio\2017\enterprise\vc\tools\msvc\14.15.26726\include\xstring
;	COMDAT ??1_Bxty@?$_String_val@U?$_Simple_types@D@std@@@std@@QEAA@XZ
_TEXT	SEGMENT
$T1 = 64
this$ = 96
??1_Bxty@?$_String_val@U?$_Simple_types@D@std@@@std@@QEAA@XZ PROC ; std::_String_val<std::_Simple_types<char> >::_Bxty::~_Bxty, COMDAT

; 1861 : 			{	// user-provided, for fancy pointers

$LN3:
	mov	QWORD PTR [rsp+8], rcx
	push	rbp
	sub	rsp, 112				; 00000070H
	lea	rbp, QWORD PTR [rsp+32]
	mov	QWORD PTR $T1[rbp], -2
	lea	rcx, OFFSET FLAT:__D9BA934F_xstring
	call	__CheckForDebuggerJustMyCode
	npad	1

; 1862 : 			}

	lea	rsp, QWORD PTR [rbp+80]
	pop	rbp
	ret	0
??1_Bxty@?$_String_val@U?$_Simple_types@D@std@@@std@@QEAA@XZ ENDP ; std::_String_val<std::_Simple_types<char> >::_Bxty::~_Bxty
_TEXT	ENDS
; Function compile flags: /Odtp /RTCu /ZI
; File c:\program files (x86)\microsoft visual studio\2017\enterprise\vc\tools\msvc\14.15.26726\include\xstring
;	COMDAT ??0_Bxty@?$_String_val@U?$_Simple_types@D@std@@@std@@QEAA@XZ
_TEXT	SEGMENT
this$ = 80
??0_Bxty@?$_String_val@U?$_Simple_types@D@std@@@std@@QEAA@XZ PROC ; std::_String_val<std::_Simple_types<char> >::_Bxty::_Bxty, COMDAT

; 1856 : 		_Bxty()

$LN3:
	mov	QWORD PTR [rsp+8], rcx
	push	rbp
	sub	rsp, 96					; 00000060H
	lea	rbp, QWORD PTR [rsp+32]
	lea	rcx, OFFSET FLAT:__D9BA934F_xstring
	call	__CheckForDebuggerJustMyCode

; 1857 : 			{	// user-provided, for fancy pointers
; 1858 : 			}

	mov	rax, QWORD PTR this$[rbp]
	lea	rsp, QWORD PTR [rbp+64]
	pop	rbp
	ret	0
??0_Bxty@?$_String_val@U?$_Simple_types@D@std@@@std@@QEAA@XZ ENDP ; std::_String_val<std::_Simple_types<char> >::_Bxty::_Bxty
_TEXT	ENDS
; Function compile flags: /Odtp /RTCu /ZI
; File c:\program files (x86)\microsoft visual studio\2017\enterprise\vc\tools\msvc\14.15.26726\include\xstring
;	COMDAT ?_Large_string_engaged@?$_String_val@U?$_Simple_types@D@std@@@std@@QEBA_NXZ
_TEXT	SEGMENT
tv66 = 64
this$ = 96
?_Large_string_engaged@?$_String_val@U?$_Simple_types@D@std@@@std@@QEBA_NXZ PROC ; std::_String_val<std::_Simple_types<char> >::_Large_string_engaged, COMDAT

; 1824 : 		{	// returns whether the large string mode (allocated memory) is engaged

$LN5:
	mov	QWORD PTR [rsp+8], rcx
	push	rbp
	sub	rsp, 112				; 00000070H
	lea	rbp, QWORD PTR [rsp+32]
	lea	rcx, OFFSET FLAT:__D9BA934F_xstring
	call	__CheckForDebuggerJustMyCode

; 1825 : 		return (_BUF_SIZE <= _Myres);

	mov	rax, QWORD PTR this$[rbp]
	cmp	QWORD PTR [rax+32], 16
	jb	SHORT $LN3@Large_stri
	mov	DWORD PTR tv66[rbp], 1
	jmp	SHORT $LN4@Large_stri
$LN3@Large_stri:
	mov	DWORD PTR tv66[rbp], 0
$LN4@Large_stri:
	movzx	eax, BYTE PTR tv66[rbp]

; 1826 : 		}

	lea	rsp, QWORD PTR [rbp+80]
	pop	rbp
	ret	0
?_Large_string_engaged@?$_String_val@U?$_Simple_types@D@std@@@std@@QEBA_NXZ ENDP ; std::_String_val<std::_Simple_types<char> >::_Large_string_engaged
_TEXT	ENDS
; Function compile flags: /Odtp /RTCu /ZI
; File c:\program files (x86)\microsoft visual studio\2017\enterprise\vc\tools\msvc\14.15.26726\include\xstring
;	COMDAT ?_Myptr@?$_String_val@U?$_Simple_types@D@std@@@std@@QEAAPEADXZ
_TEXT	SEGMENT
_Result$ = 0
this$ = 96
?_Myptr@?$_String_val@U?$_Simple_types@D@std@@@std@@QEAAPEADXZ PROC ; std::_String_val<std::_Simple_types<char> >::_Myptr, COMDAT

; 1802 : 		{	// determine current pointer to buffer for mutable string

$LN4:
	mov	QWORD PTR [rsp+8], rcx
	push	rbp
	sub	rsp, 112				; 00000070H
	lea	rbp, QWORD PTR [rsp+32]
	lea	rcx, OFFSET FLAT:__D9BA934F_xstring
	call	__CheckForDebuggerJustMyCode

; 1803 : 		value_type * _Result = _Bx._Buf;

	mov	rax, QWORD PTR this$[rbp]
	add	rax, 8
	mov	QWORD PTR _Result$[rbp], rax

; 1804 : 		if (_Large_string_engaged())

	mov	rcx, QWORD PTR this$[rbp]
	call	?_Large_string_engaged@?$_String_val@U?$_Simple_types@D@std@@@std@@QEBA_NXZ ; std::_String_val<std::_Simple_types<char> >::_Large_string_engaged
	movzx	eax, al
	test	eax, eax
	je	SHORT $LN2@Myptr

; 1805 : 			{
; 1806 : 			_Result = _Unfancy(_Bx._Ptr);

	mov	rax, QWORD PTR this$[rbp]
	mov	rcx, QWORD PTR [rax+8]
	call	??$_Unfancy@D@std@@YAPEADPEAD@Z		; std::_Unfancy<char>
	mov	QWORD PTR _Result$[rbp], rax
$LN2@Myptr:

; 1807 : 			}
; 1808 : 
; 1809 : 		return (_Result);

	mov	rax, QWORD PTR _Result$[rbp]

; 1810 : 		}

	lea	rsp, QWORD PTR [rbp+80]
	pop	rbp
	ret	0
?_Myptr@?$_String_val@U?$_Simple_types@D@std@@@std@@QEAAPEADXZ ENDP ; std::_String_val<std::_Simple_types<char> >::_Myptr
_TEXT	ENDS
; Function compile flags: /Odtp /RTCu /ZI
; File c:\program files (x86)\microsoft visual studio\2017\enterprise\vc\tools\msvc\14.15.26726\include\xstring
;	COMDAT ??0?$_String_val@U?$_Simple_types@D@std@@@std@@QEAA@XZ
_TEXT	SEGMENT
this$ = 80
??0?$_String_val@U?$_Simple_types@D@std@@@std@@QEAA@XZ PROC ; std::_String_val<std::_Simple_types<char> >::_String_val<std::_Simple_types<char> >, COMDAT

; 1786 : 		{	// initialize values

$LN4:
	mov	QWORD PTR [rsp+8], rcx
	push	rbp
	sub	rsp, 96					; 00000060H
	lea	rbp, QWORD PTR [rsp+32]
	lea	rcx, OFFSET FLAT:__D9BA934F_xstring
	call	__CheckForDebuggerJustMyCode
	mov	rcx, QWORD PTR this$[rbp]
	call	??0_Container_base12@std@@QEAA@XZ	; std::_Container_base12::_Container_base12

; 1783 : 		: _Bx(),

	mov	rax, QWORD PTR this$[rbp]
	add	rax, 8
	mov	rcx, rax
	call	??0_Bxty@?$_String_val@U?$_Simple_types@D@std@@@std@@QEAA@XZ ; std::_String_val<std::_Simple_types<char> >::_Bxty::_Bxty

; 1784 : 		_Mysize(0),

	mov	rax, QWORD PTR this$[rbp]
	mov	QWORD PTR [rax+24], 0

; 1785 : 		_Myres(0)

	mov	rax, QWORD PTR this$[rbp]
	mov	QWORD PTR [rax+32], 0

; 1787 : 		}

	mov	rax, QWORD PTR this$[rbp]
	lea	rsp, QWORD PTR [rbp+64]
	pop	rbp
	ret	0
??0?$_String_val@U?$_Simple_types@D@std@@@std@@QEAA@XZ ENDP ; std::_String_val<std::_Simple_types<char> >::_String_val<std::_Simple_types<char> >
_TEXT	ENDS
; Function compile flags: /Odtp /RTCu /ZI
; File c:\program files (x86)\microsoft visual studio\2017\enterprise\vc\tools\msvc\14.15.26726\include\xmemory0
;	COMDAT ?max_size@?$_Default_allocator_traits@V?$allocator@D@std@@@std@@SA_KAEBV?$allocator@D@2@@Z
_TEXT	SEGMENT
$T1 = 64
__formal$ = 96
?max_size@?$_Default_allocator_traits@V?$allocator@D@std@@@std@@SA_KAEBV?$allocator@D@2@@Z PROC ; std::_Default_allocator_traits<std::allocator<char> >::max_size, COMDAT

; 891  : 		{	// get maximum size

$LN3:
	mov	QWORD PTR [rsp+8], rcx
	push	rbp
	sub	rsp, 112				; 00000070H
	lea	rbp, QWORD PTR [rsp+32]
	mov	QWORD PTR $T1[rbp], -2
	lea	rcx, OFFSET FLAT:__39AEDAD7_xmemory0
	call	__CheckForDebuggerJustMyCode
	npad	1

; 892  : 		return (static_cast<size_t>(-1) / sizeof(value_type));

	mov	rax, -1

; 893  : 		}

	lea	rsp, QWORD PTR [rbp+80]
	pop	rbp
	ret	0
?max_size@?$_Default_allocator_traits@V?$allocator@D@std@@@std@@SA_KAEBV?$allocator@D@2@@Z ENDP ; std::_Default_allocator_traits<std::allocator<char> >::max_size
_TEXT	ENDS
; Function compile flags: /Odtp /RTCu /ZI
; File c:\program files (x86)\microsoft visual studio\2017\enterprise\vc\tools\msvc\14.15.26726\include\xmemory0
;	COMDAT ?allocate@?$allocator@D@std@@QEAAPEAD_K@Z
_TEXT	SEGMENT
this$ = 80
_Count$ = 88
?allocate@?$allocator@D@std@@QEAAPEAD_K@Z PROC		; std::allocator<char>::allocate, COMDAT

; 996  : 		{	// allocate array of _Count elements

$LN3:
	mov	QWORD PTR [rsp+16], rdx
	mov	QWORD PTR [rsp+8], rcx
	push	rbp
	sub	rsp, 96					; 00000060H
	lea	rbp, QWORD PTR [rsp+32]
	lea	rcx, OFFSET FLAT:__39AEDAD7_xmemory0
	call	__CheckForDebuggerJustMyCode

; 997  : 		return (static_cast<_Ty *>(_Allocate<_New_alignof<_Ty>>(_Get_size_of_n<sizeof(_Ty)>(_Count))));

	mov	rcx, QWORD PTR _Count$[rbp]
	call	??$_Get_size_of_n@$00@std@@YA_K_K@Z	; std::_Get_size_of_n<1>
	mov	rcx, rax
	call	??$_Allocate@$0BA@U_Default_allocate_traits@std@@$0A@@std@@YAPEAX_K@Z ; std::_Allocate<16,std::_Default_allocate_traits,0>

; 998  : 		}

	lea	rsp, QWORD PTR [rbp+64]
	pop	rbp
	ret	0
?allocate@?$allocator@D@std@@QEAAPEAD_K@Z ENDP		; std::allocator<char>::allocate
_TEXT	ENDS
; Function compile flags: /Odtp /RTCu /ZI
; File c:\program files (x86)\microsoft visual studio\2017\enterprise\vc\tools\msvc\14.15.26726\include\xmemory0
;	COMDAT ?deallocate@?$allocator@D@std@@QEAAXQEAD_K@Z
_TEXT	SEGMENT
this$ = 80
_Ptr$ = 88
_Count$ = 96
?deallocate@?$allocator@D@std@@QEAAXQEAD_K@Z PROC	; std::allocator<char>::deallocate, COMDAT

; 990  : 		{	// deallocate object at _Ptr

$LN3:
	mov	QWORD PTR [rsp+24], r8
	mov	QWORD PTR [rsp+16], rdx
	mov	QWORD PTR [rsp+8], rcx
	push	rbp
	sub	rsp, 96					; 00000060H
	lea	rbp, QWORD PTR [rsp+32]
	lea	rcx, OFFSET FLAT:__39AEDAD7_xmemory0
	call	__CheckForDebuggerJustMyCode

; 991  : 		// no overflow check on the following multiply; we assume _Allocate did that check
; 992  : 		_Deallocate<_New_alignof<_Ty>>(_Ptr, sizeof(_Ty) * _Count);

	mov	rdx, QWORD PTR _Count$[rbp]
	mov	rcx, QWORD PTR _Ptr$[rbp]
	call	??$_Deallocate@$0BA@$0A@@std@@YAXPEAX_K@Z ; std::_Deallocate<16,0>

; 993  : 		}

	lea	rsp, QWORD PTR [rbp+64]
	pop	rbp
	ret	0
?deallocate@?$allocator@D@std@@QEAAXQEAD_K@Z ENDP	; std::allocator<char>::deallocate
_TEXT	ENDS
; Function compile flags: /Odtp /RTCu /ZI
; File c:\program files (x86)\microsoft visual studio\2017\enterprise\vc\tools\msvc\14.15.26726\include\xmemory0
;	COMDAT ??0?$allocator@D@std@@QEAA@XZ
_TEXT	SEGMENT
$T1 = 64
this$ = 96
??0?$allocator@D@std@@QEAA@XZ PROC			; std::allocator<char>::allocator<char>, COMDAT

; 979  : 	constexpr allocator() noexcept

$LN3:
	mov	QWORD PTR [rsp+8], rcx
	push	rbp
	sub	rsp, 112				; 00000070H
	lea	rbp, QWORD PTR [rsp+32]
	mov	QWORD PTR $T1[rbp], -2
	lea	rcx, OFFSET FLAT:__39AEDAD7_xmemory0
	call	__CheckForDebuggerJustMyCode
	npad	1

; 980  : 		{	// construct default allocator (do nothing)
; 981  : 		}

	mov	rax, QWORD PTR this$[rbp]
	lea	rsp, QWORD PTR [rbp+80]
	pop	rbp
	ret	0
??0?$allocator@D@std@@QEAA@XZ ENDP			; std::allocator<char>::allocator<char>
_TEXT	ENDS
; Function compile flags: /Odtp /RTCu /ZI
; File c:\program files (x86)\microsoft visual studio\2017\enterprise\vc\tools\msvc\14.15.26726\include\utility
;	COMDAT ??$_Min_value@_K@std@@YAAEB_KAEB_K0@Z
_TEXT	SEGMENT
$T1 = 64
$T2 = 72
tv65 = 80
_Left$ = 112
_Right$ = 120
??$_Min_value@_K@std@@YAAEB_KAEB_K0@Z PROC		; std::_Min_value<unsigned __int64>, COMDAT

; 23   : 	{	// return smaller of _Left and _Right

$LN5:
	mov	QWORD PTR [rsp+16], rdx
	mov	QWORD PTR [rsp+8], rcx
	push	rbp
	sub	rsp, 128				; 00000080H
	lea	rbp, QWORD PTR [rsp+32]
	mov	QWORD PTR $T2[rbp], -2
	lea	rcx, OFFSET FLAT:__C7FC7610_utility
	call	__CheckForDebuggerJustMyCode
	npad	1

; 24   : 	return (_Right < _Left ? _Right : _Left);

	mov	rax, QWORD PTR _Right$[rbp]
	mov	rcx, QWORD PTR _Left$[rbp]
	mov	rcx, QWORD PTR [rcx]
	cmp	QWORD PTR [rax], rcx
	jae	SHORT $LN3@Min_value
	mov	rax, QWORD PTR _Right$[rbp]
	mov	QWORD PTR tv65[rbp], rax
	jmp	SHORT $LN4@Min_value
$LN3@Min_value:
	mov	rax, QWORD PTR _Left$[rbp]
	mov	QWORD PTR tv65[rbp], rax
$LN4@Min_value:
	mov	rax, QWORD PTR tv65[rbp]
	mov	QWORD PTR $T1[rbp], rax
	mov	rax, QWORD PTR $T1[rbp]

; 25   : 	}

	lea	rsp, QWORD PTR [rbp+96]
	pop	rbp
	ret	0
??$_Min_value@_K@std@@YAAEB_KAEB_K0@Z ENDP		; std::_Min_value<unsigned __int64>
_TEXT	ENDS
; Function compile flags: /Odtp /RTCu /ZI
; File c:\program files (x86)\microsoft visual studio\2017\enterprise\vc\tools\msvc\14.15.26726\include\xmemory0
;	COMDAT ??$_Convert_size@_K@std@@YA_K_K@Z
_TEXT	SEGMENT
_Len$ = 80
??$_Convert_size@_K@std@@YA_K_K@Z PROC			; std::_Convert_size<unsigned __int64>, COMDAT

; 1203 : 	{	// convert size_t to size_t, unchanged

$LN3:
	mov	QWORD PTR [rsp+8], rcx
	push	rbp
	sub	rsp, 96					; 00000060H
	lea	rbp, QWORD PTR [rsp+32]
	lea	rcx, OFFSET FLAT:__39AEDAD7_xmemory0
	call	__CheckForDebuggerJustMyCode

; 1204 : 	return (_Len);

	mov	rax, QWORD PTR _Len$[rbp]

; 1205 : 	}

	lea	rsp, QWORD PTR [rbp+64]
	pop	rbp
	ret	0
??$_Convert_size@_K@std@@YA_K_K@Z ENDP			; std::_Convert_size<unsigned __int64>
_TEXT	ENDS
; Function compile flags: /Odtp /RTCu /ZI
; File c:\program files (x86)\microsoft visual studio\2017\enterprise\vc\tools\msvc\14.15.26726\include\xmemory0
;	COMDAT ?_Adjust_manually_vector_aligned@std@@YAXAEAPEAXAEA_K@Z
_TEXT	SEGMENT
_Ptr_user$ = 0
_Ptr_container$ = 8
_Min_back_shift$ = 16
_Back_shift$ = 24
_Ptr$ = 112
_Bytes$ = 120
?_Adjust_manually_vector_aligned@std@@YAXAEAPEAXAEA_K@Z PROC ; std::_Adjust_manually_vector_aligned, COMDAT

; 114  : 	{	// adjust parameters from _Allocate_manually_vector_aligned to pass to operator delete

$LN21:
	mov	QWORD PTR [rsp+16], rdx
	mov	QWORD PTR [rsp+8], rcx
	push	rbp
	sub	rsp, 144				; 00000090H
	lea	rbp, QWORD PTR [rsp+48]
	lea	rcx, OFFSET FLAT:__39AEDAD7_xmemory0
	call	__CheckForDebuggerJustMyCode

; 115  : 	_Bytes += _Non_user_size;

	mov	rax, QWORD PTR _Bytes$[rbp]
	mov	rax, QWORD PTR [rax]
	add	rax, 47					; 0000002fH
	mov	rcx, QWORD PTR _Bytes$[rbp]
	mov	QWORD PTR [rcx], rax

; 116  : 
; 117  : 	const uintptr_t * const _Ptr_user = reinterpret_cast<uintptr_t *>(_Ptr);

	mov	rax, QWORD PTR _Ptr$[rbp]
	mov	rax, QWORD PTR [rax]
	mov	QWORD PTR _Ptr_user$[rbp], rax

; 118  : 	const uintptr_t _Ptr_container = _Ptr_user[-1];

	mov	eax, 8
	imul	rax, rax, -1
	mov	rcx, QWORD PTR _Ptr_user$[rbp]
	mov	rax, QWORD PTR [rcx+rax]
	mov	QWORD PTR _Ptr_container$[rbp], rax
$LN4@Adjust_man:

; 119  : 
; 120  : 	// If the following asserts, it likely means that we are performing
; 121  : 	// an aligned delete on memory coming from an unaligned allocation.
; 122  : 	_STL_ASSERT(_Ptr_user[-2] == _Big_allocation_sentinel, "invalid argument");

	mov	eax, 8
	imul	rax, rax, -2
	mov	rcx, QWORD PTR _Ptr_user$[rbp]
	mov	rdx, -361700864190383366		; fafafafafafafafaH
	cmp	QWORD PTR [rcx+rax], rdx
	jne	SHORT $LN14@Adjust_man
	jmp	SHORT $LN15@Adjust_man
$LN14@Adjust_man:
$LN7@Adjust_man:
	mov	eax, DWORD PTR ?__LINE__Var@?0??_Adjust_manually_vector_aligned@std@@YAXAEAPEAXAEA_K@Z@4JA
	add	eax, 8
	lea	rcx, OFFSET FLAT:??_C@_0BB@FCMFBGOM@invalid?5argument@
	mov	QWORD PTR [rsp+40], rcx
	lea	rcx, OFFSET FLAT:??_C@_02DKCKIIND@?$CFs@
	mov	QWORD PTR [rsp+32], rcx
	xor	r9d, r9d
	mov	r8d, eax
	lea	rdx, OFFSET FLAT:??_C@_0GK@FKLKIKPD@c?3?2program?5files?5?$CIx86?$CJ?2microsof@
	mov	ecx, 2
	call	QWORD PTR __imp__CrtDbgReport
	cmp	eax, 1
	jne	SHORT $LN19@Adjust_man
	int	3
	xor	eax, eax
$LN19@Adjust_man:
	mov	eax, DWORD PTR ?__LINE__Var@?0??_Adjust_manually_vector_aligned@std@@YAXAEAPEAXAEA_K@Z@4JA
	add	eax, 8
	mov	QWORD PTR [rsp+32], 0
	mov	r9d, eax
	lea	r8, OFFSET FLAT:??_C@_1NE@MCNNPIKO@?$AAc?$AA?3?$AA?2?$AAp?$AAr?$AAo?$AAg?$AAr?$AAa?$AAm?$AA?5?$AAf?$AAi?$AAl?$AAe@
	lea	rdx, OFFSET FLAT:??_C@_1EK@NIFDJFDG@?$AAs?$AAt?$AAd?$AA?3?$AA?3?$AA_?$AAA?$AAd?$AAj?$AAu?$AAs?$AAt?$AA_?$AAm?$AAa@
	lea	rcx, OFFSET FLAT:??_C@_1CG@JNLFBNGN@?$AA?$CC?$AAi?$AAn?$AAv?$AAa?$AAl?$AAi?$AAd?$AA?5?$AAa?$AAr?$AAg?$AAu?$AAm?$AAe@
	call	QWORD PTR __imp__invalid_parameter
	xor	eax, eax
	test	eax, eax
	jne	SHORT $LN7@Adjust_man
$LN15@Adjust_man:
	xor	eax, eax
	test	eax, eax
	jne	$LN4@Adjust_man

; 123  : 
; 124  : 	// Extra paranoia on aligned allocation/deallocation; ensure _Ptr_container is
; 125  : 	// in range [_Min_back_shift, _Non_user_size]
; 126  :   #ifdef _DEBUG
; 127  : 	constexpr uintptr_t _Min_back_shift = 2 * sizeof(void *);

	mov	QWORD PTR _Min_back_shift$[rbp], 16

; 128  :   #else /* ^^^ _DEBUG ^^^ // vvv !_DEBUG vvv */
; 129  : 	constexpr uintptr_t _Min_back_shift = sizeof(void *);
; 130  :   #endif /* _DEBUG */
; 131  : 	const uintptr_t _Back_shift = reinterpret_cast<uintptr_t>(_Ptr) - _Ptr_container;

	mov	rax, QWORD PTR _Ptr$[rbp]
	mov	rcx, QWORD PTR _Ptr_container$[rbp]
	mov	rax, QWORD PTR [rax]
	sub	rax, rcx
	mov	QWORD PTR _Back_shift$[rbp], rax
$LN10@Adjust_man:

; 132  : 	_STL_VERIFY(_Back_shift >= _Min_back_shift && _Back_shift <= _Non_user_size, "invalid argument");

	cmp	QWORD PTR _Back_shift$[rbp], 16
	jb	SHORT $LN16@Adjust_man
	cmp	QWORD PTR _Back_shift$[rbp], 47		; 0000002fH
	ja	SHORT $LN16@Adjust_man
	jmp	SHORT $LN17@Adjust_man
$LN16@Adjust_man:
$LN13@Adjust_man:
	mov	eax, DWORD PTR ?__LINE__Var@?0??_Adjust_manually_vector_aligned@std@@YAXAEAPEAXAEA_K@Z@4JA
	add	eax, 18
	lea	rcx, OFFSET FLAT:??_C@_0BB@FCMFBGOM@invalid?5argument@
	mov	QWORD PTR [rsp+40], rcx
	lea	rcx, OFFSET FLAT:??_C@_02DKCKIIND@?$CFs@
	mov	QWORD PTR [rsp+32], rcx
	xor	r9d, r9d
	mov	r8d, eax
	lea	rdx, OFFSET FLAT:??_C@_0GK@FKLKIKPD@c?3?2program?5files?5?$CIx86?$CJ?2microsof@
	mov	ecx, 2
	call	QWORD PTR __imp__CrtDbgReport
	cmp	eax, 1
	jne	SHORT $LN20@Adjust_man
	int	3
	xor	eax, eax
$LN20@Adjust_man:
	mov	eax, DWORD PTR ?__LINE__Var@?0??_Adjust_manually_vector_aligned@std@@YAXAEAPEAXAEA_K@Z@4JA
	add	eax, 18
	mov	QWORD PTR [rsp+32], 0
	mov	r9d, eax
	lea	r8, OFFSET FLAT:??_C@_1NE@MCNNPIKO@?$AAc?$AA?3?$AA?2?$AAp?$AAr?$AAo?$AAg?$AAr?$AAa?$AAm?$AA?5?$AAf?$AAi?$AAl?$AAe@
	lea	rdx, OFFSET FLAT:??_C@_1EK@NIFDJFDG@?$AAs?$AAt?$AAd?$AA?3?$AA?3?$AA_?$AAA?$AAd?$AAj?$AAu?$AAs?$AAt?$AA_?$AAm?$AAa@
	lea	rcx, OFFSET FLAT:??_C@_1CG@JNLFBNGN@?$AA?$CC?$AAi?$AAn?$AAv?$AAa?$AAl?$AAi?$AAd?$AA?5?$AAa?$AAr?$AAg?$AAu?$AAm?$AAe@
	call	QWORD PTR __imp__invalid_parameter
	xor	eax, eax
	test	eax, eax
	jne	SHORT $LN13@Adjust_man
$LN17@Adjust_man:
	xor	eax, eax
	test	eax, eax
	jne	$LN10@Adjust_man

; 133  : 	_Ptr = reinterpret_cast<void *>(_Ptr_container);

	mov	rax, QWORD PTR _Ptr$[rbp]
	mov	rcx, QWORD PTR _Ptr_container$[rbp]
	mov	QWORD PTR [rax], rcx

; 134  : 	}

	lea	rsp, QWORD PTR [rbp+96]
	pop	rbp
	ret	0
?_Adjust_manually_vector_aligned@std@@YAXAEAPEAXAEA_K@Z ENDP ; std::_Adjust_manually_vector_aligned
_TEXT	ENDS
; Function compile flags: /Odtp /RTCu /ZI
; File c:\program files (x86)\microsoft visual studio\2017\enterprise\vc\tools\msvc\14.15.26726\include\xmemory0
;	COMDAT ?_Allocate@_Default_allocate_traits@std@@SAPEAX_K@Z
_TEXT	SEGMENT
_Bytes$ = 80
?_Allocate@_Default_allocate_traits@std@@SAPEAX_K@Z PROC ; std::_Default_allocate_traits::_Allocate, COMDAT

; 51   : 		{

$LN3:
	mov	QWORD PTR [rsp+8], rcx
	push	rbp
	sub	rsp, 96					; 00000060H
	lea	rbp, QWORD PTR [rsp+32]
	lea	rcx, OFFSET FLAT:__39AEDAD7_xmemory0
	call	__CheckForDebuggerJustMyCode

; 52   : 		return (::operator new(_Bytes));

	mov	rcx, QWORD PTR _Bytes$[rbp]
	call	??2@YAPEAX_K@Z				; operator new

; 53   : 		}

	lea	rsp, QWORD PTR [rbp+64]
	pop	rbp
	ret	0
?_Allocate@_Default_allocate_traits@std@@SAPEAX_K@Z ENDP ; std::_Default_allocate_traits::_Allocate
_TEXT	ENDS
; Function compile flags: /Odtp /RTCu /ZI
; File c:\program files (x86)\microsoft visual studio\2017\enterprise\vc\tools\msvc\14.15.26726\include\xmemory0
;	COMDAT ??$_Get_size_of_n@$00@std@@YA_K_K@Z
_TEXT	SEGMENT
_Count$ = 80
??$_Get_size_of_n@$00@std@@YA_K_K@Z PROC		; std::_Get_size_of_n<1>, COMDAT

; 37   : 	{	// gets the size of _Count copies of a type with size 1

$LN3:
	mov	QWORD PTR [rsp+8], rcx
	push	rbp
	sub	rsp, 96					; 00000060H
	lea	rbp, QWORD PTR [rsp+32]
	lea	rcx, OFFSET FLAT:__39AEDAD7_xmemory0
	call	__CheckForDebuggerJustMyCode

; 38   : 	return (_Count);

	mov	rax, QWORD PTR _Count$[rbp]

; 39   : 	}

	lea	rsp, QWORD PTR [rbp+64]
	pop	rbp
	ret	0
??$_Get_size_of_n@$00@std@@YA_K_K@Z ENDP		; std::_Get_size_of_n<1>
_TEXT	ENDS
; Function compile flags: /Odtp /RTCu /ZI
; File c:\program files (x86)\microsoft visual studio\2017\enterprise\vc\tools\msvc\14.15.26726\include\xutility
;	COMDAT ?_Getpnext@_Iterator_base12@std@@QEAAPEAPEAU12@XZ
_TEXT	SEGMENT
$T1 = 64
this$ = 96
?_Getpnext@_Iterator_base12@std@@QEAAPEAPEAU12@XZ PROC	; std::_Iterator_base12::_Getpnext, COMDAT

; 186  : 		{	// get address of remaining iterator chain

$LN3:
	mov	QWORD PTR [rsp+8], rcx
	push	rbp
	sub	rsp, 112				; 00000070H
	lea	rbp, QWORD PTR [rsp+32]
	mov	QWORD PTR $T1[rbp], -2
	lea	rcx, OFFSET FLAT:__E8FD1B86_xutility
	call	__CheckForDebuggerJustMyCode
	npad	1

; 187  : 		return (&_Mynextiter);

	mov	rax, QWORD PTR this$[rbp]
	add	rax, 8

; 188  : 		}

	lea	rsp, QWORD PTR [rbp+80]
	pop	rbp
	ret	0
?_Getpnext@_Iterator_base12@std@@QEAAPEAPEAU12@XZ ENDP	; std::_Iterator_base12::_Getpnext
_TEXT	ENDS
; Function compile flags: /Odtp /RTCu /ZI
; File c:\program files (x86)\microsoft visual studio\2017\enterprise\vc\tools\msvc\14.15.26726\include\xutility
;	COMDAT ?_Clrcont@_Iterator_base12@std@@QEAAXXZ
_TEXT	SEGMENT
$T1 = 64
this$ = 96
?_Clrcont@_Iterator_base12@std@@QEAAXXZ PROC		; std::_Iterator_base12::_Clrcont, COMDAT

; 176  : 		{	// disown owning container

$LN3:
	mov	QWORD PTR [rsp+8], rcx
	push	rbp
	sub	rsp, 112				; 00000070H
	lea	rbp, QWORD PTR [rsp+32]
	mov	QWORD PTR $T1[rbp], -2
	lea	rcx, OFFSET FLAT:__E8FD1B86_xutility
	call	__CheckForDebuggerJustMyCode
	npad	1

; 177  : 		_Myproxy = nullptr;

	mov	rax, QWORD PTR this$[rbp]
	mov	QWORD PTR [rax], 0

; 178  : 		}

	lea	rsp, QWORD PTR [rbp+80]
	pop	rbp
	ret	0
?_Clrcont@_Iterator_base12@std@@QEAAXXZ ENDP		; std::_Iterator_base12::_Clrcont
_TEXT	ENDS
; Function compile flags: /Odtp /RTCu /ZI
; File c:\program files (x86)\microsoft visual studio\2017\enterprise\vc\tools\msvc\14.15.26726\include\xutility
;	COMDAT ?_Orphan_all@_Container_base12@std@@QEAAXXZ
_TEXT	SEGMENT
_Lock$1 = 0
_Pnext$2 = 8
$T3 = 80
__$ArrayPad$ = 88
this$ = 112
?_Orphan_all@_Container_base12@std@@QEAAXXZ PROC	; std::_Container_base12::_Orphan_all, COMDAT

; 214  : 	{	// orphan all iterators

$LN7:
	mov	QWORD PTR [rsp+8], rcx
	push	rbp
	sub	rsp, 128				; 00000080H
	lea	rbp, QWORD PTR [rsp+32]
	mov	QWORD PTR $T3[rbp], -2
	mov	rax, QWORD PTR __security_cookie
	xor	rax, rbp
	mov	QWORD PTR __$ArrayPad$[rbp], rax
	lea	rcx, OFFSET FLAT:__E8FD1B86_xutility
	call	__CheckForDebuggerJustMyCode
	npad	1

; 215  :  #if _ITERATOR_DEBUG_LEVEL == 2
; 216  : 	if (_Myproxy != nullptr)

	mov	rax, QWORD PTR this$[rbp]
	cmp	QWORD PTR [rax], 0
	je	SHORT $LN5@Orphan_all

; 217  : 		{	// proxy allocated, drain it
; 218  : 		_Lockit _Lock(_LOCK_DEBUG);

	mov	edx, 3
	lea	rcx, QWORD PTR _Lock$1[rbp]
	call	QWORD PTR __imp_??0_Lockit@std@@QEAA@H@Z
	npad	1

; 219  : 
; 220  : 		for (_Iterator_base12 **_Pnext = &_Myproxy->_Myfirstiter;

	mov	rax, QWORD PTR this$[rbp]
	mov	rax, QWORD PTR [rax]
	add	rax, 8
	mov	QWORD PTR _Pnext$2[rbp], rax
	jmp	SHORT $LN4@Orphan_all
$LN2@Orphan_all:

; 221  : 			*_Pnext != nullptr; *_Pnext = (*_Pnext)->_Mynextiter)

	mov	rax, QWORD PTR _Pnext$2[rbp]
	mov	rax, QWORD PTR [rax]
	mov	rcx, QWORD PTR _Pnext$2[rbp]
	mov	rax, QWORD PTR [rax+8]
	mov	QWORD PTR [rcx], rax
$LN4@Orphan_all:
	mov	rax, QWORD PTR _Pnext$2[rbp]
	cmp	QWORD PTR [rax], 0
	je	SHORT $LN3@Orphan_all

; 222  : 			(*_Pnext)->_Myproxy = nullptr;

	mov	rax, QWORD PTR _Pnext$2[rbp]
	mov	rax, QWORD PTR [rax]
	mov	QWORD PTR [rax], 0
	jmp	SHORT $LN2@Orphan_all
$LN3@Orphan_all:

; 223  : 		_Myproxy->_Myfirstiter = nullptr;

	mov	rax, QWORD PTR this$[rbp]
	mov	rax, QWORD PTR [rax]
	mov	QWORD PTR [rax+8], 0

; 224  : 		}

	lea	rcx, QWORD PTR _Lock$1[rbp]
	call	QWORD PTR __imp_??1_Lockit@std@@QEAA@XZ
	npad	1
$LN5@Orphan_all:

; 225  :  #endif /* _ITERATOR_DEBUG_LEVEL == 2 */
; 226  : 	}

	mov	rcx, QWORD PTR __$ArrayPad$[rbp]
	xor	rcx, rbp
	call	__security_check_cookie
	npad	1
	lea	rsp, QWORD PTR [rbp+96]
	pop	rbp
	ret	0
?_Orphan_all@_Container_base12@std@@QEAAXXZ ENDP	; std::_Container_base12::_Orphan_all
_TEXT	ENDS
; Function compile flags: /Odtp /RTCu /ZI
; File c:\program files (x86)\microsoft visual studio\2017\enterprise\vc\tools\msvc\14.15.26726\include\xutility
;	COMDAT ?_Getpfirst@_Container_base12@std@@QEBAPEAPEAU_Iterator_base12@2@XZ
_TEXT	SEGMENT
$T1 = 64
tv68 = 72
this$ = 96
?_Getpfirst@_Container_base12@std@@QEBAPEAPEAU_Iterator_base12@2@XZ PROC ; std::_Container_base12::_Getpfirst, COMDAT

; 95   : 		{	// get address of iterator chain

$LN5:
	mov	QWORD PTR [rsp+8], rcx
	push	rbp
	sub	rsp, 112				; 00000070H
	lea	rbp, QWORD PTR [rsp+32]
	mov	QWORD PTR $T1[rbp], -2
	lea	rcx, OFFSET FLAT:__E8FD1B86_xutility
	call	__CheckForDebuggerJustMyCode
	npad	1

; 96   : 		return (_Myproxy == nullptr ? nullptr : &_Myproxy->_Myfirstiter);

	mov	rax, QWORD PTR this$[rbp]
	cmp	QWORD PTR [rax], 0
	jne	SHORT $LN3@Getpfirst
	mov	QWORD PTR tv68[rbp], 0
	jmp	SHORT $LN4@Getpfirst
$LN3@Getpfirst:
	mov	rax, QWORD PTR this$[rbp]
	mov	rax, QWORD PTR [rax]
	add	rax, 8
	mov	QWORD PTR tv68[rbp], rax
$LN4@Getpfirst:
	mov	rax, QWORD PTR tv68[rbp]

; 97   : 		}

	lea	rsp, QWORD PTR [rbp+80]
	pop	rbp
	ret	0
?_Getpfirst@_Container_base12@std@@QEBAPEAPEAU_Iterator_base12@2@XZ ENDP ; std::_Container_base12::_Getpfirst
_TEXT	ENDS
; Function compile flags: /Odtp /RTCu /ZI
; File c:\program files (x86)\microsoft visual studio\2017\enterprise\vc\tools\msvc\14.15.26726\include\xutility
;	COMDAT ??0_Container_base12@std@@QEAA@XZ
_TEXT	SEGMENT
this$ = 80
??0_Container_base12@std@@QEAA@XZ PROC			; std::_Container_base12::_Container_base12, COMDAT

; 81   : 		{	// construct childless container

$LN3:
	mov	QWORD PTR [rsp+8], rcx
	push	rbp
	sub	rsp, 96					; 00000060H
	lea	rbp, QWORD PTR [rsp+32]
	lea	rcx, OFFSET FLAT:__E8FD1B86_xutility
	call	__CheckForDebuggerJustMyCode

; 80   : 		: _Myproxy(nullptr)

	mov	rax, QWORD PTR this$[rbp]
	mov	QWORD PTR [rax], 0

; 82   : 		}

	mov	rax, QWORD PTR this$[rbp]
	lea	rsp, QWORD PTR [rbp+64]
	pop	rbp
	ret	0
??0_Container_base12@std@@QEAA@XZ ENDP			; std::_Container_base12::_Container_base12
_TEXT	ENDS
; Function compile flags: /Odtp /RTCu /ZI
; File c:\program files (x86)\microsoft visual studio\2017\enterprise\vc\tools\msvc\14.15.26726\include\xutility
;	COMDAT ??0_Container_proxy@std@@QEAA@XZ
_TEXT	SEGMENT
$T1 = 64
this$ = 96
??0_Container_proxy@std@@QEAA@XZ PROC			; std::_Container_proxy::_Container_proxy, COMDAT

; 69   : 		{	// construct from pointers

$LN3:
	mov	QWORD PTR [rsp+8], rcx
	push	rbp
	sub	rsp, 112				; 00000070H
	lea	rbp, QWORD PTR [rsp+32]
	mov	QWORD PTR $T1[rbp], -2
	lea	rcx, OFFSET FLAT:__E8FD1B86_xutility
	call	__CheckForDebuggerJustMyCode
	npad	1

; 68   : 		: _Mycont(nullptr), _Myfirstiter(nullptr)

	mov	rax, QWORD PTR this$[rbp]
	mov	QWORD PTR [rax], 0
	mov	rax, QWORD PTR this$[rbp]
	mov	QWORD PTR [rax+8], 0

; 70   : 		}

	mov	rax, QWORD PTR this$[rbp]
	lea	rsp, QWORD PTR [rbp+80]
	pop	rbp
	ret	0
??0_Container_proxy@std@@QEAA@XZ ENDP			; std::_Container_proxy::_Container_proxy
_TEXT	ENDS
; Function compile flags: /Odtp /RTCu /ZI
; File c:\program files (x86)\microsoft visual studio\2017\enterprise\vc\tools\msvc\14.15.26726\include\iosfwd
;	COMDAT ?assign@?$char_traits@D@std@@SAXAEADAEBD@Z
_TEXT	SEGMENT
$T1 = 64
_Left$ = 96
_Right$ = 104
?assign@?$char_traits@D@std@@SAXAEADAEBD@Z PROC		; std::char_traits<char>::assign, COMDAT

; 505  : 		{	// assign an element

$LN3:
	mov	QWORD PTR [rsp+16], rdx
	mov	QWORD PTR [rsp+8], rcx
	push	rbp
	sub	rsp, 112				; 00000070H
	lea	rbp, QWORD PTR [rsp+32]
	mov	QWORD PTR $T1[rbp], -2
	lea	rcx, OFFSET FLAT:__B33FDDE7_iosfwd
	call	__CheckForDebuggerJustMyCode
	npad	1

; 506  : 		_Left = _Right;

	mov	rax, QWORD PTR _Left$[rbp]
	mov	rcx, QWORD PTR _Right$[rbp]
	movzx	ecx, BYTE PTR [rcx]
	mov	BYTE PTR [rax], cl

; 507  : 		}

	lea	rsp, QWORD PTR [rbp+80]
	pop	rbp
	ret	0
?assign@?$char_traits@D@std@@SAXAEADAEBD@Z ENDP		; std::char_traits<char>::assign
_TEXT	ENDS
; Function compile flags: /Odtp /RTCu /ZI
; File c:\program files (x86)\microsoft visual studio\2017\enterprise\vc\tools\msvc\14.15.26726\include\iosfwd
;	COMDAT ?move@?$char_traits@D@std@@SAPEADQEADQEBD_K@Z
_TEXT	SEGMENT
$T1 = 64
_First1$ = 96
_First2$ = 104
_Count$ = 112
?move@?$char_traits@D@std@@SAPEADQEADQEBD_K@Z PROC	; std::char_traits<char>::move, COMDAT

; 494  : 		{	// copy [_First2, _First2 + _Count) to [_First1, ...)

$LN3:
	mov	QWORD PTR [rsp+24], r8
	mov	QWORD PTR [rsp+16], rdx
	mov	QWORD PTR [rsp+8], rcx
	push	rbp
	sub	rsp, 112				; 00000070H
	lea	rbp, QWORD PTR [rsp+32]
	mov	QWORD PTR $T1[rbp], -2
	lea	rcx, OFFSET FLAT:__B33FDDE7_iosfwd
	call	__CheckForDebuggerJustMyCode
	npad	1

; 495  : 		return (static_cast<char *>(_CSTD memmove(_First1, _First2, _Count)));

	mov	r8, QWORD PTR _Count$[rbp]
	mov	rdx, QWORD PTR _First2$[rbp]
	mov	rcx, QWORD PTR _First1$[rbp]
	call	memmove
	npad	1

; 496  : 		}

	lea	rsp, QWORD PTR [rbp+80]
	pop	rbp
	ret	0
?move@?$char_traits@D@std@@SAPEADQEADQEBD_K@Z ENDP	; std::char_traits<char>::move
_TEXT	ENDS
; Function compile flags: /Odtp /RTCu /ZI
; File c:\program files (x86)\microsoft visual studio\2017\enterprise\vc\tools\msvc\14.15.26726\include\iosfwd
;	COMDAT ?copy@?$char_traits@D@std@@SAPEADQEADQEBD_K@Z
_TEXT	SEGMENT
$T1 = 64
_First1$ = 96
_First2$ = 104
_Count$ = 112
?copy@?$char_traits@D@std@@SAPEADQEADQEBD_K@Z PROC	; std::char_traits<char>::copy, COMDAT

; 470  : 		{	// copy [_First2, _First2 + _Count) to [_First1, ...)

$LN3:
	mov	QWORD PTR [rsp+24], r8
	mov	QWORD PTR [rsp+16], rdx
	mov	QWORD PTR [rsp+8], rcx
	push	rbp
	sub	rsp, 112				; 00000070H
	lea	rbp, QWORD PTR [rsp+32]
	mov	QWORD PTR $T1[rbp], -2
	lea	rcx, OFFSET FLAT:__B33FDDE7_iosfwd
	call	__CheckForDebuggerJustMyCode
	npad	1

; 471  : 		return (static_cast<char *>(_CSTD memcpy(_First1, _First2, _Count)));

	mov	r8, QWORD PTR _Count$[rbp]
	mov	rdx, QWORD PTR _First2$[rbp]
	mov	rcx, QWORD PTR _First1$[rbp]
	call	memcpy
	npad	1

; 472  : 		}

	lea	rsp, QWORD PTR [rbp+80]
	pop	rbp
	ret	0
?copy@?$char_traits@D@std@@SAPEADQEADQEBD_K@Z ENDP	; std::char_traits<char>::copy
_TEXT	ENDS
; Function compile flags: /Odtp /RTCu /ZI
; File c:\program files (x86)\microsoft visual studio\2017\enterprise\vc\tools\msvc\14.15.26726\include\iosfwd
;	COMDAT ?length@?$char_traits@D@std@@SA_KQEBD@Z
_TEXT	SEGMENT
$T1 = 64
_First$ = 96
?length@?$char_traits@D@std@@SA_KQEBD@Z PROC		; std::char_traits<char>::length, COMDAT

; 460  : 		{	// find length of null-terminated string

$LN3:
	mov	QWORD PTR [rsp+8], rcx
	push	rbp
	sub	rsp, 112				; 00000070H
	lea	rbp, QWORD PTR [rsp+32]
	mov	QWORD PTR $T1[rbp], -2
	lea	rcx, OFFSET FLAT:__B33FDDE7_iosfwd
	call	__CheckForDebuggerJustMyCode
	npad	1

; 461  : #if _HAS_CXX17
; 462  : 		return (__builtin_strlen(_First));
; 463  : #else /* _HAS_CXX17 */
; 464  : 		return (_CSTD strlen(_First));

	mov	rcx, QWORD PTR _First$[rbp]
	call	strlen
	npad	1

; 465  : #endif /* _HAS_CXX17 */
; 466  : 		}

	lea	rsp, QWORD PTR [rbp+80]
	pop	rbp
	ret	0
?length@?$char_traits@D@std@@SA_KQEBD@Z ENDP		; std::char_traits<char>::length
_TEXT	ENDS
; Function compile flags: /Odtp /RTCu /ZI
; File c:\program files (x86)\microsoft visual studio\2017\enterprise\vc\tools\msvc\14.15.26726\include\limits
;	COMDAT ?max@?$numeric_limits@_J@std@@SA_JXZ
_TEXT	SEGMENT
$T1 = 64
?max@?$numeric_limits@_J@std@@SA_JXZ PROC		; std::numeric_limits<__int64>::max, COMDAT

; 893  : 		{	// return maximum value

$LN3:
	push	rbp
	sub	rsp, 112				; 00000070H
	lea	rbp, QWORD PTR [rsp+32]
	mov	QWORD PTR $T1[rbp], -2
	lea	rcx, OFFSET FLAT:__7FD60861_limits
	call	__CheckForDebuggerJustMyCode
	npad	1

; 894  : 		return (LLONG_MAX);

	mov	rax, 9223372036854775807		; 7fffffffffffffffH

; 895  : 		}

	lea	rsp, QWORD PTR [rbp+80]
	pop	rbp
	ret	0
?max@?$numeric_limits@_J@std@@SA_JXZ ENDP		; std::numeric_limits<__int64>::max
_TEXT	ENDS
; Function compile flags: /Odtp /RTCu /ZI
; File c:\program files (x86)\microsoft visual studio\2017\enterprise\vc\tools\msvc\14.15.26726\include\vcruntime_new.h
;	COMDAT ??2@YAPEAX_KPEAX@Z
_TEXT	SEGMENT
$T1 = 64
_Size$ = 96
_Where$ = 104
??2@YAPEAX_KPEAX@Z PROC					; operator new, COMDAT

; 185  :     {

$LN3:
	mov	QWORD PTR [rsp+16], rdx
	mov	QWORD PTR [rsp+8], rcx
	push	rbp
	sub	rsp, 112				; 00000070H
	lea	rbp, QWORD PTR [rsp+32]
	mov	QWORD PTR $T1[rbp], -2
	lea	rcx, OFFSET FLAT:__C3726024_vcruntime_new.h
	call	__CheckForDebuggerJustMyCode
	npad	1

; 186  :         (void)_Size;
; 187  :         return _Where;

	mov	rax, QWORD PTR _Where$[rbp]

; 188  :     }

	lea	rsp, QWORD PTR [rbp+80]
	pop	rbp
	ret	0
??2@YAPEAX_KPEAX@Z ENDP					; operator new
_TEXT	ENDS
; Function compile flags: /Odtp /RTCu /ZI
;	COMDAT ??_GVBO@buffers@core@@QEAAPEAXI@Z
_TEXT	SEGMENT
this$ = 80
__flags$ = 88
??_GVBO@buffers@core@@QEAAPEAXI@Z PROC			; core::buffers::VBO::`scalar deleting destructor', COMDAT
$LN4:
	mov	DWORD PTR [rsp+16], edx
	mov	QWORD PTR [rsp+8], rcx
	push	rbp
	sub	rsp, 96					; 00000060H
	lea	rbp, QWORD PTR [rsp+32]
	mov	rcx, QWORD PTR this$[rbp]
	call	??1VBO@buffers@core@@QEAA@XZ		; core::buffers::VBO::~VBO
	mov	eax, DWORD PTR __flags$[rbp]
	and	eax, 1
	test	eax, eax
	je	SHORT $LN2@scalar
	mov	edx, 4
	mov	rcx, QWORD PTR this$[rbp]
	call	??3@YAXPEAX_K@Z				; operator delete
$LN2@scalar:
	mov	rax, QWORD PTR this$[rbp]
	lea	rsp, QWORD PTR [rbp+64]
	pop	rbp
	ret	0
??_GVBO@buffers@core@@QEAAPEAXI@Z ENDP			; core::buffers::VBO::`scalar deleting destructor'
_TEXT	ENDS
; Function compile flags: /Odtp /RTCu /ZI
; File l:\dev\featherfallengine\featherfall-examples\src\scene\texturetestscene.cpp
;	COMDAT ?__empty_global_delete@@YAXPEAX_K@Z
_TEXT	SEGMENT
__formal$ = 80
__formal$ = 88
?__empty_global_delete@@YAXPEAX_K@Z PROC		; __empty_global_delete, COMDAT

$LN3:
	mov	QWORD PTR [rsp+16], rdx
	mov	QWORD PTR [rsp+8], rcx
	push	rbp
	sub	rsp, 96					; 00000060H
	lea	rbp, QWORD PTR [rsp+32]
	lea	rcx, OFFSET FLAT:__24B56FB6_texturetestscene.cpp
	call	__CheckForDebuggerJustMyCode
	lea	rsp, QWORD PTR [rbp+64]
	pop	rbp
	ret	0
?__empty_global_delete@@YAXPEAX_K@Z ENDP		; __empty_global_delete
_TEXT	ENDS
; Function compile flags: /Odtp /RTCu /ZI
; File l:\dev\featherfallengine\featherfall-examples\src\scene\texturetestscene.cpp
;	COMDAT ?__empty_global_delete@@YAXPEAX@Z
_TEXT	SEGMENT
__formal$ = 80
?__empty_global_delete@@YAXPEAX@Z PROC			; __empty_global_delete, COMDAT

$LN3:
	mov	QWORD PTR [rsp+8], rcx
	push	rbp
	sub	rsp, 96					; 00000060H
	lea	rbp, QWORD PTR [rsp+32]
	lea	rcx, OFFSET FLAT:__24B56FB6_texturetestscene.cpp
	call	__CheckForDebuggerJustMyCode
	lea	rsp, QWORD PTR [rbp+64]
	pop	rbp
	ret	0
?__empty_global_delete@@YAXPEAX@Z ENDP			; __empty_global_delete
_TEXT	ENDS
; Function compile flags: /Odtp /RTCu /ZI
;	COMDAT ??_H@YAXPEAX_K1P6APEAX0@Z@Z
_TEXT	SEGMENT
tv66 = 64
tv67 = 72
__t$ = 96
__s$ = 104
__n$ = 112
__f$ = 120
??_H@YAXPEAX_K1P6APEAX0@Z@Z PROC			; `vector constructor iterator', COMDAT
$LN7:
	mov	QWORD PTR [rsp+32], r9
	mov	QWORD PTR [rsp+24], r8
	mov	QWORD PTR [rsp+16], rdx
	mov	QWORD PTR [rsp+8], rcx
	push	rbp
	sub	rsp, 112				; 00000070H
	lea	rbp, QWORD PTR [rsp+32]
$LN2@vector:
	mov	rax, QWORD PTR __n$[rbp]
	mov	QWORD PTR tv66[rbp], rax
	mov	rax, QWORD PTR __n$[rbp]
	dec	rax
	mov	QWORD PTR __n$[rbp], rax
	cmp	QWORD PTR tv66[rbp], 0
	jbe	SHORT $LN5@vector
	mov	DWORD PTR tv67[rbp], 1
	jmp	SHORT $LN6@vector
$LN5@vector:
	mov	DWORD PTR tv67[rbp], 0
$LN6@vector:
	cmp	DWORD PTR tv67[rbp], 0
	je	SHORT $LN3@vector
	mov	rcx, QWORD PTR __t$[rbp]
	call	QWORD PTR __f$[rbp]
	mov	rax, QWORD PTR __s$[rbp]
	mov	rcx, QWORD PTR __t$[rbp]
	add	rcx, rax
	mov	rax, rcx
	mov	QWORD PTR __t$[rbp], rax
	jmp	SHORT $LN2@vector
$LN3@vector:
	lea	rsp, QWORD PTR [rbp+80]
	pop	rbp
	ret	0
??_H@YAXPEAX_K1P6APEAX0@Z@Z ENDP			; `vector constructor iterator'
_TEXT	ENDS
END
