; Listing generated by Microsoft (R) Optimizing Compiler Version 19.15.26726.0 

include listing.inc

INCLUDELIB MSVCRTD
INCLUDELIB OLDNAMES

msvcjmc	SEGMENT
__C3726024_vcruntime_new.h DB 01H
__388D9910_stdlib.h DB 01H
__AF9067BE_corecrt_math.h DB 01H
__F0F1F39B_cstdlib DB 01H
__FC722CCB_xtgmath.h DB 01H
__5340138E_cmath DB 01H
__5DB10197_corecrt_memcpy_s.h DB 01H
__D40DD59F_corecrt_stdio_config.h DB 01H
__7EC77528_corecrt_wconio.h DB 01H
__5C7715BA_corecrt_wio.h DB 01H
__3AB8031F_corecrt_wstdio.h DB 01H
__7A0084B3_corecrt_wstring.h DB 01H
__8AE89E8D_corecrt_wtime.h DB 01H
__3F8BCAED_stat.h DB 01H
__5B5D5F1B_wchar.h DB 01H
__7FD60861_limits DB 01H
__6C905C6A_type_traits DB 01H
__ACA0BEE6_malloc.h DB 01H
__1AB859C2_vcruntime_exception.h DB 01H
__B20D35A8_exception DB 01H
__A57BBCE6_stdio.h DB 01H
__1F77EA16_corecrt_memory.h DB 01H
__BEFE0DB4_string.h DB 01H
__B33FDDE7_iosfwd DB 01H
__E8FD1B86_xutility DB 01H
__44F7D211_xatomic0.h DB 01H
__39AEDAD7_xmemory0 DB 01H
__3B430FF5_stdexcept DB 01H
__6DC649C7_bufferlayout.h DB 01H
__29D2B671_ibo.h DB 01H
__768210A7_vcruntime_typeinfo.h DB 01H
__7A53EED8_ctype.h DB 01H
__87AB0B57_xlocinfo DB 01H
__C37804EF_memory DB 01H
__EF3D53E0_xfacet DB 01H
__0684E77E_xlocale DB 01H
__4552C965_xcall_once.h DB 01H
__FA0FDB45_system_error DB 01H
__BE4E7C44_xiosbase DB 01H
__98038169_xlocnum DB 01H
__F5D7447A_ios DB 01H
__80B6B68A_type_vec4_simd.inl DB 01H
__E3872A82_exponential.h DB 01H
__9F28AA45_func_exponential_simd.inl DB 01H
__29A045F3_common.h DB 01H
__B7988A80_func_common.inl DB 01H
__24CAB0E6_geometric.h DB 01H
__97BCFF82_matrix.h DB 01H
__120E1A77_func_matrix_simd.inl DB 01H
__B7AB8273_string DB 01H
__96066920_texture.h DB 01H
__09AF338C_imgui.h DB 01H
__80B35CB9_texturetestscene.h DB 01H
__24B56FB6_texturetestscene.cpp DB 01H
__327B7881_vector DB 01H
__D9BA934F_xstring DB 01H
__76440880_istream DB 01H
__15943DBA_ostream DB 01H
__39E3B749_streambuf DB 01H
__C7FC7610_utility DB 01H
__30E3E102_xstddef DB 01H
__A0704DDA_type_vec4.inl DB 01H
__BF97B2F5_type_mat4x4.inl DB 01H
__7E15BB52_type_mat4x4.hpp DB 01H
__61F2447D_type_vec4.hpp DB 01H
__AD6915D3_xmemory DB 01H
msvcjmc	ENDS
PUBLIC	??_H@YAXPEAX_K1P6APEAX0@Z@Z			; `vector constructor iterator'
PUBLIC	?__empty_global_delete@@YAXPEAX@Z		; __empty_global_delete
PUBLIC	?__empty_global_delete@@YAXPEAX_K@Z		; __empty_global_delete
PUBLIC	??_GVBO@buffers@core@@QEAAPEAXI@Z		; core::buffers::VBO::`scalar deleting destructor'
PUBLIC	??2@YAPEAX_KPEAX@Z				; operator new
PUBLIC	?max@?$numeric_limits@_J@std@@SA_JXZ		; std::numeric_limits<__int64>::max
PUBLIC	?length@?$char_traits@D@std@@SA_KQEBD@Z		; std::char_traits<char>::length
PUBLIC	?copy@?$char_traits@D@std@@SAPEADQEADQEBD_K@Z	; std::char_traits<char>::copy
PUBLIC	?move@?$char_traits@D@std@@SAPEADQEADQEBD_K@Z	; std::char_traits<char>::move
PUBLIC	?assign@?$char_traits@D@std@@SAXAEADAEBD@Z	; std::char_traits<char>::assign
PUBLIC	??0_Container_proxy@std@@QEAA@XZ		; std::_Container_proxy::_Container_proxy
PUBLIC	??0_Container_base12@std@@QEAA@XZ		; std::_Container_base12::_Container_base12
PUBLIC	?_Getpfirst@_Container_base12@std@@QEBAPEAPEAU_Iterator_base12@2@XZ ; std::_Container_base12::_Getpfirst
PUBLIC	?_Orphan_all@_Container_base12@std@@QEAAXXZ	; std::_Container_base12::_Orphan_all
PUBLIC	?_Clrcont@_Iterator_base12@std@@QEAAXXZ		; std::_Iterator_base12::_Clrcont
PUBLIC	?_Getpnext@_Iterator_base12@std@@QEAAPEAPEAU12@XZ ; std::_Iterator_base12::_Getpnext
PUBLIC	??$_Get_size_of_n@$00@std@@YA_K_K@Z		; std::_Get_size_of_n<1>
PUBLIC	?_Allocate@_Default_allocate_traits@std@@SAPEAX_K@Z ; std::_Default_allocate_traits::_Allocate
PUBLIC	?_Adjust_manually_vector_aligned@std@@YAXAEAPEAXAEA_K@Z ; std::_Adjust_manually_vector_aligned
PUBLIC	??$_Convert_size@_K@std@@YA_K_K@Z		; std::_Convert_size<unsigned __int64>
PUBLIC	??$_Min_value@_K@std@@YAAEB_KAEB_K0@Z		; std::_Min_value<unsigned __int64>
PUBLIC	??0?$allocator@D@std@@QEAA@XZ			; std::allocator<char>::allocator<char>
PUBLIC	?deallocate@?$allocator@D@std@@QEAAXQEAD_K@Z	; std::allocator<char>::deallocate
PUBLIC	?allocate@?$allocator@D@std@@QEAAPEAD_K@Z	; std::allocator<char>::allocate
PUBLIC	?max_size@?$_Default_allocator_traits@V?$allocator@D@std@@@std@@SA_KAEBV?$allocator@D@2@@Z ; std::_Default_allocator_traits<std::allocator<char> >::max_size
PUBLIC	??0?$_String_val@U?$_Simple_types@D@std@@@std@@QEAA@XZ ; std::_String_val<std::_Simple_types<char> >::_String_val<std::_Simple_types<char> >
PUBLIC	?_Myptr@?$_String_val@U?$_Simple_types@D@std@@@std@@QEAAPEADXZ ; std::_String_val<std::_Simple_types<char> >::_Myptr
PUBLIC	?_Large_string_engaged@?$_String_val@U?$_Simple_types@D@std@@@std@@QEBA_NXZ ; std::_String_val<std::_Simple_types<char> >::_Large_string_engaged
PUBLIC	??0_Bxty@?$_String_val@U?$_Simple_types@D@std@@@std@@QEAA@XZ ; std::_String_val<std::_Simple_types<char> >::_Bxty::_Bxty
PUBLIC	??1_Bxty@?$_String_val@U?$_Simple_types@D@std@@@std@@QEAA@XZ ; std::_String_val<std::_Simple_types<char> >::_Bxty::~_Bxty
PUBLIC	??1?$_String_val@U?$_Simple_types@D@std@@@std@@QEAA@XZ ; std::_String_val<std::_Simple_types<char> >::~_String_val<std::_Simple_types<char> >
PUBLIC	??0?$_String_alloc@U?$_String_base_types@DV?$allocator@D@std@@@std@@@std@@QEAA@XZ ; std::_String_alloc<std::_String_base_types<char,std::allocator<char> > >::_String_alloc<std::_String_base_types<char,std::allocator<char> > >
PUBLIC	??1?$_String_alloc@U?$_String_base_types@DV?$allocator@D@std@@@std@@@std@@QEAA@XZ ; std::_String_alloc<std::_String_base_types<char,std::allocator<char> > >::~_String_alloc<std::_String_base_types<char,std::allocator<char> > >
PUBLIC	?_Alloc_proxy@?$_String_alloc@U?$_String_base_types@DV?$allocator@D@std@@@std@@@std@@QEAAXXZ ; std::_String_alloc<std::_String_base_types<char,std::allocator<char> > >::_Alloc_proxy
PUBLIC	?_Free_proxy@?$_String_alloc@U?$_String_base_types@DV?$allocator@D@std@@@std@@@std@@QEAAXXZ ; std::_String_alloc<std::_String_base_types<char,std::allocator<char> > >::_Free_proxy
PUBLIC	?_Myproxy@?$_String_alloc@U?$_String_base_types@DV?$allocator@D@std@@@std@@@std@@QEAAAEAPEAU_Container_proxy@2@XZ ; std::_String_alloc<std::_String_base_types<char,std::allocator<char> > >::_Myproxy
PUBLIC	?_Orphan_all@?$_String_alloc@U?$_String_base_types@DV?$allocator@D@std@@@std@@@std@@QEAAXXZ ; std::_String_alloc<std::_String_base_types<char,std::allocator<char> > >::_Orphan_all
PUBLIC	?_Getal@?$_String_alloc@U?$_String_base_types@DV?$allocator@D@std@@@std@@@std@@QEAAAEAV?$allocator@D@2@XZ ; std::_String_alloc<std::_String_base_types<char,std::allocator<char> > >::_Getal
PUBLIC	?_Getal@?$_String_alloc@U?$_String_base_types@DV?$allocator@D@std@@@std@@@std@@QEBAAEBV?$allocator@D@2@XZ ; std::_String_alloc<std::_String_base_types<char,std::allocator<char> > >::_Getal
PUBLIC	?_Get_data@?$_String_alloc@U?$_String_base_types@DV?$allocator@D@std@@@std@@@std@@QEAAAEAV?$_String_val@U?$_Simple_types@D@std@@@2@XZ ; std::_String_alloc<std::_String_base_types<char,std::allocator<char> > >::_Get_data
PUBLIC	?_Get_data@?$_String_alloc@U?$_String_base_types@DV?$allocator@D@std@@@std@@@std@@QEBAAEBV?$_String_val@U?$_Simple_types@D@std@@@2@XZ ; std::_String_alloc<std::_String_base_types<char,std::allocator<char> > >::_Get_data
PUBLIC	?_Get_first@?$_Compressed_pair@V?$allocator@D@std@@V?$_String_val@U?$_Simple_types@D@std@@@2@$00@std@@QEAAAEAV?$allocator@D@2@XZ ; std::_Compressed_pair<std::allocator<char>,std::_String_val<std::_Simple_types<char> >,1>::_Get_first
PUBLIC	?_Get_first@?$_Compressed_pair@V?$allocator@D@std@@V?$_String_val@U?$_Simple_types@D@std@@@2@$00@std@@QEBAAEBV?$allocator@D@2@XZ ; std::_Compressed_pair<std::allocator<char>,std::_String_val<std::_Simple_types<char> >,1>::_Get_first
PUBLIC	?_Get_second@?$_Compressed_pair@V?$allocator@D@std@@V?$_String_val@U?$_Simple_types@D@std@@@2@$00@std@@QEAAAEAV?$_String_val@U?$_Simple_types@D@std@@@2@XZ ; std::_Compressed_pair<std::allocator<char>,std::_String_val<std::_Simple_types<char> >,1>::_Get_second
PUBLIC	?_Get_second@?$_Compressed_pair@V?$allocator@D@std@@V?$_String_val@U?$_Simple_types@D@std@@@2@$00@std@@QEBAAEBV?$_String_val@U?$_Simple_types@D@std@@@2@XZ ; std::_Compressed_pair<std::allocator<char>,std::_String_val<std::_Simple_types<char> >,1>::_Get_second
PUBLIC	??1?$_Compressed_pair@V?$allocator@D@std@@V?$_String_val@U?$_Simple_types@D@std@@@2@$00@std@@QEAA@XZ ; std::_Compressed_pair<std::allocator<char>,std::_String_val<std::_Simple_types<char> >,1>::~_Compressed_pair<std::allocator<char>,std::_String_val<std::_Simple_types<char> >,1>
PUBLIC	??0?$basic_string@DU?$char_traits@D@std@@V?$allocator@D@2@@std@@QEAA@QEBD@Z ; std::basic_string<char,std::char_traits<char>,std::allocator<char> >::basic_string<char,std::char_traits<char>,std::allocator<char> >
PUBLIC	??1?$basic_string@DU?$char_traits@D@std@@V?$allocator@D@2@@std@@QEAA@XZ ; std::basic_string<char,std::char_traits<char>,std::allocator<char> >::~basic_string<char,std::char_traits<char>,std::allocator<char> >
PUBLIC	?assign@?$basic_string@DU?$char_traits@D@std@@V?$allocator@D@2@@std@@QEAAAEAV12@QEBD_K@Z ; std::basic_string<char,std::char_traits<char>,std::allocator<char> >::assign
PUBLIC	?assign@?$basic_string@DU?$char_traits@D@std@@V?$allocator@D@2@@std@@QEAAAEAV12@QEBD@Z ; std::basic_string<char,std::char_traits<char>,std::allocator<char> >::assign
PUBLIC	?max_size@?$basic_string@DU?$char_traits@D@std@@V?$allocator@D@2@@std@@QEBA_KXZ ; std::basic_string<char,std::char_traits<char>,std::allocator<char> >::max_size
PUBLIC	?_Calculate_growth@?$basic_string@DU?$char_traits@D@std@@V?$allocator@D@2@@std@@QEBA_K_K@Z ; std::basic_string<char,std::char_traits<char>,std::allocator<char> >::_Calculate_growth
PUBLIC	?_Tidy_init@?$basic_string@DU?$char_traits@D@std@@V?$allocator@D@2@@std@@QEAAXXZ ; std::basic_string<char,std::char_traits<char>,std::allocator<char> >::_Tidy_init
PUBLIC	?_Tidy_deallocate@?$basic_string@DU?$char_traits@D@std@@V?$allocator@D@2@@std@@QEAAXXZ ; std::basic_string<char,std::char_traits<char>,std::allocator<char> >::_Tidy_deallocate
PUBLIC	?_Xlen@?$basic_string@DU?$char_traits@D@std@@V?$allocator@D@2@@std@@SAXXZ ; std::basic_string<char,std::char_traits<char>,std::allocator<char> >::_Xlen
PUBLIC	?SizeOfType@BufferElement@buffers@core@@SAII@Z	; core::buffers::BufferElement::SizeOfType
PUBLIC	??0?$allocator@UBufferElement@buffers@core@@@std@@QEAA@XZ ; std::allocator<core::buffers::BufferElement>::allocator<core::buffers::BufferElement>
PUBLIC	?deallocate@?$allocator@UBufferElement@buffers@core@@@std@@QEAAXQEAUBufferElement@buffers@core@@_K@Z ; std::allocator<core::buffers::BufferElement>::deallocate
PUBLIC	?allocate@?$allocator@UBufferElement@buffers@core@@@std@@QEAAPEAUBufferElement@buffers@core@@_K@Z ; std::allocator<core::buffers::BufferElement>::allocate
PUBLIC	?max_size@?$_Default_allocator_traits@V?$allocator@UBufferElement@buffers@core@@@std@@@std@@SA_KAEBV?$allocator@UBufferElement@buffers@core@@@2@@Z ; std::_Default_allocator_traits<std::allocator<core::buffers::BufferElement> >::max_size
PUBLIC	??0?$_Vector_alloc@U?$_Vec_base_types@UBufferElement@buffers@core@@V?$allocator@UBufferElement@buffers@core@@@std@@@std@@@std@@QEAA@XZ ; std::_Vector_alloc<std::_Vec_base_types<core::buffers::BufferElement,std::allocator<core::buffers::BufferElement> > >::_Vector_alloc<std::_Vec_base_types<core::buffers::BufferElement,std::allocator<core::buffers::BufferElement> > >
PUBLIC	??1?$_Vector_alloc@U?$_Vec_base_types@UBufferElement@buffers@core@@V?$allocator@UBufferElement@buffers@core@@@std@@@std@@@std@@QEAA@XZ ; std::_Vector_alloc<std::_Vec_base_types<core::buffers::BufferElement,std::allocator<core::buffers::BufferElement> > >::~_Vector_alloc<std::_Vec_base_types<core::buffers::BufferElement,std::allocator<core::buffers::BufferElement> > >
PUBLIC	?_Alloc_proxy@?$_Vector_alloc@U?$_Vec_base_types@UBufferElement@buffers@core@@V?$allocator@UBufferElement@buffers@core@@@std@@@std@@@std@@QEAAXXZ ; std::_Vector_alloc<std::_Vec_base_types<core::buffers::BufferElement,std::allocator<core::buffers::BufferElement> > >::_Alloc_proxy
PUBLIC	?_Free_proxy@?$_Vector_alloc@U?$_Vec_base_types@UBufferElement@buffers@core@@V?$allocator@UBufferElement@buffers@core@@@std@@@std@@@std@@QEAAXXZ ; std::_Vector_alloc<std::_Vec_base_types<core::buffers::BufferElement,std::allocator<core::buffers::BufferElement> > >::_Free_proxy
PUBLIC	?_Getpfirst@?$_Vector_alloc@U?$_Vec_base_types@UBufferElement@buffers@core@@V?$allocator@UBufferElement@buffers@core@@@std@@@std@@@std@@QEBAPEAPEAU_Iterator_base12@2@XZ ; std::_Vector_alloc<std::_Vec_base_types<core::buffers::BufferElement,std::allocator<core::buffers::BufferElement> > >::_Getpfirst
PUBLIC	?_Myproxy@?$_Vector_alloc@U?$_Vec_base_types@UBufferElement@buffers@core@@V?$allocator@UBufferElement@buffers@core@@@std@@@std@@@std@@QEAAAEAPEAU_Container_proxy@2@XZ ; std::_Vector_alloc<std::_Vec_base_types<core::buffers::BufferElement,std::allocator<core::buffers::BufferElement> > >::_Myproxy
PUBLIC	?_Orphan_all@?$_Vector_alloc@U?$_Vec_base_types@UBufferElement@buffers@core@@V?$allocator@UBufferElement@buffers@core@@@std@@@std@@@std@@QEAAXXZ ; std::_Vector_alloc<std::_Vec_base_types<core::buffers::BufferElement,std::allocator<core::buffers::BufferElement> > >::_Orphan_all
PUBLIC	?_Getal@?$_Vector_alloc@U?$_Vec_base_types@UBufferElement@buffers@core@@V?$allocator@UBufferElement@buffers@core@@@std@@@std@@@std@@QEAAAEAV?$allocator@UBufferElement@buffers@core@@@2@XZ ; std::_Vector_alloc<std::_Vec_base_types<core::buffers::BufferElement,std::allocator<core::buffers::BufferElement> > >::_Getal
PUBLIC	?_Getal@?$_Vector_alloc@U?$_Vec_base_types@UBufferElement@buffers@core@@V?$allocator@UBufferElement@buffers@core@@@std@@@std@@@std@@QEBAAEBV?$allocator@UBufferElement@buffers@core@@@2@XZ ; std::_Vector_alloc<std::_Vec_base_types<core::buffers::BufferElement,std::allocator<core::buffers::BufferElement> > >::_Getal
PUBLIC	?_Get_data@?$_Vector_alloc@U?$_Vec_base_types@UBufferElement@buffers@core@@V?$allocator@UBufferElement@buffers@core@@@std@@@std@@@std@@QEAAAEAV?$_Vector_val@U?$_Simple_types@UBufferElement@buffers@core@@@std@@@2@XZ ; std::_Vector_alloc<std::_Vec_base_types<core::buffers::BufferElement,std::allocator<core::buffers::BufferElement> > >::_Get_data
PUBLIC	?_Get_data@?$_Vector_alloc@U?$_Vec_base_types@UBufferElement@buffers@core@@V?$allocator@UBufferElement@buffers@core@@@std@@@std@@@std@@QEBAAEBV?$_Vector_val@U?$_Simple_types@UBufferElement@buffers@core@@@std@@@2@XZ ; std::_Vector_alloc<std::_Vec_base_types<core::buffers::BufferElement,std::allocator<core::buffers::BufferElement> > >::_Get_data
PUBLIC	?_Myfirst@?$_Vector_alloc@U?$_Vec_base_types@UBufferElement@buffers@core@@V?$allocator@UBufferElement@buffers@core@@@std@@@std@@@std@@QEAAAEAPEAUBufferElement@buffers@core@@XZ ; std::_Vector_alloc<std::_Vec_base_types<core::buffers::BufferElement,std::allocator<core::buffers::BufferElement> > >::_Myfirst
PUBLIC	?_Myfirst@?$_Vector_alloc@U?$_Vec_base_types@UBufferElement@buffers@core@@V?$allocator@UBufferElement@buffers@core@@@std@@@std@@@std@@QEBAAEBQEAUBufferElement@buffers@core@@XZ ; std::_Vector_alloc<std::_Vec_base_types<core::buffers::BufferElement,std::allocator<core::buffers::BufferElement> > >::_Myfirst
PUBLIC	?_Mylast@?$_Vector_alloc@U?$_Vec_base_types@UBufferElement@buffers@core@@V?$allocator@UBufferElement@buffers@core@@@std@@@std@@@std@@QEAAAEAPEAUBufferElement@buffers@core@@XZ ; std::_Vector_alloc<std::_Vec_base_types<core::buffers::BufferElement,std::allocator<core::buffers::BufferElement> > >::_Mylast
PUBLIC	?_Mylast@?$_Vector_alloc@U?$_Vec_base_types@UBufferElement@buffers@core@@V?$allocator@UBufferElement@buffers@core@@@std@@@std@@@std@@QEBAAEBQEAUBufferElement@buffers@core@@XZ ; std::_Vector_alloc<std::_Vec_base_types<core::buffers::BufferElement,std::allocator<core::buffers::BufferElement> > >::_Mylast
PUBLIC	?_Myend@?$_Vector_alloc@U?$_Vec_base_types@UBufferElement@buffers@core@@V?$allocator@UBufferElement@buffers@core@@@std@@@std@@@std@@QEAAAEAPEAUBufferElement@buffers@core@@XZ ; std::_Vector_alloc<std::_Vec_base_types<core::buffers::BufferElement,std::allocator<core::buffers::BufferElement> > >::_Myend
PUBLIC	?_Myend@?$_Vector_alloc@U?$_Vec_base_types@UBufferElement@buffers@core@@V?$allocator@UBufferElement@buffers@core@@@std@@@std@@@std@@QEBAAEBQEAUBufferElement@buffers@core@@XZ ; std::_Vector_alloc<std::_Vec_base_types<core::buffers::BufferElement,std::allocator<core::buffers::BufferElement> > >::_Myend
PUBLIC	??0?$_Vector_val@U?$_Simple_types@UBufferElement@buffers@core@@@std@@@std@@QEAA@XZ ; std::_Vector_val<std::_Simple_types<core::buffers::BufferElement> >::_Vector_val<std::_Simple_types<core::buffers::BufferElement> >
PUBLIC	?_Get_first@?$_Compressed_pair@V?$allocator@UBufferElement@buffers@core@@@std@@V?$_Vector_val@U?$_Simple_types@UBufferElement@buffers@core@@@std@@@2@$00@std@@QEAAAEAV?$allocator@UBufferElement@buffers@core@@@2@XZ ; std::_Compressed_pair<std::allocator<core::buffers::BufferElement>,std::_Vector_val<std::_Simple_types<core::buffers::BufferElement> >,1>::_Get_first
PUBLIC	?_Get_first@?$_Compressed_pair@V?$allocator@UBufferElement@buffers@core@@@std@@V?$_Vector_val@U?$_Simple_types@UBufferElement@buffers@core@@@std@@@2@$00@std@@QEBAAEBV?$allocator@UBufferElement@buffers@core@@@2@XZ ; std::_Compressed_pair<std::allocator<core::buffers::BufferElement>,std::_Vector_val<std::_Simple_types<core::buffers::BufferElement> >,1>::_Get_first
PUBLIC	?_Get_second@?$_Compressed_pair@V?$allocator@UBufferElement@buffers@core@@@std@@V?$_Vector_val@U?$_Simple_types@UBufferElement@buffers@core@@@std@@@2@$00@std@@QEAAAEAV?$_Vector_val@U?$_Simple_types@UBufferElement@buffers@core@@@std@@@2@XZ ; std::_Compressed_pair<std::allocator<core::buffers::BufferElement>,std::_Vector_val<std::_Simple_types<core::buffers::BufferElement> >,1>::_Get_second
PUBLIC	?_Get_second@?$_Compressed_pair@V?$allocator@UBufferElement@buffers@core@@@std@@V?$_Vector_val@U?$_Simple_types@UBufferElement@buffers@core@@@std@@@2@$00@std@@QEBAAEBV?$_Vector_val@U?$_Simple_types@UBufferElement@buffers@core@@@std@@@2@XZ ; std::_Compressed_pair<std::allocator<core::buffers::BufferElement>,std::_Vector_val<std::_Simple_types<core::buffers::BufferElement> >,1>::_Get_second
PUBLIC	??0?$vector@UBufferElement@buffers@core@@V?$allocator@UBufferElement@buffers@core@@@std@@@std@@QEAA@XZ ; std::vector<core::buffers::BufferElement,std::allocator<core::buffers::BufferElement> >::vector<core::buffers::BufferElement,std::allocator<core::buffers::BufferElement> >
PUBLIC	??1?$vector@UBufferElement@buffers@core@@V?$allocator@UBufferElement@buffers@core@@@std@@@std@@QEAA@XZ ; std::vector<core::buffers::BufferElement,std::allocator<core::buffers::BufferElement> >::~vector<core::buffers::BufferElement,std::allocator<core::buffers::BufferElement> >
PUBLIC	?push_back@?$vector@UBufferElement@buffers@core@@V?$allocator@UBufferElement@buffers@core@@@std@@@std@@QEAAX$$QEAUBufferElement@buffers@core@@@Z ; std::vector<core::buffers::BufferElement,std::allocator<core::buffers::BufferElement> >::push_back
PUBLIC	?size@?$vector@UBufferElement@buffers@core@@V?$allocator@UBufferElement@buffers@core@@@std@@@std@@QEBA_KXZ ; std::vector<core::buffers::BufferElement,std::allocator<core::buffers::BufferElement> >::size
PUBLIC	?max_size@?$vector@UBufferElement@buffers@core@@V?$allocator@UBufferElement@buffers@core@@@std@@@std@@QEBA_KXZ ; std::vector<core::buffers::BufferElement,std::allocator<core::buffers::BufferElement> >::max_size
PUBLIC	?capacity@?$vector@UBufferElement@buffers@core@@V?$allocator@UBufferElement@buffers@core@@@std@@@std@@QEBA_KXZ ; std::vector<core::buffers::BufferElement,std::allocator<core::buffers::BufferElement> >::capacity
PUBLIC	?_Has_unused_capacity@?$vector@UBufferElement@buffers@core@@V?$allocator@UBufferElement@buffers@core@@@std@@@std@@AEBA_NXZ ; std::vector<core::buffers::BufferElement,std::allocator<core::buffers::BufferElement> >::_Has_unused_capacity
PUBLIC	?_Umove@?$vector@UBufferElement@buffers@core@@V?$allocator@UBufferElement@buffers@core@@@std@@@std@@AEAAPEAUBufferElement@buffers@core@@PEAU345@00@Z ; std::vector<core::buffers::BufferElement,std::allocator<core::buffers::BufferElement> >::_Umove
PUBLIC	?_Umove_if_noexcept1@?$vector@UBufferElement@buffers@core@@V?$allocator@UBufferElement@buffers@core@@@std@@@std@@AEAAXPEAUBufferElement@buffers@core@@00U?$integral_constant@_N$00@2@@Z ; std::vector<core::buffers::BufferElement,std::allocator<core::buffers::BufferElement> >::_Umove_if_noexcept1
PUBLIC	?_Umove_if_noexcept@?$vector@UBufferElement@buffers@core@@V?$allocator@UBufferElement@buffers@core@@@std@@@std@@AEAAXPEAUBufferElement@buffers@core@@00@Z ; std::vector<core::buffers::BufferElement,std::allocator<core::buffers::BufferElement> >::_Umove_if_noexcept
PUBLIC	?_Destroy@?$vector@UBufferElement@buffers@core@@V?$allocator@UBufferElement@buffers@core@@@std@@@std@@AEAAXPEAUBufferElement@buffers@core@@0@Z ; std::vector<core::buffers::BufferElement,std::allocator<core::buffers::BufferElement> >::_Destroy
PUBLIC	?_Calculate_growth@?$vector@UBufferElement@buffers@core@@V?$allocator@UBufferElement@buffers@core@@@std@@@std@@AEBA_K_K@Z ; std::vector<core::buffers::BufferElement,std::allocator<core::buffers::BufferElement> >::_Calculate_growth
PUBLIC	?_Change_array@?$vector@UBufferElement@buffers@core@@V?$allocator@UBufferElement@buffers@core@@@std@@@std@@AEAAXQEAUBufferElement@buffers@core@@_K1@Z ; std::vector<core::buffers::BufferElement,std::allocator<core::buffers::BufferElement> >::_Change_array
PUBLIC	?_Tidy@?$vector@UBufferElement@buffers@core@@V?$allocator@UBufferElement@buffers@core@@@std@@@std@@AEAAXXZ ; std::vector<core::buffers::BufferElement,std::allocator<core::buffers::BufferElement> >::_Tidy
PUBLIC	?_Xlength@?$vector@UBufferElement@buffers@core@@V?$allocator@UBufferElement@buffers@core@@@std@@@std@@CAXXZ ; std::vector<core::buffers::BufferElement,std::allocator<core::buffers::BufferElement> >::_Xlength
PUBLIC	?_Orphan_range@?$vector@UBufferElement@buffers@core@@V?$allocator@UBufferElement@buffers@core@@@std@@@std@@AEBAXPEAUBufferElement@buffers@core@@0@Z ; std::vector<core::buffers::BufferElement,std::allocator<core::buffers::BufferElement> >::_Orphan_range
PUBLIC	??0BufferLayout@buffers@core@@QEAA@XZ		; core::buffers::BufferLayout::BufferLayout
PUBLIC	??$push@M@BufferLayout@buffers@core@@QEAAXI@Z	; core::buffers::BufferLayout::push<float>
PUBLIC	??1BufferLayout@buffers@core@@QEAA@XZ		; core::buffers::BufferLayout::~BufferLayout
PUBLIC	?__autoclassinit2@BufferLayout@buffers@core@@QEAAX_K@Z ; core::buffers::BufferLayout::__autoclassinit2
PUBLIC	??_GBufferLayout@buffers@core@@QEAAPEAXI@Z	; core::buffers::BufferLayout::`scalar deleting destructor'
PUBLIC	??_GVAO@buffers@core@@QEAAPEAXI@Z		; core::buffers::VAO::`scalar deleting destructor'
PUBLIC	?getCount@IBO@buffers@core@@QEBAHXZ		; core::buffers::IBO::getCount
PUBLIC	??_GIBO@buffers@core@@QEAAPEAXI@Z		; core::buffers::IBO::`scalar deleting destructor'
PUBLIC	??_GShader@graphics@core@@QEAAPEAXI@Z		; core::graphics::Shader::`scalar deleting destructor'
PUBLIC	?__autoclassinit2@Texture@graphics@core@@QEAAX_K@Z ; core::graphics::Texture::__autoclassinit2
PUBLIC	??_GTexture@graphics@core@@QEAAPEAXI@Z		; core::graphics::Texture::`scalar deleting destructor'
PUBLIC	??0TextureTestScene@Scene@Application@@QEAA@XZ	; Application::Scene::TextureTestScene::TextureTestScene
PUBLIC	??1TextureTestScene@Scene@Application@@UEAA@XZ	; Application::Scene::TextureTestScene::~TextureTestScene
PUBLIC	?OnUpdate@TextureTestScene@Scene@Application@@UEAAXM@Z ; Application::Scene::TextureTestScene::OnUpdate
PUBLIC	?OnRender@TextureTestScene@Scene@Application@@UEAAXXZ ; Application::Scene::TextureTestScene::OnRender
PUBLIC	?OnImGuiRender@TextureTestScene@Scene@Application@@UEAAXXZ ; Application::Scene::TextureTestScene::OnImGuiRender
PUBLIC	??_GTextureTestScene@Scene@Application@@UEAAPEAXI@Z ; Application::Scene::TextureTestScene::`scalar deleting destructor'
PUBLIC	??$move@AEAUBufferElement@buffers@core@@@std@@YA$$QEAUBufferElement@buffers@core@@AEAU123@@Z ; std::move<core::buffers::BufferElement &>
PUBLIC	??$emplace_back@UBufferElement@buffers@core@@@?$vector@UBufferElement@buffers@core@@V?$allocator@UBufferElement@buffers@core@@@std@@@std@@QEAA@$$QEAUBufferElement@buffers@core@@@Z ; std::vector<core::buffers::BufferElement,std::allocator<core::buffers::BufferElement> >::emplace_back<core::buffers::BufferElement>
PUBLIC	??$forward@UBufferElement@buffers@core@@@std@@YA$$QEAUBufferElement@buffers@core@@AEAU123@@Z ; std::forward<core::buffers::BufferElement>
PUBLIC	??$_Emplace_back_with_unused_capacity@UBufferElement@buffers@core@@@?$vector@UBufferElement@buffers@core@@V?$allocator@UBufferElement@buffers@core@@@std@@@std@@AEAA@$$QEAUBufferElement@buffers@core@@@Z ; std::vector<core::buffers::BufferElement,std::allocator<core::buffers::BufferElement> >::_Emplace_back_with_unused_capacity<core::buffers::BufferElement>
PUBLIC	??$_Unfancy@UBufferElement@buffers@core@@@std@@YAPEAUBufferElement@buffers@core@@PEAU123@@Z ; std::_Unfancy<core::buffers::BufferElement>
PUBLIC	??$construct@UBufferElement@buffers@core@@U123@@?$_Default_allocator_traits@V?$allocator@UBufferElement@buffers@core@@@std@@@std@@SAXAEAV?$allocator@UBufferElement@buffers@core@@@1@QEAUBufferElement@buffers@core@@$$QEAU345@@Z ; std::_Default_allocator_traits<std::allocator<core::buffers::BufferElement> >::construct<core::buffers::BufferElement,core::buffers::BufferElement>
PUBLIC	??$_Emplace_reallocate@UBufferElement@buffers@core@@@?$vector@UBufferElement@buffers@core@@V?$allocator@UBufferElement@buffers@core@@@std@@@std@@QEAAPEAUBufferElement@buffers@core@@QEAU234@$$QEAU234@@Z ; std::vector<core::buffers::BufferElement,std::allocator<core::buffers::BufferElement> >::_Emplace_reallocate<core::buffers::BufferElement>
PUBLIC	??$_Unfancy@D@std@@YAPEADPEAD@Z			; std::_Unfancy<char>
PUBLIC	??$?0$$V@?$_Compressed_pair@V?$allocator@UBufferElement@buffers@core@@@std@@V?$_Vector_val@U?$_Simple_types@UBufferElement@buffers@core@@@std@@@2@$00@std@@QEAA@U_Zero_then_variadic_args_t@1@@Z ; std::_Compressed_pair<std::allocator<core::buffers::BufferElement>,std::_Vector_val<std::_Simple_types<core::buffers::BufferElement> >,1>::_Compressed_pair<std::allocator<core::buffers::BufferElement>,std::_Vector_val<std::_Simple_types<core::buffers::BufferElement> >,1><>
PUBLIC	??$?0$$V@?$_Compressed_pair@V?$allocator@D@std@@V?$_String_val@U?$_Simple_types@D@std@@@2@$00@std@@QEAA@U_Zero_then_variadic_args_t@1@@Z ; std::_Compressed_pair<std::allocator<char>,std::_String_val<std::_Simple_types<char> >,1>::_Compressed_pair<std::allocator<char>,std::_String_val<std::_Simple_types<char> >,1><>
PUBLIC	??$addressof@PEAD@std@@YAPEAPEADAEAPEAD@Z	; std::addressof<char *>
PUBLIC	??$destroy@PEAD@?$_Default_allocator_traits@V?$allocator@D@std@@@std@@SAXAEAV?$allocator@D@1@QEAPEAD@Z ; std::_Default_allocator_traits<std::allocator<char> >::destroy<char *>
PUBLIC	??$_Max_value@_K@std@@YAAEB_KAEB_K0@Z		; std::_Max_value<unsigned __int64>
PUBLIC	??$construct@PEADAEBQEAD@?$_Default_allocator_traits@V?$allocator@D@std@@@std@@SAXAEAV?$allocator@D@1@QEAPEADAEBQEAD@Z ; std::_Default_allocator_traits<std::allocator<char> >::construct<char *,char * const &>
PUBLIC	??$addressof@V?$_String_val@U?$_Simple_types@D@std@@@std@@@std@@YAPEAV?$_String_val@U?$_Simple_types@D@std@@@0@AEAV10@@Z ; std::addressof<std::_String_val<std::_Simple_types<char> > >
PUBLIC	??$_Allocate@$0BA@U_Default_allocate_traits@std@@$0A@@std@@YAPEAX_K@Z ; std::_Allocate<16,std::_Default_allocate_traits,0>
PUBLIC	??$_Deallocate@$0BA@$0A@@std@@YAXPEAX_K@Z	; std::_Deallocate<16,0>
PUBLIC	?allocate@?$allocator@U_Container_proxy@std@@@std@@QEAAPEAU_Container_proxy@2@_K@Z ; std::allocator<std::_Container_proxy>::allocate
PUBLIC	?deallocate@?$_Default_allocator_traits@V?$allocator@U_Container_proxy@std@@@std@@@std@@SAXAEAV?$allocator@U_Container_proxy@std@@@2@QEAU_Container_proxy@2@_K@Z ; std::_Default_allocator_traits<std::allocator<std::_Container_proxy> >::deallocate
PUBLIC	??$destroy@U_Container_proxy@std@@@?$_Default_allocator_traits@V?$allocator@U_Container_proxy@std@@@std@@@std@@SAXAEAV?$allocator@U_Container_proxy@std@@@1@QEAU_Container_proxy@1@@Z ; std::_Default_allocator_traits<std::allocator<std::_Container_proxy> >::destroy<std::_Container_proxy>
PUBLIC	??$_Deallocate_plain@V?$allocator@U_Container_proxy@std@@@std@@$0A@@std@@YAXAEAV?$allocator@U_Container_proxy@std@@@0@QEAU_Container_proxy@0@@Z ; std::_Deallocate_plain<std::allocator<std::_Container_proxy>,0>
PUBLIC	??$_Unfancy@U_Container_proxy@std@@@std@@YAPEAU_Container_proxy@0@PEAU10@@Z ; std::_Unfancy<std::_Container_proxy>
PUBLIC	??$construct@U_Container_proxy@std@@U12@@?$_Default_allocator_traits@V?$allocator@U_Container_proxy@std@@@std@@@std@@SAXAEAV?$allocator@U_Container_proxy@std@@@1@QEAU_Container_proxy@1@$$QEAU31@@Z ; std::_Default_allocator_traits<std::allocator<std::_Container_proxy> >::construct<std::_Container_proxy,std::_Container_proxy>
PUBLIC	??$?0UBufferElement@buffers@core@@@?$allocator@U_Container_proxy@std@@@std@@QEAA@AEBV?$allocator@UBufferElement@buffers@core@@@1@@Z ; std::allocator<std::_Container_proxy>::allocator<std::_Container_proxy><core::buffers::BufferElement>
PUBLIC	??$addressof@V?$_Vector_val@U?$_Simple_types@UBufferElement@buffers@core@@@std@@@std@@@std@@YAPEAV?$_Vector_val@U?$_Simple_types@UBufferElement@buffers@core@@@std@@@0@AEAV10@@Z ; std::addressof<std::_Vector_val<std::_Simple_types<core::buffers::BufferElement> > >
PUBLIC	??$_Destroy_range@V?$allocator@UBufferElement@buffers@core@@@std@@@std@@YAXPEAUBufferElement@buffers@core@@0AEAV?$allocator@UBufferElement@buffers@core@@@0@@Z ; std::_Destroy_range<std::allocator<core::buffers::BufferElement> >
PUBLIC	??$?0D@?$allocator@U_Container_proxy@std@@@std@@QEAA@AEBV?$allocator@D@1@@Z ; std::allocator<std::_Container_proxy>::allocator<std::_Container_proxy><char>
PUBLIC	??$_Get_size_of_n@$0BA@@std@@YA_K_K@Z		; std::_Get_size_of_n<16>
PUBLIC	??$forward@AEBQEAD@std@@YAAEBQEADAEBQEAD@Z	; std::forward<char * const &>
PUBLIC	??$_Allocate_manually_vector_aligned@U_Default_allocate_traits@std@@@std@@YAPEAX_K@Z ; std::_Allocate_manually_vector_aligned<std::_Default_allocate_traits>
PUBLIC	??$forward@U_Container_proxy@std@@@std@@YA$$QEAU_Container_proxy@0@AEAU10@@Z ; std::forward<std::_Container_proxy>
PUBLIC	??$_Destroy_range1@V?$allocator@UBufferElement@buffers@core@@@std@@@std@@YAXPEAUBufferElement@buffers@core@@0AEAV?$allocator@UBufferElement@buffers@core@@@0@U?$integral_constant@_N$00@0@@Z ; std::_Destroy_range1<std::allocator<core::buffers::BufferElement> >
PUBLIC	??$_Uninitialized_move@PEAUBufferElement@buffers@core@@PEAU123@V?$allocator@UBufferElement@buffers@core@@@std@@@std@@YAPEAUBufferElement@buffers@core@@QEAU123@0PEAU123@AEAV?$allocator@UBufferElement@buffers@core@@@0@@Z ; std::_Uninitialized_move<core::buffers::BufferElement *,core::buffers::BufferElement *,std::allocator<core::buffers::BufferElement> >
PUBLIC	??$_Get_size_of_n@$0M@@std@@YA_K_K@Z		; std::_Get_size_of_n<12>
PUBLIC	??$_Get_unwrapped@UBufferElement@buffers@core@@@std@@YAPEAUBufferElement@buffers@core@@QEAU123@@Z ; std::_Get_unwrapped<core::buffers::BufferElement>
PUBLIC	??$_Idl_distance@PEAUBufferElement@buffers@core@@PEAU123@@std@@YA@AEBQEAUBufferElement@buffers@core@@0@Z ; std::_Idl_distance<core::buffers::BufferElement *,core::buffers::BufferElement *>
PUBLIC	??$_Idl_distance1@PEAUBufferElement@buffers@core@@PEAU123@@std@@YA_JAEBQEAUBufferElement@buffers@core@@0Urandom_access_iterator_tag@0@@Z ; std::_Idl_distance1<core::buffers::BufferElement *,core::buffers::BufferElement *>
PUBLIC	??$_Get_unwrapped_n@UBufferElement@buffers@core@@_J$0A@@std@@YAPEAUBufferElement@buffers@core@@QEAU123@_J@Z ; std::_Get_unwrapped_n<core::buffers::BufferElement,__int64,0>
PUBLIC	??$_Ptr_move_cat@UBufferElement@buffers@core@@U123@@std@@YA?AU_Really_trivial_ptr_iterator_tag@0@AEBQEAUBufferElement@buffers@core@@0@Z ; std::_Ptr_move_cat<core::buffers::BufferElement,core::buffers::BufferElement>
PUBLIC	??$_Uninitialized_move_al_unchecked@UBufferElement@buffers@core@@U123@V?$allocator@UBufferElement@buffers@core@@@std@@@std@@YAPEAUBufferElement@buffers@core@@QEAU123@00AEAV?$allocator@UBufferElement@buffers@core@@@0@U_Really_trivial_ptr_iterator_tag@0@U?$integral_constant@_N$00@0@@Z ; std::_Uninitialized_move_al_unchecked<core::buffers::BufferElement,core::buffers::BufferElement,std::allocator<core::buffers::BufferElement> >
PUBLIC	??$_Seek_wrapped@UBufferElement@buffers@core@@@std@@YAXAEAPEAUBufferElement@buffers@core@@QEAU123@@Z ; std::_Seek_wrapped<core::buffers::BufferElement>
PUBLIC	??$_Copy_memmove@PEAUBufferElement@buffers@core@@PEAU123@@std@@YAPEAUBufferElement@buffers@core@@PEAU123@00@Z ; std::_Copy_memmove<core::buffers::BufferElement *,core::buffers::BufferElement *>
PUBLIC	??_C@_0BB@FCMFBGOM@invalid?5argument@		; `string'
PUBLIC	??_C@_02DKCKIIND@?$CFs@				; `string'
PUBLIC	??_C@_1CG@JNLFBNGN@?$AA?$CC?$AAi?$AAn?$AAv?$AAa?$AAl?$AAi?$AAd?$AA?5?$AAa?$AAr?$AAg?$AAu?$AAm?$AAe@ ; `string'
PUBLIC	?__LINE__Var@?0??_Adjust_manually_vector_aligned@std@@YAXAEAPEAXAEA_K@Z@4JA ; `std::_Adjust_manually_vector_aligned'::`1'::__LINE__Var
PUBLIC	??_C@_0GK@FKLKIKPD@c?3?2program?5files?5?$CIx86?$CJ?2microsof@ ; `string'
PUBLIC	??_C@_1NE@MCNNPIKO@?$AAc?$AA?3?$AA?2?$AAp?$AAr?$AAo?$AAg?$AAr?$AAa?$AAm?$AA?5?$AAf?$AAi?$AAl?$AAe@ ; `string'
PUBLIC	??_C@_1EK@NIFDJFDG@?$AAs?$AAt?$AAd?$AA?3?$AA?3?$AA_?$AAA?$AAd?$AAj?$AAu?$AAs?$AAt?$AA_?$AAm?$AAa@ ; `string'
PUBLIC	??_7TextureTestScene@Scene@Application@@6B@	; Application::Scene::TextureTestScene::`vftable'
PUBLIC	??_C@_0BP@FDJOMHHB@res?1shaders?1TextureTest?4shader@ ; `string'
PUBLIC	??_C@_0BN@MKLMCAKL@res?1textures?1TextureTest?4png@ ; `string'
PUBLIC	?__LINE__Var@?0??OnRender@TextureTestScene@Scene@Application@@UEAAXXZ@4JA ; `Application::Scene::TextureTestScene::OnRender'::`1'::__LINE__Var
PUBLIC	??_C@_08FDBNEJGE@uTexture@			; `string'
PUBLIC	??_C@_0EN@IGOIKAOF@l?3?2dev?2featherfallengine?2feathe@ ; `string'
PUBLIC	??_C@_0EI@LIJNNICP@glDrawElements?$CIGL_TRIANGLES?0?5ib@ ; `string'
PUBLIC	??_C@_0O@JGCBCHIF@Texture?5Test?$CB@		; `string'
PUBLIC	??_C@_0BD@OLBABOEK@vector?$DMT?$DO?5too?5long@	; `string'
PUBLIC	??_C@_0BA@JFNIOLAK@string?5too?5long@		; `string'
PUBLIC	??_C@_1EO@GFNCMDLA@?$AAs?$AAt?$AAd?$AA?3?$AA?3?$AA_?$AAA?$AAl?$AAl?$AAo?$AAc?$AAa?$AAt?$AAe?$AA_@ ; `string'
PUBLIC	??_R4TextureTestScene@Scene@Application@@6B@	; Application::Scene::TextureTestScene::`RTTI Complete Object Locator'
PUBLIC	??_R0?AVTextureTestScene@Scene@Application@@@8	; Application::Scene::TextureTestScene `RTTI Type Descriptor'
PUBLIC	??_R3TextureTestScene@Scene@Application@@8	; Application::Scene::TextureTestScene::`RTTI Class Hierarchy Descriptor'
PUBLIC	??_R2TextureTestScene@Scene@Application@@8	; Application::Scene::TextureTestScene::`RTTI Base Class Array'
PUBLIC	??_R1A@?0A@EA@TextureTestScene@Scene@Application@@8 ; Application::Scene::TextureTestScene::`RTTI Base Class Descriptor at (0,-1,0,64)'
PUBLIC	??_R1A@?0A@EA@Scene@0Application@@8		; Application::Scene::Scene::`RTTI Base Class Descriptor at (0,-1,0,64)'
PUBLIC	??_R0?AVScene@0Application@@@8			; Application::Scene::Scene `RTTI Type Descriptor'
PUBLIC	??_R3Scene@0Application@@8			; Application::Scene::Scene::`RTTI Class Hierarchy Descriptor'
PUBLIC	??_R2Scene@0Application@@8			; Application::Scene::Scene::`RTTI Base Class Array'
PUBLIC	__real@3f000000
PUBLIC	__real@3f800000
PUBLIC	__real@bf000000
EXTRN	??2@YAPEAX_K@Z:PROC				; operator new
EXTRN	??3@YAXPEAX_K@Z:PROC				; operator delete
EXTRN	??0Scene@0Application@@QEAA@XZ:PROC		; Application::Scene::Scene::Scene
EXTRN	??1Scene@0Application@@UEAA@XZ:PROC		; Application::Scene::Scene::~Scene
EXTRN	??0VBO@buffers@core@@QEAA@PEBXI_N@Z:PROC	; core::buffers::VBO::VBO
EXTRN	??1VBO@buffers@core@@QEAA@XZ:PROC		; core::buffers::VBO::~VBO
EXTRN	__imp__invalid_parameter:PROC
EXTRN	__imp__CrtDbgReport:PROC
EXTRN	__imp_??0_Lockit@std@@QEAA@H@Z:PROC
EXTRN	__imp_??1_Lockit@std@@QEAA@XZ:PROC
EXTRN	memcpy:PROC
EXTRN	memmove:PROC
EXTRN	strlen:PROC
EXTRN	?_Xlength_error@std@@YAXPEBD@Z:PROC		; std::_Xlength_error
EXTRN	__imp_glDrawElements:PROC
EXTRN	?GLLogError@@YA_NPEBD0H@Z:PROC			; GLLogError
EXTRN	?GLClearError@@YAXXZ:PROC			; GLClearError
EXTRN	??0VAO@buffers@core@@QEAA@XZ:PROC		; core::buffers::VAO::VAO
EXTRN	??1VAO@buffers@core@@QEAA@XZ:PROC		; core::buffers::VAO::~VAO
EXTRN	?bind@VAO@buffers@core@@QEBAXXZ:PROC		; core::buffers::VAO::bind
EXTRN	?addBuffer@VAO@buffers@core@@QEAAXAEBVVBO@23@AEBVBufferLayout@23@@Z:PROC ; core::buffers::VAO::addBuffer
EXTRN	??0IBO@buffers@core@@QEAA@PEBII_N@Z:PROC	; core::buffers::IBO::IBO
EXTRN	??1IBO@buffers@core@@QEAA@XZ:PROC		; core::buffers::IBO::~IBO
EXTRN	?bind@IBO@buffers@core@@QEBAXXZ:PROC		; core::buffers::IBO::bind
EXTRN	??0Shader@graphics@core@@QEAA@AEBV?$basic_string@DU?$char_traits@D@std@@V?$allocator@D@2@@std@@@Z:PROC ; core::graphics::Shader::Shader
EXTRN	??1Shader@graphics@core@@QEAA@XZ:PROC		; core::graphics::Shader::~Shader
EXTRN	?bind@Shader@graphics@core@@QEBAXXZ:PROC	; core::graphics::Shader::bind
EXTRN	?setUniform1i@Shader@graphics@core@@QEAAXPEBDH@Z:PROC ; core::graphics::Shader::setUniform1i
EXTRN	??0Texture@graphics@core@@QEAA@V?$basic_string@DU?$char_traits@D@std@@V?$allocator@D@2@@std@@@Z:PROC ; core::graphics::Texture::Texture
EXTRN	??1Texture@graphics@core@@QEAA@XZ:PROC		; core::graphics::Texture::~Texture
EXTRN	?bind@Texture@graphics@core@@QEBAXI@Z:PROC	; core::graphics::Texture::bind
EXTRN	??_ETextureTestScene@Scene@Application@@UEAAPEAXI@Z:PROC ; Application::Scene::TextureTestScene::`vector deleting destructor'
EXTRN	?Text@ImGui@@YAXPEBDZZ:PROC			; ImGui::Text
EXTRN	_CxxThrowException:PROC
EXTRN	_RTC_InitBase:PROC
EXTRN	_RTC_Shutdown:PROC
EXTRN	__CheckForDebuggerJustMyCode:PROC
EXTRN	__CxxFrameHandler3:PROC
EXTRN	__GSHandlerCheck:PROC
EXTRN	__GSHandlerCheck_EH:PROC
EXTRN	__security_check_cookie:PROC
EXTRN	??_7type_info@@6B@:BYTE				; type_info::`vftable'
EXTRN	__security_cookie:QWORD
EXTRN	_fltused:DWORD
;	COMDAT pdata
pdata	SEGMENT
$pdata$??_H@YAXPEAX_K1P6APEAX0@Z@Z DD imagerel $LN7
	DD	imagerel $LN7+111
	DD	imagerel $unwind$??_H@YAXPEAX_K1P6APEAX0@Z@Z
pdata	ENDS
;	COMDAT pdata
pdata	SEGMENT
$pdata$?__empty_global_delete@@YAXPEAX@Z DD imagerel $LN3
	DD	imagerel $LN3+33
	DD	imagerel $unwind$?__empty_global_delete@@YAXPEAX@Z
pdata	ENDS
;	COMDAT pdata
pdata	SEGMENT
$pdata$?__empty_global_delete@@YAXPEAX_K@Z DD imagerel $LN3
	DD	imagerel $LN3+38
	DD	imagerel $unwind$?__empty_global_delete@@YAXPEAX_K@Z
pdata	ENDS
;	COMDAT pdata
pdata	SEGMENT
$pdata$??_GVBO@buffers@core@@QEAAPEAXI@Z DD imagerel $LN4
	DD	imagerel $LN4+62
	DD	imagerel $unwind$??_GVBO@buffers@core@@QEAAPEAXI@Z
pdata	ENDS
;	COMDAT pdata
pdata	SEGMENT
$pdata$??2@YAPEAX_KPEAX@Z DD imagerel $LN3
	DD	imagerel $LN3+51
	DD	imagerel $unwind$??2@YAPEAX_KPEAX@Z
pdata	ENDS
;	COMDAT pdata
pdata	SEGMENT
$pdata$?max@?$numeric_limits@_J@std@@SA_JXZ DD imagerel $LN3
	DD	imagerel $LN3+48
	DD	imagerel $unwind$?max@?$numeric_limits@_J@std@@SA_JXZ
pdata	ENDS
;	COMDAT pdata
pdata	SEGMENT
$pdata$?length@?$char_traits@D@std@@SA_KQEBD@Z DD imagerel $LN3
	DD	imagerel $LN3+52
	DD	imagerel $unwind$?length@?$char_traits@D@std@@SA_KQEBD@Z
pdata	ENDS
;	COMDAT pdata
pdata	SEGMENT
$pdata$?copy@?$char_traits@D@std@@SAPEADQEADQEBD_K@Z DD imagerel $LN3
	DD	imagerel $LN3+70
	DD	imagerel $unwind$?copy@?$char_traits@D@std@@SAPEADQEADQEBD_K@Z
pdata	ENDS
;	COMDAT pdata
pdata	SEGMENT
$pdata$?move@?$char_traits@D@std@@SAPEADQEADQEBD_K@Z DD imagerel $LN3
	DD	imagerel $LN3+70
	DD	imagerel $unwind$?move@?$char_traits@D@std@@SAPEADQEADQEBD_K@Z
pdata	ENDS
;	COMDAT pdata
pdata	SEGMENT
$pdata$?assign@?$char_traits@D@std@@SAXAEADAEBD@Z DD imagerel $LN3
	DD	imagerel $LN3+60
	DD	imagerel $unwind$?assign@?$char_traits@D@std@@SAXAEADAEBD@Z
pdata	ENDS
;	COMDAT pdata
pdata	SEGMENT
$pdata$??0_Container_proxy@std@@QEAA@XZ DD imagerel $LN3
	DD	imagerel $LN3+69
	DD	imagerel $unwind$??0_Container_proxy@std@@QEAA@XZ
pdata	ENDS
;	COMDAT pdata
pdata	SEGMENT
$pdata$??0_Container_base12@std@@QEAA@XZ DD imagerel $LN3
	DD	imagerel $LN3+48
	DD	imagerel $unwind$??0_Container_base12@std@@QEAA@XZ
pdata	ENDS
;	COMDAT pdata
pdata	SEGMENT
$pdata$?_Getpfirst@_Container_base12@std@@QEBAPEAPEAU_Iterator_base12@2@XZ DD imagerel $LN5
	DD	imagerel $LN5+81
	DD	imagerel $unwind$?_Getpfirst@_Container_base12@std@@QEBAPEAPEAU_Iterator_base12@2@XZ
pdata	ENDS
;	COMDAT pdata
pdata	SEGMENT
$pdata$?_Orphan_all@_Container_base12@std@@QEAAXXZ DD imagerel $LN7
	DD	imagerel $LN7+185
	DD	imagerel $unwind$?_Orphan_all@_Container_base12@std@@QEAAXXZ
pdata	ENDS
;	COMDAT pdata
pdata	SEGMENT
$pdata$?_Clrcont@_Iterator_base12@std@@QEAAXXZ DD imagerel $LN3
	DD	imagerel $LN3+53
	DD	imagerel $unwind$?_Clrcont@_Iterator_base12@std@@QEAAXXZ
pdata	ENDS
;	COMDAT pdata
pdata	SEGMENT
$pdata$?_Getpnext@_Iterator_base12@std@@QEAAPEAPEAU12@XZ DD imagerel $LN3
	DD	imagerel $LN3+50
	DD	imagerel $unwind$?_Getpnext@_Iterator_base12@std@@QEAAPEAPEAU12@XZ
pdata	ENDS
;	COMDAT pdata
pdata	SEGMENT
$pdata$??$_Get_size_of_n@$00@std@@YA_K_K@Z DD imagerel $LN3
	DD	imagerel $LN3+37
	DD	imagerel $unwind$??$_Get_size_of_n@$00@std@@YA_K_K@Z
pdata	ENDS
;	COMDAT pdata
pdata	SEGMENT
$pdata$?_Allocate@_Default_allocate_traits@std@@SAPEAX_K@Z DD imagerel $LN3
	DD	imagerel $LN3+42
	DD	imagerel $unwind$?_Allocate@_Default_allocate_traits@std@@SAPEAX_K@Z
pdata	ENDS
;	COMDAT pdata
pdata	SEGMENT
$pdata$?_Adjust_manually_vector_aligned@std@@YAXAEAPEAXAEA_K@Z DD imagerel $LN21
	DD	imagerel $LN21+433
	DD	imagerel $unwind$?_Adjust_manually_vector_aligned@std@@YAXAEAPEAXAEA_K@Z
pdata	ENDS
;	COMDAT pdata
pdata	SEGMENT
$pdata$??$_Convert_size@_K@std@@YA_K_K@Z DD imagerel $LN3
	DD	imagerel $LN3+37
	DD	imagerel $unwind$??$_Convert_size@_K@std@@YA_K_K@Z
pdata	ENDS
;	COMDAT pdata
pdata	SEGMENT
$pdata$??$_Min_value@_K@std@@YAAEB_KAEB_K0@Z DD imagerel $LN5
	DD	imagerel $LN5+96
	DD	imagerel $unwind$??$_Min_value@_K@std@@YAAEB_KAEB_K0@Z
pdata	ENDS
;	COMDAT pdata
pdata	SEGMENT
$pdata$??0?$allocator@D@std@@QEAA@XZ DD imagerel $LN3
	DD	imagerel $LN3+46
	DD	imagerel $unwind$??0?$allocator@D@std@@QEAA@XZ
pdata	ENDS
;	COMDAT pdata
pdata	SEGMENT
$pdata$?deallocate@?$allocator@D@std@@QEAAXQEAD_K@Z DD imagerel $LN3
	DD	imagerel $LN3+56
	DD	imagerel $unwind$?deallocate@?$allocator@D@std@@QEAAXQEAD_K@Z
pdata	ENDS
;	COMDAT pdata
pdata	SEGMENT
$pdata$?allocate@?$allocator@D@std@@QEAAPEAD_K@Z DD imagerel $LN3
	DD	imagerel $LN3+55
	DD	imagerel $unwind$?allocate@?$allocator@D@std@@QEAAPEAD_K@Z
pdata	ENDS
;	COMDAT pdata
pdata	SEGMENT
$pdata$?max_size@?$_Default_allocator_traits@V?$allocator@D@std@@@std@@SA_KAEBV?$allocator@D@2@@Z DD imagerel $LN3
	DD	imagerel $LN3+49
	DD	imagerel $unwind$?max_size@?$_Default_allocator_traits@V?$allocator@D@std@@@std@@SA_KAEBV?$allocator@D@2@@Z
pdata	ENDS
;	COMDAT pdata
pdata	SEGMENT
$pdata$??0?$_String_val@U?$_Simple_types@D@std@@@std@@QEAA@XZ DD imagerel $LN4
	DD	imagerel $LN4+86
	DD	imagerel $unwind$??0?$_String_val@U?$_Simple_types@D@std@@@std@@QEAA@XZ
pdata	ENDS
;	COMDAT pdata
pdata	SEGMENT
$pdata$?_Myptr@?$_String_val@U?$_Simple_types@D@std@@@std@@QEAAPEADXZ DD imagerel $LN4
	DD	imagerel $LN4+82
	DD	imagerel $unwind$?_Myptr@?$_String_val@U?$_Simple_types@D@std@@@std@@QEAAPEADXZ
pdata	ENDS
;	COMDAT pdata
pdata	SEGMENT
$pdata$?_Large_string_engaged@?$_String_val@U?$_Simple_types@D@std@@@std@@QEBA_NXZ DD imagerel $LN5
	DD	imagerel $LN5+64
	DD	imagerel $unwind$?_Large_string_engaged@?$_String_val@U?$_Simple_types@D@std@@@std@@QEBA_NXZ
pdata	ENDS
;	COMDAT pdata
pdata	SEGMENT
$pdata$??0_Bxty@?$_String_val@U?$_Simple_types@D@std@@@std@@QEAA@XZ DD imagerel $LN3
	DD	imagerel $LN3+37
	DD	imagerel $unwind$??0_Bxty@?$_String_val@U?$_Simple_types@D@std@@@std@@QEAA@XZ
pdata	ENDS
;	COMDAT pdata
pdata	SEGMENT
$pdata$??1_Bxty@?$_String_val@U?$_Simple_types@D@std@@@std@@QEAA@XZ DD imagerel $LN3
	DD	imagerel $LN3+42
	DD	imagerel $unwind$??1_Bxty@?$_String_val@U?$_Simple_types@D@std@@@std@@QEAA@XZ
pdata	ENDS
;	COMDAT pdata
pdata	SEGMENT
$pdata$??1?$_String_val@U?$_Simple_types@D@std@@@std@@QEAA@XZ DD imagerel $LN3
	DD	imagerel $LN3+37
	DD	imagerel $unwind$??1?$_String_val@U?$_Simple_types@D@std@@@std@@QEAA@XZ
pdata	ENDS
;	COMDAT pdata
pdata	SEGMENT
$pdata$??0?$_String_alloc@U?$_String_base_types@DV?$allocator@D@std@@@std@@@std@@QEAA@XZ DD imagerel $LN4
	DD	imagerel $LN4+72
	DD	imagerel $unwind$??0?$_String_alloc@U?$_String_base_types@DV?$allocator@D@std@@@std@@@std@@QEAA@XZ
pdata	ENDS
;	COMDAT pdata
pdata	SEGMENT
$pdata$?dtor$0@?0???0?$_String_alloc@U?$_String_base_types@DV?$allocator@D@std@@@std@@@std@@QEAA@XZ@4HA DD imagerel ?dtor$0@?0???0?$_String_alloc@U?$_String_base_types@DV?$allocator@D@std@@@std@@@std@@QEAA@XZ@4HA
	DD	imagerel ?dtor$0@?0???0?$_String_alloc@U?$_String_base_types@DV?$allocator@D@std@@@std@@@std@@QEAA@XZ@4HA+25
	DD	imagerel $unwind$?dtor$0@?0???0?$_String_alloc@U?$_String_base_types@DV?$allocator@D@std@@@std@@@std@@QEAA@XZ@4HA
pdata	ENDS
;	COMDAT pdata
pdata	SEGMENT
$pdata$??1?$_String_alloc@U?$_String_base_types@DV?$allocator@D@std@@@std@@@std@@QEAA@XZ DD imagerel $LN3
	DD	imagerel $LN3+65
	DD	imagerel $unwind$??1?$_String_alloc@U?$_String_base_types@DV?$allocator@D@std@@@std@@@std@@QEAA@XZ
pdata	ENDS
;	COMDAT pdata
pdata	SEGMENT
$pdata$?_Alloc_proxy@?$_String_alloc@U?$_String_base_types@DV?$allocator@D@std@@@std@@@std@@QEAAXXZ DD imagerel $LN3
	DD	imagerel $LN3+221
	DD	imagerel $unwind$?_Alloc_proxy@?$_String_alloc@U?$_String_base_types@DV?$allocator@D@std@@@std@@@std@@QEAAXXZ
pdata	ENDS
;	COMDAT pdata
pdata	SEGMENT
$pdata$?_Free_proxy@?$_String_alloc@U?$_String_base_types@DV?$allocator@D@std@@@std@@@std@@QEAAXXZ DD imagerel $LN3
	DD	imagerel $LN3+147
	DD	imagerel $unwind$?_Free_proxy@?$_String_alloc@U?$_String_base_types@DV?$allocator@D@std@@@std@@@std@@QEAAXXZ
pdata	ENDS
;	COMDAT pdata
pdata	SEGMENT
$pdata$?_Myproxy@?$_String_alloc@U?$_String_base_types@DV?$allocator@D@std@@@std@@@std@@QEAAAEAPEAU_Container_proxy@2@XZ DD imagerel $LN3
	DD	imagerel $LN3+52
	DD	imagerel $unwind$?_Myproxy@?$_String_alloc@U?$_String_base_types@DV?$allocator@D@std@@@std@@@std@@QEAAAEAPEAU_Container_proxy@2@XZ
pdata	ENDS
;	COMDAT pdata
pdata	SEGMENT
$pdata$?_Orphan_all@?$_String_alloc@U?$_String_base_types@DV?$allocator@D@std@@@std@@@std@@QEAAXXZ DD imagerel $LN3
	DD	imagerel $LN3+50
	DD	imagerel $unwind$?_Orphan_all@?$_String_alloc@U?$_String_base_types@DV?$allocator@D@std@@@std@@@std@@QEAAXXZ
pdata	ENDS
;	COMDAT pdata
pdata	SEGMENT
$pdata$?_Getal@?$_String_alloc@U?$_String_base_types@DV?$allocator@D@std@@@std@@@std@@QEAAAEAV?$allocator@D@2@XZ DD imagerel $LN3
	DD	imagerel $LN3+55
	DD	imagerel $unwind$?_Getal@?$_String_alloc@U?$_String_base_types@DV?$allocator@D@std@@@std@@@std@@QEAAAEAV?$allocator@D@2@XZ
pdata	ENDS
;	COMDAT pdata
pdata	SEGMENT
$pdata$?_Getal@?$_String_alloc@U?$_String_base_types@DV?$allocator@D@std@@@std@@@std@@QEBAAEBV?$allocator@D@2@XZ DD imagerel $LN3
	DD	imagerel $LN3+55
	DD	imagerel $unwind$?_Getal@?$_String_alloc@U?$_String_base_types@DV?$allocator@D@std@@@std@@@std@@QEBAAEBV?$allocator@D@2@XZ
pdata	ENDS
;	COMDAT pdata
pdata	SEGMENT
$pdata$?_Get_data@?$_String_alloc@U?$_String_base_types@DV?$allocator@D@std@@@std@@@std@@QEAAAEAV?$_String_val@U?$_Simple_types@D@std@@@2@XZ DD imagerel $LN3
	DD	imagerel $LN3+55
	DD	imagerel $unwind$?_Get_data@?$_String_alloc@U?$_String_base_types@DV?$allocator@D@std@@@std@@@std@@QEAAAEAV?$_String_val@U?$_Simple_types@D@std@@@2@XZ
pdata	ENDS
;	COMDAT pdata
pdata	SEGMENT
$pdata$?_Get_data@?$_String_alloc@U?$_String_base_types@DV?$allocator@D@std@@@std@@@std@@QEBAAEBV?$_String_val@U?$_Simple_types@D@std@@@2@XZ DD imagerel $LN3
	DD	imagerel $LN3+55
	DD	imagerel $unwind$?_Get_data@?$_String_alloc@U?$_String_base_types@DV?$allocator@D@std@@@std@@@std@@QEBAAEBV?$_String_val@U?$_Simple_types@D@std@@@2@XZ
pdata	ENDS
;	COMDAT pdata
pdata	SEGMENT
$pdata$?_Get_first@?$_Compressed_pair@V?$allocator@D@std@@V?$_String_val@U?$_Simple_types@D@std@@@2@$00@std@@QEAAAEAV?$allocator@D@2@XZ DD imagerel $LN3
	DD	imagerel $LN3+46
	DD	imagerel $unwind$?_Get_first@?$_Compressed_pair@V?$allocator@D@std@@V?$_String_val@U?$_Simple_types@D@std@@@2@$00@std@@QEAAAEAV?$allocator@D@2@XZ
pdata	ENDS
;	COMDAT pdata
pdata	SEGMENT
$pdata$?_Get_first@?$_Compressed_pair@V?$allocator@D@std@@V?$_String_val@U?$_Simple_types@D@std@@@2@$00@std@@QEBAAEBV?$allocator@D@2@XZ DD imagerel $LN3
	DD	imagerel $LN3+46
	DD	imagerel $unwind$?_Get_first@?$_Compressed_pair@V?$allocator@D@std@@V?$_String_val@U?$_Simple_types@D@std@@@2@$00@std@@QEBAAEBV?$allocator@D@2@XZ
pdata	ENDS
;	COMDAT pdata
pdata	SEGMENT
$pdata$?_Get_second@?$_Compressed_pair@V?$allocator@D@std@@V?$_String_val@U?$_Simple_types@D@std@@@2@$00@std@@QEAAAEAV?$_String_val@U?$_Simple_types@D@std@@@2@XZ DD imagerel $LN3
	DD	imagerel $LN3+46
	DD	imagerel $unwind$?_Get_second@?$_Compressed_pair@V?$allocator@D@std@@V?$_String_val@U?$_Simple_types@D@std@@@2@$00@std@@QEAAAEAV?$_String_val@U?$_Simple_types@D@std@@@2@XZ
pdata	ENDS
;	COMDAT pdata
pdata	SEGMENT
$pdata$?_Get_second@?$_Compressed_pair@V?$allocator@D@std@@V?$_String_val@U?$_Simple_types@D@std@@@2@$00@std@@QEBAAEBV?$_String_val@U?$_Simple_types@D@std@@@2@XZ DD imagerel $LN3
	DD	imagerel $LN3+46
	DD	imagerel $unwind$?_Get_second@?$_Compressed_pair@V?$allocator@D@std@@V?$_String_val@U?$_Simple_types@D@std@@@2@$00@std@@QEBAAEBV?$_String_val@U?$_Simple_types@D@std@@@2@XZ
pdata	ENDS
;	COMDAT pdata
pdata	SEGMENT
$pdata$??1?$_Compressed_pair@V?$allocator@D@std@@V?$_String_val@U?$_Simple_types@D@std@@@2@$00@std@@QEAA@XZ DD imagerel $LN3
	DD	imagerel $LN3+33
	DD	imagerel $unwind$??1?$_Compressed_pair@V?$allocator@D@std@@V?$_String_val@U?$_Simple_types@D@std@@@2@$00@std@@QEAA@XZ
pdata	ENDS
;	COMDAT pdata
pdata	SEGMENT
$pdata$??0?$basic_string@DU?$char_traits@D@std@@V?$allocator@D@2@@std@@QEAA@QEBD@Z DD imagerel $LN4
	DD	imagerel $LN4+83
	DD	imagerel $unwind$??0?$basic_string@DU?$char_traits@D@std@@V?$allocator@D@2@@std@@QEAA@QEBD@Z
pdata	ENDS
;	COMDAT pdata
pdata	SEGMENT
$pdata$?dtor$0@?0???0?$basic_string@DU?$char_traits@D@std@@V?$allocator@D@2@@std@@QEAA@QEBD@Z@4HA DD imagerel ?dtor$0@?0???0?$basic_string@DU?$char_traits@D@std@@V?$allocator@D@2@@std@@QEAA@QEBD@Z@4HA
	DD	imagerel ?dtor$0@?0???0?$basic_string@DU?$char_traits@D@std@@V?$allocator@D@2@@std@@QEAA@QEBD@Z@4HA+25
	DD	imagerel $unwind$?dtor$0@?0???0?$basic_string@DU?$char_traits@D@std@@V?$allocator@D@2@@std@@QEAA@QEBD@Z@4HA
pdata	ENDS
;	COMDAT pdata
pdata	SEGMENT
$pdata$??1?$basic_string@DU?$char_traits@D@std@@V?$allocator@D@2@@std@@QEAA@XZ DD imagerel $LN3
	DD	imagerel $LN3+62
	DD	imagerel $unwind$??1?$basic_string@DU?$char_traits@D@std@@V?$allocator@D@2@@std@@QEAA@XZ
pdata	ENDS
;	COMDAT pdata
pdata	SEGMENT
$pdata$?assign@?$basic_string@DU?$char_traits@D@std@@V?$allocator@D@2@@std@@QEAAAEAV12@QEBD_K@Z DD imagerel $LN4
	DD	imagerel $LN4+221
	DD	imagerel $unwind$?assign@?$basic_string@DU?$char_traits@D@std@@V?$allocator@D@2@@std@@QEAAAEAV12@QEBD_K@Z
pdata	ENDS
;	COMDAT pdata
pdata	SEGMENT
$pdata$?assign@?$basic_string@DU?$char_traits@D@std@@V?$allocator@D@2@@std@@QEAAAEAV12@QEBD@Z DD imagerel $LN3
	DD	imagerel $LN3+71
	DD	imagerel $unwind$?assign@?$basic_string@DU?$char_traits@D@std@@V?$allocator@D@2@@std@@QEAAAEAV12@QEBD@Z
pdata	ENDS
;	COMDAT pdata
pdata	SEGMENT
$pdata$?max_size@?$basic_string@DU?$char_traits@D@std@@V?$allocator@D@2@@std@@QEBA_KXZ DD imagerel $LN3
	DD	imagerel $LN3+168
	DD	imagerel $unwind$?max_size@?$basic_string@DU?$char_traits@D@std@@V?$allocator@D@2@@std@@QEBA_KXZ
pdata	ENDS
;	COMDAT pdata
pdata	SEGMENT
$pdata$?_Calculate_growth@?$basic_string@DU?$char_traits@D@std@@V?$allocator@D@2@@std@@QEBA_K_K@Z DD imagerel $LN5
	DD	imagerel $LN5+222
	DD	imagerel $unwind$?_Calculate_growth@?$basic_string@DU?$char_traits@D@std@@V?$allocator@D@2@@std@@QEBA_K_K@Z
pdata	ENDS
;	COMDAT pdata
pdata	SEGMENT
$pdata$?_Tidy_init@?$basic_string@DU?$char_traits@D@std@@V?$allocator@D@2@@std@@QEAAXXZ DD imagerel $LN3
	DD	imagerel $LN3+104
	DD	imagerel $unwind$?_Tidy_init@?$basic_string@DU?$char_traits@D@std@@V?$allocator@D@2@@std@@QEAAXXZ
pdata	ENDS
;	COMDAT pdata
pdata	SEGMENT
$pdata$?_Tidy_deallocate@?$basic_string@DU?$char_traits@D@std@@V?$allocator@D@2@@std@@QEAAXXZ DD imagerel $LN4
	DD	imagerel $LN4+212
	DD	imagerel $unwind$?_Tidy_deallocate@?$basic_string@DU?$char_traits@D@std@@V?$allocator@D@2@@std@@QEAAXXZ
pdata	ENDS
;	COMDAT pdata
pdata	SEGMENT
$pdata$?_Xlen@?$basic_string@DU?$char_traits@D@std@@V?$allocator@D@2@@std@@SAXXZ DD imagerel $LN3
	DD	imagerel $LN3+41
	DD	imagerel $unwind$?_Xlen@?$basic_string@DU?$char_traits@D@std@@V?$allocator@D@2@@std@@SAXXZ
pdata	ENDS
;	COMDAT pdata
pdata	SEGMENT
$pdata$?SizeOfType@BufferElement@buffers@core@@SAII@Z DD imagerel $LN9
	DD	imagerel $LN9+98
	DD	imagerel $unwind$?SizeOfType@BufferElement@buffers@core@@SAII@Z
pdata	ENDS
;	COMDAT pdata
pdata	SEGMENT
$pdata$??0?$allocator@UBufferElement@buffers@core@@@std@@QEAA@XZ DD imagerel $LN3
	DD	imagerel $LN3+46
	DD	imagerel $unwind$??0?$allocator@UBufferElement@buffers@core@@@std@@QEAA@XZ
pdata	ENDS
;	COMDAT pdata
pdata	SEGMENT
$pdata$?deallocate@?$allocator@UBufferElement@buffers@core@@@std@@QEAAXQEAUBufferElement@buffers@core@@_K@Z DD imagerel $LN3
	DD	imagerel $LN3+60
	DD	imagerel $unwind$?deallocate@?$allocator@UBufferElement@buffers@core@@@std@@QEAAXQEAUBufferElement@buffers@core@@_K@Z
pdata	ENDS
;	COMDAT pdata
pdata	SEGMENT
$pdata$?allocate@?$allocator@UBufferElement@buffers@core@@@std@@QEAAPEAUBufferElement@buffers@core@@_K@Z DD imagerel $LN3
	DD	imagerel $LN3+55
	DD	imagerel $unwind$?allocate@?$allocator@UBufferElement@buffers@core@@@std@@QEAAPEAUBufferElement@buffers@core@@_K@Z
pdata	ENDS
;	COMDAT pdata
pdata	SEGMENT
$pdata$?max_size@?$_Default_allocator_traits@V?$allocator@UBufferElement@buffers@core@@@std@@@std@@SA_KAEBV?$allocator@UBufferElement@buffers@core@@@2@@Z DD imagerel $LN3
	DD	imagerel $LN3+52
	DD	imagerel $unwind$?max_size@?$_Default_allocator_traits@V?$allocator@UBufferElement@buffers@core@@@std@@@std@@SA_KAEBV?$allocator@UBufferElement@buffers@core@@@2@@Z
pdata	ENDS
;	COMDAT pdata
pdata	SEGMENT
$pdata$??0?$_Vector_alloc@U?$_Vec_base_types@UBufferElement@buffers@core@@V?$allocator@UBufferElement@buffers@core@@@std@@@std@@@std@@QEAA@XZ DD imagerel $LN3
	DD	imagerel $LN3+62
	DD	imagerel $unwind$??0?$_Vector_alloc@U?$_Vec_base_types@UBufferElement@buffers@core@@V?$allocator@UBufferElement@buffers@core@@@std@@@std@@@std@@QEAA@XZ
pdata	ENDS
;	COMDAT pdata
pdata	SEGMENT
$pdata$??1?$_Vector_alloc@U?$_Vec_base_types@UBufferElement@buffers@core@@V?$allocator@UBufferElement@buffers@core@@@std@@@std@@@std@@QEAA@XZ DD imagerel $LN3
	DD	imagerel $LN3+52
	DD	imagerel $unwind$??1?$_Vector_alloc@U?$_Vec_base_types@UBufferElement@buffers@core@@V?$allocator@UBufferElement@buffers@core@@@std@@@std@@@std@@QEAA@XZ
pdata	ENDS
;	COMDAT pdata
pdata	SEGMENT
$pdata$?_Alloc_proxy@?$_Vector_alloc@U?$_Vec_base_types@UBufferElement@buffers@core@@V?$allocator@UBufferElement@buffers@core@@@std@@@std@@@std@@QEAAXXZ DD imagerel $LN3
	DD	imagerel $LN3+221
	DD	imagerel $unwind$?_Alloc_proxy@?$_Vector_alloc@U?$_Vec_base_types@UBufferElement@buffers@core@@V?$allocator@UBufferElement@buffers@core@@@std@@@std@@@std@@QEAAXXZ
pdata	ENDS
;	COMDAT pdata
pdata	SEGMENT
$pdata$?_Free_proxy@?$_Vector_alloc@U?$_Vec_base_types@UBufferElement@buffers@core@@V?$allocator@UBufferElement@buffers@core@@@std@@@std@@@std@@QEAAXXZ DD imagerel $LN3
	DD	imagerel $LN3+147
	DD	imagerel $unwind$?_Free_proxy@?$_Vector_alloc@U?$_Vec_base_types@UBufferElement@buffers@core@@V?$allocator@UBufferElement@buffers@core@@@std@@@std@@@std@@QEAAXXZ
pdata	ENDS
;	COMDAT pdata
pdata	SEGMENT
$pdata$?_Getpfirst@?$_Vector_alloc@U?$_Vec_base_types@UBufferElement@buffers@core@@V?$allocator@UBufferElement@buffers@core@@@std@@@std@@@std@@QEBAPEAPEAU_Iterator_base12@2@XZ DD imagerel $LN3
	DD	imagerel $LN3+50
	DD	imagerel $unwind$?_Getpfirst@?$_Vector_alloc@U?$_Vec_base_types@UBufferElement@buffers@core@@V?$allocator@UBufferElement@buffers@core@@@std@@@std@@@std@@QEBAPEAPEAU_Iterator_base12@2@XZ
pdata	ENDS
;	COMDAT pdata
pdata	SEGMENT
$pdata$?_Myproxy@?$_Vector_alloc@U?$_Vec_base_types@UBufferElement@buffers@core@@V?$allocator@UBufferElement@buffers@core@@@std@@@std@@@std@@QEAAAEAPEAU_Container_proxy@2@XZ DD imagerel $LN3
	DD	imagerel $LN3+52
	DD	imagerel $unwind$?_Myproxy@?$_Vector_alloc@U?$_Vec_base_types@UBufferElement@buffers@core@@V?$allocator@UBufferElement@buffers@core@@@std@@@std@@@std@@QEAAAEAPEAU_Container_proxy@2@XZ
pdata	ENDS
;	COMDAT pdata
pdata	SEGMENT
$pdata$?_Orphan_all@?$_Vector_alloc@U?$_Vec_base_types@UBufferElement@buffers@core@@V?$allocator@UBufferElement@buffers@core@@@std@@@std@@@std@@QEAAXXZ DD imagerel $LN3
	DD	imagerel $LN3+50
	DD	imagerel $unwind$?_Orphan_all@?$_Vector_alloc@U?$_Vec_base_types@UBufferElement@buffers@core@@V?$allocator@UBufferElement@buffers@core@@@std@@@std@@@std@@QEAAXXZ
pdata	ENDS
;	COMDAT pdata
pdata	SEGMENT
$pdata$?_Getal@?$_Vector_alloc@U?$_Vec_base_types@UBufferElement@buffers@core@@V?$allocator@UBufferElement@buffers@core@@@std@@@std@@@std@@QEAAAEAV?$allocator@UBufferElement@buffers@core@@@2@XZ DD imagerel $LN3
	DD	imagerel $LN3+55
	DD	imagerel $unwind$?_Getal@?$_Vector_alloc@U?$_Vec_base_types@UBufferElement@buffers@core@@V?$allocator@UBufferElement@buffers@core@@@std@@@std@@@std@@QEAAAEAV?$allocator@UBufferElement@buffers@core@@@2@XZ
pdata	ENDS
;	COMDAT pdata
pdata	SEGMENT
$pdata$?_Getal@?$_Vector_alloc@U?$_Vec_base_types@UBufferElement@buffers@core@@V?$allocator@UBufferElement@buffers@core@@@std@@@std@@@std@@QEBAAEBV?$allocator@UBufferElement@buffers@core@@@2@XZ DD imagerel $LN3
	DD	imagerel $LN3+55
	DD	imagerel $unwind$?_Getal@?$_Vector_alloc@U?$_Vec_base_types@UBufferElement@buffers@core@@V?$allocator@UBufferElement@buffers@core@@@std@@@std@@@std@@QEBAAEBV?$allocator@UBufferElement@buffers@core@@@2@XZ
pdata	ENDS
;	COMDAT pdata
pdata	SEGMENT
$pdata$?_Get_data@?$_Vector_alloc@U?$_Vec_base_types@UBufferElement@buffers@core@@V?$allocator@UBufferElement@buffers@core@@@std@@@std@@@std@@QEAAAEAV?$_Vector_val@U?$_Simple_types@UBufferElement@buffers@core@@@std@@@2@XZ DD imagerel $LN3
	DD	imagerel $LN3+55
	DD	imagerel $unwind$?_Get_data@?$_Vector_alloc@U?$_Vec_base_types@UBufferElement@buffers@core@@V?$allocator@UBufferElement@buffers@core@@@std@@@std@@@std@@QEAAAEAV?$_Vector_val@U?$_Simple_types@UBufferElement@buffers@core@@@std@@@2@XZ
pdata	ENDS
;	COMDAT pdata
pdata	SEGMENT
$pdata$?_Get_data@?$_Vector_alloc@U?$_Vec_base_types@UBufferElement@buffers@core@@V?$allocator@UBufferElement@buffers@core@@@std@@@std@@@std@@QEBAAEBV?$_Vector_val@U?$_Simple_types@UBufferElement@buffers@core@@@std@@@2@XZ DD imagerel $LN3
	DD	imagerel $LN3+55
	DD	imagerel $unwind$?_Get_data@?$_Vector_alloc@U?$_Vec_base_types@UBufferElement@buffers@core@@V?$allocator@UBufferElement@buffers@core@@@std@@@std@@@std@@QEBAAEBV?$_Vector_val@U?$_Simple_types@UBufferElement@buffers@core@@@std@@@2@XZ
pdata	ENDS
;	COMDAT pdata
pdata	SEGMENT
$pdata$?_Myfirst@?$_Vector_alloc@U?$_Vec_base_types@UBufferElement@buffers@core@@V?$allocator@UBufferElement@buffers@core@@@std@@@std@@@std@@QEAAAEAPEAUBufferElement@buffers@core@@XZ DD imagerel $LN3
	DD	imagerel $LN3+56
	DD	imagerel $unwind$?_Myfirst@?$_Vector_alloc@U?$_Vec_base_types@UBufferElement@buffers@core@@V?$allocator@UBufferElement@buffers@core@@@std@@@std@@@std@@QEAAAEAPEAUBufferElement@buffers@core@@XZ
pdata	ENDS
;	COMDAT pdata
pdata	SEGMENT
$pdata$?_Myfirst@?$_Vector_alloc@U?$_Vec_base_types@UBufferElement@buffers@core@@V?$allocator@UBufferElement@buffers@core@@@std@@@std@@@std@@QEBAAEBQEAUBufferElement@buffers@core@@XZ DD imagerel $LN3
	DD	imagerel $LN3+56
	DD	imagerel $unwind$?_Myfirst@?$_Vector_alloc@U?$_Vec_base_types@UBufferElement@buffers@core@@V?$allocator@UBufferElement@buffers@core@@@std@@@std@@@std@@QEBAAEBQEAUBufferElement@buffers@core@@XZ
pdata	ENDS
;	COMDAT pdata
pdata	SEGMENT
$pdata$?_Mylast@?$_Vector_alloc@U?$_Vec_base_types@UBufferElement@buffers@core@@V?$allocator@UBufferElement@buffers@core@@@std@@@std@@@std@@QEAAAEAPEAUBufferElement@buffers@core@@XZ DD imagerel $LN3
	DD	imagerel $LN3+56
	DD	imagerel $unwind$?_Mylast@?$_Vector_alloc@U?$_Vec_base_types@UBufferElement@buffers@core@@V?$allocator@UBufferElement@buffers@core@@@std@@@std@@@std@@QEAAAEAPEAUBufferElement@buffers@core@@XZ
pdata	ENDS
;	COMDAT pdata
pdata	SEGMENT
$pdata$?_Mylast@?$_Vector_alloc@U?$_Vec_base_types@UBufferElement@buffers@core@@V?$allocator@UBufferElement@buffers@core@@@std@@@std@@@std@@QEBAAEBQEAUBufferElement@buffers@core@@XZ DD imagerel $LN3
	DD	imagerel $LN3+56
	DD	imagerel $unwind$?_Mylast@?$_Vector_alloc@U?$_Vec_base_types@UBufferElement@buffers@core@@V?$allocator@UBufferElement@buffers@core@@@std@@@std@@@std@@QEBAAEBQEAUBufferElement@buffers@core@@XZ
pdata	ENDS
;	COMDAT pdata
pdata	SEGMENT
$pdata$?_Myend@?$_Vector_alloc@U?$_Vec_base_types@UBufferElement@buffers@core@@V?$allocator@UBufferElement@buffers@core@@@std@@@std@@@std@@QEAAAEAPEAUBufferElement@buffers@core@@XZ DD imagerel $LN3
	DD	imagerel $LN3+56
	DD	imagerel $unwind$?_Myend@?$_Vector_alloc@U?$_Vec_base_types@UBufferElement@buffers@core@@V?$allocator@UBufferElement@buffers@core@@@std@@@std@@@std@@QEAAAEAPEAUBufferElement@buffers@core@@XZ
pdata	ENDS
;	COMDAT pdata
pdata	SEGMENT
$pdata$?_Myend@?$_Vector_alloc@U?$_Vec_base_types@UBufferElement@buffers@core@@V?$allocator@UBufferElement@buffers@core@@@std@@@std@@@std@@QEBAAEBQEAUBufferElement@buffers@core@@XZ DD imagerel $LN3
	DD	imagerel $LN3+56
	DD	imagerel $unwind$?_Myend@?$_Vector_alloc@U?$_Vec_base_types@UBufferElement@buffers@core@@V?$allocator@UBufferElement@buffers@core@@@std@@@std@@@std@@QEBAAEBQEAUBufferElement@buffers@core@@XZ
pdata	ENDS
;	COMDAT pdata
pdata	SEGMENT
$pdata$??0?$_Vector_val@U?$_Simple_types@UBufferElement@buffers@core@@@std@@@std@@QEAA@XZ DD imagerel $LN3
	DD	imagerel $LN3+82
	DD	imagerel $unwind$??0?$_Vector_val@U?$_Simple_types@UBufferElement@buffers@core@@@std@@@std@@QEAA@XZ
pdata	ENDS
;	COMDAT pdata
pdata	SEGMENT
$pdata$?_Get_first@?$_Compressed_pair@V?$allocator@UBufferElement@buffers@core@@@std@@V?$_Vector_val@U?$_Simple_types@UBufferElement@buffers@core@@@std@@@2@$00@std@@QEAAAEAV?$allocator@UBufferElement@buffers@core@@@2@XZ DD imagerel $LN3
	DD	imagerel $LN3+46
	DD	imagerel $unwind$?_Get_first@?$_Compressed_pair@V?$allocator@UBufferElement@buffers@core@@@std@@V?$_Vector_val@U?$_Simple_types@UBufferElement@buffers@core@@@std@@@2@$00@std@@QEAAAEAV?$allocator@UBufferElement@buffers@core@@@2@XZ
pdata	ENDS
;	COMDAT pdata
pdata	SEGMENT
$pdata$?_Get_first@?$_Compressed_pair@V?$allocator@UBufferElement@buffers@core@@@std@@V?$_Vector_val@U?$_Simple_types@UBufferElement@buffers@core@@@std@@@2@$00@std@@QEBAAEBV?$allocator@UBufferElement@buffers@core@@@2@XZ DD imagerel $LN3
	DD	imagerel $LN3+46
	DD	imagerel $unwind$?_Get_first@?$_Compressed_pair@V?$allocator@UBufferElement@buffers@core@@@std@@V?$_Vector_val@U?$_Simple_types@UBufferElement@buffers@core@@@std@@@2@$00@std@@QEBAAEBV?$allocator@UBufferElement@buffers@core@@@2@XZ
pdata	ENDS
;	COMDAT pdata
pdata	SEGMENT
$pdata$?_Get_second@?$_Compressed_pair@V?$allocator@UBufferElement@buffers@core@@@std@@V?$_Vector_val@U?$_Simple_types@UBufferElement@buffers@core@@@std@@@2@$00@std@@QEAAAEAV?$_Vector_val@U?$_Simple_types@UBufferElement@buffers@core@@@std@@@2@XZ DD imagerel $LN3
	DD	imagerel $LN3+46
	DD	imagerel $unwind$?_Get_second@?$_Compressed_pair@V?$allocator@UBufferElement@buffers@core@@@std@@V?$_Vector_val@U?$_Simple_types@UBufferElement@buffers@core@@@std@@@2@$00@std@@QEAAAEAV?$_Vector_val@U?$_Simple_types@UBufferElement@buffers@core@@@std@@@2@XZ
pdata	ENDS
;	COMDAT pdata
pdata	SEGMENT
$pdata$?_Get_second@?$_Compressed_pair@V?$allocator@UBufferElement@buffers@core@@@std@@V?$_Vector_val@U?$_Simple_types@UBufferElement@buffers@core@@@std@@@2@$00@std@@QEBAAEBV?$_Vector_val@U?$_Simple_types@UBufferElement@buffers@core@@@std@@@2@XZ DD imagerel $LN3
	DD	imagerel $LN3+46
	DD	imagerel $unwind$?_Get_second@?$_Compressed_pair@V?$allocator@UBufferElement@buffers@core@@@std@@V?$_Vector_val@U?$_Simple_types@UBufferElement@buffers@core@@@std@@@2@$00@std@@QEBAAEBV?$_Vector_val@U?$_Simple_types@UBufferElement@buffers@core@@@std@@@2@XZ
pdata	ENDS
;	COMDAT pdata
pdata	SEGMENT
$pdata$??0?$vector@UBufferElement@buffers@core@@V?$allocator@UBufferElement@buffers@core@@@std@@@std@@QEAA@XZ DD imagerel $LN3
	DD	imagerel $LN3+56
	DD	imagerel $unwind$??0?$vector@UBufferElement@buffers@core@@V?$allocator@UBufferElement@buffers@core@@@std@@@std@@QEAA@XZ
pdata	ENDS
;	COMDAT pdata
pdata	SEGMENT
$pdata$??1?$vector@UBufferElement@buffers@core@@V?$allocator@UBufferElement@buffers@core@@@std@@@std@@QEAA@XZ DD imagerel $LN3
	DD	imagerel $LN3+62
	DD	imagerel $unwind$??1?$vector@UBufferElement@buffers@core@@V?$allocator@UBufferElement@buffers@core@@@std@@@std@@QEAA@XZ
pdata	ENDS
;	COMDAT pdata
pdata	SEGMENT
$pdata$?push_back@?$vector@UBufferElement@buffers@core@@V?$allocator@UBufferElement@buffers@core@@@std@@@std@@QEAAX$$QEAUBufferElement@buffers@core@@@Z DD imagerel $LN3
	DD	imagerel $LN3+59
	DD	imagerel $unwind$?push_back@?$vector@UBufferElement@buffers@core@@V?$allocator@UBufferElement@buffers@core@@@std@@@std@@QEAAX$$QEAUBufferElement@buffers@core@@@Z
pdata	ENDS
;	COMDAT pdata
pdata	SEGMENT
$pdata$?size@?$vector@UBufferElement@buffers@core@@V?$allocator@UBufferElement@buffers@core@@@std@@@std@@QEBA_KXZ DD imagerel $LN3
	DD	imagerel $LN3+92
	DD	imagerel $unwind$?size@?$vector@UBufferElement@buffers@core@@V?$allocator@UBufferElement@buffers@core@@@std@@@std@@QEBA_KXZ
pdata	ENDS
;	COMDAT pdata
pdata	SEGMENT
$pdata$?max_size@?$vector@UBufferElement@buffers@core@@V?$allocator@UBufferElement@buffers@core@@@std@@@std@@QEBA_KXZ DD imagerel $LN3
	DD	imagerel $LN3+95
	DD	imagerel $unwind$?max_size@?$vector@UBufferElement@buffers@core@@V?$allocator@UBufferElement@buffers@core@@@std@@@std@@QEBA_KXZ
pdata	ENDS
;	COMDAT pdata
pdata	SEGMENT
$pdata$?capacity@?$vector@UBufferElement@buffers@core@@V?$allocator@UBufferElement@buffers@core@@@std@@@std@@QEBA_KXZ DD imagerel $LN3
	DD	imagerel $LN3+92
	DD	imagerel $unwind$?capacity@?$vector@UBufferElement@buffers@core@@V?$allocator@UBufferElement@buffers@core@@@std@@@std@@QEBA_KXZ
pdata	ENDS
;	COMDAT pdata
pdata	SEGMENT
$pdata$?_Has_unused_capacity@?$vector@UBufferElement@buffers@core@@V?$allocator@UBufferElement@buffers@core@@@std@@@std@@AEBA_NXZ DD imagerel $LN5
	DD	imagerel $LN5+101
	DD	imagerel $unwind$?_Has_unused_capacity@?$vector@UBufferElement@buffers@core@@V?$allocator@UBufferElement@buffers@core@@@std@@@std@@AEBA_NXZ
pdata	ENDS
;	COMDAT pdata
pdata	SEGMENT
$pdata$?_Umove@?$vector@UBufferElement@buffers@core@@V?$allocator@UBufferElement@buffers@core@@@std@@@std@@AEAAPEAUBufferElement@buffers@core@@PEAU345@00@Z DD imagerel $LN3
	DD	imagerel $LN3+77
	DD	imagerel $unwind$?_Umove@?$vector@UBufferElement@buffers@core@@V?$allocator@UBufferElement@buffers@core@@@std@@@std@@AEAAPEAUBufferElement@buffers@core@@PEAU345@00@Z
pdata	ENDS
;	COMDAT pdata
pdata	SEGMENT
$pdata$?_Umove_if_noexcept1@?$vector@UBufferElement@buffers@core@@V?$allocator@UBufferElement@buffers@core@@@std@@@std@@AEAAXPEAUBufferElement@buffers@core@@00U?$integral_constant@_N$00@2@@Z DD imagerel $LN3
	DD	imagerel $LN3+77
	DD	imagerel $unwind$?_Umove_if_noexcept1@?$vector@UBufferElement@buffers@core@@V?$allocator@UBufferElement@buffers@core@@@std@@@std@@AEAAXPEAUBufferElement@buffers@core@@00U?$integral_constant@_N$00@2@@Z
pdata	ENDS
;	COMDAT pdata
pdata	SEGMENT
$pdata$?_Umove_if_noexcept@?$vector@UBufferElement@buffers@core@@V?$allocator@UBufferElement@buffers@core@@@std@@@std@@AEAAXPEAUBufferElement@buffers@core@@00@Z DD imagerel $LN3
	DD	imagerel $LN3+104
	DD	imagerel $unwind$?_Umove_if_noexcept@?$vector@UBufferElement@buffers@core@@V?$allocator@UBufferElement@buffers@core@@@std@@@std@@AEAAXPEAUBufferElement@buffers@core@@00@Z
pdata	ENDS
;	COMDAT pdata
pdata	SEGMENT
$pdata$?_Destroy@?$vector@UBufferElement@buffers@core@@V?$allocator@UBufferElement@buffers@core@@@std@@@std@@AEAAXPEAUBufferElement@buffers@core@@0@Z DD imagerel $LN3
	DD	imagerel $LN3+68
	DD	imagerel $unwind$?_Destroy@?$vector@UBufferElement@buffers@core@@V?$allocator@UBufferElement@buffers@core@@@std@@@std@@AEAAXPEAUBufferElement@buffers@core@@0@Z
pdata	ENDS
;	COMDAT pdata
pdata	SEGMENT
$pdata$?_Calculate_growth@?$vector@UBufferElement@buffers@core@@V?$allocator@UBufferElement@buffers@core@@@std@@@std@@AEBA_K_K@Z DD imagerel $LN5
	DD	imagerel $LN5+151
	DD	imagerel $unwind$?_Calculate_growth@?$vector@UBufferElement@buffers@core@@V?$allocator@UBufferElement@buffers@core@@@std@@@std@@AEBA_K_K@Z
pdata	ENDS
;	COMDAT pdata
pdata	SEGMENT
$pdata$?_Change_array@?$vector@UBufferElement@buffers@core@@V?$allocator@UBufferElement@buffers@core@@@std@@@std@@AEAAXQEAUBufferElement@buffers@core@@_K1@Z DD imagerel $LN4
	DD	imagerel $LN4+256
	DD	imagerel $unwind$?_Change_array@?$vector@UBufferElement@buffers@core@@V?$allocator@UBufferElement@buffers@core@@@std@@@std@@AEAAXQEAUBufferElement@buffers@core@@_K1@Z
pdata	ENDS
;	COMDAT pdata
pdata	SEGMENT
$pdata$?_Tidy@?$vector@UBufferElement@buffers@core@@V?$allocator@UBufferElement@buffers@core@@@std@@@std@@AEAAXXZ DD imagerel $LN4
	DD	imagerel $LN4+207
	DD	imagerel $unwind$?_Tidy@?$vector@UBufferElement@buffers@core@@V?$allocator@UBufferElement@buffers@core@@@std@@@std@@AEAAXXZ
pdata	ENDS
;	COMDAT pdata
pdata	SEGMENT
$pdata$?_Xlength@?$vector@UBufferElement@buffers@core@@V?$allocator@UBufferElement@buffers@core@@@std@@@std@@CAXXZ DD imagerel $LN3
	DD	imagerel $LN3+41
	DD	imagerel $unwind$?_Xlength@?$vector@UBufferElement@buffers@core@@V?$allocator@UBufferElement@buffers@core@@@std@@@std@@CAXXZ
pdata	ENDS
;	COMDAT pdata
pdata	SEGMENT
$pdata$?_Orphan_range@?$vector@UBufferElement@buffers@core@@V?$allocator@UBufferElement@buffers@core@@@std@@@std@@AEBAXPEAUBufferElement@buffers@core@@0@Z DD imagerel $LN10
	DD	imagerel $LN10+227
	DD	imagerel $unwind$?_Orphan_range@?$vector@UBufferElement@buffers@core@@V?$allocator@UBufferElement@buffers@core@@@std@@@std@@AEBAXPEAUBufferElement@buffers@core@@0@Z
pdata	ENDS
;	COMDAT pdata
pdata	SEGMENT
$pdata$?dtor$0@?0??_Orphan_range@?$vector@UBufferElement@buffers@core@@V?$allocator@UBufferElement@buffers@core@@@std@@@std@@AEBAXPEAUBufferElement@buffers@core@@0@Z@4HA DD imagerel ?dtor$0@?0??_Orphan_range@?$vector@UBufferElement@buffers@core@@V?$allocator@UBufferElement@buffers@core@@@std@@@std@@AEBAXPEAUBufferElement@buffers@core@@0@Z@4HA
	DD	imagerel ?dtor$0@?0??_Orphan_range@?$vector@UBufferElement@buffers@core@@V?$allocator@UBufferElement@buffers@core@@@std@@@std@@AEBAXPEAUBufferElement@buffers@core@@0@Z@4HA+26
	DD	imagerel $unwind$?dtor$0@?0??_Orphan_range@?$vector@UBufferElement@buffers@core@@V?$allocator@UBufferElement@buffers@core@@@std@@@std@@AEBAXPEAUBufferElement@buffers@core@@0@Z@4HA
pdata	ENDS
;	COMDAT pdata
pdata	SEGMENT
$pdata$??0BufferLayout@buffers@core@@QEAA@XZ DD imagerel $LN4
	DD	imagerel $LN4+60
	DD	imagerel $unwind$??0BufferLayout@buffers@core@@QEAA@XZ
pdata	ENDS
;	COMDAT pdata
pdata	SEGMENT
$pdata$??$push@M@BufferLayout@buffers@core@@QEAAXI@Z DD imagerel $LN3
	DD	imagerel $LN3+105
	DD	imagerel $unwind$??$push@M@BufferLayout@buffers@core@@QEAAXI@Z
pdata	ENDS
;	COMDAT pdata
pdata	SEGMENT
$pdata$??1BufferLayout@buffers@core@@QEAA@XZ DD imagerel $LN3
	DD	imagerel $LN3+33
	DD	imagerel $unwind$??1BufferLayout@buffers@core@@QEAA@XZ
pdata	ENDS
;	COMDAT pdata
pdata	SEGMENT
$pdata$?__autoclassinit2@BufferLayout@buffers@core@@QEAAX_K@Z DD imagerel $LN3
	DD	imagerel $LN3+38
	DD	imagerel $unwind$?__autoclassinit2@BufferLayout@buffers@core@@QEAAX_K@Z
pdata	ENDS
;	COMDAT pdata
pdata	SEGMENT
$pdata$??_GBufferLayout@buffers@core@@QEAAPEAXI@Z DD imagerel $LN4
	DD	imagerel $LN4+62
	DD	imagerel $unwind$??_GBufferLayout@buffers@core@@QEAAPEAXI@Z
pdata	ENDS
;	COMDAT pdata
pdata	SEGMENT
$pdata$??_GVAO@buffers@core@@QEAAPEAXI@Z DD imagerel $LN4
	DD	imagerel $LN4+62
	DD	imagerel $unwind$??_GVAO@buffers@core@@QEAAPEAXI@Z
pdata	ENDS
;	COMDAT pdata
pdata	SEGMENT
$pdata$?getCount@IBO@buffers@core@@QEBAHXZ DD imagerel $LN3
	DD	imagerel $LN3+40
	DD	imagerel $unwind$?getCount@IBO@buffers@core@@QEBAHXZ
pdata	ENDS
;	COMDAT pdata
pdata	SEGMENT
$pdata$??_GIBO@buffers@core@@QEAAPEAXI@Z DD imagerel $LN4
	DD	imagerel $LN4+62
	DD	imagerel $unwind$??_GIBO@buffers@core@@QEAAPEAXI@Z
pdata	ENDS
;	COMDAT pdata
pdata	SEGMENT
$pdata$??_GShader@graphics@core@@QEAAPEAXI@Z DD imagerel $LN4
	DD	imagerel $LN4+62
	DD	imagerel $unwind$??_GShader@graphics@core@@QEAAPEAXI@Z
pdata	ENDS
;	COMDAT pdata
pdata	SEGMENT
$pdata$?__autoclassinit2@Texture@graphics@core@@QEAAX_K@Z DD imagerel $LN3
	DD	imagerel $LN3+38
	DD	imagerel $unwind$?__autoclassinit2@Texture@graphics@core@@QEAAX_K@Z
pdata	ENDS
;	COMDAT pdata
pdata	SEGMENT
$pdata$??_GTexture@graphics@core@@QEAAPEAXI@Z DD imagerel $LN4
	DD	imagerel $LN4+62
	DD	imagerel $unwind$??_GTexture@graphics@core@@QEAAPEAXI@Z
pdata	ENDS
;	COMDAT pdata
pdata	SEGMENT
$pdata$??0TextureTestScene@Scene@Application@@QEAA@XZ DD imagerel $LN26
	DD	imagerel $LN26+1166
	DD	imagerel $unwind$??0TextureTestScene@Scene@Application@@QEAA@XZ
pdata	ENDS
;	COMDAT pdata
pdata	SEGMENT
$pdata$?dtor$0@?0???0TextureTestScene@Scene@Application@@QEAA@XZ@4HA DD imagerel ?dtor$0@?0???0TextureTestScene@Scene@Application@@QEAA@XZ@4HA
	DD	imagerel ?dtor$0@?0???0TextureTestScene@Scene@Application@@QEAA@XZ@4HA+28
	DD	imagerel $unwind$?dtor$0@?0???0TextureTestScene@Scene@Application@@QEAA@XZ@4HA
pdata	ENDS
;	COMDAT pdata
pdata	SEGMENT
$pdata$?dtor$1@?0???0TextureTestScene@Scene@Application@@QEAA@XZ@4HA DD imagerel ?dtor$1@?0???0TextureTestScene@Scene@Application@@QEAA@XZ@4HA
	DD	imagerel ?dtor$1@?0???0TextureTestScene@Scene@Application@@QEAA@XZ@4HA+33
	DD	imagerel $unwind$?dtor$1@?0???0TextureTestScene@Scene@Application@@QEAA@XZ@4HA
pdata	ENDS
;	COMDAT pdata
pdata	SEGMENT
$pdata$?dtor$2@?0???0TextureTestScene@Scene@Application@@QEAA@XZ@4HA DD imagerel ?dtor$2@?0???0TextureTestScene@Scene@Application@@QEAA@XZ@4HA
	DD	imagerel ?dtor$2@?0???0TextureTestScene@Scene@Application@@QEAA@XZ@4HA+33
	DD	imagerel $unwind$?dtor$2@?0???0TextureTestScene@Scene@Application@@QEAA@XZ@4HA
pdata	ENDS
;	COMDAT pdata
pdata	SEGMENT
$pdata$?dtor$3@?0???0TextureTestScene@Scene@Application@@QEAA@XZ@4HA DD imagerel ?dtor$3@?0???0TextureTestScene@Scene@Application@@QEAA@XZ@4HA
	DD	imagerel ?dtor$3@?0???0TextureTestScene@Scene@Application@@QEAA@XZ@4HA+33
	DD	imagerel $unwind$?dtor$3@?0???0TextureTestScene@Scene@Application@@QEAA@XZ@4HA
pdata	ENDS
;	COMDAT pdata
pdata	SEGMENT
$pdata$?dtor$4@?0???0TextureTestScene@Scene@Application@@QEAA@XZ@4HA DD imagerel ?dtor$4@?0???0TextureTestScene@Scene@Application@@QEAA@XZ@4HA
	DD	imagerel ?dtor$4@?0???0TextureTestScene@Scene@Application@@QEAA@XZ@4HA+33
	DD	imagerel $unwind$?dtor$4@?0???0TextureTestScene@Scene@Application@@QEAA@XZ@4HA
pdata	ENDS
;	COMDAT pdata
pdata	SEGMENT
$pdata$?dtor$5@?0???0TextureTestScene@Scene@Application@@QEAA@XZ@4HA DD imagerel ?dtor$5@?0???0TextureTestScene@Scene@Application@@QEAA@XZ@4HA
	DD	imagerel ?dtor$5@?0???0TextureTestScene@Scene@Application@@QEAA@XZ@4HA+33
	DD	imagerel $unwind$?dtor$5@?0???0TextureTestScene@Scene@Application@@QEAA@XZ@4HA
pdata	ENDS
;	COMDAT pdata
pdata	SEGMENT
$pdata$?dtor$6@?0???0TextureTestScene@Scene@Application@@QEAA@XZ@4HA DD imagerel ?dtor$6@?0???0TextureTestScene@Scene@Application@@QEAA@XZ@4HA
	DD	imagerel ?dtor$6@?0???0TextureTestScene@Scene@Application@@QEAA@XZ@4HA+48
	DD	imagerel $unwind$?dtor$6@?0???0TextureTestScene@Scene@Application@@QEAA@XZ@4HA
pdata	ENDS
;	COMDAT pdata
pdata	SEGMENT
$pdata$?dtor$7@?0???0TextureTestScene@Scene@Application@@QEAA@XZ@4HA DD imagerel ?dtor$7@?0???0TextureTestScene@Scene@Application@@QEAA@XZ@4HA
	DD	imagerel ?dtor$7@?0???0TextureTestScene@Scene@Application@@QEAA@XZ@4HA+33
	DD	imagerel $unwind$?dtor$7@?0???0TextureTestScene@Scene@Application@@QEAA@XZ@4HA
pdata	ENDS
;	COMDAT pdata
pdata	SEGMENT
$pdata$??1TextureTestScene@Scene@Application@@UEAA@XZ DD imagerel $LN15
	DD	imagerel $LN15+501
	DD	imagerel $unwind$??1TextureTestScene@Scene@Application@@UEAA@XZ
pdata	ENDS
;	COMDAT pdata
pdata	SEGMENT
$pdata$?OnUpdate@TextureTestScene@Scene@Application@@UEAAXM@Z DD imagerel $LN3
	DD	imagerel $LN3+39
	DD	imagerel $unwind$?OnUpdate@TextureTestScene@Scene@Application@@UEAAXM@Z
pdata	ENDS
;	COMDAT pdata
pdata	SEGMENT
$pdata$?OnRender@TextureTestScene@Scene@Application@@UEAAXXZ DD imagerel $LN4
	DD	imagerel $LN4+195
	DD	imagerel $unwind$?OnRender@TextureTestScene@Scene@Application@@UEAAXXZ
pdata	ENDS
;	COMDAT pdata
pdata	SEGMENT
$pdata$?OnImGuiRender@TextureTestScene@Scene@Application@@UEAAXXZ DD imagerel $LN3
	DD	imagerel $LN3+45
	DD	imagerel $unwind$?OnImGuiRender@TextureTestScene@Scene@Application@@UEAAXXZ
pdata	ENDS
;	COMDAT pdata
pdata	SEGMENT
$pdata$??_GTextureTestScene@Scene@Application@@UEAAPEAXI@Z DD imagerel $LN4
	DD	imagerel $LN4+62
	DD	imagerel $unwind$??_GTextureTestScene@Scene@Application@@UEAAPEAXI@Z
pdata	ENDS
;	COMDAT pdata
pdata	SEGMENT
$pdata$??$move@AEAUBufferElement@buffers@core@@@std@@YA$$QEAUBufferElement@buffers@core@@AEAU123@@Z DD imagerel $LN3
	DD	imagerel $LN3+46
	DD	imagerel $unwind$??$move@AEAUBufferElement@buffers@core@@@std@@YA$$QEAUBufferElement@buffers@core@@AEAU123@@Z
pdata	ENDS
;	COMDAT pdata
pdata	SEGMENT
$pdata$??$emplace_back@UBufferElement@buffers@core@@@?$vector@UBufferElement@buffers@core@@V?$allocator@UBufferElement@buffers@core@@@std@@@std@@QEAA@$$QEAUBufferElement@buffers@core@@@Z DD imagerel $LN4
	DD	imagerel $LN4+122
	DD	imagerel $unwind$??$emplace_back@UBufferElement@buffers@core@@@?$vector@UBufferElement@buffers@core@@V?$allocator@UBufferElement@buffers@core@@@std@@@std@@QEAA@$$QEAUBufferElement@buffers@core@@@Z
pdata	ENDS
;	COMDAT pdata
pdata	SEGMENT
$pdata$??$forward@UBufferElement@buffers@core@@@std@@YA$$QEAUBufferElement@buffers@core@@AEAU123@@Z DD imagerel $LN3
	DD	imagerel $LN3+46
	DD	imagerel $unwind$??$forward@UBufferElement@buffers@core@@@std@@YA$$QEAUBufferElement@buffers@core@@AEAU123@@Z
pdata	ENDS
;	COMDAT pdata
pdata	SEGMENT
$pdata$??$_Emplace_back_with_unused_capacity@UBufferElement@buffers@core@@@?$vector@UBufferElement@buffers@core@@V?$allocator@UBufferElement@buffers@core@@@std@@@std@@AEAA@$$QEAUBufferElement@buffers@core@@@Z DD imagerel $LN3
	DD	imagerel $LN3+194
	DD	imagerel $unwind$??$_Emplace_back_with_unused_capacity@UBufferElement@buffers@core@@@?$vector@UBufferElement@buffers@core@@V?$allocator@UBufferElement@buffers@core@@@std@@@std@@AEAA@$$QEAUBufferElement@buffers@core@@@Z
pdata	ENDS
;	COMDAT pdata
pdata	SEGMENT
$pdata$??$_Unfancy@UBufferElement@buffers@core@@@std@@YAPEAUBufferElement@buffers@core@@PEAU123@@Z DD imagerel $LN3
	DD	imagerel $LN3+37
	DD	imagerel $unwind$??$_Unfancy@UBufferElement@buffers@core@@@std@@YAPEAUBufferElement@buffers@core@@PEAU123@@Z
pdata	ENDS
;	COMDAT pdata
pdata	SEGMENT
$pdata$??$construct@UBufferElement@buffers@core@@U123@@?$_Default_allocator_traits@V?$allocator@UBufferElement@buffers@core@@@std@@@std@@SAXAEAV?$allocator@UBufferElement@buffers@core@@@1@QEAUBufferElement@buffers@core@@$$QEAU345@@Z DD imagerel $LN3
	DD	imagerel $LN3+91
	DD	imagerel $unwind$??$construct@UBufferElement@buffers@core@@U123@@?$_Default_allocator_traits@V?$allocator@UBufferElement@buffers@core@@@std@@@std@@SAXAEAV?$allocator@UBufferElement@buffers@core@@@1@QEAUBufferElement@buffers@core@@$$QEAU345@@Z
pdata	ENDS
;	COMDAT pdata
pdata	SEGMENT
$pdata$??$_Emplace_reallocate@UBufferElement@buffers@core@@@?$vector@UBufferElement@buffers@core@@V?$allocator@UBufferElement@buffers@core@@@std@@@std@@QEAAPEAUBufferElement@buffers@core@@QEAU234@$$QEAU234@@Z DD imagerel $LN13
	DD	imagerel $LN13+572
	DD	imagerel $unwind$??$_Emplace_reallocate@UBufferElement@buffers@core@@@?$vector@UBufferElement@buffers@core@@V?$allocator@UBufferElement@buffers@core@@@std@@@std@@QEAAPEAUBufferElement@buffers@core@@QEAU234@$$QEAU234@@Z
pdata	ENDS
;	COMDAT pdata
pdata	SEGMENT
$pdata$?catch$0@?0???$_Emplace_reallocate@UBufferElement@buffers@core@@@?$vector@UBufferElement@buffers@core@@V?$allocator@UBufferElement@buffers@core@@@std@@@std@@QEAAPEAUBufferElement@buffers@core@@QEAU234@$$QEAU234@@Z@4HA DD imagerel ?catch$0@?0???$_Emplace_reallocate@UBufferElement@buffers@core@@@?$vector@UBufferElement@buffers@core@@V?$allocator@UBufferElement@buffers@core@@@std@@@std@@QEAAPEAUBufferElement@buffers@core@@QEAU234@$$QEAU234@@Z@4HA
	DD	imagerel ?catch$0@?0???$_Emplace_reallocate@UBufferElement@buffers@core@@@?$vector@UBufferElement@buffers@core@@V?$allocator@UBufferElement@buffers@core@@@std@@@std@@QEAAPEAUBufferElement@buffers@core@@QEAU234@$$QEAU234@@Z@4HA+75
	DD	imagerel $unwind$?catch$0@?0???$_Emplace_reallocate@UBufferElement@buffers@core@@@?$vector@UBufferElement@buffers@core@@V?$allocator@UBufferElement@buffers@core@@@std@@@std@@QEAAPEAUBufferElement@buffers@core@@QEAU234@$$QEAU234@@Z@4HA
pdata	ENDS
;	COMDAT pdata
pdata	SEGMENT
$pdata$??$_Unfancy@D@std@@YAPEADPEAD@Z DD imagerel $LN3
	DD	imagerel $LN3+37
	DD	imagerel $unwind$??$_Unfancy@D@std@@YAPEADPEAD@Z
pdata	ENDS
;	COMDAT pdata
pdata	SEGMENT
$pdata$??$?0$$V@?$_Compressed_pair@V?$allocator@UBufferElement@buffers@core@@@std@@V?$_Vector_val@U?$_Simple_types@UBufferElement@buffers@core@@@std@@@2@$00@std@@QEAA@U_Zero_then_variadic_args_t@1@@Z DD imagerel $LN3
	DD	imagerel $LN3+62
	DD	imagerel $unwind$??$?0$$V@?$_Compressed_pair@V?$allocator@UBufferElement@buffers@core@@@std@@V?$_Vector_val@U?$_Simple_types@UBufferElement@buffers@core@@@std@@@2@$00@std@@QEAA@U_Zero_then_variadic_args_t@1@@Z
pdata	ENDS
;	COMDAT pdata
pdata	SEGMENT
$pdata$??$?0$$V@?$_Compressed_pair@V?$allocator@D@std@@V?$_String_val@U?$_Simple_types@D@std@@@2@$00@std@@QEAA@U_Zero_then_variadic_args_t@1@@Z DD imagerel $LN4
	DD	imagerel $LN4+62
	DD	imagerel $unwind$??$?0$$V@?$_Compressed_pair@V?$allocator@D@std@@V?$_String_val@U?$_Simple_types@D@std@@@2@$00@std@@QEAA@U_Zero_then_variadic_args_t@1@@Z
pdata	ENDS
;	COMDAT pdata
pdata	SEGMENT
$pdata$??$addressof@PEAD@std@@YAPEAPEADAEAPEAD@Z DD imagerel $LN3
	DD	imagerel $LN3+46
	DD	imagerel $unwind$??$addressof@PEAD@std@@YAPEAPEADAEAPEAD@Z
pdata	ENDS
;	COMDAT pdata
pdata	SEGMENT
$pdata$??$destroy@PEAD@?$_Default_allocator_traits@V?$allocator@D@std@@@std@@SAXAEAV?$allocator@D@1@QEAPEAD@Z DD imagerel $LN3
	DD	imagerel $LN3+38
	DD	imagerel $unwind$??$destroy@PEAD@?$_Default_allocator_traits@V?$allocator@D@std@@@std@@SAXAEAV?$allocator@D@1@QEAPEAD@Z
pdata	ENDS
;	COMDAT pdata
pdata	SEGMENT
$pdata$??$_Max_value@_K@std@@YAAEB_KAEB_K0@Z DD imagerel $LN5
	DD	imagerel $LN5+96
	DD	imagerel $unwind$??$_Max_value@_K@std@@YAAEB_KAEB_K0@Z
pdata	ENDS
;	COMDAT pdata
pdata	SEGMENT
$pdata$??R<lambda_66f57f934f28d61049862f64df852ff0>@@QEBAXQEAD_KQEBD@Z DD imagerel ??R<lambda_66f57f934f28d61049862f64df852ff0>@@QEBAXQEAD_KQEBD@Z
	DD	imagerel ??R<lambda_66f57f934f28d61049862f64df852ff0>@@QEBAXQEAD_KQEBD@Z+95
	DD	imagerel $unwind$??R<lambda_66f57f934f28d61049862f64df852ff0>@@QEBAXQEAD_KQEBD@Z
pdata	ENDS
;	COMDAT pdata
pdata	SEGMENT
$pdata$??$_Reallocate_for@V<lambda_66f57f934f28d61049862f64df852ff0>@@PEBD@?$basic_string@DU?$char_traits@D@std@@V?$allocator@D@2@@std@@QEAAAEAV01@_KV<lambda_66f57f934f28d61049862f64df852ff0>@@PEBD@Z DD imagerel ??$_Reallocate_for@V<lambda_66f57f934f28d61049862f64df852ff0>@@PEBD@?$basic_string@DU?$char_traits@D@std@@V?$allocator@D@2@@std@@QEAAAEAV01@_KV<lambda_66f57f934f28d61049862f64df852ff0>@@PEBD@Z
	DD	imagerel ??$_Reallocate_for@V<lambda_66f57f934f28d61049862f64df852ff0>@@PEBD@?$basic_string@DU?$char_traits@D@std@@V?$allocator@D@2@@std@@QEAAAEAV01@_KV<lambda_66f57f934f28d61049862f64df852ff0>@@PEBD@Z+366
	DD	imagerel $unwind$??$_Reallocate_for@V<lambda_66f57f934f28d61049862f64df852ff0>@@PEBD@?$basic_string@DU?$char_traits@D@std@@V?$allocator@D@2@@std@@QEAAAEAV01@_KV<lambda_66f57f934f28d61049862f64df852ff0>@@PEBD@Z
pdata	ENDS
;	COMDAT pdata
pdata	SEGMENT
$pdata$??$construct@PEADAEBQEAD@?$_Default_allocator_traits@V?$allocator@D@std@@@std@@SAXAEAV?$allocator@D@1@QEAPEADAEBQEAD@Z DD imagerel $LN3
	DD	imagerel $LN3+80
	DD	imagerel $unwind$??$construct@PEADAEBQEAD@?$_Default_allocator_traits@V?$allocator@D@std@@@std@@SAXAEAV?$allocator@D@1@QEAPEADAEBQEAD@Z
pdata	ENDS
;	COMDAT pdata
pdata	SEGMENT
$pdata$??$addressof@V?$_String_val@U?$_Simple_types@D@std@@@std@@@std@@YAPEAV?$_String_val@U?$_Simple_types@D@std@@@0@AEAV10@@Z DD imagerel $LN3
	DD	imagerel $LN3+46
	DD	imagerel $unwind$??$addressof@V?$_String_val@U?$_Simple_types@D@std@@@std@@@std@@YAPEAV?$_String_val@U?$_Simple_types@D@std@@@0@AEAV10@@Z
pdata	ENDS
;	COMDAT pdata
pdata	SEGMENT
$pdata$??$_Allocate@$0BA@U_Default_allocate_traits@std@@$0A@@std@@YAPEAX_K@Z DD imagerel $LN5
	DD	imagerel $LN5+74
	DD	imagerel $unwind$??$_Allocate@$0BA@U_Default_allocate_traits@std@@$0A@@std@@YAPEAX_K@Z
pdata	ENDS
;	COMDAT pdata
pdata	SEGMENT
$pdata$??$_Deallocate@$0BA@$0A@@std@@YAXPEAX_K@Z DD imagerel $LN4
	DD	imagerel $LN4+74
	DD	imagerel $unwind$??$_Deallocate@$0BA@$0A@@std@@YAXPEAX_K@Z
pdata	ENDS
;	COMDAT pdata
pdata	SEGMENT
$pdata$?allocate@?$allocator@U_Container_proxy@std@@@std@@QEAAPEAU_Container_proxy@2@_K@Z DD imagerel $LN3
	DD	imagerel $LN3+55
	DD	imagerel $unwind$?allocate@?$allocator@U_Container_proxy@std@@@std@@QEAAPEAU_Container_proxy@2@_K@Z
pdata	ENDS
;	COMDAT pdata
pdata	SEGMENT
$pdata$?deallocate@?$_Default_allocator_traits@V?$allocator@U_Container_proxy@std@@@std@@@std@@SAXAEAV?$allocator@U_Container_proxy@std@@@2@QEAU_Container_proxy@2@_K@Z DD imagerel $LN3
	DD	imagerel $LN3+60
	DD	imagerel $unwind$?deallocate@?$_Default_allocator_traits@V?$allocator@U_Container_proxy@std@@@std@@@std@@SAXAEAV?$allocator@U_Container_proxy@std@@@2@QEAU_Container_proxy@2@_K@Z
pdata	ENDS
;	COMDAT pdata
pdata	SEGMENT
$pdata$??$destroy@U_Container_proxy@std@@@?$_Default_allocator_traits@V?$allocator@U_Container_proxy@std@@@std@@@std@@SAXAEAV?$allocator@U_Container_proxy@std@@@1@QEAU_Container_proxy@1@@Z DD imagerel $LN3
	DD	imagerel $LN3+38
	DD	imagerel $unwind$??$destroy@U_Container_proxy@std@@@?$_Default_allocator_traits@V?$allocator@U_Container_proxy@std@@@std@@@std@@SAXAEAV?$allocator@U_Container_proxy@std@@@1@QEAU_Container_proxy@1@@Z
pdata	ENDS
;	COMDAT pdata
pdata	SEGMENT
$pdata$??$_Deallocate_plain@V?$allocator@U_Container_proxy@std@@@std@@$0A@@std@@YAXAEAV?$allocator@U_Container_proxy@std@@@0@QEAU_Container_proxy@0@@Z DD imagerel $LN3
	DD	imagerel $LN3+57
	DD	imagerel $unwind$??$_Deallocate_plain@V?$allocator@U_Container_proxy@std@@@std@@$0A@@std@@YAXAEAV?$allocator@U_Container_proxy@std@@@0@QEAU_Container_proxy@0@@Z
pdata	ENDS
;	COMDAT pdata
pdata	SEGMENT
$pdata$??$_Unfancy@U_Container_proxy@std@@@std@@YAPEAU_Container_proxy@0@PEAU10@@Z DD imagerel $LN3
	DD	imagerel $LN3+37
	DD	imagerel $unwind$??$_Unfancy@U_Container_proxy@std@@@std@@YAPEAU_Container_proxy@0@PEAU10@@Z
pdata	ENDS
;	COMDAT pdata
pdata	SEGMENT
$pdata$??$construct@U_Container_proxy@std@@U12@@?$_Default_allocator_traits@V?$allocator@U_Container_proxy@std@@@std@@@std@@SAXAEAV?$allocator@U_Container_proxy@std@@@1@QEAU_Container_proxy@1@$$QEAU31@@Z DD imagerel $LN3
	DD	imagerel $LN3+91
	DD	imagerel $unwind$??$construct@U_Container_proxy@std@@U12@@?$_Default_allocator_traits@V?$allocator@U_Container_proxy@std@@@std@@@std@@SAXAEAV?$allocator@U_Container_proxy@std@@@1@QEAU_Container_proxy@1@$$QEAU31@@Z
pdata	ENDS
;	COMDAT pdata
pdata	SEGMENT
$pdata$??$?0UBufferElement@buffers@core@@@?$allocator@U_Container_proxy@std@@@std@@QEAA@AEBV?$allocator@UBufferElement@buffers@core@@@1@@Z DD imagerel $LN3
	DD	imagerel $LN3+51
	DD	imagerel $unwind$??$?0UBufferElement@buffers@core@@@?$allocator@U_Container_proxy@std@@@std@@QEAA@AEBV?$allocator@UBufferElement@buffers@core@@@1@@Z
pdata	ENDS
;	COMDAT pdata
pdata	SEGMENT
$pdata$??$addressof@V?$_Vector_val@U?$_Simple_types@UBufferElement@buffers@core@@@std@@@std@@@std@@YAPEAV?$_Vector_val@U?$_Simple_types@UBufferElement@buffers@core@@@std@@@0@AEAV10@@Z DD imagerel $LN3
	DD	imagerel $LN3+46
	DD	imagerel $unwind$??$addressof@V?$_Vector_val@U?$_Simple_types@UBufferElement@buffers@core@@@std@@@std@@@std@@YAPEAV?$_Vector_val@U?$_Simple_types@UBufferElement@buffers@core@@@std@@@0@AEAV10@@Z
pdata	ENDS
;	COMDAT pdata
pdata	SEGMENT
$pdata$??$_Destroy_range@V?$allocator@UBufferElement@buffers@core@@@std@@@std@@YAXPEAUBufferElement@buffers@core@@0AEAV?$allocator@UBufferElement@buffers@core@@@0@@Z DD imagerel $LN3
	DD	imagerel $LN3+86
	DD	imagerel $unwind$??$_Destroy_range@V?$allocator@UBufferElement@buffers@core@@@std@@@std@@YAXPEAUBufferElement@buffers@core@@0AEAV?$allocator@UBufferElement@buffers@core@@@0@@Z
pdata	ENDS
;	COMDAT pdata
pdata	SEGMENT
$pdata$??$?0D@?$allocator@U_Container_proxy@std@@@std@@QEAA@AEBV?$allocator@D@1@@Z DD imagerel $LN3
	DD	imagerel $LN3+51
	DD	imagerel $unwind$??$?0D@?$allocator@U_Container_proxy@std@@@std@@QEAA@AEBV?$allocator@D@1@@Z
pdata	ENDS
;	COMDAT pdata
pdata	SEGMENT
$pdata$??$_Get_size_of_n@$0BA@@std@@YA_K_K@Z DD imagerel $LN4
	DD	imagerel $LN4+84
	DD	imagerel $unwind$??$_Get_size_of_n@$0BA@@std@@YA_K_K@Z
pdata	ENDS
;	COMDAT pdata
pdata	SEGMENT
$pdata$??$forward@AEBQEAD@std@@YAAEBQEADAEBQEAD@Z DD imagerel $LN3
	DD	imagerel $LN3+46
	DD	imagerel $unwind$??$forward@AEBQEAD@std@@YAAEBQEADAEBQEAD@Z
pdata	ENDS
;	COMDAT pdata
pdata	SEGMENT
$pdata$??$_Allocate_manually_vector_aligned@U_Default_allocate_traits@std@@@std@@YAPEAX_K@Z DD imagerel $LN13
	DD	imagerel $LN13+269
	DD	imagerel $unwind$??$_Allocate_manually_vector_aligned@U_Default_allocate_traits@std@@@std@@YAPEAX_K@Z
pdata	ENDS
;	COMDAT pdata
pdata	SEGMENT
$pdata$??$forward@U_Container_proxy@std@@@std@@YA$$QEAU_Container_proxy@0@AEAU10@@Z DD imagerel $LN3
	DD	imagerel $LN3+46
	DD	imagerel $unwind$??$forward@U_Container_proxy@std@@@std@@YA$$QEAU_Container_proxy@0@AEAU10@@Z
pdata	ENDS
;	COMDAT pdata
pdata	SEGMENT
$pdata$??$_Destroy_range1@V?$allocator@UBufferElement@buffers@core@@@std@@@std@@YAXPEAUBufferElement@buffers@core@@0AEAV?$allocator@UBufferElement@buffers@core@@@0@U?$integral_constant@_N$00@0@@Z DD imagerel $LN3
	DD	imagerel $LN3+48
	DD	imagerel $unwind$??$_Destroy_range1@V?$allocator@UBufferElement@buffers@core@@@std@@@std@@YAXPEAUBufferElement@buffers@core@@0AEAV?$allocator@UBufferElement@buffers@core@@@0@U?$integral_constant@_N$00@0@@Z
pdata	ENDS
;	COMDAT pdata
pdata	SEGMENT
$pdata$??$_Uninitialized_move@PEAUBufferElement@buffers@core@@PEAU123@V?$allocator@UBufferElement@buffers@core@@@std@@@std@@YAPEAUBufferElement@buffers@core@@QEAU123@0PEAU123@AEAV?$allocator@UBufferElement@buffers@core@@@0@@Z DD imagerel $LN3
	DD	imagerel $LN3+219
	DD	imagerel $unwind$??$_Uninitialized_move@PEAUBufferElement@buffers@core@@PEAU123@V?$allocator@UBufferElement@buffers@core@@@std@@@std@@YAPEAUBufferElement@buffers@core@@QEAU123@0PEAU123@AEAV?$allocator@UBufferElement@buffers@core@@@0@@Z
pdata	ENDS
;	COMDAT pdata
pdata	SEGMENT
$pdata$??$_Get_size_of_n@$0M@@std@@YA_K_K@Z DD imagerel $LN4
	DD	imagerel $LN4+84
	DD	imagerel $unwind$??$_Get_size_of_n@$0M@@std@@YA_K_K@Z
pdata	ENDS
;	COMDAT pdata
pdata	SEGMENT
$pdata$??$_Get_unwrapped@UBufferElement@buffers@core@@@std@@YAPEAUBufferElement@buffers@core@@QEAU123@@Z DD imagerel $LN3
	DD	imagerel $LN3+37
	DD	imagerel $unwind$??$_Get_unwrapped@UBufferElement@buffers@core@@@std@@YAPEAUBufferElement@buffers@core@@QEAU123@@Z
pdata	ENDS
;	COMDAT pdata
pdata	SEGMENT
$pdata$??$_Idl_distance@PEAUBufferElement@buffers@core@@PEAU123@@std@@YA@AEBQEAUBufferElement@buffers@core@@0@Z DD imagerel $LN3
	DD	imagerel $LN3+56
	DD	imagerel $unwind$??$_Idl_distance@PEAUBufferElement@buffers@core@@PEAU123@@std@@YA@AEBQEAUBufferElement@buffers@core@@0@Z
pdata	ENDS
;	COMDAT pdata
pdata	SEGMENT
$pdata$??$_Idl_distance1@PEAUBufferElement@buffers@core@@PEAU123@@std@@YA_JAEBQEAUBufferElement@buffers@core@@0Urandom_access_iterator_tag@0@@Z DD imagerel $LN3
	DD	imagerel $LN3+70
	DD	imagerel $unwind$??$_Idl_distance1@PEAUBufferElement@buffers@core@@PEAU123@@std@@YA_JAEBQEAUBufferElement@buffers@core@@0Urandom_access_iterator_tag@0@@Z
pdata	ENDS
;	COMDAT pdata
pdata	SEGMENT
$pdata$??$_Get_unwrapped_n@UBufferElement@buffers@core@@_J$0A@@std@@YAPEAUBufferElement@buffers@core@@QEAU123@_J@Z DD imagerel $LN3
	DD	imagerel $LN3+42
	DD	imagerel $unwind$??$_Get_unwrapped_n@UBufferElement@buffers@core@@_J$0A@@std@@YAPEAUBufferElement@buffers@core@@QEAU123@_J@Z
pdata	ENDS
;	COMDAT pdata
pdata	SEGMENT
$pdata$??$_Ptr_move_cat@UBufferElement@buffers@core@@U123@@std@@YA?AU_Really_trivial_ptr_iterator_tag@0@AEBQEAUBufferElement@buffers@core@@0@Z DD imagerel $LN3
	DD	imagerel $LN3+47
	DD	imagerel $unwind$??$_Ptr_move_cat@UBufferElement@buffers@core@@U123@@std@@YA?AU_Really_trivial_ptr_iterator_tag@0@AEBQEAUBufferElement@buffers@core@@0@Z
pdata	ENDS
;	COMDAT pdata
pdata	SEGMENT
$pdata$??$_Uninitialized_move_al_unchecked@UBufferElement@buffers@core@@U123@V?$allocator@UBufferElement@buffers@core@@@std@@@std@@YAPEAUBufferElement@buffers@core@@QEAU123@00AEAV?$allocator@UBufferElement@buffers@core@@@0@U_Really_trivial_ptr_iterator_tag@0@U?$integral_constant@_N$00@0@@Z DD imagerel $LN3
	DD	imagerel $LN3+65
	DD	imagerel $unwind$??$_Uninitialized_move_al_unchecked@UBufferElement@buffers@core@@U123@V?$allocator@UBufferElement@buffers@core@@@std@@@std@@YAPEAUBufferElement@buffers@core@@QEAU123@00AEAV?$allocator@UBufferElement@buffers@core@@@0@U_Really_trivial_ptr_iterator_tag@0@U?$integral_constant@_N$00@0@@Z
pdata	ENDS
;	COMDAT pdata
pdata	SEGMENT
$pdata$??$_Seek_wrapped@UBufferElement@buffers@core@@@std@@YAXAEAPEAUBufferElement@buffers@core@@QEAU123@@Z DD imagerel $LN3
	DD	imagerel $LN3+49
	DD	imagerel $unwind$??$_Seek_wrapped@UBufferElement@buffers@core@@@std@@YAXAEAPEAUBufferElement@buffers@core@@QEAU123@@Z
pdata	ENDS
;	COMDAT pdata
pdata	SEGMENT
$pdata$??$_Copy_memmove@PEAUBufferElement@buffers@core@@PEAU123@@std@@YAPEAUBufferElement@buffers@core@@PEAU123@00@Z DD imagerel $LN3
	DD	imagerel $LN3+122
	DD	imagerel $unwind$??$_Copy_memmove@PEAUBufferElement@buffers@core@@PEAU123@@std@@YAPEAUBufferElement@buffers@core@@PEAU123@00@Z
pdata	ENDS
;	COMDAT __real@bf000000
CONST	SEGMENT
__real@bf000000 DD 0bf000000r			; -0.5
CONST	ENDS
;	COMDAT __real@3f800000
CONST	SEGMENT
__real@3f800000 DD 03f800000r			; 1
CONST	ENDS
;	COMDAT __real@3f000000
CONST	SEGMENT
__real@3f000000 DD 03f000000r			; 0.5
CONST	ENDS
;	COMDAT rtc$TMZ
rtc$TMZ	SEGMENT
_RTC_Shutdown.rtc$TMZ DQ FLAT:_RTC_Shutdown
rtc$TMZ	ENDS
;	COMDAT rtc$IMZ
rtc$IMZ	SEGMENT
_RTC_InitBase.rtc$IMZ DQ FLAT:_RTC_InitBase
rtc$IMZ	ENDS
;	COMDAT ??_R2Scene@0Application@@8
rdata$r	SEGMENT
??_R2Scene@0Application@@8 DD imagerel ??_R1A@?0A@EA@Scene@0Application@@8 ; Application::Scene::Scene::`RTTI Base Class Array'
	ORG $+3
rdata$r	ENDS
;	COMDAT ??_R3Scene@0Application@@8
rdata$r	SEGMENT
??_R3Scene@0Application@@8 DD 00H			; Application::Scene::Scene::`RTTI Class Hierarchy Descriptor'
	DD	00H
	DD	01H
	DD	imagerel ??_R2Scene@0Application@@8
rdata$r	ENDS
;	COMDAT ??_R0?AVScene@0Application@@@8
data$r	SEGMENT
??_R0?AVScene@0Application@@@8 DQ FLAT:??_7type_info@@6B@ ; Application::Scene::Scene `RTTI Type Descriptor'
	DQ	0000000000000000H
	DB	'.?AVScene@0Application@@', 00H
data$r	ENDS
;	COMDAT ??_R1A@?0A@EA@Scene@0Application@@8
rdata$r	SEGMENT
??_R1A@?0A@EA@Scene@0Application@@8 DD imagerel ??_R0?AVScene@0Application@@@8 ; Application::Scene::Scene::`RTTI Base Class Descriptor at (0,-1,0,64)'
	DD	00H
	DD	00H
	DD	0ffffffffH
	DD	00H
	DD	040H
	DD	imagerel ??_R3Scene@0Application@@8
rdata$r	ENDS
;	COMDAT ??_R1A@?0A@EA@TextureTestScene@Scene@Application@@8
rdata$r	SEGMENT
??_R1A@?0A@EA@TextureTestScene@Scene@Application@@8 DD imagerel ??_R0?AVTextureTestScene@Scene@Application@@@8 ; Application::Scene::TextureTestScene::`RTTI Base Class Descriptor at (0,-1,0,64)'
	DD	01H
	DD	00H
	DD	0ffffffffH
	DD	00H
	DD	040H
	DD	imagerel ??_R3TextureTestScene@Scene@Application@@8
rdata$r	ENDS
;	COMDAT ??_R2TextureTestScene@Scene@Application@@8
rdata$r	SEGMENT
??_R2TextureTestScene@Scene@Application@@8 DD imagerel ??_R1A@?0A@EA@TextureTestScene@Scene@Application@@8 ; Application::Scene::TextureTestScene::`RTTI Base Class Array'
	DD	imagerel ??_R1A@?0A@EA@Scene@0Application@@8
	ORG $+3
rdata$r	ENDS
;	COMDAT ??_R3TextureTestScene@Scene@Application@@8
rdata$r	SEGMENT
??_R3TextureTestScene@Scene@Application@@8 DD 00H	; Application::Scene::TextureTestScene::`RTTI Class Hierarchy Descriptor'
	DD	00H
	DD	02H
	DD	imagerel ??_R2TextureTestScene@Scene@Application@@8
rdata$r	ENDS
;	COMDAT ??_R0?AVTextureTestScene@Scene@Application@@@8
data$r	SEGMENT
??_R0?AVTextureTestScene@Scene@Application@@@8 DQ FLAT:??_7type_info@@6B@ ; Application::Scene::TextureTestScene `RTTI Type Descriptor'
	DQ	0000000000000000H
	DB	'.?AVTextureTestScene@Scene@Application@@', 00H
data$r	ENDS
;	COMDAT ??_R4TextureTestScene@Scene@Application@@6B@
rdata$r	SEGMENT
??_R4TextureTestScene@Scene@Application@@6B@ DD 01H	; Application::Scene::TextureTestScene::`RTTI Complete Object Locator'
	DD	00H
	DD	00H
	DD	imagerel ??_R0?AVTextureTestScene@Scene@Application@@@8
	DD	imagerel ??_R3TextureTestScene@Scene@Application@@8
	DD	imagerel ??_R4TextureTestScene@Scene@Application@@6B@
rdata$r	ENDS
;	COMDAT ??_C@_1EO@GFNCMDLA@?$AAs?$AAt?$AAd?$AA?3?$AA?3?$AA_?$AAA?$AAl?$AAl?$AAo?$AAc?$AAa?$AAt?$AAe?$AA_@
CONST	SEGMENT
??_C@_1EO@GFNCMDLA@?$AAs?$AAt?$AAd?$AA?3?$AA?3?$AA_?$AAA?$AAl?$AAl?$AAo?$AAc?$AAa?$AAt?$AAe?$AA_@ DB 's'
	DB	00H, 't', 00H, 'd', 00H, ':', 00H, ':', 00H, '_', 00H, 'A', 00H
	DB	'l', 00H, 'l', 00H, 'o', 00H, 'c', 00H, 'a', 00H, 't', 00H, 'e'
	DB	00H, '_', 00H, 'm', 00H, 'a', 00H, 'n', 00H, 'u', 00H, 'a', 00H
	DB	'l', 00H, 'l', 00H, 'y', 00H, '_', 00H, 'v', 00H, 'e', 00H, 'c'
	DB	00H, 't', 00H, 'o', 00H, 'r', 00H, '_', 00H, 'a', 00H, 'l', 00H
	DB	'i', 00H, 'g', 00H, 'n', 00H, 'e', 00H, 'd', 00H, 00H, 00H ; `string'
CONST	ENDS
;	COMDAT ??_C@_0BA@JFNIOLAK@string?5too?5long@
CONST	SEGMENT
??_C@_0BA@JFNIOLAK@string?5too?5long@ DB 'string too long', 00H ; `string'
CONST	ENDS
;	COMDAT ??_C@_0BD@OLBABOEK@vector?$DMT?$DO?5too?5long@
CONST	SEGMENT
??_C@_0BD@OLBABOEK@vector?$DMT?$DO?5too?5long@ DB 'vector<T> too long', 00H ; `string'
CONST	ENDS
;	COMDAT ??_C@_0O@JGCBCHIF@Texture?5Test?$CB@
CONST	SEGMENT
??_C@_0O@JGCBCHIF@Texture?5Test?$CB@ DB 'Texture Test!', 00H ; `string'
CONST	ENDS
;	COMDAT ??_C@_0EI@LIJNNICP@glDrawElements?$CIGL_TRIANGLES?0?5ib@
CONST	SEGMENT
??_C@_0EI@LIJNNICP@glDrawElements?$CIGL_TRIANGLES?0?5ib@ DB 'glDrawElemen'
	DB	'ts(GL_TRIANGLES, ibo->getCount(), GL_UNSIGNED_INT, nullptr)', 00H ; `string'
CONST	ENDS
;	COMDAT ??_C@_0EN@IGOIKAOF@l?3?2dev?2featherfallengine?2feathe@
CONST	SEGMENT
??_C@_0EN@IGOIKAOF@l?3?2dev?2featherfallengine?2feathe@ DB 'l:\dev\feathe'
	DB	'rfallengine\featherfall-examples\src\scene\texturetestscene.c'
	DB	'pp', 00H					; `string'
CONST	ENDS
;	COMDAT ??_C@_08FDBNEJGE@uTexture@
CONST	SEGMENT
??_C@_08FDBNEJGE@uTexture@ DB 'uTexture', 00H		; `string'
CONST	ENDS
;	COMDAT ?__LINE__Var@?0??OnRender@TextureTestScene@Scene@Application@@UEAAXXZ@4JA
_DATA	SEGMENT
?__LINE__Var@?0??OnRender@TextureTestScene@Scene@Application@@UEAAXXZ@4JA DD 030H ; `Application::Scene::TextureTestScene::OnRender'::`1'::__LINE__Var
_DATA	ENDS
;	COMDAT ??_C@_0BN@MKLMCAKL@res?1textures?1TextureTest?4png@
CONST	SEGMENT
??_C@_0BN@MKLMCAKL@res?1textures?1TextureTest?4png@ DB 'res/textures/Text'
	DB	'ureTest.png', 00H				; `string'
CONST	ENDS
;	COMDAT ??_C@_0BP@FDJOMHHB@res?1shaders?1TextureTest?4shader@
CONST	SEGMENT
??_C@_0BP@FDJOMHHB@res?1shaders?1TextureTest?4shader@ DB 'res/shaders/Tex'
	DB	'tureTest.shader', 00H			; `string'
CONST	ENDS
;	COMDAT ??_7TextureTestScene@Scene@Application@@6B@
CONST	SEGMENT
??_7TextureTestScene@Scene@Application@@6B@ DQ FLAT:??_R4TextureTestScene@Scene@Application@@6B@ ; Application::Scene::TextureTestScene::`vftable'
	DQ	FLAT:??_ETextureTestScene@Scene@Application@@UEAAPEAXI@Z
	DQ	FLAT:?OnUpdate@TextureTestScene@Scene@Application@@UEAAXM@Z
	DQ	FLAT:?OnRender@TextureTestScene@Scene@Application@@UEAAXXZ
	DQ	FLAT:?OnImGuiRender@TextureTestScene@Scene@Application@@UEAAXXZ
CONST	ENDS
;	COMDAT ??_C@_1EK@NIFDJFDG@?$AAs?$AAt?$AAd?$AA?3?$AA?3?$AA_?$AAA?$AAd?$AAj?$AAu?$AAs?$AAt?$AA_?$AAm?$AAa@
CONST	SEGMENT
??_C@_1EK@NIFDJFDG@?$AAs?$AAt?$AAd?$AA?3?$AA?3?$AA_?$AAA?$AAd?$AAj?$AAu?$AAs?$AAt?$AA_?$AAm?$AAa@ DB 's'
	DB	00H, 't', 00H, 'd', 00H, ':', 00H, ':', 00H, '_', 00H, 'A', 00H
	DB	'd', 00H, 'j', 00H, 'u', 00H, 's', 00H, 't', 00H, '_', 00H, 'm'
	DB	00H, 'a', 00H, 'n', 00H, 'u', 00H, 'a', 00H, 'l', 00H, 'l', 00H
	DB	'y', 00H, '_', 00H, 'v', 00H, 'e', 00H, 'c', 00H, 't', 00H, 'o'
	DB	00H, 'r', 00H, '_', 00H, 'a', 00H, 'l', 00H, 'i', 00H, 'g', 00H
	DB	'n', 00H, 'e', 00H, 'd', 00H, 00H, 00H	; `string'
CONST	ENDS
;	COMDAT ??_C@_1NE@MCNNPIKO@?$AAc?$AA?3?$AA?2?$AAp?$AAr?$AAo?$AAg?$AAr?$AAa?$AAm?$AA?5?$AAf?$AAi?$AAl?$AAe@
CONST	SEGMENT
??_C@_1NE@MCNNPIKO@?$AAc?$AA?3?$AA?2?$AAp?$AAr?$AAo?$AAg?$AAr?$AAa?$AAm?$AA?5?$AAf?$AAi?$AAl?$AAe@ DB 'c'
	DB	00H, ':', 00H, '\', 00H, 'p', 00H, 'r', 00H, 'o', 00H, 'g', 00H
	DB	'r', 00H, 'a', 00H, 'm', 00H, ' ', 00H, 'f', 00H, 'i', 00H, 'l'
	DB	00H, 'e', 00H, 's', 00H, ' ', 00H, '(', 00H, 'x', 00H, '8', 00H
	DB	'6', 00H, ')', 00H, '\', 00H, 'm', 00H, 'i', 00H, 'c', 00H, 'r'
	DB	00H, 'o', 00H, 's', 00H, 'o', 00H, 'f', 00H, 't', 00H, ' ', 00H
	DB	'v', 00H, 'i', 00H, 's', 00H, 'u', 00H, 'a', 00H, 'l', 00H, ' '
	DB	00H, 's', 00H, 't', 00H, 'u', 00H, 'd', 00H, 'i', 00H, 'o', 00H
	DB	'\', 00H, '2', 00H, '0', 00H, '1', 00H, '7', 00H, '\', 00H, 'e'
	DB	00H, 'n', 00H, 't', 00H, 'e', 00H, 'r', 00H, 'p', 00H, 'r', 00H
	DB	'i', 00H, 's', 00H, 'e', 00H, '\', 00H, 'v', 00H, 'c', 00H, '\'
	DB	00H, 't', 00H, 'o', 00H, 'o', 00H, 'l', 00H, 's', 00H, '\', 00H
	DB	'm', 00H, 's', 00H, 'v', 00H, 'c', 00H, '\', 00H, '1', 00H, '4'
	DB	00H, '.', 00H, '1', 00H, '5', 00H, '.', 00H, '2', 00H, '6', 00H
	DB	'7', 00H, '2', 00H, '6', 00H, '\', 00H, 'i', 00H, 'n', 00H, 'c'
	DB	00H, 'l', 00H, 'u', 00H, 'd', 00H, 'e', 00H, '\', 00H, 'x', 00H
	DB	'm', 00H, 'e', 00H, 'm', 00H, 'o', 00H, 'r', 00H, 'y', 00H, '0'
	DB	00H, 00H, 00H				; `string'
CONST	ENDS
;	COMDAT ??_C@_0GK@FKLKIKPD@c?3?2program?5files?5?$CIx86?$CJ?2microsof@
CONST	SEGMENT
??_C@_0GK@FKLKIKPD@c?3?2program?5files?5?$CIx86?$CJ?2microsof@ DB 'c:\pro'
	DB	'gram files (x86)\microsoft visual studio\2017\enterprise\vc\t'
	DB	'ools\msvc\14.15.26726\include\xmemory0', 00H ; `string'
CONST	ENDS
;	COMDAT ?__LINE__Var@?0??_Adjust_manually_vector_aligned@std@@YAXAEAPEAXAEA_K@Z@4JA
_DATA	SEGMENT
?__LINE__Var@?0??_Adjust_manually_vector_aligned@std@@YAXAEAPEAXAEA_K@Z@4JA DD 072H ; `std::_Adjust_manually_vector_aligned'::`1'::__LINE__Var
_DATA	ENDS
;	COMDAT ??_C@_1CG@JNLFBNGN@?$AA?$CC?$AAi?$AAn?$AAv?$AAa?$AAl?$AAi?$AAd?$AA?5?$AAa?$AAr?$AAg?$AAu?$AAm?$AAe@
CONST	SEGMENT
??_C@_1CG@JNLFBNGN@?$AA?$CC?$AAi?$AAn?$AAv?$AAa?$AAl?$AAi?$AAd?$AA?5?$AAa?$AAr?$AAg?$AAu?$AAm?$AAe@ DB '"'
	DB	00H, 'i', 00H, 'n', 00H, 'v', 00H, 'a', 00H, 'l', 00H, 'i', 00H
	DB	'd', 00H, ' ', 00H, 'a', 00H, 'r', 00H, 'g', 00H, 'u', 00H, 'm'
	DB	00H, 'e', 00H, 'n', 00H, 't', 00H, '"', 00H, 00H, 00H ; `string'
CONST	ENDS
;	COMDAT ??_C@_02DKCKIIND@?$CFs@
CONST	SEGMENT
??_C@_02DKCKIIND@?$CFs@ DB '%s', 00H			; `string'
CONST	ENDS
;	COMDAT ??_C@_0BB@FCMFBGOM@invalid?5argument@
CONST	SEGMENT
??_C@_0BB@FCMFBGOM@invalid?5argument@ DB 'invalid argument', 00H ; `string'
CONST	ENDS
;	COMDAT xdata
xdata	SEGMENT
$unwind$??$_Copy_memmove@PEAUBufferElement@buffers@core@@PEAU123@@std@@YAPEAUBufferElement@buffers@core@@PEAU123@00@Z DD 025031c01H
	DD	0f217231cH
	DD	05010H
xdata	ENDS
;	COMDAT xdata
xdata	SEGMENT
$unwind$??$_Seek_wrapped@UBufferElement@buffers@core@@@std@@YAXAEAPEAUBufferElement@buffers@core@@QEAU123@@Z DD 025031401H
	DD	0b20f2314H
	DD	0500bH
xdata	ENDS
;	COMDAT xdata
xdata	SEGMENT
$unwind$??$_Uninitialized_move_al_unchecked@UBufferElement@buffers@core@@U123@V?$allocator@UBufferElement@buffers@core@@@std@@@std@@YAPEAUBufferElement@buffers@core@@QEAU123@00AEAV?$allocator@UBufferElement@buffers@core@@@0@U_Really_trivial_ptr_iterator_tag@0@U?$integral_constant@_N$00@0@@Z DD 025031e01H
	DD	0b219231eH
	DD	05015H
xdata	ENDS
;	COMDAT xdata
xdata	SEGMENT
$unwind$??$_Ptr_move_cat@UBufferElement@buffers@core@@U123@@std@@YA?AU_Really_trivial_ptr_iterator_tag@0@AEBQEAUBufferElement@buffers@core@@0@Z DD 025031901H
	DD	0b2142319H
	DD	05010H
xdata	ENDS
;	COMDAT xdata
xdata	SEGMENT
$unwind$??$_Get_unwrapped_n@UBufferElement@buffers@core@@_J$0A@@std@@YAPEAUBufferElement@buffers@core@@QEAU123@_J@Z DD 025031401H
	DD	0b20f2314H
	DD	0500bH
xdata	ENDS
;	COMDAT xdata
xdata	SEGMENT
$unwind$??$_Idl_distance1@PEAUBufferElement@buffers@core@@PEAU123@@std@@YA_JAEBQEAUBufferElement@buffers@core@@0Urandom_access_iterator_tag@0@@Z DD 025031901H
	DD	0b2142319H
	DD	05010H
xdata	ENDS
;	COMDAT xdata
xdata	SEGMENT
$unwind$??$_Idl_distance@PEAUBufferElement@buffers@core@@PEAU123@@std@@YA@AEBQEAUBufferElement@buffers@core@@0@Z DD 025031401H
	DD	0d20f2314H
	DD	0500bH
xdata	ENDS
;	COMDAT xdata
xdata	SEGMENT
$unwind$??$_Get_unwrapped@UBufferElement@buffers@core@@@std@@YAPEAUBufferElement@buffers@core@@QEAU123@@Z DD 025030f01H
	DD	0b20a230fH
	DD	05006H
xdata	ENDS
;	COMDAT xdata
xdata	SEGMENT
$unwind$??$_Get_size_of_n@$0M@@std@@YA_K_K@Z DD 025030f01H
	DD	0d20a230fH
	DD	05006H
xdata	ENDS
;	COMDAT xdata
xdata	SEGMENT
$unwind$??$_Uninitialized_move@PEAUBufferElement@buffers@core@@PEAU123@V?$allocator@UBufferElement@buffers@core@@@std@@@std@@YAPEAUBufferElement@buffers@core@@QEAU123@0PEAU123@AEAV?$allocator@UBufferElement@buffers@core@@@0@@Z DD 035042f19H
	DD	011c3321H
	DD	050150014H
	DD	imagerel __GSHandlerCheck
	DD	090H
xdata	ENDS
;	COMDAT xdata
xdata	SEGMENT
$unwind$??$_Destroy_range1@V?$allocator@UBufferElement@buffers@core@@@std@@@std@@YAXPEAUBufferElement@buffers@core@@0AEAV?$allocator@UBufferElement@buffers@core@@@0@U?$integral_constant@_N$00@0@@Z DD 025031e01H
	DD	0b219231eH
	DD	05015H
xdata	ENDS
;	COMDAT xdata
xdata	SEGMENT
$ip2state$??$forward@U_Container_proxy@std@@@std@@YA$$QEAU_Container_proxy@0@AEAU10@@Z DD imagerel ??$forward@U_Container_proxy@std@@@std@@YA$$QEAU_Container_proxy@0@AEAU10@@Z
	DD	0ffffffffH
xdata	ENDS
;	COMDAT CONST
CONST	SEGMENT
$cppxdata$??$forward@U_Container_proxy@std@@@std@@YA$$QEAU_Container_proxy@0@AEAU10@@Z DD 019930522H
	DD	00H
	DD	00H
	DD	00H
	DD	00H
	DD	01H
	DD	imagerel $ip2state$??$forward@U_Container_proxy@std@@@std@@YA$$QEAU_Container_proxy@0@AEAU10@@Z
	DD	060H
	DD	00H
	DD	05H
CONST	ENDS
;	COMDAT xdata
xdata	SEGMENT
$unwind$??$forward@U_Container_proxy@std@@@std@@YA$$QEAU_Container_proxy@0@AEAU10@@Z DD 025031719H
	DD	0d20a230fH
	DD	05006H
	DD	imagerel __CxxFrameHandler3
	DD	imagerel $cppxdata$??$forward@U_Container_proxy@std@@@std@@YA$$QEAU_Container_proxy@0@AEAU10@@Z
xdata	ENDS
;	COMDAT xdata
xdata	SEGMENT
$unwind$??$_Allocate_manually_vector_aligned@U_Default_allocate_traits@std@@@std@@YAPEAX_K@Z DD 035041201H
	DD	010d3312H
	DD	050060012H
xdata	ENDS
;	COMDAT xdata
xdata	SEGMENT
$ip2state$??$forward@AEBQEAD@std@@YAAEBQEADAEBQEAD@Z DD imagerel ??$forward@AEBQEAD@std@@YAAEBQEADAEBQEAD@Z
	DD	0ffffffffH
xdata	ENDS
;	COMDAT CONST
CONST	SEGMENT
$cppxdata$??$forward@AEBQEAD@std@@YAAEBQEADAEBQEAD@Z DD 019930522H
	DD	00H
	DD	00H
	DD	00H
	DD	00H
	DD	01H
	DD	imagerel $ip2state$??$forward@AEBQEAD@std@@YAAEBQEADAEBQEAD@Z
	DD	060H
	DD	00H
	DD	05H
CONST	ENDS
;	COMDAT xdata
xdata	SEGMENT
$unwind$??$forward@AEBQEAD@std@@YAAEBQEADAEBQEAD@Z DD 025031719H
	DD	0d20a230fH
	DD	05006H
	DD	imagerel __CxxFrameHandler3
	DD	imagerel $cppxdata$??$forward@AEBQEAD@std@@YAAEBQEADAEBQEAD@Z
xdata	ENDS
;	COMDAT xdata
xdata	SEGMENT
$unwind$??$_Get_size_of_n@$0BA@@std@@YA_K_K@Z DD 025030f01H
	DD	0d20a230fH
	DD	05006H
xdata	ENDS
;	COMDAT xdata
xdata	SEGMENT
$ip2state$??$?0D@?$allocator@U_Container_proxy@std@@@std@@QEAA@AEBV?$allocator@D@1@@Z DD imagerel ??$?0D@?$allocator@U_Container_proxy@std@@@std@@QEAA@AEBV?$allocator@D@1@@Z
	DD	0ffffffffH
xdata	ENDS
;	COMDAT CONST
CONST	SEGMENT
$cppxdata$??$?0D@?$allocator@U_Container_proxy@std@@@std@@QEAA@AEBV?$allocator@D@1@@Z DD 019930522H
	DD	00H
	DD	00H
	DD	00H
	DD	00H
	DD	01H
	DD	imagerel $ip2state$??$?0D@?$allocator@U_Container_proxy@std@@@std@@QEAA@AEBV?$allocator@D@1@@Z
	DD	060H
	DD	00H
	DD	05H
CONST	ENDS
;	COMDAT xdata
xdata	SEGMENT
$unwind$??$?0D@?$allocator@U_Container_proxy@std@@@std@@QEAA@AEBV?$allocator@D@1@@Z DD 025031c19H
	DD	0d20f2314H
	DD	0500bH
	DD	imagerel __CxxFrameHandler3
	DD	imagerel $cppxdata$??$?0D@?$allocator@U_Container_proxy@std@@@std@@QEAA@AEBV?$allocator@D@1@@Z
xdata	ENDS
;	COMDAT xdata
xdata	SEGMENT
$unwind$??$_Destroy_range@V?$allocator@UBufferElement@buffers@core@@@std@@@std@@YAXPEAUBufferElement@buffers@core@@0AEAV?$allocator@UBufferElement@buffers@core@@@0@@Z DD 025041a01H
	DD	0e215231aH
	DD	050107011H
xdata	ENDS
;	COMDAT xdata
xdata	SEGMENT
$ip2state$??$addressof@V?$_Vector_val@U?$_Simple_types@UBufferElement@buffers@core@@@std@@@std@@@std@@YAPEAV?$_Vector_val@U?$_Simple_types@UBufferElement@buffers@core@@@std@@@0@AEAV10@@Z DD imagerel ??$addressof@V?$_Vector_val@U?$_Simple_types@UBufferElement@buffers@core@@@std@@@std@@@std@@YAPEAV?$_Vector_val@U?$_Simple_types@UBufferElement@buffers@core@@@std@@@0@AEAV10@@Z
	DD	0ffffffffH
xdata	ENDS
;	COMDAT CONST
CONST	SEGMENT
$cppxdata$??$addressof@V?$_Vector_val@U?$_Simple_types@UBufferElement@buffers@core@@@std@@@std@@@std@@YAPEAV?$_Vector_val@U?$_Simple_types@UBufferElement@buffers@core@@@std@@@0@AEAV10@@Z DD 019930522H
	DD	00H
	DD	00H
	DD	00H
	DD	00H
	DD	01H
	DD	imagerel $ip2state$??$addressof@V?$_Vector_val@U?$_Simple_types@UBufferElement@buffers@core@@@std@@@std@@@std@@YAPEAV?$_Vector_val@U?$_Simple_types@UBufferElement@buffers@core@@@std@@@0@AEAV10@@Z
	DD	060H
	DD	00H
	DD	05H
CONST	ENDS
;	COMDAT xdata
xdata	SEGMENT
$unwind$??$addressof@V?$_Vector_val@U?$_Simple_types@UBufferElement@buffers@core@@@std@@@std@@@std@@YAPEAV?$_Vector_val@U?$_Simple_types@UBufferElement@buffers@core@@@std@@@0@AEAV10@@Z DD 025031719H
	DD	0d20a230fH
	DD	05006H
	DD	imagerel __CxxFrameHandler3
	DD	imagerel $cppxdata$??$addressof@V?$_Vector_val@U?$_Simple_types@UBufferElement@buffers@core@@@std@@@std@@@std@@YAPEAV?$_Vector_val@U?$_Simple_types@UBufferElement@buffers@core@@@std@@@0@AEAV10@@Z
xdata	ENDS
;	COMDAT xdata
xdata	SEGMENT
$ip2state$??$?0UBufferElement@buffers@core@@@?$allocator@U_Container_proxy@std@@@std@@QEAA@AEBV?$allocator@UBufferElement@buffers@core@@@1@@Z DD imagerel ??$?0UBufferElement@buffers@core@@@?$allocator@U_Container_proxy@std@@@std@@QEAA@AEBV?$allocator@UBufferElement@buffers@core@@@1@@Z
	DD	0ffffffffH
xdata	ENDS
;	COMDAT CONST
CONST	SEGMENT
$cppxdata$??$?0UBufferElement@buffers@core@@@?$allocator@U_Container_proxy@std@@@std@@QEAA@AEBV?$allocator@UBufferElement@buffers@core@@@1@@Z DD 019930522H
	DD	00H
	DD	00H
	DD	00H
	DD	00H
	DD	01H
	DD	imagerel $ip2state$??$?0UBufferElement@buffers@core@@@?$allocator@U_Container_proxy@std@@@std@@QEAA@AEBV?$allocator@UBufferElement@buffers@core@@@1@@Z
	DD	060H
	DD	00H
	DD	05H
CONST	ENDS
;	COMDAT xdata
xdata	SEGMENT
$unwind$??$?0UBufferElement@buffers@core@@@?$allocator@U_Container_proxy@std@@@std@@QEAA@AEBV?$allocator@UBufferElement@buffers@core@@@1@@Z DD 025031c19H
	DD	0d20f2314H
	DD	0500bH
	DD	imagerel __CxxFrameHandler3
	DD	imagerel $cppxdata$??$?0UBufferElement@buffers@core@@@?$allocator@U_Container_proxy@std@@@std@@QEAA@AEBV?$allocator@UBufferElement@buffers@core@@@1@@Z
xdata	ENDS
;	COMDAT xdata
xdata	SEGMENT
$unwind$??$construct@U_Container_proxy@std@@U12@@?$_Default_allocator_traits@V?$allocator@U_Container_proxy@std@@@std@@@std@@SAXAEAV?$allocator@U_Container_proxy@std@@@1@QEAU_Container_proxy@1@$$QEAU31@@Z DD 025051b01H
	DD	0d216231bH
	DD	060117012H
	DD	05010H
xdata	ENDS
;	COMDAT xdata
xdata	SEGMENT
$unwind$??$_Unfancy@U_Container_proxy@std@@@std@@YAPEAU_Container_proxy@0@PEAU10@@Z DD 025030f01H
	DD	0b20a230fH
	DD	05006H
xdata	ENDS
;	COMDAT xdata
xdata	SEGMENT
$unwind$??$_Deallocate_plain@V?$allocator@U_Container_proxy@std@@@std@@$0A@@std@@YAXAEAV?$allocator@U_Container_proxy@std@@@0@QEAU_Container_proxy@0@@Z DD 025031401H
	DD	0b20f2314H
	DD	0500bH
xdata	ENDS
;	COMDAT xdata
xdata	SEGMENT
$unwind$??$destroy@U_Container_proxy@std@@@?$_Default_allocator_traits@V?$allocator@U_Container_proxy@std@@@std@@@std@@SAXAEAV?$allocator@U_Container_proxy@std@@@1@QEAU_Container_proxy@1@@Z DD 025031401H
	DD	0b20f2314H
	DD	0500bH
xdata	ENDS
;	COMDAT xdata
xdata	SEGMENT
$unwind$?deallocate@?$_Default_allocator_traits@V?$allocator@U_Container_proxy@std@@@std@@@std@@SAXAEAV?$allocator@U_Container_proxy@std@@@2@QEAU_Container_proxy@2@_K@Z DD 025031901H
	DD	0b2142319H
	DD	05010H
xdata	ENDS
;	COMDAT xdata
xdata	SEGMENT
$unwind$?allocate@?$allocator@U_Container_proxy@std@@@std@@QEAAPEAU_Container_proxy@2@_K@Z DD 025031401H
	DD	0b20f2314H
	DD	0500bH
xdata	ENDS
;	COMDAT xdata
xdata	SEGMENT
$unwind$??$_Deallocate@$0BA@$0A@@std@@YAXPEAX_K@Z DD 025031401H
	DD	0b20f2314H
	DD	0500bH
xdata	ENDS
;	COMDAT xdata
xdata	SEGMENT
$unwind$??$_Allocate@$0BA@U_Default_allocate_traits@std@@$0A@@std@@YAPEAX_K@Z DD 025030f01H
	DD	0b20a230fH
	DD	05006H
xdata	ENDS
;	COMDAT xdata
xdata	SEGMENT
$ip2state$??$addressof@V?$_String_val@U?$_Simple_types@D@std@@@std@@@std@@YAPEAV?$_String_val@U?$_Simple_types@D@std@@@0@AEAV10@@Z DD imagerel ??$addressof@V?$_String_val@U?$_Simple_types@D@std@@@std@@@std@@YAPEAV?$_String_val@U?$_Simple_types@D@std@@@0@AEAV10@@Z
	DD	0ffffffffH
xdata	ENDS
;	COMDAT CONST
CONST	SEGMENT
$cppxdata$??$addressof@V?$_String_val@U?$_Simple_types@D@std@@@std@@@std@@YAPEAV?$_String_val@U?$_Simple_types@D@std@@@0@AEAV10@@Z DD 019930522H
	DD	00H
	DD	00H
	DD	00H
	DD	00H
	DD	01H
	DD	imagerel $ip2state$??$addressof@V?$_String_val@U?$_Simple_types@D@std@@@std@@@std@@YAPEAV?$_String_val@U?$_Simple_types@D@std@@@0@AEAV10@@Z
	DD	060H
	DD	00H
	DD	05H
CONST	ENDS
;	COMDAT xdata
xdata	SEGMENT
$unwind$??$addressof@V?$_String_val@U?$_Simple_types@D@std@@@std@@@std@@YAPEAV?$_String_val@U?$_Simple_types@D@std@@@0@AEAV10@@Z DD 025031719H
	DD	0d20a230fH
	DD	05006H
	DD	imagerel __CxxFrameHandler3
	DD	imagerel $cppxdata$??$addressof@V?$_String_val@U?$_Simple_types@D@std@@@std@@@std@@YAPEAV?$_String_val@U?$_Simple_types@D@std@@@0@AEAV10@@Z
xdata	ENDS
;	COMDAT xdata
xdata	SEGMENT
$unwind$??$construct@PEADAEBQEAD@?$_Default_allocator_traits@V?$allocator@D@std@@@std@@SAXAEAV?$allocator@D@1@QEAPEADAEBQEAD@Z DD 025031901H
	DD	0d2142319H
	DD	05010H
xdata	ENDS
;	COMDAT xdata
xdata	SEGMENT
$unwind$??$_Reallocate_for@V<lambda_66f57f934f28d61049862f64df852ff0>@@PEBD@?$basic_string@DU?$char_traits@D@std@@V?$allocator@D@2@@std@@QEAAAEAV01@_KV<lambda_66f57f934f28d61049862f64df852ff0>@@PEBD@Z DD 025042f19H
	DD	011c2321H
	DD	050150012H
	DD	imagerel __GSHandlerCheck
	DD	088H
xdata	ENDS
;	COMDAT xdata
xdata	SEGMENT
$unwind$??R<lambda_66f57f934f28d61049862f64df852ff0>@@QEBAXQEAD_KQEBD@Z DD 025031e01H
	DD	0d219231eH
	DD	05015H
xdata	ENDS
;	COMDAT xdata
xdata	SEGMENT
$ip2state$??$_Max_value@_K@std@@YAAEB_KAEB_K0@Z DD imagerel ??$_Max_value@_K@std@@YAAEB_KAEB_K0@Z
	DD	0ffffffffH
xdata	ENDS
;	COMDAT CONST
CONST	SEGMENT
$cppxdata$??$_Max_value@_K@std@@YAAEB_KAEB_K0@Z DD 019930522H
	DD	00H
	DD	00H
	DD	00H
	DD	00H
	DD	01H
	DD	imagerel $ip2state$??$_Max_value@_K@std@@YAAEB_KAEB_K0@Z
	DD	068H
	DD	00H
	DD	05H
CONST	ENDS
;	COMDAT xdata
xdata	SEGMENT
$unwind$??$_Max_value@_K@std@@YAAEB_KAEB_K0@Z DD 025031f19H
	DD	0f2122317H
	DD	0500bH
	DD	imagerel __CxxFrameHandler3
	DD	imagerel $cppxdata$??$_Max_value@_K@std@@YAAEB_KAEB_K0@Z
xdata	ENDS
;	COMDAT xdata
xdata	SEGMENT
$unwind$??$destroy@PEAD@?$_Default_allocator_traits@V?$allocator@D@std@@@std@@SAXAEAV?$allocator@D@1@QEAPEAD@Z DD 025031401H
	DD	0b20f2314H
	DD	0500bH
xdata	ENDS
;	COMDAT xdata
xdata	SEGMENT
$ip2state$??$addressof@PEAD@std@@YAPEAPEADAEAPEAD@Z DD imagerel ??$addressof@PEAD@std@@YAPEAPEADAEAPEAD@Z
	DD	0ffffffffH
xdata	ENDS
;	COMDAT CONST
CONST	SEGMENT
$cppxdata$??$addressof@PEAD@std@@YAPEAPEADAEAPEAD@Z DD 019930522H
	DD	00H
	DD	00H
	DD	00H
	DD	00H
	DD	01H
	DD	imagerel $ip2state$??$addressof@PEAD@std@@YAPEAPEADAEAPEAD@Z
	DD	060H
	DD	00H
	DD	05H
CONST	ENDS
;	COMDAT xdata
xdata	SEGMENT
$unwind$??$addressof@PEAD@std@@YAPEAPEADAEAPEAD@Z DD 025031719H
	DD	0d20a230fH
	DD	05006H
	DD	imagerel __CxxFrameHandler3
	DD	imagerel $cppxdata$??$addressof@PEAD@std@@YAPEAPEADAEAPEAD@Z
xdata	ENDS
;	COMDAT xdata
xdata	SEGMENT
$unwind$??$?0$$V@?$_Compressed_pair@V?$allocator@D@std@@V?$_String_val@U?$_Simple_types@D@std@@@2@$00@std@@QEAA@U_Zero_then_variadic_args_t@1@@Z DD 025031301H
	DD	0b20e2313H
	DD	0500aH
xdata	ENDS
;	COMDAT xdata
xdata	SEGMENT
$unwind$??$?0$$V@?$_Compressed_pair@V?$allocator@UBufferElement@buffers@core@@@std@@V?$_Vector_val@U?$_Simple_types@UBufferElement@buffers@core@@@std@@@2@$00@std@@QEAA@U_Zero_then_variadic_args_t@1@@Z DD 025031301H
	DD	0b20e2313H
	DD	0500aH
xdata	ENDS
;	COMDAT xdata
xdata	SEGMENT
$unwind$??$_Unfancy@D@std@@YAPEADPEAD@Z DD 025030f01H
	DD	0b20a230fH
	DD	05006H
xdata	ENDS
;	COMDAT xdata
xdata	SEGMENT
$unwind$?catch$0@?0???$_Emplace_reallocate@UBufferElement@buffers@core@@@?$vector@UBufferElement@buffers@core@@V?$allocator@UBufferElement@buffers@core@@@std@@@std@@QEAAPEAUBufferElement@buffers@core@@QEAU234@$$QEAU234@@Z@4HA DD 020a19H
	DD	05006320aH
	DD	imagerel __CxxFrameHandler3
	DD	imagerel $cppxdata$??$_Emplace_reallocate@UBufferElement@buffers@core@@@?$vector@UBufferElement@buffers@core@@V?$allocator@UBufferElement@buffers@core@@@std@@@std@@QEAAPEAUBufferElement@buffers@core@@QEAU234@$$QEAU234@@Z
xdata	ENDS
;	COMDAT xdata
xdata	SEGMENT
$ip2state$??$_Emplace_reallocate@UBufferElement@buffers@core@@@?$vector@UBufferElement@buffers@core@@V?$allocator@UBufferElement@buffers@core@@@std@@@std@@QEAAPEAUBufferElement@buffers@core@@QEAU234@$$QEAU234@@Z DD imagerel ??$_Emplace_reallocate@UBufferElement@buffers@core@@@?$vector@UBufferElement@buffers@core@@V?$allocator@UBufferElement@buffers@core@@@std@@@std@@QEAAPEAUBufferElement@buffers@core@@QEAU234@$$QEAU234@@Z
	DD	0ffffffffH
	DD	imagerel ??$_Emplace_reallocate@UBufferElement@buffers@core@@@?$vector@UBufferElement@buffers@core@@V?$allocator@UBufferElement@buffers@core@@@std@@@std@@QEAAPEAUBufferElement@buffers@core@@QEAU234@$$QEAU234@@Z+222
	DD	00H
	DD	imagerel ??$_Emplace_reallocate@UBufferElement@buffers@core@@@?$vector@UBufferElement@buffers@core@@V?$allocator@UBufferElement@buffers@core@@@std@@@std@@QEAAPEAUBufferElement@buffers@core@@QEAU234@$$QEAU234@@Z+500
	DD	0ffffffffH
	DD	imagerel ?catch$0@?0???$_Emplace_reallocate@UBufferElement@buffers@core@@@?$vector@UBufferElement@buffers@core@@V?$allocator@UBufferElement@buffers@core@@@std@@@std@@QEAAPEAUBufferElement@buffers@core@@QEAU234@$$QEAU234@@Z@4HA
	DD	00H
	DD	imagerel ?catch$0@?0???$_Emplace_reallocate@UBufferElement@buffers@core@@@?$vector@UBufferElement@buffers@core@@V?$allocator@UBufferElement@buffers@core@@@std@@@std@@QEAAPEAUBufferElement@buffers@core@@QEAU234@$$QEAU234@@Z@4HA+14
	DD	01H
	DD	imagerel ?catch$0@?0???$_Emplace_reallocate@UBufferElement@buffers@core@@@?$vector@UBufferElement@buffers@core@@V?$allocator@UBufferElement@buffers@core@@@std@@@std@@QEAAPEAUBufferElement@buffers@core@@QEAU234@$$QEAU234@@Z@4HA+61
	DD	00H
xdata	ENDS
;	COMDAT xdata
xdata	SEGMENT
$handlerMap$0$??$_Emplace_reallocate@UBufferElement@buffers@core@@@?$vector@UBufferElement@buffers@core@@V?$allocator@UBufferElement@buffers@core@@@std@@@std@@QEAAPEAUBufferElement@buffers@core@@QEAU234@$$QEAU234@@Z DD 040H
	DD	00H
	DD	00H
	DD	imagerel ?catch$0@?0???$_Emplace_reallocate@UBufferElement@buffers@core@@@?$vector@UBufferElement@buffers@core@@V?$allocator@UBufferElement@buffers@core@@@std@@@std@@QEAAPEAUBufferElement@buffers@core@@QEAU234@$$QEAU234@@Z@4HA
	DD	038H
xdata	ENDS
;	COMDAT xdata
xdata	SEGMENT
$tryMap$??$_Emplace_reallocate@UBufferElement@buffers@core@@@?$vector@UBufferElement@buffers@core@@V?$allocator@UBufferElement@buffers@core@@@std@@@std@@QEAAPEAUBufferElement@buffers@core@@QEAU234@$$QEAU234@@Z DD 00H
	DD	00H
	DD	01H
	DD	01H
	DD	imagerel $handlerMap$0$??$_Emplace_reallocate@UBufferElement@buffers@core@@@?$vector@UBufferElement@buffers@core@@V?$allocator@UBufferElement@buffers@core@@@std@@@std@@QEAAPEAUBufferElement@buffers@core@@QEAU234@$$QEAU234@@Z
xdata	ENDS
;	COMDAT xdata
xdata	SEGMENT
$stateUnwindMap$??$_Emplace_reallocate@UBufferElement@buffers@core@@@?$vector@UBufferElement@buffers@core@@V?$allocator@UBufferElement@buffers@core@@@std@@@std@@QEAAPEAUBufferElement@buffers@core@@QEAU234@$$QEAU234@@Z DD 0ffffffffH
	DD	00H
	DD	0ffffffffH
	DD	00H
xdata	ENDS
;	COMDAT CONST
CONST	SEGMENT
$cppxdata$??$_Emplace_reallocate@UBufferElement@buffers@core@@@?$vector@UBufferElement@buffers@core@@V?$allocator@UBufferElement@buffers@core@@@std@@@std@@QEAAPEAUBufferElement@buffers@core@@QEAU234@$$QEAU234@@Z DD 019930522H
	DD	02H
	DD	imagerel $stateUnwindMap$??$_Emplace_reallocate@UBufferElement@buffers@core@@@?$vector@UBufferElement@buffers@core@@V?$allocator@UBufferElement@buffers@core@@@std@@@std@@QEAAPEAUBufferElement@buffers@core@@QEAU234@$$QEAU234@@Z
	DD	01H
	DD	imagerel $tryMap$??$_Emplace_reallocate@UBufferElement@buffers@core@@@?$vector@UBufferElement@buffers@core@@V?$allocator@UBufferElement@buffers@core@@@std@@@std@@QEAAPEAUBufferElement@buffers@core@@QEAU234@$$QEAU234@@Z
	DD	06H
	DD	imagerel $ip2state$??$_Emplace_reallocate@UBufferElement@buffers@core@@@?$vector@UBufferElement@buffers@core@@V?$allocator@UBufferElement@buffers@core@@@std@@@std@@QEAAPEAUBufferElement@buffers@core@@QEAU234@$$QEAU234@@Z
	DD	0a0H
	DD	00H
	DD	01H
CONST	ENDS
;	COMDAT xdata
xdata	SEGMENT
$unwind$??$_Emplace_reallocate@UBufferElement@buffers@core@@@?$vector@UBufferElement@buffers@core@@V?$allocator@UBufferElement@buffers@core@@@std@@@std@@QEAAPEAUBufferElement@buffers@core@@QEAU234@$$QEAU234@@Z DD 025042719H
	DD	0117231cH
	DD	050100016H
	DD	imagerel __CxxFrameHandler3
	DD	imagerel $cppxdata$??$_Emplace_reallocate@UBufferElement@buffers@core@@@?$vector@UBufferElement@buffers@core@@V?$allocator@UBufferElement@buffers@core@@@std@@@std@@QEAAPEAUBufferElement@buffers@core@@QEAU234@$$QEAU234@@Z
xdata	ENDS
;	COMDAT xdata
xdata	SEGMENT
$unwind$??$construct@UBufferElement@buffers@core@@U123@@?$_Default_allocator_traits@V?$allocator@UBufferElement@buffers@core@@@std@@@std@@SAXAEAV?$allocator@UBufferElement@buffers@core@@@1@QEAUBufferElement@buffers@core@@$$QEAU345@@Z DD 025051b01H
	DD	0d216231bH
	DD	060117012H
	DD	05010H
xdata	ENDS
;	COMDAT xdata
xdata	SEGMENT
$unwind$??$_Unfancy@UBufferElement@buffers@core@@@std@@YAPEAUBufferElement@buffers@core@@PEAU123@@Z DD 025030f01H
	DD	0b20a230fH
	DD	05006H
xdata	ENDS
;	COMDAT xdata
xdata	SEGMENT
$unwind$??$_Emplace_back_with_unused_capacity@UBufferElement@buffers@core@@@?$vector@UBufferElement@buffers@core@@V?$allocator@UBufferElement@buffers@core@@@std@@@std@@AEAA@$$QEAUBufferElement@buffers@core@@@Z DD 025031701H
	DD	0f2122317H
	DD	0500bH
xdata	ENDS
;	COMDAT xdata
xdata	SEGMENT
$ip2state$??$forward@UBufferElement@buffers@core@@@std@@YA$$QEAUBufferElement@buffers@core@@AEAU123@@Z DD imagerel ??$forward@UBufferElement@buffers@core@@@std@@YA$$QEAUBufferElement@buffers@core@@AEAU123@@Z
	DD	0ffffffffH
xdata	ENDS
;	COMDAT CONST
CONST	SEGMENT
$cppxdata$??$forward@UBufferElement@buffers@core@@@std@@YA$$QEAUBufferElement@buffers@core@@AEAU123@@Z DD 019930522H
	DD	00H
	DD	00H
	DD	00H
	DD	00H
	DD	01H
	DD	imagerel $ip2state$??$forward@UBufferElement@buffers@core@@@std@@YA$$QEAUBufferElement@buffers@core@@AEAU123@@Z
	DD	060H
	DD	00H
	DD	05H
CONST	ENDS
;	COMDAT xdata
xdata	SEGMENT
$unwind$??$forward@UBufferElement@buffers@core@@@std@@YA$$QEAUBufferElement@buffers@core@@AEAU123@@Z DD 025031719H
	DD	0d20a230fH
	DD	05006H
	DD	imagerel __CxxFrameHandler3
	DD	imagerel $cppxdata$??$forward@UBufferElement@buffers@core@@@std@@YA$$QEAUBufferElement@buffers@core@@AEAU123@@Z
xdata	ENDS
;	COMDAT xdata
xdata	SEGMENT
$unwind$??$emplace_back@UBufferElement@buffers@core@@@?$vector@UBufferElement@buffers@core@@V?$allocator@UBufferElement@buffers@core@@@std@@@std@@QEAA@$$QEAUBufferElement@buffers@core@@@Z DD 025031401H
	DD	0d20f2314H
	DD	0500bH
xdata	ENDS
;	COMDAT xdata
xdata	SEGMENT
$ip2state$??$move@AEAUBufferElement@buffers@core@@@std@@YA$$QEAUBufferElement@buffers@core@@AEAU123@@Z DD imagerel ??$move@AEAUBufferElement@buffers@core@@@std@@YA$$QEAUBufferElement@buffers@core@@AEAU123@@Z
	DD	0ffffffffH
xdata	ENDS
;	COMDAT CONST
CONST	SEGMENT
$cppxdata$??$move@AEAUBufferElement@buffers@core@@@std@@YA$$QEAUBufferElement@buffers@core@@AEAU123@@Z DD 019930522H
	DD	00H
	DD	00H
	DD	00H
	DD	00H
	DD	01H
	DD	imagerel $ip2state$??$move@AEAUBufferElement@buffers@core@@@std@@YA$$QEAUBufferElement@buffers@core@@AEAU123@@Z
	DD	060H
	DD	00H
	DD	05H
CONST	ENDS
;	COMDAT xdata
xdata	SEGMENT
$unwind$??$move@AEAUBufferElement@buffers@core@@@std@@YA$$QEAUBufferElement@buffers@core@@AEAU123@@Z DD 025031719H
	DD	0d20a230fH
	DD	05006H
	DD	imagerel __CxxFrameHandler3
	DD	imagerel $cppxdata$??$move@AEAUBufferElement@buffers@core@@@std@@YA$$QEAUBufferElement@buffers@core@@AEAU123@@Z
xdata	ENDS
;	COMDAT xdata
xdata	SEGMENT
$unwind$??_GTextureTestScene@Scene@Application@@UEAAPEAXI@Z DD 025031301H
	DD	0b20e2313H
	DD	0500aH
xdata	ENDS
;	COMDAT xdata
xdata	SEGMENT
$unwind$?OnImGuiRender@TextureTestScene@Scene@Application@@UEAAXXZ DD 025030f01H
	DD	0b20a230fH
	DD	05006H
xdata	ENDS
;	COMDAT xdata
xdata	SEGMENT
$unwind$?OnRender@TextureTestScene@Scene@Application@@UEAAXXZ DD 025030f01H
	DD	0b20a230fH
	DD	05006H
xdata	ENDS
;	COMDAT xdata
xdata	SEGMENT
$unwind$?OnUpdate@TextureTestScene@Scene@Application@@UEAAXM@Z DD 025031501H
	DD	0b2102315H
	DD	0500cH
xdata	ENDS
;	COMDAT xdata
xdata	SEGMENT
$ip2state$??1TextureTestScene@Scene@Application@@UEAA@XZ DD imagerel ??1TextureTestScene@Scene@Application@@UEAA@XZ
	DD	0ffffffffH
xdata	ENDS
;	COMDAT CONST
CONST	SEGMENT
$cppxdata$??1TextureTestScene@Scene@Application@@UEAA@XZ DD 019930522H
	DD	00H
	DD	00H
	DD	00H
	DD	00H
	DD	01H
	DD	imagerel $ip2state$??1TextureTestScene@Scene@Application@@UEAA@XZ
	DD	0c0H
	DD	00H
	DD	05H
CONST	ENDS
;	COMDAT xdata
xdata	SEGMENT
$unwind$??1TextureTestScene@Scene@Application@@UEAA@XZ DD 025041d19H
	DD	010d2312H
	DD	05006001aH
	DD	imagerel __CxxFrameHandler3
	DD	imagerel $cppxdata$??1TextureTestScene@Scene@Application@@UEAA@XZ
xdata	ENDS
;	COMDAT xdata
xdata	SEGMENT
$unwind$?dtor$7@?0???0TextureTestScene@Scene@Application@@QEAA@XZ@4HA DD 020601H
	DD	050023206H
xdata	ENDS
;	COMDAT xdata
xdata	SEGMENT
$unwind$?dtor$6@?0???0TextureTestScene@Scene@Application@@QEAA@XZ@4HA DD 020601H
	DD	050023206H
xdata	ENDS
;	COMDAT xdata
xdata	SEGMENT
$unwind$?dtor$5@?0???0TextureTestScene@Scene@Application@@QEAA@XZ@4HA DD 020601H
	DD	050023206H
xdata	ENDS
;	COMDAT xdata
xdata	SEGMENT
$unwind$?dtor$4@?0???0TextureTestScene@Scene@Application@@QEAA@XZ@4HA DD 020601H
	DD	050023206H
xdata	ENDS
;	COMDAT xdata
xdata	SEGMENT
$unwind$?dtor$3@?0???0TextureTestScene@Scene@Application@@QEAA@XZ@4HA DD 020601H
	DD	050023206H
xdata	ENDS
;	COMDAT xdata
xdata	SEGMENT
$unwind$?dtor$2@?0???0TextureTestScene@Scene@Application@@QEAA@XZ@4HA DD 020601H
	DD	050023206H
xdata	ENDS
;	COMDAT xdata
xdata	SEGMENT
$unwind$?dtor$1@?0???0TextureTestScene@Scene@Application@@QEAA@XZ@4HA DD 020601H
	DD	050023206H
xdata	ENDS
;	COMDAT xdata
xdata	SEGMENT
$unwind$?dtor$0@?0???0TextureTestScene@Scene@Application@@QEAA@XZ@4HA DD 020601H
	DD	050023206H
xdata	ENDS
;	COMDAT xdata
xdata	SEGMENT
$ip2state$??0TextureTestScene@Scene@Application@@QEAA@XZ DD imagerel ??0TextureTestScene@Scene@Application@@QEAA@XZ
	DD	0ffffffffH
	DD	imagerel ??0TextureTestScene@Scene@Application@@QEAA@XZ+81
	DD	00H
	DD	imagerel ??0TextureTestScene@Scene@Application@@QEAA@XZ+115
	DD	01H
	DD	imagerel ??0TextureTestScene@Scene@Application@@QEAA@XZ+171
	DD	00H
	DD	imagerel ??0TextureTestScene@Scene@Application@@QEAA@XZ+394
	DD	02H
	DD	imagerel ??0TextureTestScene@Scene@Application@@QEAA@XZ+463
	DD	00H
	DD	imagerel ??0TextureTestScene@Scene@Application@@QEAA@XZ+540
	DD	03H
	DD	imagerel ??0TextureTestScene@Scene@Application@@QEAA@XZ+609
	DD	00H
	DD	imagerel ??0TextureTestScene@Scene@Application@@QEAA@XZ+644
	DD	04H
	DD	imagerel ??0TextureTestScene@Scene@Application@@QEAA@XZ+717
	DD	00H
	DD	imagerel ??0TextureTestScene@Scene@Application@@QEAA@XZ+832
	DD	05H
	DD	imagerel ??0TextureTestScene@Scene@Application@@QEAA@XZ+862
	DD	06H
	DD	imagerel ??0TextureTestScene@Scene@Application@@QEAA@XZ+905
	DD	05H
	DD	imagerel ??0TextureTestScene@Scene@Application@@QEAA@XZ+916
	DD	06H
	DD	imagerel ??0TextureTestScene@Scene@Application@@QEAA@XZ+930
	DD	07H
	DD	imagerel ??0TextureTestScene@Scene@Application@@QEAA@XZ+948
	DD	00H
	DD	imagerel ??0TextureTestScene@Scene@Application@@QEAA@XZ+997
	DD	08H
	DD	imagerel ??0TextureTestScene@Scene@Application@@QEAA@XZ+1117
	DD	00H
	DD	imagerel ??0TextureTestScene@Scene@Application@@QEAA@XZ+1135
	DD	0ffffffffH
xdata	ENDS
;	COMDAT xdata
xdata	SEGMENT
$stateUnwindMap$??0TextureTestScene@Scene@Application@@QEAA@XZ DD 0ffffffffH
	DD	imagerel ?dtor$0@?0???0TextureTestScene@Scene@Application@@QEAA@XZ@4HA
	DD	00H
	DD	imagerel ?dtor$1@?0???0TextureTestScene@Scene@Application@@QEAA@XZ@4HA
	DD	00H
	DD	imagerel ?dtor$2@?0???0TextureTestScene@Scene@Application@@QEAA@XZ@4HA
	DD	00H
	DD	imagerel ?dtor$3@?0???0TextureTestScene@Scene@Application@@QEAA@XZ@4HA
	DD	00H
	DD	imagerel ?dtor$4@?0???0TextureTestScene@Scene@Application@@QEAA@XZ@4HA
	DD	00H
	DD	imagerel ?dtor$5@?0???0TextureTestScene@Scene@Application@@QEAA@XZ@4HA
	DD	05H
	DD	imagerel ?dtor$6@?0???0TextureTestScene@Scene@Application@@QEAA@XZ@4HA
	DD	00H
	DD	imagerel ?dtor$6@?0???0TextureTestScene@Scene@Application@@QEAA@XZ@4HA
	DD	00H
	DD	imagerel ?dtor$7@?0???0TextureTestScene@Scene@Application@@QEAA@XZ@4HA
xdata	ENDS
;	COMDAT CONST
CONST	SEGMENT
$cppxdata$??0TextureTestScene@Scene@Application@@QEAA@XZ DD 019930522H
	DD	09H
	DD	imagerel $stateUnwindMap$??0TextureTestScene@Scene@Application@@QEAA@XZ
	DD	00H
	DD	00H
	DD	013H
	DD	imagerel $ip2state$??0TextureTestScene@Scene@Application@@QEAA@XZ
	DD	0178H
	DD	00H
	DD	01H
CONST	ENDS
;	COMDAT xdata
xdata	SEGMENT
$unwind$??0TextureTestScene@Scene@Application@@QEAA@XZ DD 025042e19H
	DD	010d2312H
	DD	050060034H
	DD	imagerel __GSHandlerCheck_EH
	DD	imagerel $cppxdata$??0TextureTestScene@Scene@Application@@QEAA@XZ
	DD	0192H
xdata	ENDS
;	COMDAT xdata
xdata	SEGMENT
$unwind$??_GTexture@graphics@core@@QEAAPEAXI@Z DD 025031301H
	DD	0b20e2313H
	DD	0500aH
xdata	ENDS
;	COMDAT xdata
xdata	SEGMENT
$unwind$?__autoclassinit2@Texture@graphics@core@@QEAAX_K@Z DD 05041301H
	DD	082100313H
	DD	0500b700cH
xdata	ENDS
;	COMDAT xdata
xdata	SEGMENT
$unwind$??_GShader@graphics@core@@QEAAPEAXI@Z DD 025031301H
	DD	0b20e2313H
	DD	0500aH
xdata	ENDS
;	COMDAT xdata
xdata	SEGMENT
$unwind$??_GIBO@buffers@core@@QEAAPEAXI@Z DD 025031301H
	DD	0b20e2313H
	DD	0500aH
xdata	ENDS
;	COMDAT xdata
xdata	SEGMENT
$unwind$?getCount@IBO@buffers@core@@QEBAHXZ DD 025030f01H
	DD	0b20a230fH
	DD	05006H
xdata	ENDS
;	COMDAT xdata
xdata	SEGMENT
$unwind$??_GVAO@buffers@core@@QEAAPEAXI@Z DD 025031301H
	DD	0b20e2313H
	DD	0500aH
xdata	ENDS
;	COMDAT xdata
xdata	SEGMENT
$unwind$??_GBufferLayout@buffers@core@@QEAAPEAXI@Z DD 025031301H
	DD	0b20e2313H
	DD	0500aH
xdata	ENDS
;	COMDAT xdata
xdata	SEGMENT
$unwind$?__autoclassinit2@BufferLayout@buffers@core@@QEAAX_K@Z DD 05041301H
	DD	082100313H
	DD	0500b700cH
xdata	ENDS
;	COMDAT xdata
xdata	SEGMENT
$unwind$??1BufferLayout@buffers@core@@QEAA@XZ DD 025030f01H
	DD	0b20a230fH
	DD	05006H
xdata	ENDS
;	COMDAT xdata
xdata	SEGMENT
$unwind$??$push@M@BufferLayout@buffers@core@@QEAAXI@Z DD 025031301H
	DD	0d20e2313H
	DD	0500aH
xdata	ENDS
;	COMDAT xdata
xdata	SEGMENT
$unwind$??0BufferLayout@buffers@core@@QEAA@XZ DD 025030f01H
	DD	0b20a230fH
	DD	05006H
xdata	ENDS
;	COMDAT xdata
xdata	SEGMENT
$unwind$?dtor$0@?0??_Orphan_range@?$vector@UBufferElement@buffers@core@@V?$allocator@UBufferElement@buffers@core@@@std@@@std@@AEBAXPEAUBufferElement@buffers@core@@0@Z@4HA DD 020601H
	DD	050023206H
xdata	ENDS
;	COMDAT xdata
xdata	SEGMENT
$ip2state$?_Orphan_range@?$vector@UBufferElement@buffers@core@@V?$allocator@UBufferElement@buffers@core@@@std@@@std@@AEBAXPEAUBufferElement@buffers@core@@0@Z DD imagerel ?_Orphan_range@?$vector@UBufferElement@buffers@core@@V?$allocator@UBufferElement@buffers@core@@@std@@@std@@AEBAXPEAUBufferElement@buffers@core@@0@Z
	DD	0ffffffffH
	DD	imagerel ?_Orphan_range@?$vector@UBufferElement@buffers@core@@V?$allocator@UBufferElement@buffers@core@@@std@@@std@@AEBAXPEAUBufferElement@buffers@core@@0@Z+78
	DD	00H
	DD	imagerel ?_Orphan_range@?$vector@UBufferElement@buffers@core@@V?$allocator@UBufferElement@buffers@core@@@std@@@std@@AEBAXPEAUBufferElement@buffers@core@@0@Z+199
	DD	0ffffffffH
xdata	ENDS
;	COMDAT xdata
xdata	SEGMENT
$stateUnwindMap$?_Orphan_range@?$vector@UBufferElement@buffers@core@@V?$allocator@UBufferElement@buffers@core@@@std@@@std@@AEBAXPEAUBufferElement@buffers@core@@0@Z DD 0ffffffffH
	DD	imagerel ?dtor$0@?0??_Orphan_range@?$vector@UBufferElement@buffers@core@@V?$allocator@UBufferElement@buffers@core@@@std@@@std@@AEBAXPEAUBufferElement@buffers@core@@0@Z@4HA
xdata	ENDS
;	COMDAT CONST
CONST	SEGMENT
$cppxdata$?_Orphan_range@?$vector@UBufferElement@buffers@core@@V?$allocator@UBufferElement@buffers@core@@@std@@@std@@AEBAXPEAUBufferElement@buffers@core@@0@Z DD 019930522H
	DD	01H
	DD	imagerel $stateUnwindMap$?_Orphan_range@?$vector@UBufferElement@buffers@core@@V?$allocator@UBufferElement@buffers@core@@@std@@@std@@AEBAXPEAUBufferElement@buffers@core@@0@Z
	DD	00H
	DD	00H
	DD	03H
	DD	imagerel $ip2state$?_Orphan_range@?$vector@UBufferElement@buffers@core@@V?$allocator@UBufferElement@buffers@core@@@std@@@std@@AEBAXPEAUBufferElement@buffers@core@@0@Z
	DD	070H
	DD	00H
	DD	01H
CONST	ENDS
;	COMDAT xdata
xdata	SEGMENT
$unwind$?_Orphan_range@?$vector@UBufferElement@buffers@core@@V?$allocator@UBufferElement@buffers@core@@@std@@@std@@AEBAXPEAUBufferElement@buffers@core@@0@Z DD 025033219H
	DD	0f217231cH
	DD	05010H
	DD	imagerel __GSHandlerCheck_EH
	DD	imagerel $cppxdata$?_Orphan_range@?$vector@UBufferElement@buffers@core@@V?$allocator@UBufferElement@buffers@core@@@std@@@std@@AEBAXPEAUBufferElement@buffers@core@@0@Z
	DD	07aH
xdata	ENDS
;	COMDAT xdata
xdata	SEGMENT
$unwind$?_Xlength@?$vector@UBufferElement@buffers@core@@V?$allocator@UBufferElement@buffers@core@@@std@@@std@@CAXXZ DD 025030b01H
	DD	0b206230bH
	DD	05002H
xdata	ENDS
;	COMDAT xdata
xdata	SEGMENT
$unwind$?_Tidy@?$vector@UBufferElement@buffers@core@@V?$allocator@UBufferElement@buffers@core@@@std@@@std@@AEAAXXZ DD 025030f01H
	DD	0d20a230fH
	DD	05006H
xdata	ENDS
;	COMDAT xdata
xdata	SEGMENT
$unwind$?_Change_array@?$vector@UBufferElement@buffers@core@@V?$allocator@UBufferElement@buffers@core@@@std@@@std@@AEAAXQEAUBufferElement@buffers@core@@_K1@Z DD 025031e01H
	DD	0d219231eH
	DD	05015H
xdata	ENDS
;	COMDAT xdata
xdata	SEGMENT
$unwind$?_Calculate_growth@?$vector@UBufferElement@buffers@core@@V?$allocator@UBufferElement@buffers@core@@@std@@@std@@AEBA_K_K@Z DD 025031701H
	DD	0f2122317H
	DD	0500bH
xdata	ENDS
;	COMDAT xdata
xdata	SEGMENT
$unwind$?_Destroy@?$vector@UBufferElement@buffers@core@@V?$allocator@UBufferElement@buffers@core@@@std@@@std@@AEAAXPEAUBufferElement@buffers@core@@0@Z DD 025031901H
	DD	0b2142319H
	DD	05010H
xdata	ENDS
;	COMDAT xdata
xdata	SEGMENT
$unwind$?_Umove_if_noexcept@?$vector@UBufferElement@buffers@core@@V?$allocator@UBufferElement@buffers@core@@@std@@@std@@AEAAXPEAUBufferElement@buffers@core@@00@Z DD 035052201H
	DD	011d3322H
	DD	070160011H
	DD	05015H
xdata	ENDS
;	COMDAT xdata
xdata	SEGMENT
$unwind$?_Umove_if_noexcept1@?$vector@UBufferElement@buffers@core@@V?$allocator@UBufferElement@buffers@core@@@std@@@std@@AEAAXPEAUBufferElement@buffers@core@@00U?$integral_constant@_N$00@2@@Z DD 025031e01H
	DD	0b219231eH
	DD	05015H
xdata	ENDS
;	COMDAT xdata
xdata	SEGMENT
$unwind$?_Umove@?$vector@UBufferElement@buffers@core@@V?$allocator@UBufferElement@buffers@core@@@std@@@std@@AEAAPEAUBufferElement@buffers@core@@PEAU345@00@Z DD 025031e01H
	DD	0b219231eH
	DD	05015H
xdata	ENDS
;	COMDAT xdata
xdata	SEGMENT
$ip2state$?_Has_unused_capacity@?$vector@UBufferElement@buffers@core@@V?$allocator@UBufferElement@buffers@core@@@std@@@std@@AEBA_NXZ DD imagerel ?_Has_unused_capacity@?$vector@UBufferElement@buffers@core@@V?$allocator@UBufferElement@buffers@core@@@std@@@std@@AEBA_NXZ
	DD	0ffffffffH
xdata	ENDS
;	COMDAT CONST
CONST	SEGMENT
$cppxdata$?_Has_unused_capacity@?$vector@UBufferElement@buffers@core@@V?$allocator@UBufferElement@buffers@core@@@std@@@std@@AEBA_NXZ DD 019930522H
	DD	00H
	DD	00H
	DD	00H
	DD	00H
	DD	01H
	DD	imagerel $ip2state$?_Has_unused_capacity@?$vector@UBufferElement@buffers@core@@V?$allocator@UBufferElement@buffers@core@@@std@@@std@@AEBA_NXZ
	DD	060H
	DD	00H
	DD	05H
CONST	ENDS
;	COMDAT xdata
xdata	SEGMENT
$unwind$?_Has_unused_capacity@?$vector@UBufferElement@buffers@core@@V?$allocator@UBufferElement@buffers@core@@@std@@@std@@AEBA_NXZ DD 025031a19H
	DD	0f20d2312H
	DD	05006H
	DD	imagerel __CxxFrameHandler3
	DD	imagerel $cppxdata$?_Has_unused_capacity@?$vector@UBufferElement@buffers@core@@V?$allocator@UBufferElement@buffers@core@@@std@@@std@@AEBA_NXZ
xdata	ENDS
;	COMDAT xdata
xdata	SEGMENT
$ip2state$?capacity@?$vector@UBufferElement@buffers@core@@V?$allocator@UBufferElement@buffers@core@@@std@@@std@@QEBA_KXZ DD imagerel ?capacity@?$vector@UBufferElement@buffers@core@@V?$allocator@UBufferElement@buffers@core@@@std@@@std@@QEBA_KXZ
	DD	0ffffffffH
xdata	ENDS
;	COMDAT CONST
CONST	SEGMENT
$cppxdata$?capacity@?$vector@UBufferElement@buffers@core@@V?$allocator@UBufferElement@buffers@core@@@std@@@std@@QEBA_KXZ DD 019930522H
	DD	00H
	DD	00H
	DD	00H
	DD	00H
	DD	01H
	DD	imagerel $ip2state$?capacity@?$vector@UBufferElement@buffers@core@@V?$allocator@UBufferElement@buffers@core@@@std@@@std@@QEBA_KXZ
	DD	060H
	DD	00H
	DD	05H
CONST	ENDS
;	COMDAT xdata
xdata	SEGMENT
$unwind$?capacity@?$vector@UBufferElement@buffers@core@@V?$allocator@UBufferElement@buffers@core@@@std@@@std@@QEBA_KXZ DD 025031719H
	DD	0d20a230fH
	DD	05006H
	DD	imagerel __CxxFrameHandler3
	DD	imagerel $cppxdata$?capacity@?$vector@UBufferElement@buffers@core@@V?$allocator@UBufferElement@buffers@core@@@std@@@std@@QEBA_KXZ
xdata	ENDS
;	COMDAT xdata
xdata	SEGMENT
$ip2state$?max_size@?$vector@UBufferElement@buffers@core@@V?$allocator@UBufferElement@buffers@core@@@std@@@std@@QEBA_KXZ DD imagerel ?max_size@?$vector@UBufferElement@buffers@core@@V?$allocator@UBufferElement@buffers@core@@@std@@@std@@QEBA_KXZ
	DD	0ffffffffH
xdata	ENDS
;	COMDAT CONST
CONST	SEGMENT
$cppxdata$?max_size@?$vector@UBufferElement@buffers@core@@V?$allocator@UBufferElement@buffers@core@@@std@@@std@@QEBA_KXZ DD 019930522H
	DD	00H
	DD	00H
	DD	00H
	DD	00H
	DD	01H
	DD	imagerel $ip2state$?max_size@?$vector@UBufferElement@buffers@core@@V?$allocator@UBufferElement@buffers@core@@@std@@@std@@QEBA_KXZ
	DD	070H
	DD	00H
	DD	05H
CONST	ENDS
;	COMDAT xdata
xdata	SEGMENT
$unwind$?max_size@?$vector@UBufferElement@buffers@core@@V?$allocator@UBufferElement@buffers@core@@@std@@@std@@QEBA_KXZ DD 025031a19H
	DD	0f20d2312H
	DD	05006H
	DD	imagerel __CxxFrameHandler3
	DD	imagerel $cppxdata$?max_size@?$vector@UBufferElement@buffers@core@@V?$allocator@UBufferElement@buffers@core@@@std@@@std@@QEBA_KXZ
xdata	ENDS
;	COMDAT xdata
xdata	SEGMENT
$ip2state$?size@?$vector@UBufferElement@buffers@core@@V?$allocator@UBufferElement@buffers@core@@@std@@@std@@QEBA_KXZ DD imagerel ?size@?$vector@UBufferElement@buffers@core@@V?$allocator@UBufferElement@buffers@core@@@std@@@std@@QEBA_KXZ
	DD	0ffffffffH
xdata	ENDS
;	COMDAT CONST
CONST	SEGMENT
$cppxdata$?size@?$vector@UBufferElement@buffers@core@@V?$allocator@UBufferElement@buffers@core@@@std@@@std@@QEBA_KXZ DD 019930522H
	DD	00H
	DD	00H
	DD	00H
	DD	00H
	DD	01H
	DD	imagerel $ip2state$?size@?$vector@UBufferElement@buffers@core@@V?$allocator@UBufferElement@buffers@core@@@std@@@std@@QEBA_KXZ
	DD	060H
	DD	00H
	DD	05H
CONST	ENDS
;	COMDAT xdata
xdata	SEGMENT
$unwind$?size@?$vector@UBufferElement@buffers@core@@V?$allocator@UBufferElement@buffers@core@@@std@@@std@@QEBA_KXZ DD 025031719H
	DD	0d20a230fH
	DD	05006H
	DD	imagerel __CxxFrameHandler3
	DD	imagerel $cppxdata$?size@?$vector@UBufferElement@buffers@core@@V?$allocator@UBufferElement@buffers@core@@@std@@@std@@QEBA_KXZ
xdata	ENDS
;	COMDAT xdata
xdata	SEGMENT
$unwind$?push_back@?$vector@UBufferElement@buffers@core@@V?$allocator@UBufferElement@buffers@core@@@std@@@std@@QEAAX$$QEAUBufferElement@buffers@core@@@Z DD 025031401H
	DD	0b20f2314H
	DD	0500bH
xdata	ENDS
;	COMDAT xdata
xdata	SEGMENT
$ip2state$??1?$vector@UBufferElement@buffers@core@@V?$allocator@UBufferElement@buffers@core@@@std@@@std@@QEAA@XZ DD imagerel ??1?$vector@UBufferElement@buffers@core@@V?$allocator@UBufferElement@buffers@core@@@std@@@std@@QEAA@XZ
	DD	0ffffffffH
xdata	ENDS
;	COMDAT CONST
CONST	SEGMENT
$cppxdata$??1?$vector@UBufferElement@buffers@core@@V?$allocator@UBufferElement@buffers@core@@@std@@@std@@QEAA@XZ DD 019930522H
	DD	00H
	DD	00H
	DD	00H
	DD	00H
	DD	01H
	DD	imagerel $ip2state$??1?$vector@UBufferElement@buffers@core@@V?$allocator@UBufferElement@buffers@core@@@std@@@std@@QEAA@XZ
	DD	060H
	DD	00H
	DD	05H
CONST	ENDS
;	COMDAT xdata
xdata	SEGMENT
$unwind$??1?$vector@UBufferElement@buffers@core@@V?$allocator@UBufferElement@buffers@core@@@std@@@std@@QEAA@XZ DD 025031719H
	DD	0d20a230fH
	DD	05006H
	DD	imagerel __CxxFrameHandler3
	DD	imagerel $cppxdata$??1?$vector@UBufferElement@buffers@core@@V?$allocator@UBufferElement@buffers@core@@@std@@@std@@QEAA@XZ
xdata	ENDS
;	COMDAT xdata
xdata	SEGMENT
$ip2state$??0?$vector@UBufferElement@buffers@core@@V?$allocator@UBufferElement@buffers@core@@@std@@@std@@QEAA@XZ DD imagerel ??0?$vector@UBufferElement@buffers@core@@V?$allocator@UBufferElement@buffers@core@@@std@@@std@@QEAA@XZ
	DD	0ffffffffH
xdata	ENDS
;	COMDAT CONST
CONST	SEGMENT
$cppxdata$??0?$vector@UBufferElement@buffers@core@@V?$allocator@UBufferElement@buffers@core@@@std@@@std@@QEAA@XZ DD 019930522H
	DD	00H
	DD	00H
	DD	00H
	DD	00H
	DD	01H
	DD	imagerel $ip2state$??0?$vector@UBufferElement@buffers@core@@V?$allocator@UBufferElement@buffers@core@@@std@@@std@@QEAA@XZ
	DD	060H
	DD	00H
	DD	05H
CONST	ENDS
;	COMDAT xdata
xdata	SEGMENT
$unwind$??0?$vector@UBufferElement@buffers@core@@V?$allocator@UBufferElement@buffers@core@@@std@@@std@@QEAA@XZ DD 025031719H
	DD	0d20a230fH
	DD	05006H
	DD	imagerel __CxxFrameHandler3
	DD	imagerel $cppxdata$??0?$vector@UBufferElement@buffers@core@@V?$allocator@UBufferElement@buffers@core@@@std@@@std@@QEAA@XZ
xdata	ENDS
;	COMDAT xdata
xdata	SEGMENT
$ip2state$?_Get_second@?$_Compressed_pair@V?$allocator@UBufferElement@buffers@core@@@std@@V?$_Vector_val@U?$_Simple_types@UBufferElement@buffers@core@@@std@@@2@$00@std@@QEBAAEBV?$_Vector_val@U?$_Simple_types@UBufferElement@buffers@core@@@std@@@2@XZ DD imagerel ?_Get_second@?$_Compressed_pair@V?$allocator@UBufferElement@buffers@core@@@std@@V?$_Vector_val@U?$_Simple_types@UBufferElement@buffers@core@@@std@@@2@$00@std@@QEBAAEBV?$_Vector_val@U?$_Simple_types@UBufferElement@buffers@core@@@std@@@2@XZ
	DD	0ffffffffH
xdata	ENDS
;	COMDAT CONST
CONST	SEGMENT
$cppxdata$?_Get_second@?$_Compressed_pair@V?$allocator@UBufferElement@buffers@core@@@std@@V?$_Vector_val@U?$_Simple_types@UBufferElement@buffers@core@@@std@@@2@$00@std@@QEBAAEBV?$_Vector_val@U?$_Simple_types@UBufferElement@buffers@core@@@std@@@2@XZ DD 019930522H
	DD	00H
	DD	00H
	DD	00H
	DD	00H
	DD	01H
	DD	imagerel $ip2state$?_Get_second@?$_Compressed_pair@V?$allocator@UBufferElement@buffers@core@@@std@@V?$_Vector_val@U?$_Simple_types@UBufferElement@buffers@core@@@std@@@2@$00@std@@QEBAAEBV?$_Vector_val@U?$_Simple_types@UBufferElement@buffers@core@@@std@@@2@XZ
	DD	060H
	DD	00H
	DD	05H
CONST	ENDS
;	COMDAT xdata
xdata	SEGMENT
$unwind$?_Get_second@?$_Compressed_pair@V?$allocator@UBufferElement@buffers@core@@@std@@V?$_Vector_val@U?$_Simple_types@UBufferElement@buffers@core@@@std@@@2@$00@std@@QEBAAEBV?$_Vector_val@U?$_Simple_types@UBufferElement@buffers@core@@@std@@@2@XZ DD 025031719H
	DD	0d20a230fH
	DD	05006H
	DD	imagerel __CxxFrameHandler3
	DD	imagerel $cppxdata$?_Get_second@?$_Compressed_pair@V?$allocator@UBufferElement@buffers@core@@@std@@V?$_Vector_val@U?$_Simple_types@UBufferElement@buffers@core@@@std@@@2@$00@std@@QEBAAEBV?$_Vector_val@U?$_Simple_types@UBufferElement@buffers@core@@@std@@@2@XZ
xdata	ENDS
;	COMDAT xdata
xdata	SEGMENT
$ip2state$?_Get_second@?$_Compressed_pair@V?$allocator@UBufferElement@buffers@core@@@std@@V?$_Vector_val@U?$_Simple_types@UBufferElement@buffers@core@@@std@@@2@$00@std@@QEAAAEAV?$_Vector_val@U?$_Simple_types@UBufferElement@buffers@core@@@std@@@2@XZ DD imagerel ?_Get_second@?$_Compressed_pair@V?$allocator@UBufferElement@buffers@core@@@std@@V?$_Vector_val@U?$_Simple_types@UBufferElement@buffers@core@@@std@@@2@$00@std@@QEAAAEAV?$_Vector_val@U?$_Simple_types@UBufferElement@buffers@core@@@std@@@2@XZ
	DD	0ffffffffH
xdata	ENDS
;	COMDAT CONST
CONST	SEGMENT
$cppxdata$?_Get_second@?$_Compressed_pair@V?$allocator@UBufferElement@buffers@core@@@std@@V?$_Vector_val@U?$_Simple_types@UBufferElement@buffers@core@@@std@@@2@$00@std@@QEAAAEAV?$_Vector_val@U?$_Simple_types@UBufferElement@buffers@core@@@std@@@2@XZ DD 019930522H
	DD	00H
	DD	00H
	DD	00H
	DD	00H
	DD	01H
	DD	imagerel $ip2state$?_Get_second@?$_Compressed_pair@V?$allocator@UBufferElement@buffers@core@@@std@@V?$_Vector_val@U?$_Simple_types@UBufferElement@buffers@core@@@std@@@2@$00@std@@QEAAAEAV?$_Vector_val@U?$_Simple_types@UBufferElement@buffers@core@@@std@@@2@XZ
	DD	060H
	DD	00H
	DD	05H
CONST	ENDS
;	COMDAT xdata
xdata	SEGMENT
$unwind$?_Get_second@?$_Compressed_pair@V?$allocator@UBufferElement@buffers@core@@@std@@V?$_Vector_val@U?$_Simple_types@UBufferElement@buffers@core@@@std@@@2@$00@std@@QEAAAEAV?$_Vector_val@U?$_Simple_types@UBufferElement@buffers@core@@@std@@@2@XZ DD 025031719H
	DD	0d20a230fH
	DD	05006H
	DD	imagerel __CxxFrameHandler3
	DD	imagerel $cppxdata$?_Get_second@?$_Compressed_pair@V?$allocator@UBufferElement@buffers@core@@@std@@V?$_Vector_val@U?$_Simple_types@UBufferElement@buffers@core@@@std@@@2@$00@std@@QEAAAEAV?$_Vector_val@U?$_Simple_types@UBufferElement@buffers@core@@@std@@@2@XZ
xdata	ENDS
;	COMDAT xdata
xdata	SEGMENT
$ip2state$?_Get_first@?$_Compressed_pair@V?$allocator@UBufferElement@buffers@core@@@std@@V?$_Vector_val@U?$_Simple_types@UBufferElement@buffers@core@@@std@@@2@$00@std@@QEBAAEBV?$allocator@UBufferElement@buffers@core@@@2@XZ DD imagerel ?_Get_first@?$_Compressed_pair@V?$allocator@UBufferElement@buffers@core@@@std@@V?$_Vector_val@U?$_Simple_types@UBufferElement@buffers@core@@@std@@@2@$00@std@@QEBAAEBV?$allocator@UBufferElement@buffers@core@@@2@XZ
	DD	0ffffffffH
xdata	ENDS
;	COMDAT CONST
CONST	SEGMENT
$cppxdata$?_Get_first@?$_Compressed_pair@V?$allocator@UBufferElement@buffers@core@@@std@@V?$_Vector_val@U?$_Simple_types@UBufferElement@buffers@core@@@std@@@2@$00@std@@QEBAAEBV?$allocator@UBufferElement@buffers@core@@@2@XZ DD 019930522H
	DD	00H
	DD	00H
	DD	00H
	DD	00H
	DD	01H
	DD	imagerel $ip2state$?_Get_first@?$_Compressed_pair@V?$allocator@UBufferElement@buffers@core@@@std@@V?$_Vector_val@U?$_Simple_types@UBufferElement@buffers@core@@@std@@@2@$00@std@@QEBAAEBV?$allocator@UBufferElement@buffers@core@@@2@XZ
	DD	060H
	DD	00H
	DD	05H
CONST	ENDS
;	COMDAT xdata
xdata	SEGMENT
$unwind$?_Get_first@?$_Compressed_pair@V?$allocator@UBufferElement@buffers@core@@@std@@V?$_Vector_val@U?$_Simple_types@UBufferElement@buffers@core@@@std@@@2@$00@std@@QEBAAEBV?$allocator@UBufferElement@buffers@core@@@2@XZ DD 025031719H
	DD	0d20a230fH
	DD	05006H
	DD	imagerel __CxxFrameHandler3
	DD	imagerel $cppxdata$?_Get_first@?$_Compressed_pair@V?$allocator@UBufferElement@buffers@core@@@std@@V?$_Vector_val@U?$_Simple_types@UBufferElement@buffers@core@@@std@@@2@$00@std@@QEBAAEBV?$allocator@UBufferElement@buffers@core@@@2@XZ
xdata	ENDS
;	COMDAT xdata
xdata	SEGMENT
$ip2state$?_Get_first@?$_Compressed_pair@V?$allocator@UBufferElement@buffers@core@@@std@@V?$_Vector_val@U?$_Simple_types@UBufferElement@buffers@core@@@std@@@2@$00@std@@QEAAAEAV?$allocator@UBufferElement@buffers@core@@@2@XZ DD imagerel ?_Get_first@?$_Compressed_pair@V?$allocator@UBufferElement@buffers@core@@@std@@V?$_Vector_val@U?$_Simple_types@UBufferElement@buffers@core@@@std@@@2@$00@std@@QEAAAEAV?$allocator@UBufferElement@buffers@core@@@2@XZ
	DD	0ffffffffH
xdata	ENDS
;	COMDAT CONST
CONST	SEGMENT
$cppxdata$?_Get_first@?$_Compressed_pair@V?$allocator@UBufferElement@buffers@core@@@std@@V?$_Vector_val@U?$_Simple_types@UBufferElement@buffers@core@@@std@@@2@$00@std@@QEAAAEAV?$allocator@UBufferElement@buffers@core@@@2@XZ DD 019930522H
	DD	00H
	DD	00H
	DD	00H
	DD	00H
	DD	01H
	DD	imagerel $ip2state$?_Get_first@?$_Compressed_pair@V?$allocator@UBufferElement@buffers@core@@@std@@V?$_Vector_val@U?$_Simple_types@UBufferElement@buffers@core@@@std@@@2@$00@std@@QEAAAEAV?$allocator@UBufferElement@buffers@core@@@2@XZ
	DD	060H
	DD	00H
	DD	05H
CONST	ENDS
;	COMDAT xdata
xdata	SEGMENT
$unwind$?_Get_first@?$_Compressed_pair@V?$allocator@UBufferElement@buffers@core@@@std@@V?$_Vector_val@U?$_Simple_types@UBufferElement@buffers@core@@@std@@@2@$00@std@@QEAAAEAV?$allocator@UBufferElement@buffers@core@@@2@XZ DD 025031719H
	DD	0d20a230fH
	DD	05006H
	DD	imagerel __CxxFrameHandler3
	DD	imagerel $cppxdata$?_Get_first@?$_Compressed_pair@V?$allocator@UBufferElement@buffers@core@@@std@@V?$_Vector_val@U?$_Simple_types@UBufferElement@buffers@core@@@std@@@2@$00@std@@QEAAAEAV?$allocator@UBufferElement@buffers@core@@@2@XZ
xdata	ENDS
;	COMDAT xdata
xdata	SEGMENT
$unwind$??0?$_Vector_val@U?$_Simple_types@UBufferElement@buffers@core@@@std@@@std@@QEAA@XZ DD 025030f01H
	DD	0b20a230fH
	DD	05006H
xdata	ENDS
;	COMDAT xdata
xdata	SEGMENT
$ip2state$?_Myend@?$_Vector_alloc@U?$_Vec_base_types@UBufferElement@buffers@core@@V?$allocator@UBufferElement@buffers@core@@@std@@@std@@@std@@QEBAAEBQEAUBufferElement@buffers@core@@XZ DD imagerel ?_Myend@?$_Vector_alloc@U?$_Vec_base_types@UBufferElement@buffers@core@@V?$allocator@UBufferElement@buffers@core@@@std@@@std@@@std@@QEBAAEBQEAUBufferElement@buffers@core@@XZ
	DD	0ffffffffH
xdata	ENDS
;	COMDAT CONST
CONST	SEGMENT
$cppxdata$?_Myend@?$_Vector_alloc@U?$_Vec_base_types@UBufferElement@buffers@core@@V?$allocator@UBufferElement@buffers@core@@@std@@@std@@@std@@QEBAAEBQEAUBufferElement@buffers@core@@XZ DD 019930522H
	DD	00H
	DD	00H
	DD	00H
	DD	00H
	DD	01H
	DD	imagerel $ip2state$?_Myend@?$_Vector_alloc@U?$_Vec_base_types@UBufferElement@buffers@core@@V?$allocator@UBufferElement@buffers@core@@@std@@@std@@@std@@QEBAAEBQEAUBufferElement@buffers@core@@XZ
	DD	060H
	DD	00H
	DD	05H
CONST	ENDS
;	COMDAT xdata
xdata	SEGMENT
$unwind$?_Myend@?$_Vector_alloc@U?$_Vec_base_types@UBufferElement@buffers@core@@V?$allocator@UBufferElement@buffers@core@@@std@@@std@@@std@@QEBAAEBQEAUBufferElement@buffers@core@@XZ DD 025031719H
	DD	0d20a230fH
	DD	05006H
	DD	imagerel __CxxFrameHandler3
	DD	imagerel $cppxdata$?_Myend@?$_Vector_alloc@U?$_Vec_base_types@UBufferElement@buffers@core@@V?$allocator@UBufferElement@buffers@core@@@std@@@std@@@std@@QEBAAEBQEAUBufferElement@buffers@core@@XZ
xdata	ENDS
;	COMDAT xdata
xdata	SEGMENT
$ip2state$?_Myend@?$_Vector_alloc@U?$_Vec_base_types@UBufferElement@buffers@core@@V?$allocator@UBufferElement@buffers@core@@@std@@@std@@@std@@QEAAAEAPEAUBufferElement@buffers@core@@XZ DD imagerel ?_Myend@?$_Vector_alloc@U?$_Vec_base_types@UBufferElement@buffers@core@@V?$allocator@UBufferElement@buffers@core@@@std@@@std@@@std@@QEAAAEAPEAUBufferElement@buffers@core@@XZ
	DD	0ffffffffH
xdata	ENDS
;	COMDAT CONST
CONST	SEGMENT
$cppxdata$?_Myend@?$_Vector_alloc@U?$_Vec_base_types@UBufferElement@buffers@core@@V?$allocator@UBufferElement@buffers@core@@@std@@@std@@@std@@QEAAAEAPEAUBufferElement@buffers@core@@XZ DD 019930522H
	DD	00H
	DD	00H
	DD	00H
	DD	00H
	DD	01H
	DD	imagerel $ip2state$?_Myend@?$_Vector_alloc@U?$_Vec_base_types@UBufferElement@buffers@core@@V?$allocator@UBufferElement@buffers@core@@@std@@@std@@@std@@QEAAAEAPEAUBufferElement@buffers@core@@XZ
	DD	060H
	DD	00H
	DD	05H
CONST	ENDS
;	COMDAT xdata
xdata	SEGMENT
$unwind$?_Myend@?$_Vector_alloc@U?$_Vec_base_types@UBufferElement@buffers@core@@V?$allocator@UBufferElement@buffers@core@@@std@@@std@@@std@@QEAAAEAPEAUBufferElement@buffers@core@@XZ DD 025031719H
	DD	0d20a230fH
	DD	05006H
	DD	imagerel __CxxFrameHandler3
	DD	imagerel $cppxdata$?_Myend@?$_Vector_alloc@U?$_Vec_base_types@UBufferElement@buffers@core@@V?$allocator@UBufferElement@buffers@core@@@std@@@std@@@std@@QEAAAEAPEAUBufferElement@buffers@core@@XZ
xdata	ENDS
;	COMDAT xdata
xdata	SEGMENT
$ip2state$?_Mylast@?$_Vector_alloc@U?$_Vec_base_types@UBufferElement@buffers@core@@V?$allocator@UBufferElement@buffers@core@@@std@@@std@@@std@@QEBAAEBQEAUBufferElement@buffers@core@@XZ DD imagerel ?_Mylast@?$_Vector_alloc@U?$_Vec_base_types@UBufferElement@buffers@core@@V?$allocator@UBufferElement@buffers@core@@@std@@@std@@@std@@QEBAAEBQEAUBufferElement@buffers@core@@XZ
	DD	0ffffffffH
xdata	ENDS
;	COMDAT CONST
CONST	SEGMENT
$cppxdata$?_Mylast@?$_Vector_alloc@U?$_Vec_base_types@UBufferElement@buffers@core@@V?$allocator@UBufferElement@buffers@core@@@std@@@std@@@std@@QEBAAEBQEAUBufferElement@buffers@core@@XZ DD 019930522H
	DD	00H
	DD	00H
	DD	00H
	DD	00H
	DD	01H
	DD	imagerel $ip2state$?_Mylast@?$_Vector_alloc@U?$_Vec_base_types@UBufferElement@buffers@core@@V?$allocator@UBufferElement@buffers@core@@@std@@@std@@@std@@QEBAAEBQEAUBufferElement@buffers@core@@XZ
	DD	060H
	DD	00H
	DD	05H
CONST	ENDS
;	COMDAT xdata
xdata	SEGMENT
$unwind$?_Mylast@?$_Vector_alloc@U?$_Vec_base_types@UBufferElement@buffers@core@@V?$allocator@UBufferElement@buffers@core@@@std@@@std@@@std@@QEBAAEBQEAUBufferElement@buffers@core@@XZ DD 025031719H
	DD	0d20a230fH
	DD	05006H
	DD	imagerel __CxxFrameHandler3
	DD	imagerel $cppxdata$?_Mylast@?$_Vector_alloc@U?$_Vec_base_types@UBufferElement@buffers@core@@V?$allocator@UBufferElement@buffers@core@@@std@@@std@@@std@@QEBAAEBQEAUBufferElement@buffers@core@@XZ
xdata	ENDS
;	COMDAT xdata
xdata	SEGMENT
$ip2state$?_Mylast@?$_Vector_alloc@U?$_Vec_base_types@UBufferElement@buffers@core@@V?$allocator@UBufferElement@buffers@core@@@std@@@std@@@std@@QEAAAEAPEAUBufferElement@buffers@core@@XZ DD imagerel ?_Mylast@?$_Vector_alloc@U?$_Vec_base_types@UBufferElement@buffers@core@@V?$allocator@UBufferElement@buffers@core@@@std@@@std@@@std@@QEAAAEAPEAUBufferElement@buffers@core@@XZ
	DD	0ffffffffH
xdata	ENDS
;	COMDAT CONST
CONST	SEGMENT
$cppxdata$?_Mylast@?$_Vector_alloc@U?$_Vec_base_types@UBufferElement@buffers@core@@V?$allocator@UBufferElement@buffers@core@@@std@@@std@@@std@@QEAAAEAPEAUBufferElement@buffers@core@@XZ DD 019930522H
	DD	00H
	DD	00H
	DD	00H
	DD	00H
	DD	01H
	DD	imagerel $ip2state$?_Mylast@?$_Vector_alloc@U?$_Vec_base_types@UBufferElement@buffers@core@@V?$allocator@UBufferElement@buffers@core@@@std@@@std@@@std@@QEAAAEAPEAUBufferElement@buffers@core@@XZ
	DD	060H
	DD	00H
	DD	05H
CONST	ENDS
;	COMDAT xdata
xdata	SEGMENT
$unwind$?_Mylast@?$_Vector_alloc@U?$_Vec_base_types@UBufferElement@buffers@core@@V?$allocator@UBufferElement@buffers@core@@@std@@@std@@@std@@QEAAAEAPEAUBufferElement@buffers@core@@XZ DD 025031719H
	DD	0d20a230fH
	DD	05006H
	DD	imagerel __CxxFrameHandler3
	DD	imagerel $cppxdata$?_Mylast@?$_Vector_alloc@U?$_Vec_base_types@UBufferElement@buffers@core@@V?$allocator@UBufferElement@buffers@core@@@std@@@std@@@std@@QEAAAEAPEAUBufferElement@buffers@core@@XZ
xdata	ENDS
;	COMDAT xdata
xdata	SEGMENT
$ip2state$?_Myfirst@?$_Vector_alloc@U?$_Vec_base_types@UBufferElement@buffers@core@@V?$allocator@UBufferElement@buffers@core@@@std@@@std@@@std@@QEBAAEBQEAUBufferElement@buffers@core@@XZ DD imagerel ?_Myfirst@?$_Vector_alloc@U?$_Vec_base_types@UBufferElement@buffers@core@@V?$allocator@UBufferElement@buffers@core@@@std@@@std@@@std@@QEBAAEBQEAUBufferElement@buffers@core@@XZ
	DD	0ffffffffH
xdata	ENDS
;	COMDAT CONST
CONST	SEGMENT
$cppxdata$?_Myfirst@?$_Vector_alloc@U?$_Vec_base_types@UBufferElement@buffers@core@@V?$allocator@UBufferElement@buffers@core@@@std@@@std@@@std@@QEBAAEBQEAUBufferElement@buffers@core@@XZ DD 019930522H
	DD	00H
	DD	00H
	DD	00H
	DD	00H
	DD	01H
	DD	imagerel $ip2state$?_Myfirst@?$_Vector_alloc@U?$_Vec_base_types@UBufferElement@buffers@core@@V?$allocator@UBufferElement@buffers@core@@@std@@@std@@@std@@QEBAAEBQEAUBufferElement@buffers@core@@XZ
	DD	060H
	DD	00H
	DD	05H
CONST	ENDS
;	COMDAT xdata
xdata	SEGMENT
$unwind$?_Myfirst@?$_Vector_alloc@U?$_Vec_base_types@UBufferElement@buffers@core@@V?$allocator@UBufferElement@buffers@core@@@std@@@std@@@std@@QEBAAEBQEAUBufferElement@buffers@core@@XZ DD 025031719H
	DD	0d20a230fH
	DD	05006H
	DD	imagerel __CxxFrameHandler3
	DD	imagerel $cppxdata$?_Myfirst@?$_Vector_alloc@U?$_Vec_base_types@UBufferElement@buffers@core@@V?$allocator@UBufferElement@buffers@core@@@std@@@std@@@std@@QEBAAEBQEAUBufferElement@buffers@core@@XZ
xdata	ENDS
;	COMDAT xdata
xdata	SEGMENT
$ip2state$?_Myfirst@?$_Vector_alloc@U?$_Vec_base_types@UBufferElement@buffers@core@@V?$allocator@UBufferElement@buffers@core@@@std@@@std@@@std@@QEAAAEAPEAUBufferElement@buffers@core@@XZ DD imagerel ?_Myfirst@?$_Vector_alloc@U?$_Vec_base_types@UBufferElement@buffers@core@@V?$allocator@UBufferElement@buffers@core@@@std@@@std@@@std@@QEAAAEAPEAUBufferElement@buffers@core@@XZ
	DD	0ffffffffH
xdata	ENDS
;	COMDAT CONST
CONST	SEGMENT
$cppxdata$?_Myfirst@?$_Vector_alloc@U?$_Vec_base_types@UBufferElement@buffers@core@@V?$allocator@UBufferElement@buffers@core@@@std@@@std@@@std@@QEAAAEAPEAUBufferElement@buffers@core@@XZ DD 019930522H
	DD	00H
	DD	00H
	DD	00H
	DD	00H
	DD	01H
	DD	imagerel $ip2state$?_Myfirst@?$_Vector_alloc@U?$_Vec_base_types@UBufferElement@buffers@core@@V?$allocator@UBufferElement@buffers@core@@@std@@@std@@@std@@QEAAAEAPEAUBufferElement@buffers@core@@XZ
	DD	060H
	DD	00H
	DD	05H
CONST	ENDS
;	COMDAT xdata
xdata	SEGMENT
$unwind$?_Myfirst@?$_Vector_alloc@U?$_Vec_base_types@UBufferElement@buffers@core@@V?$allocator@UBufferElement@buffers@core@@@std@@@std@@@std@@QEAAAEAPEAUBufferElement@buffers@core@@XZ DD 025031719H
	DD	0d20a230fH
	DD	05006H
	DD	imagerel __CxxFrameHandler3
	DD	imagerel $cppxdata$?_Myfirst@?$_Vector_alloc@U?$_Vec_base_types@UBufferElement@buffers@core@@V?$allocator@UBufferElement@buffers@core@@@std@@@std@@@std@@QEAAAEAPEAUBufferElement@buffers@core@@XZ
xdata	ENDS
;	COMDAT xdata
xdata	SEGMENT
$ip2state$?_Get_data@?$_Vector_alloc@U?$_Vec_base_types@UBufferElement@buffers@core@@V?$allocator@UBufferElement@buffers@core@@@std@@@std@@@std@@QEBAAEBV?$_Vector_val@U?$_Simple_types@UBufferElement@buffers@core@@@std@@@2@XZ DD imagerel ?_Get_data@?$_Vector_alloc@U?$_Vec_base_types@UBufferElement@buffers@core@@V?$allocator@UBufferElement@buffers@core@@@std@@@std@@@std@@QEBAAEBV?$_Vector_val@U?$_Simple_types@UBufferElement@buffers@core@@@std@@@2@XZ
	DD	0ffffffffH
xdata	ENDS
;	COMDAT CONST
CONST	SEGMENT
$cppxdata$?_Get_data@?$_Vector_alloc@U?$_Vec_base_types@UBufferElement@buffers@core@@V?$allocator@UBufferElement@buffers@core@@@std@@@std@@@std@@QEBAAEBV?$_Vector_val@U?$_Simple_types@UBufferElement@buffers@core@@@std@@@2@XZ DD 019930522H
	DD	00H
	DD	00H
	DD	00H
	DD	00H
	DD	01H
	DD	imagerel $ip2state$?_Get_data@?$_Vector_alloc@U?$_Vec_base_types@UBufferElement@buffers@core@@V?$allocator@UBufferElement@buffers@core@@@std@@@std@@@std@@QEBAAEBV?$_Vector_val@U?$_Simple_types@UBufferElement@buffers@core@@@std@@@2@XZ
	DD	060H
	DD	00H
	DD	05H
CONST	ENDS
;	COMDAT xdata
xdata	SEGMENT
$unwind$?_Get_data@?$_Vector_alloc@U?$_Vec_base_types@UBufferElement@buffers@core@@V?$allocator@UBufferElement@buffers@core@@@std@@@std@@@std@@QEBAAEBV?$_Vector_val@U?$_Simple_types@UBufferElement@buffers@core@@@std@@@2@XZ DD 025031719H
	DD	0d20a230fH
	DD	05006H
	DD	imagerel __CxxFrameHandler3
	DD	imagerel $cppxdata$?_Get_data@?$_Vector_alloc@U?$_Vec_base_types@UBufferElement@buffers@core@@V?$allocator@UBufferElement@buffers@core@@@std@@@std@@@std@@QEBAAEBV?$_Vector_val@U?$_Simple_types@UBufferElement@buffers@core@@@std@@@2@XZ
xdata	ENDS
;	COMDAT xdata
xdata	SEGMENT
$ip2state$?_Get_data@?$_Vector_alloc@U?$_Vec_base_types@UBufferElement@buffers@core@@V?$allocator@UBufferElement@buffers@core@@@std@@@std@@@std@@QEAAAEAV?$_Vector_val@U?$_Simple_types@UBufferElement@buffers@core@@@std@@@2@XZ DD imagerel ?_Get_data@?$_Vector_alloc@U?$_Vec_base_types@UBufferElement@buffers@core@@V?$allocator@UBufferElement@buffers@core@@@std@@@std@@@std@@QEAAAEAV?$_Vector_val@U?$_Simple_types@UBufferElement@buffers@core@@@std@@@2@XZ
	DD	0ffffffffH
xdata	ENDS
;	COMDAT CONST
CONST	SEGMENT
$cppxdata$?_Get_data@?$_Vector_alloc@U?$_Vec_base_types@UBufferElement@buffers@core@@V?$allocator@UBufferElement@buffers@core@@@std@@@std@@@std@@QEAAAEAV?$_Vector_val@U?$_Simple_types@UBufferElement@buffers@core@@@std@@@2@XZ DD 019930522H
	DD	00H
	DD	00H
	DD	00H
	DD	00H
	DD	01H
	DD	imagerel $ip2state$?_Get_data@?$_Vector_alloc@U?$_Vec_base_types@UBufferElement@buffers@core@@V?$allocator@UBufferElement@buffers@core@@@std@@@std@@@std@@QEAAAEAV?$_Vector_val@U?$_Simple_types@UBufferElement@buffers@core@@@std@@@2@XZ
	DD	060H
	DD	00H
	DD	05H
CONST	ENDS
;	COMDAT xdata
xdata	SEGMENT
$unwind$?_Get_data@?$_Vector_alloc@U?$_Vec_base_types@UBufferElement@buffers@core@@V?$allocator@UBufferElement@buffers@core@@@std@@@std@@@std@@QEAAAEAV?$_Vector_val@U?$_Simple_types@UBufferElement@buffers@core@@@std@@@2@XZ DD 025031719H
	DD	0d20a230fH
	DD	05006H
	DD	imagerel __CxxFrameHandler3
	DD	imagerel $cppxdata$?_Get_data@?$_Vector_alloc@U?$_Vec_base_types@UBufferElement@buffers@core@@V?$allocator@UBufferElement@buffers@core@@@std@@@std@@@std@@QEAAAEAV?$_Vector_val@U?$_Simple_types@UBufferElement@buffers@core@@@std@@@2@XZ
xdata	ENDS
;	COMDAT xdata
xdata	SEGMENT
$ip2state$?_Getal@?$_Vector_alloc@U?$_Vec_base_types@UBufferElement@buffers@core@@V?$allocator@UBufferElement@buffers@core@@@std@@@std@@@std@@QEBAAEBV?$allocator@UBufferElement@buffers@core@@@2@XZ DD imagerel ?_Getal@?$_Vector_alloc@U?$_Vec_base_types@UBufferElement@buffers@core@@V?$allocator@UBufferElement@buffers@core@@@std@@@std@@@std@@QEBAAEBV?$allocator@UBufferElement@buffers@core@@@2@XZ
	DD	0ffffffffH
xdata	ENDS
;	COMDAT CONST
CONST	SEGMENT
$cppxdata$?_Getal@?$_Vector_alloc@U?$_Vec_base_types@UBufferElement@buffers@core@@V?$allocator@UBufferElement@buffers@core@@@std@@@std@@@std@@QEBAAEBV?$allocator@UBufferElement@buffers@core@@@2@XZ DD 019930522H
	DD	00H
	DD	00H
	DD	00H
	DD	00H
	DD	01H
	DD	imagerel $ip2state$?_Getal@?$_Vector_alloc@U?$_Vec_base_types@UBufferElement@buffers@core@@V?$allocator@UBufferElement@buffers@core@@@std@@@std@@@std@@QEBAAEBV?$allocator@UBufferElement@buffers@core@@@2@XZ
	DD	060H
	DD	00H
	DD	05H
CONST	ENDS
;	COMDAT xdata
xdata	SEGMENT
$unwind$?_Getal@?$_Vector_alloc@U?$_Vec_base_types@UBufferElement@buffers@core@@V?$allocator@UBufferElement@buffers@core@@@std@@@std@@@std@@QEBAAEBV?$allocator@UBufferElement@buffers@core@@@2@XZ DD 025031719H
	DD	0d20a230fH
	DD	05006H
	DD	imagerel __CxxFrameHandler3
	DD	imagerel $cppxdata$?_Getal@?$_Vector_alloc@U?$_Vec_base_types@UBufferElement@buffers@core@@V?$allocator@UBufferElement@buffers@core@@@std@@@std@@@std@@QEBAAEBV?$allocator@UBufferElement@buffers@core@@@2@XZ
xdata	ENDS
;	COMDAT xdata
xdata	SEGMENT
$ip2state$?_Getal@?$_Vector_alloc@U?$_Vec_base_types@UBufferElement@buffers@core@@V?$allocator@UBufferElement@buffers@core@@@std@@@std@@@std@@QEAAAEAV?$allocator@UBufferElement@buffers@core@@@2@XZ DD imagerel ?_Getal@?$_Vector_alloc@U?$_Vec_base_types@UBufferElement@buffers@core@@V?$allocator@UBufferElement@buffers@core@@@std@@@std@@@std@@QEAAAEAV?$allocator@UBufferElement@buffers@core@@@2@XZ
	DD	0ffffffffH
xdata	ENDS
;	COMDAT CONST
CONST	SEGMENT
$cppxdata$?_Getal@?$_Vector_alloc@U?$_Vec_base_types@UBufferElement@buffers@core@@V?$allocator@UBufferElement@buffers@core@@@std@@@std@@@std@@QEAAAEAV?$allocator@UBufferElement@buffers@core@@@2@XZ DD 019930522H
	DD	00H
	DD	00H
	DD	00H
	DD	00H
	DD	01H
	DD	imagerel $ip2state$?_Getal@?$_Vector_alloc@U?$_Vec_base_types@UBufferElement@buffers@core@@V?$allocator@UBufferElement@buffers@core@@@std@@@std@@@std@@QEAAAEAV?$allocator@UBufferElement@buffers@core@@@2@XZ
	DD	060H
	DD	00H
	DD	05H
CONST	ENDS
;	COMDAT xdata
xdata	SEGMENT
$unwind$?_Getal@?$_Vector_alloc@U?$_Vec_base_types@UBufferElement@buffers@core@@V?$allocator@UBufferElement@buffers@core@@@std@@@std@@@std@@QEAAAEAV?$allocator@UBufferElement@buffers@core@@@2@XZ DD 025031719H
	DD	0d20a230fH
	DD	05006H
	DD	imagerel __CxxFrameHandler3
	DD	imagerel $cppxdata$?_Getal@?$_Vector_alloc@U?$_Vec_base_types@UBufferElement@buffers@core@@V?$allocator@UBufferElement@buffers@core@@@std@@@std@@@std@@QEAAAEAV?$allocator@UBufferElement@buffers@core@@@2@XZ
xdata	ENDS
;	COMDAT xdata
xdata	SEGMENT
$unwind$?_Orphan_all@?$_Vector_alloc@U?$_Vec_base_types@UBufferElement@buffers@core@@V?$allocator@UBufferElement@buffers@core@@@std@@@std@@@std@@QEAAXXZ DD 025030f01H
	DD	0b20a230fH
	DD	05006H
xdata	ENDS
;	COMDAT xdata
xdata	SEGMENT
$ip2state$?_Myproxy@?$_Vector_alloc@U?$_Vec_base_types@UBufferElement@buffers@core@@V?$allocator@UBufferElement@buffers@core@@@std@@@std@@@std@@QEAAAEAPEAU_Container_proxy@2@XZ DD imagerel ?_Myproxy@?$_Vector_alloc@U?$_Vec_base_types@UBufferElement@buffers@core@@V?$allocator@UBufferElement@buffers@core@@@std@@@std@@@std@@QEAAAEAPEAU_Container_proxy@2@XZ
	DD	0ffffffffH
xdata	ENDS
;	COMDAT CONST
CONST	SEGMENT
$cppxdata$?_Myproxy@?$_Vector_alloc@U?$_Vec_base_types@UBufferElement@buffers@core@@V?$allocator@UBufferElement@buffers@core@@@std@@@std@@@std@@QEAAAEAPEAU_Container_proxy@2@XZ DD 019930522H
	DD	00H
	DD	00H
	DD	00H
	DD	00H
	DD	01H
	DD	imagerel $ip2state$?_Myproxy@?$_Vector_alloc@U?$_Vec_base_types@UBufferElement@buffers@core@@V?$allocator@UBufferElement@buffers@core@@@std@@@std@@@std@@QEAAAEAPEAU_Container_proxy@2@XZ
	DD	060H
	DD	00H
	DD	05H
CONST	ENDS
;	COMDAT xdata
xdata	SEGMENT
$unwind$?_Myproxy@?$_Vector_alloc@U?$_Vec_base_types@UBufferElement@buffers@core@@V?$allocator@UBufferElement@buffers@core@@@std@@@std@@@std@@QEAAAEAPEAU_Container_proxy@2@XZ DD 025031719H
	DD	0d20a230fH
	DD	05006H
	DD	imagerel __CxxFrameHandler3
	DD	imagerel $cppxdata$?_Myproxy@?$_Vector_alloc@U?$_Vec_base_types@UBufferElement@buffers@core@@V?$allocator@UBufferElement@buffers@core@@@std@@@std@@@std@@QEAAAEAPEAU_Container_proxy@2@XZ
xdata	ENDS
;	COMDAT xdata
xdata	SEGMENT
$unwind$?_Getpfirst@?$_Vector_alloc@U?$_Vec_base_types@UBufferElement@buffers@core@@V?$allocator@UBufferElement@buffers@core@@@std@@@std@@@std@@QEBAPEAPEAU_Iterator_base12@2@XZ DD 025030f01H
	DD	0b20a230fH
	DD	05006H
xdata	ENDS
;	COMDAT xdata
xdata	SEGMENT
$unwind$?_Free_proxy@?$_Vector_alloc@U?$_Vec_base_types@UBufferElement@buffers@core@@V?$allocator@UBufferElement@buffers@core@@@std@@@std@@@std@@QEAAXXZ DD 025031d19H
	DD	0d20a230fH
	DD	05006H
	DD	imagerel __GSHandlerCheck
	DD	068H
xdata	ENDS
;	COMDAT xdata
xdata	SEGMENT
$unwind$?_Alloc_proxy@?$_Vector_alloc@U?$_Vec_base_types@UBufferElement@buffers@core@@V?$allocator@UBufferElement@buffers@core@@@std@@@std@@@std@@QEAAXXZ DD 025042019H
	DD	010d2312H
	DD	050060012H
	DD	imagerel __GSHandlerCheck
	DD	080H
xdata	ENDS
;	COMDAT xdata
xdata	SEGMENT
$ip2state$??1?$_Vector_alloc@U?$_Vec_base_types@UBufferElement@buffers@core@@V?$allocator@UBufferElement@buffers@core@@@std@@@std@@@std@@QEAA@XZ DD imagerel ??1?$_Vector_alloc@U?$_Vec_base_types@UBufferElement@buffers@core@@V?$allocator@UBufferElement@buffers@core@@@std@@@std@@@std@@QEAA@XZ
	DD	0ffffffffH
xdata	ENDS
;	COMDAT CONST
CONST	SEGMENT
$cppxdata$??1?$_Vector_alloc@U?$_Vec_base_types@UBufferElement@buffers@core@@V?$allocator@UBufferElement@buffers@core@@@std@@@std@@@std@@QEAA@XZ DD 019930522H
	DD	00H
	DD	00H
	DD	00H
	DD	00H
	DD	01H
	DD	imagerel $ip2state$??1?$_Vector_alloc@U?$_Vec_base_types@UBufferElement@buffers@core@@V?$allocator@UBufferElement@buffers@core@@@std@@@std@@@std@@QEAA@XZ
	DD	060H
	DD	00H
	DD	05H
CONST	ENDS
;	COMDAT xdata
xdata	SEGMENT
$unwind$??1?$_Vector_alloc@U?$_Vec_base_types@UBufferElement@buffers@core@@V?$allocator@UBufferElement@buffers@core@@@std@@@std@@@std@@QEAA@XZ DD 025031719H
	DD	0d20a230fH
	DD	05006H
	DD	imagerel __CxxFrameHandler3
	DD	imagerel $cppxdata$??1?$_Vector_alloc@U?$_Vec_base_types@UBufferElement@buffers@core@@V?$allocator@UBufferElement@buffers@core@@@std@@@std@@@std@@QEAA@XZ
xdata	ENDS
;	COMDAT xdata
xdata	SEGMENT
$unwind$??0?$_Vector_alloc@U?$_Vec_base_types@UBufferElement@buffers@core@@V?$allocator@UBufferElement@buffers@core@@@std@@@std@@@std@@QEAA@XZ DD 025030f01H
	DD	0d20a230fH
	DD	05006H
xdata	ENDS
;	COMDAT xdata
xdata	SEGMENT
$ip2state$?max_size@?$_Default_allocator_traits@V?$allocator@UBufferElement@buffers@core@@@std@@@std@@SA_KAEBV?$allocator@UBufferElement@buffers@core@@@2@@Z DD imagerel ?max_size@?$_Default_allocator_traits@V?$allocator@UBufferElement@buffers@core@@@std@@@std@@SA_KAEBV?$allocator@UBufferElement@buffers@core@@@2@@Z
	DD	0ffffffffH
xdata	ENDS
;	COMDAT CONST
CONST	SEGMENT
$cppxdata$?max_size@?$_Default_allocator_traits@V?$allocator@UBufferElement@buffers@core@@@std@@@std@@SA_KAEBV?$allocator@UBufferElement@buffers@core@@@2@@Z DD 019930522H
	DD	00H
	DD	00H
	DD	00H
	DD	00H
	DD	01H
	DD	imagerel $ip2state$?max_size@?$_Default_allocator_traits@V?$allocator@UBufferElement@buffers@core@@@std@@@std@@SA_KAEBV?$allocator@UBufferElement@buffers@core@@@2@@Z
	DD	060H
	DD	00H
	DD	05H
CONST	ENDS
;	COMDAT xdata
xdata	SEGMENT
$unwind$?max_size@?$_Default_allocator_traits@V?$allocator@UBufferElement@buffers@core@@@std@@@std@@SA_KAEBV?$allocator@UBufferElement@buffers@core@@@2@@Z DD 025031719H
	DD	0d20a230fH
	DD	05006H
	DD	imagerel __CxxFrameHandler3
	DD	imagerel $cppxdata$?max_size@?$_Default_allocator_traits@V?$allocator@UBufferElement@buffers@core@@@std@@@std@@SA_KAEBV?$allocator@UBufferElement@buffers@core@@@2@@Z
xdata	ENDS
;	COMDAT xdata
xdata	SEGMENT
$unwind$?allocate@?$allocator@UBufferElement@buffers@core@@@std@@QEAAPEAUBufferElement@buffers@core@@_K@Z DD 025031401H
	DD	0b20f2314H
	DD	0500bH
xdata	ENDS
;	COMDAT xdata
xdata	SEGMENT
$unwind$?deallocate@?$allocator@UBufferElement@buffers@core@@@std@@QEAAXQEAUBufferElement@buffers@core@@_K@Z DD 025031901H
	DD	0b2142319H
	DD	05010H
xdata	ENDS
;	COMDAT xdata
xdata	SEGMENT
$ip2state$??0?$allocator@UBufferElement@buffers@core@@@std@@QEAA@XZ DD imagerel ??0?$allocator@UBufferElement@buffers@core@@@std@@QEAA@XZ
	DD	0ffffffffH
xdata	ENDS
;	COMDAT CONST
CONST	SEGMENT
$cppxdata$??0?$allocator@UBufferElement@buffers@core@@@std@@QEAA@XZ DD 019930522H
	DD	00H
	DD	00H
	DD	00H
	DD	00H
	DD	01H
	DD	imagerel $ip2state$??0?$allocator@UBufferElement@buffers@core@@@std@@QEAA@XZ
	DD	060H
	DD	00H
	DD	05H
CONST	ENDS
;	COMDAT xdata
xdata	SEGMENT
$unwind$??0?$allocator@UBufferElement@buffers@core@@@std@@QEAA@XZ DD 025031719H
	DD	0d20a230fH
	DD	05006H
	DD	imagerel __CxxFrameHandler3
	DD	imagerel $cppxdata$??0?$allocator@UBufferElement@buffers@core@@@std@@QEAA@XZ
xdata	ENDS
;	COMDAT xdata
xdata	SEGMENT
$unwind$?SizeOfType@BufferElement@buffers@core@@SAII@Z DD 025030e01H
	DD	0d209230eH
	DD	05005H
xdata	ENDS
;	COMDAT xdata
xdata	SEGMENT
$unwind$?_Xlen@?$basic_string@DU?$char_traits@D@std@@V?$allocator@D@2@@std@@SAXXZ DD 025030b01H
	DD	0b206230bH
	DD	05002H
xdata	ENDS
;	COMDAT xdata
xdata	SEGMENT
$unwind$?_Tidy_deallocate@?$basic_string@DU?$char_traits@D@std@@V?$allocator@D@2@@std@@QEAAXXZ DD 025031201H
	DD	0f20d2312H
	DD	05006H
xdata	ENDS
;	COMDAT xdata
xdata	SEGMENT
$unwind$?_Tidy_init@?$basic_string@DU?$char_traits@D@std@@V?$allocator@D@2@@std@@QEAAXXZ DD 025030f01H
	DD	0d20a230fH
	DD	05006H
xdata	ENDS
;	COMDAT xdata
xdata	SEGMENT
$unwind$?_Calculate_growth@?$basic_string@DU?$char_traits@D@std@@V?$allocator@D@2@@std@@QEBA_K_K@Z DD 025042519H
	DD	01122317H
	DD	0500b0012H
	DD	imagerel __GSHandlerCheck
	DD	088H
xdata	ENDS
;	COMDAT xdata
xdata	SEGMENT
$ip2state$?max_size@?$basic_string@DU?$char_traits@D@std@@V?$allocator@D@2@@std@@QEBA_KXZ DD imagerel ?max_size@?$basic_string@DU?$char_traits@D@std@@V?$allocator@D@2@@std@@QEBA_KXZ
	DD	0ffffffffH
xdata	ENDS
;	COMDAT CONST
CONST	SEGMENT
$cppxdata$?max_size@?$basic_string@DU?$char_traits@D@std@@V?$allocator@D@2@@std@@QEBA_KXZ DD 019930522H
	DD	00H
	DD	00H
	DD	00H
	DD	00H
	DD	01H
	DD	imagerel $ip2state$?max_size@?$basic_string@DU?$char_traits@D@std@@V?$allocator@D@2@@std@@QEBA_KXZ
	DD	088H
	DD	00H
	DD	05H
CONST	ENDS
;	COMDAT xdata
xdata	SEGMENT
$unwind$?max_size@?$basic_string@DU?$char_traits@D@std@@V?$allocator@D@2@@std@@QEBA_KXZ DD 025042819H
	DD	010d2312H
	DD	050060014H
	DD	imagerel __GSHandlerCheck_EH
	DD	imagerel $cppxdata$?max_size@?$basic_string@DU?$char_traits@D@std@@V?$allocator@D@2@@std@@QEBA_KXZ
	DD	093H
xdata	ENDS
;	COMDAT xdata
xdata	SEGMENT
$unwind$?assign@?$basic_string@DU?$char_traits@D@std@@V?$allocator@D@2@@std@@QEAAAEAV12@QEBD@Z DD 025031401H
	DD	0b20f2314H
	DD	0500bH
xdata	ENDS
;	COMDAT xdata
xdata	SEGMENT
$unwind$?assign@?$basic_string@DU?$char_traits@D@std@@V?$allocator@D@2@@std@@QEAAAEAV12@QEBD_K@Z DD 025051d01H
	DD	0118231dH
	DD	070110011H
	DD	05010H
xdata	ENDS
;	COMDAT xdata
xdata	SEGMENT
$ip2state$??1?$basic_string@DU?$char_traits@D@std@@V?$allocator@D@2@@std@@QEAA@XZ DD imagerel ??1?$basic_string@DU?$char_traits@D@std@@V?$allocator@D@2@@std@@QEAA@XZ
	DD	0ffffffffH
xdata	ENDS
;	COMDAT CONST
CONST	SEGMENT
$cppxdata$??1?$basic_string@DU?$char_traits@D@std@@V?$allocator@D@2@@std@@QEAA@XZ DD 019930522H
	DD	00H
	DD	00H
	DD	00H
	DD	00H
	DD	01H
	DD	imagerel $ip2state$??1?$basic_string@DU?$char_traits@D@std@@V?$allocator@D@2@@std@@QEAA@XZ
	DD	060H
	DD	00H
	DD	05H
CONST	ENDS
;	COMDAT xdata
xdata	SEGMENT
$unwind$??1?$basic_string@DU?$char_traits@D@std@@V?$allocator@D@2@@std@@QEAA@XZ DD 025031719H
	DD	0d20a230fH
	DD	05006H
	DD	imagerel __CxxFrameHandler3
	DD	imagerel $cppxdata$??1?$basic_string@DU?$char_traits@D@std@@V?$allocator@D@2@@std@@QEAA@XZ
xdata	ENDS
;	COMDAT xdata
xdata	SEGMENT
$unwind$?dtor$0@?0???0?$basic_string@DU?$char_traits@D@std@@V?$allocator@D@2@@std@@QEAA@QEBD@Z@4HA DD 020601H
	DD	050023206H
xdata	ENDS
;	COMDAT xdata
xdata	SEGMENT
$ip2state$??0?$basic_string@DU?$char_traits@D@std@@V?$allocator@D@2@@std@@QEAA@QEBD@Z DD imagerel ??0?$basic_string@DU?$char_traits@D@std@@V?$allocator@D@2@@std@@QEAA@QEBD@Z
	DD	0ffffffffH
	DD	imagerel ??0?$basic_string@DU?$char_traits@D@std@@V?$allocator@D@2@@std@@QEAA@QEBD@Z+50
	DD	00H
	DD	imagerel ??0?$basic_string@DU?$char_traits@D@std@@V?$allocator@D@2@@std@@QEAA@QEBD@Z+73
	DD	0ffffffffH
xdata	ENDS
;	COMDAT xdata
xdata	SEGMENT
$stateUnwindMap$??0?$basic_string@DU?$char_traits@D@std@@V?$allocator@D@2@@std@@QEAA@QEBD@Z DD 0ffffffffH
	DD	imagerel ?dtor$0@?0???0?$basic_string@DU?$char_traits@D@std@@V?$allocator@D@2@@std@@QEAA@QEBD@Z@4HA
xdata	ENDS
;	COMDAT CONST
CONST	SEGMENT
$cppxdata$??0?$basic_string@DU?$char_traits@D@std@@V?$allocator@D@2@@std@@QEAA@QEBD@Z DD 019930522H
	DD	01H
	DD	imagerel $stateUnwindMap$??0?$basic_string@DU?$char_traits@D@std@@V?$allocator@D@2@@std@@QEAA@QEBD@Z
	DD	00H
	DD	00H
	DD	03H
	DD	imagerel $ip2state$??0?$basic_string@DU?$char_traits@D@std@@V?$allocator@D@2@@std@@QEAA@QEBD@Z
	DD	060H
	DD	00H
	DD	01H
CONST	ENDS
;	COMDAT xdata
xdata	SEGMENT
$unwind$??0?$basic_string@DU?$char_traits@D@std@@V?$allocator@D@2@@std@@QEAA@QEBD@Z DD 025031c11H
	DD	0d20f2314H
	DD	0500bH
	DD	imagerel __CxxFrameHandler3
	DD	imagerel $cppxdata$??0?$basic_string@DU?$char_traits@D@std@@V?$allocator@D@2@@std@@QEAA@QEBD@Z
xdata	ENDS
;	COMDAT xdata
xdata	SEGMENT
$unwind$??1?$_Compressed_pair@V?$allocator@D@std@@V?$_String_val@U?$_Simple_types@D@std@@@2@$00@std@@QEAA@XZ DD 025030f01H
	DD	0b20a230fH
	DD	05006H
xdata	ENDS
;	COMDAT xdata
xdata	SEGMENT
$ip2state$?_Get_second@?$_Compressed_pair@V?$allocator@D@std@@V?$_String_val@U?$_Simple_types@D@std@@@2@$00@std@@QEBAAEBV?$_String_val@U?$_Simple_types@D@std@@@2@XZ DD imagerel ?_Get_second@?$_Compressed_pair@V?$allocator@D@std@@V?$_String_val@U?$_Simple_types@D@std@@@2@$00@std@@QEBAAEBV?$_String_val@U?$_Simple_types@D@std@@@2@XZ
	DD	0ffffffffH
xdata	ENDS
;	COMDAT CONST
CONST	SEGMENT
$cppxdata$?_Get_second@?$_Compressed_pair@V?$allocator@D@std@@V?$_String_val@U?$_Simple_types@D@std@@@2@$00@std@@QEBAAEBV?$_String_val@U?$_Simple_types@D@std@@@2@XZ DD 019930522H
	DD	00H
	DD	00H
	DD	00H
	DD	00H
	DD	01H
	DD	imagerel $ip2state$?_Get_second@?$_Compressed_pair@V?$allocator@D@std@@V?$_String_val@U?$_Simple_types@D@std@@@2@$00@std@@QEBAAEBV?$_String_val@U?$_Simple_types@D@std@@@2@XZ
	DD	060H
	DD	00H
	DD	05H
CONST	ENDS
;	COMDAT xdata
xdata	SEGMENT
$unwind$?_Get_second@?$_Compressed_pair@V?$allocator@D@std@@V?$_String_val@U?$_Simple_types@D@std@@@2@$00@std@@QEBAAEBV?$_String_val@U?$_Simple_types@D@std@@@2@XZ DD 025031719H
	DD	0d20a230fH
	DD	05006H
	DD	imagerel __CxxFrameHandler3
	DD	imagerel $cppxdata$?_Get_second@?$_Compressed_pair@V?$allocator@D@std@@V?$_String_val@U?$_Simple_types@D@std@@@2@$00@std@@QEBAAEBV?$_String_val@U?$_Simple_types@D@std@@@2@XZ
xdata	ENDS
;	COMDAT xdata
xdata	SEGMENT
$ip2state$?_Get_second@?$_Compressed_pair@V?$allocator@D@std@@V?$_String_val@U?$_Simple_types@D@std@@@2@$00@std@@QEAAAEAV?$_String_val@U?$_Simple_types@D@std@@@2@XZ DD imagerel ?_Get_second@?$_Compressed_pair@V?$allocator@D@std@@V?$_String_val@U?$_Simple_types@D@std@@@2@$00@std@@QEAAAEAV?$_String_val@U?$_Simple_types@D@std@@@2@XZ
	DD	0ffffffffH
xdata	ENDS
;	COMDAT CONST
CONST	SEGMENT
$cppxdata$?_Get_second@?$_Compressed_pair@V?$allocator@D@std@@V?$_String_val@U?$_Simple_types@D@std@@@2@$00@std@@QEAAAEAV?$_String_val@U?$_Simple_types@D@std@@@2@XZ DD 019930522H
	DD	00H
	DD	00H
	DD	00H
	DD	00H
	DD	01H
	DD	imagerel $ip2state$?_Get_second@?$_Compressed_pair@V?$allocator@D@std@@V?$_String_val@U?$_Simple_types@D@std@@@2@$00@std@@QEAAAEAV?$_String_val@U?$_Simple_types@D@std@@@2@XZ
	DD	060H
	DD	00H
	DD	05H
CONST	ENDS
;	COMDAT xdata
xdata	SEGMENT
$unwind$?_Get_second@?$_Compressed_pair@V?$allocator@D@std@@V?$_String_val@U?$_Simple_types@D@std@@@2@$00@std@@QEAAAEAV?$_String_val@U?$_Simple_types@D@std@@@2@XZ DD 025031719H
	DD	0d20a230fH
	DD	05006H
	DD	imagerel __CxxFrameHandler3
	DD	imagerel $cppxdata$?_Get_second@?$_Compressed_pair@V?$allocator@D@std@@V?$_String_val@U?$_Simple_types@D@std@@@2@$00@std@@QEAAAEAV?$_String_val@U?$_Simple_types@D@std@@@2@XZ
xdata	ENDS
;	COMDAT xdata
xdata	SEGMENT
$ip2state$?_Get_first@?$_Compressed_pair@V?$allocator@D@std@@V?$_String_val@U?$_Simple_types@D@std@@@2@$00@std@@QEBAAEBV?$allocator@D@2@XZ DD imagerel ?_Get_first@?$_Compressed_pair@V?$allocator@D@std@@V?$_String_val@U?$_Simple_types@D@std@@@2@$00@std@@QEBAAEBV?$allocator@D@2@XZ
	DD	0ffffffffH
xdata	ENDS
;	COMDAT CONST
CONST	SEGMENT
$cppxdata$?_Get_first@?$_Compressed_pair@V?$allocator@D@std@@V?$_String_val@U?$_Simple_types@D@std@@@2@$00@std@@QEBAAEBV?$allocator@D@2@XZ DD 019930522H
	DD	00H
	DD	00H
	DD	00H
	DD	00H
	DD	01H
	DD	imagerel $ip2state$?_Get_first@?$_Compressed_pair@V?$allocator@D@std@@V?$_String_val@U?$_Simple_types@D@std@@@2@$00@std@@QEBAAEBV?$allocator@D@2@XZ
	DD	060H
	DD	00H
	DD	05H
CONST	ENDS
;	COMDAT xdata
xdata	SEGMENT
$unwind$?_Get_first@?$_Compressed_pair@V?$allocator@D@std@@V?$_String_val@U?$_Simple_types@D@std@@@2@$00@std@@QEBAAEBV?$allocator@D@2@XZ DD 025031719H
	DD	0d20a230fH
	DD	05006H
	DD	imagerel __CxxFrameHandler3
	DD	imagerel $cppxdata$?_Get_first@?$_Compressed_pair@V?$allocator@D@std@@V?$_String_val@U?$_Simple_types@D@std@@@2@$00@std@@QEBAAEBV?$allocator@D@2@XZ
xdata	ENDS
;	COMDAT xdata
xdata	SEGMENT
$ip2state$?_Get_first@?$_Compressed_pair@V?$allocator@D@std@@V?$_String_val@U?$_Simple_types@D@std@@@2@$00@std@@QEAAAEAV?$allocator@D@2@XZ DD imagerel ?_Get_first@?$_Compressed_pair@V?$allocator@D@std@@V?$_String_val@U?$_Simple_types@D@std@@@2@$00@std@@QEAAAEAV?$allocator@D@2@XZ
	DD	0ffffffffH
xdata	ENDS
;	COMDAT CONST
CONST	SEGMENT
$cppxdata$?_Get_first@?$_Compressed_pair@V?$allocator@D@std@@V?$_String_val@U?$_Simple_types@D@std@@@2@$00@std@@QEAAAEAV?$allocator@D@2@XZ DD 019930522H
	DD	00H
	DD	00H
	DD	00H
	DD	00H
	DD	01H
	DD	imagerel $ip2state$?_Get_first@?$_Compressed_pair@V?$allocator@D@std@@V?$_String_val@U?$_Simple_types@D@std@@@2@$00@std@@QEAAAEAV?$allocator@D@2@XZ
	DD	060H
	DD	00H
	DD	05H
CONST	ENDS
;	COMDAT xdata
xdata	SEGMENT
$unwind$?_Get_first@?$_Compressed_pair@V?$allocator@D@std@@V?$_String_val@U?$_Simple_types@D@std@@@2@$00@std@@QEAAAEAV?$allocator@D@2@XZ DD 025031719H
	DD	0d20a230fH
	DD	05006H
	DD	imagerel __CxxFrameHandler3
	DD	imagerel $cppxdata$?_Get_first@?$_Compressed_pair@V?$allocator@D@std@@V?$_String_val@U?$_Simple_types@D@std@@@2@$00@std@@QEAAAEAV?$allocator@D@2@XZ
xdata	ENDS
;	COMDAT xdata
xdata	SEGMENT
$ip2state$?_Get_data@?$_String_alloc@U?$_String_base_types@DV?$allocator@D@std@@@std@@@std@@QEBAAEBV?$_String_val@U?$_Simple_types@D@std@@@2@XZ DD imagerel ?_Get_data@?$_String_alloc@U?$_String_base_types@DV?$allocator@D@std@@@std@@@std@@QEBAAEBV?$_String_val@U?$_Simple_types@D@std@@@2@XZ
	DD	0ffffffffH
xdata	ENDS
;	COMDAT CONST
CONST	SEGMENT
$cppxdata$?_Get_data@?$_String_alloc@U?$_String_base_types@DV?$allocator@D@std@@@std@@@std@@QEBAAEBV?$_String_val@U?$_Simple_types@D@std@@@2@XZ DD 019930522H
	DD	00H
	DD	00H
	DD	00H
	DD	00H
	DD	01H
	DD	imagerel $ip2state$?_Get_data@?$_String_alloc@U?$_String_base_types@DV?$allocator@D@std@@@std@@@std@@QEBAAEBV?$_String_val@U?$_Simple_types@D@std@@@2@XZ
	DD	060H
	DD	00H
	DD	05H
CONST	ENDS
;	COMDAT xdata
xdata	SEGMENT
$unwind$?_Get_data@?$_String_alloc@U?$_String_base_types@DV?$allocator@D@std@@@std@@@std@@QEBAAEBV?$_String_val@U?$_Simple_types@D@std@@@2@XZ DD 025031719H
	DD	0d20a230fH
	DD	05006H
	DD	imagerel __CxxFrameHandler3
	DD	imagerel $cppxdata$?_Get_data@?$_String_alloc@U?$_String_base_types@DV?$allocator@D@std@@@std@@@std@@QEBAAEBV?$_String_val@U?$_Simple_types@D@std@@@2@XZ
xdata	ENDS
;	COMDAT xdata
xdata	SEGMENT
$ip2state$?_Get_data@?$_String_alloc@U?$_String_base_types@DV?$allocator@D@std@@@std@@@std@@QEAAAEAV?$_String_val@U?$_Simple_types@D@std@@@2@XZ DD imagerel ?_Get_data@?$_String_alloc@U?$_String_base_types@DV?$allocator@D@std@@@std@@@std@@QEAAAEAV?$_String_val@U?$_Simple_types@D@std@@@2@XZ
	DD	0ffffffffH
xdata	ENDS
;	COMDAT CONST
CONST	SEGMENT
$cppxdata$?_Get_data@?$_String_alloc@U?$_String_base_types@DV?$allocator@D@std@@@std@@@std@@QEAAAEAV?$_String_val@U?$_Simple_types@D@std@@@2@XZ DD 019930522H
	DD	00H
	DD	00H
	DD	00H
	DD	00H
	DD	01H
	DD	imagerel $ip2state$?_Get_data@?$_String_alloc@U?$_String_base_types@DV?$allocator@D@std@@@std@@@std@@QEAAAEAV?$_String_val@U?$_Simple_types@D@std@@@2@XZ
	DD	060H
	DD	00H
	DD	05H
CONST	ENDS
;	COMDAT xdata
xdata	SEGMENT
$unwind$?_Get_data@?$_String_alloc@U?$_String_base_types@DV?$allocator@D@std@@@std@@@std@@QEAAAEAV?$_String_val@U?$_Simple_types@D@std@@@2@XZ DD 025031719H
	DD	0d20a230fH
	DD	05006H
	DD	imagerel __CxxFrameHandler3
	DD	imagerel $cppxdata$?_Get_data@?$_String_alloc@U?$_String_base_types@DV?$allocator@D@std@@@std@@@std@@QEAAAEAV?$_String_val@U?$_Simple_types@D@std@@@2@XZ
xdata	ENDS
;	COMDAT xdata
xdata	SEGMENT
$ip2state$?_Getal@?$_String_alloc@U?$_String_base_types@DV?$allocator@D@std@@@std@@@std@@QEBAAEBV?$allocator@D@2@XZ DD imagerel ?_Getal@?$_String_alloc@U?$_String_base_types@DV?$allocator@D@std@@@std@@@std@@QEBAAEBV?$allocator@D@2@XZ
	DD	0ffffffffH
xdata	ENDS
;	COMDAT CONST
CONST	SEGMENT
$cppxdata$?_Getal@?$_String_alloc@U?$_String_base_types@DV?$allocator@D@std@@@std@@@std@@QEBAAEBV?$allocator@D@2@XZ DD 019930522H
	DD	00H
	DD	00H
	DD	00H
	DD	00H
	DD	01H
	DD	imagerel $ip2state$?_Getal@?$_String_alloc@U?$_String_base_types@DV?$allocator@D@std@@@std@@@std@@QEBAAEBV?$allocator@D@2@XZ
	DD	060H
	DD	00H
	DD	05H
CONST	ENDS
;	COMDAT xdata
xdata	SEGMENT
$unwind$?_Getal@?$_String_alloc@U?$_String_base_types@DV?$allocator@D@std@@@std@@@std@@QEBAAEBV?$allocator@D@2@XZ DD 025031719H
	DD	0d20a230fH
	DD	05006H
	DD	imagerel __CxxFrameHandler3
	DD	imagerel $cppxdata$?_Getal@?$_String_alloc@U?$_String_base_types@DV?$allocator@D@std@@@std@@@std@@QEBAAEBV?$allocator@D@2@XZ
xdata	ENDS
;	COMDAT xdata
xdata	SEGMENT
$ip2state$?_Getal@?$_String_alloc@U?$_String_base_types@DV?$allocator@D@std@@@std@@@std@@QEAAAEAV?$allocator@D@2@XZ DD imagerel ?_Getal@?$_String_alloc@U?$_String_base_types@DV?$allocator@D@std@@@std@@@std@@QEAAAEAV?$allocator@D@2@XZ
	DD	0ffffffffH
xdata	ENDS
;	COMDAT CONST
CONST	SEGMENT
$cppxdata$?_Getal@?$_String_alloc@U?$_String_base_types@DV?$allocator@D@std@@@std@@@std@@QEAAAEAV?$allocator@D@2@XZ DD 019930522H
	DD	00H
	DD	00H
	DD	00H
	DD	00H
	DD	01H
	DD	imagerel $ip2state$?_Getal@?$_String_alloc@U?$_String_base_types@DV?$allocator@D@std@@@std@@@std@@QEAAAEAV?$allocator@D@2@XZ
	DD	060H
	DD	00H
	DD	05H
CONST	ENDS
;	COMDAT xdata
xdata	SEGMENT
$unwind$?_Getal@?$_String_alloc@U?$_String_base_types@DV?$allocator@D@std@@@std@@@std@@QEAAAEAV?$allocator@D@2@XZ DD 025031719H
	DD	0d20a230fH
	DD	05006H
	DD	imagerel __CxxFrameHandler3
	DD	imagerel $cppxdata$?_Getal@?$_String_alloc@U?$_String_base_types@DV?$allocator@D@std@@@std@@@std@@QEAAAEAV?$allocator@D@2@XZ
xdata	ENDS
;	COMDAT xdata
xdata	SEGMENT
$unwind$?_Orphan_all@?$_String_alloc@U?$_String_base_types@DV?$allocator@D@std@@@std@@@std@@QEAAXXZ DD 025030f01H
	DD	0b20a230fH
	DD	05006H
xdata	ENDS
;	COMDAT xdata
xdata	SEGMENT
$ip2state$?_Myproxy@?$_String_alloc@U?$_String_base_types@DV?$allocator@D@std@@@std@@@std@@QEAAAEAPEAU_Container_proxy@2@XZ DD imagerel ?_Myproxy@?$_String_alloc@U?$_String_base_types@DV?$allocator@D@std@@@std@@@std@@QEAAAEAPEAU_Container_proxy@2@XZ
	DD	0ffffffffH
xdata	ENDS
;	COMDAT CONST
CONST	SEGMENT
$cppxdata$?_Myproxy@?$_String_alloc@U?$_String_base_types@DV?$allocator@D@std@@@std@@@std@@QEAAAEAPEAU_Container_proxy@2@XZ DD 019930522H
	DD	00H
	DD	00H
	DD	00H
	DD	00H
	DD	01H
	DD	imagerel $ip2state$?_Myproxy@?$_String_alloc@U?$_String_base_types@DV?$allocator@D@std@@@std@@@std@@QEAAAEAPEAU_Container_proxy@2@XZ
	DD	060H
	DD	00H
	DD	05H
CONST	ENDS
;	COMDAT xdata
xdata	SEGMENT
$unwind$?_Myproxy@?$_String_alloc@U?$_String_base_types@DV?$allocator@D@std@@@std@@@std@@QEAAAEAPEAU_Container_proxy@2@XZ DD 025031719H
	DD	0d20a230fH
	DD	05006H
	DD	imagerel __CxxFrameHandler3
	DD	imagerel $cppxdata$?_Myproxy@?$_String_alloc@U?$_String_base_types@DV?$allocator@D@std@@@std@@@std@@QEAAAEAPEAU_Container_proxy@2@XZ
xdata	ENDS
;	COMDAT xdata
xdata	SEGMENT
$unwind$?_Free_proxy@?$_String_alloc@U?$_String_base_types@DV?$allocator@D@std@@@std@@@std@@QEAAXXZ DD 025031d19H
	DD	0d20a230fH
	DD	05006H
	DD	imagerel __GSHandlerCheck
	DD	068H
xdata	ENDS
;	COMDAT xdata
xdata	SEGMENT
$unwind$?_Alloc_proxy@?$_String_alloc@U?$_String_base_types@DV?$allocator@D@std@@@std@@@std@@QEAAXXZ DD 025042019H
	DD	010d2312H
	DD	050060012H
	DD	imagerel __GSHandlerCheck
	DD	080H
xdata	ENDS
;	COMDAT xdata
xdata	SEGMENT
$ip2state$??1?$_String_alloc@U?$_String_base_types@DV?$allocator@D@std@@@std@@@std@@QEAA@XZ DD imagerel ??1?$_String_alloc@U?$_String_base_types@DV?$allocator@D@std@@@std@@@std@@QEAA@XZ
	DD	0ffffffffH
xdata	ENDS
;	COMDAT CONST
CONST	SEGMENT
$cppxdata$??1?$_String_alloc@U?$_String_base_types@DV?$allocator@D@std@@@std@@@std@@QEAA@XZ DD 019930522H
	DD	00H
	DD	00H
	DD	00H
	DD	00H
	DD	01H
	DD	imagerel $ip2state$??1?$_String_alloc@U?$_String_base_types@DV?$allocator@D@std@@@std@@@std@@QEAA@XZ
	DD	060H
	DD	00H
	DD	05H
CONST	ENDS
;	COMDAT xdata
xdata	SEGMENT
$unwind$??1?$_String_alloc@U?$_String_base_types@DV?$allocator@D@std@@@std@@@std@@QEAA@XZ DD 025031719H
	DD	0d20a230fH
	DD	05006H
	DD	imagerel __CxxFrameHandler3
	DD	imagerel $cppxdata$??1?$_String_alloc@U?$_String_base_types@DV?$allocator@D@std@@@std@@@std@@QEAA@XZ
xdata	ENDS
;	COMDAT xdata
xdata	SEGMENT
$unwind$?dtor$0@?0???0?$_String_alloc@U?$_String_base_types@DV?$allocator@D@std@@@std@@@std@@QEAA@XZ@4HA DD 020601H
	DD	050023206H
xdata	ENDS
;	COMDAT xdata
xdata	SEGMENT
$ip2state$??0?$_String_alloc@U?$_String_base_types@DV?$allocator@D@std@@@std@@@std@@QEAA@XZ DD imagerel ??0?$_String_alloc@U?$_String_base_types@DV?$allocator@D@std@@@std@@@std@@QEAA@XZ
	DD	0ffffffffH
	DD	imagerel ??0?$_String_alloc@U?$_String_base_types@DV?$allocator@D@std@@@std@@@std@@QEAA@XZ+52
	DD	00H
	DD	imagerel ??0?$_String_alloc@U?$_String_base_types@DV?$allocator@D@std@@@std@@@std@@QEAA@XZ+62
	DD	0ffffffffH
xdata	ENDS
;	COMDAT xdata
xdata	SEGMENT
$stateUnwindMap$??0?$_String_alloc@U?$_String_base_types@DV?$allocator@D@std@@@std@@@std@@QEAA@XZ DD 0ffffffffH
	DD	imagerel ?dtor$0@?0???0?$_String_alloc@U?$_String_base_types@DV?$allocator@D@std@@@std@@@std@@QEAA@XZ@4HA
xdata	ENDS
;	COMDAT CONST
CONST	SEGMENT
$cppxdata$??0?$_String_alloc@U?$_String_base_types@DV?$allocator@D@std@@@std@@@std@@QEAA@XZ DD 019930522H
	DD	01H
	DD	imagerel $stateUnwindMap$??0?$_String_alloc@U?$_String_base_types@DV?$allocator@D@std@@@std@@@std@@QEAA@XZ
	DD	00H
	DD	00H
	DD	03H
	DD	imagerel $ip2state$??0?$_String_alloc@U?$_String_base_types@DV?$allocator@D@std@@@std@@@std@@QEAA@XZ
	DD	068H
	DD	00H
	DD	01H
CONST	ENDS
;	COMDAT xdata
xdata	SEGMENT
$unwind$??0?$_String_alloc@U?$_String_base_types@DV?$allocator@D@std@@@std@@@std@@QEAA@XZ DD 025031711H
	DD	0d20a230fH
	DD	05006H
	DD	imagerel __CxxFrameHandler3
	DD	imagerel $cppxdata$??0?$_String_alloc@U?$_String_base_types@DV?$allocator@D@std@@@std@@@std@@QEAA@XZ
xdata	ENDS
;	COMDAT xdata
xdata	SEGMENT
$unwind$??1?$_String_val@U?$_Simple_types@D@std@@@std@@QEAA@XZ DD 025030f01H
	DD	0b20a230fH
	DD	05006H
xdata	ENDS
;	COMDAT xdata
xdata	SEGMENT
$ip2state$??1_Bxty@?$_String_val@U?$_Simple_types@D@std@@@std@@QEAA@XZ DD imagerel ??1_Bxty@?$_String_val@U?$_Simple_types@D@std@@@std@@QEAA@XZ
	DD	0ffffffffH
xdata	ENDS
;	COMDAT CONST
CONST	SEGMENT
$cppxdata$??1_Bxty@?$_String_val@U?$_Simple_types@D@std@@@std@@QEAA@XZ DD 019930522H
	DD	00H
	DD	00H
	DD	00H
	DD	00H
	DD	01H
	DD	imagerel $ip2state$??1_Bxty@?$_String_val@U?$_Simple_types@D@std@@@std@@QEAA@XZ
	DD	060H
	DD	00H
	DD	05H
CONST	ENDS
;	COMDAT xdata
xdata	SEGMENT
$unwind$??1_Bxty@?$_String_val@U?$_Simple_types@D@std@@@std@@QEAA@XZ DD 025031719H
	DD	0d20a230fH
	DD	05006H
	DD	imagerel __CxxFrameHandler3
	DD	imagerel $cppxdata$??1_Bxty@?$_String_val@U?$_Simple_types@D@std@@@std@@QEAA@XZ
xdata	ENDS
;	COMDAT xdata
xdata	SEGMENT
$unwind$??0_Bxty@?$_String_val@U?$_Simple_types@D@std@@@std@@QEAA@XZ DD 025030f01H
	DD	0b20a230fH
	DD	05006H
xdata	ENDS
;	COMDAT xdata
xdata	SEGMENT
$unwind$?_Large_string_engaged@?$_String_val@U?$_Simple_types@D@std@@@std@@QEBA_NXZ DD 025030f01H
	DD	0d20a230fH
	DD	05006H
xdata	ENDS
;	COMDAT xdata
xdata	SEGMENT
$unwind$?_Myptr@?$_String_val@U?$_Simple_types@D@std@@@std@@QEAAPEADXZ DD 025030f01H
	DD	0d20a230fH
	DD	05006H
xdata	ENDS
;	COMDAT xdata
xdata	SEGMENT
$unwind$??0?$_String_val@U?$_Simple_types@D@std@@@std@@QEAA@XZ DD 025030f01H
	DD	0b20a230fH
	DD	05006H
xdata	ENDS
;	COMDAT xdata
xdata	SEGMENT
$ip2state$?max_size@?$_Default_allocator_traits@V?$allocator@D@std@@@std@@SA_KAEBV?$allocator@D@2@@Z DD imagerel ?max_size@?$_Default_allocator_traits@V?$allocator@D@std@@@std@@SA_KAEBV?$allocator@D@2@@Z
	DD	0ffffffffH
xdata	ENDS
;	COMDAT CONST
CONST	SEGMENT
$cppxdata$?max_size@?$_Default_allocator_traits@V?$allocator@D@std@@@std@@SA_KAEBV?$allocator@D@2@@Z DD 019930522H
	DD	00H
	DD	00H
	DD	00H
	DD	00H
	DD	01H
	DD	imagerel $ip2state$?max_size@?$_Default_allocator_traits@V?$allocator@D@std@@@std@@SA_KAEBV?$allocator@D@2@@Z
	DD	060H
	DD	00H
	DD	05H
CONST	ENDS
;	COMDAT xdata
xdata	SEGMENT
$unwind$?max_size@?$_Default_allocator_traits@V?$allocator@D@std@@@std@@SA_KAEBV?$allocator@D@2@@Z DD 025031719H
	DD	0d20a230fH
	DD	05006H
	DD	imagerel __CxxFrameHandler3
	DD	imagerel $cppxdata$?max_size@?$_Default_allocator_traits@V?$allocator@D@std@@@std@@SA_KAEBV?$allocator@D@2@@Z
xdata	ENDS
;	COMDAT xdata
xdata	SEGMENT
$unwind$?allocate@?$allocator@D@std@@QEAAPEAD_K@Z DD 025031401H
	DD	0b20f2314H
	DD	0500bH
xdata	ENDS
;	COMDAT xdata
xdata	SEGMENT
$unwind$?deallocate@?$allocator@D@std@@QEAAXQEAD_K@Z DD 025031901H
	DD	0b2142319H
	DD	05010H
xdata	ENDS
;	COMDAT xdata
xdata	SEGMENT
$ip2state$??0?$allocator@D@std@@QEAA@XZ DD imagerel ??0?$allocator@D@std@@QEAA@XZ
	DD	0ffffffffH
xdata	ENDS
;	COMDAT CONST
CONST	SEGMENT
$cppxdata$??0?$allocator@D@std@@QEAA@XZ DD 019930522H
	DD	00H
	DD	00H
	DD	00H
	DD	00H
	DD	01H
	DD	imagerel $ip2state$??0?$allocator@D@std@@QEAA@XZ
	DD	060H
	DD	00H
	DD	05H
CONST	ENDS
;	COMDAT xdata
xdata	SEGMENT
$unwind$??0?$allocator@D@std@@QEAA@XZ DD 025031719H
	DD	0d20a230fH
	DD	05006H
	DD	imagerel __CxxFrameHandler3
	DD	imagerel $cppxdata$??0?$allocator@D@std@@QEAA@XZ
xdata	ENDS
;	COMDAT xdata
xdata	SEGMENT
$ip2state$??$_Min_value@_K@std@@YAAEB_KAEB_K0@Z DD imagerel ??$_Min_value@_K@std@@YAAEB_KAEB_K0@Z
	DD	0ffffffffH
xdata	ENDS
;	COMDAT CONST
CONST	SEGMENT
$cppxdata$??$_Min_value@_K@std@@YAAEB_KAEB_K0@Z DD 019930522H
	DD	00H
	DD	00H
	DD	00H
	DD	00H
	DD	01H
	DD	imagerel $ip2state$??$_Min_value@_K@std@@YAAEB_KAEB_K0@Z
	DD	068H
	DD	00H
	DD	05H
CONST	ENDS
;	COMDAT xdata
xdata	SEGMENT
$unwind$??$_Min_value@_K@std@@YAAEB_KAEB_K0@Z DD 025031f19H
	DD	0f2122317H
	DD	0500bH
	DD	imagerel __CxxFrameHandler3
	DD	imagerel $cppxdata$??$_Min_value@_K@std@@YAAEB_KAEB_K0@Z
xdata	ENDS
;	COMDAT xdata
xdata	SEGMENT
$unwind$??$_Convert_size@_K@std@@YA_K_K@Z DD 025030f01H
	DD	0b20a230fH
	DD	05006H
xdata	ENDS
;	COMDAT xdata
xdata	SEGMENT
$unwind$?_Adjust_manually_vector_aligned@std@@YAXAEAPEAXAEA_K@Z DD 035041701H
	DD	01123317H
	DD	0500b0012H
xdata	ENDS
;	COMDAT xdata
xdata	SEGMENT
$unwind$?_Allocate@_Default_allocate_traits@std@@SAPEAX_K@Z DD 025030f01H
	DD	0b20a230fH
	DD	05006H
xdata	ENDS
;	COMDAT xdata
xdata	SEGMENT
$unwind$??$_Get_size_of_n@$00@std@@YA_K_K@Z DD 025030f01H
	DD	0b20a230fH
	DD	05006H
xdata	ENDS
;	COMDAT xdata
xdata	SEGMENT
$ip2state$?_Getpnext@_Iterator_base12@std@@QEAAPEAPEAU12@XZ DD imagerel ?_Getpnext@_Iterator_base12@std@@QEAAPEAPEAU12@XZ
	DD	0ffffffffH
xdata	ENDS
;	COMDAT CONST
CONST	SEGMENT
$cppxdata$?_Getpnext@_Iterator_base12@std@@QEAAPEAPEAU12@XZ DD 019930522H
	DD	00H
	DD	00H
	DD	00H
	DD	00H
	DD	01H
	DD	imagerel $ip2state$?_Getpnext@_Iterator_base12@std@@QEAAPEAPEAU12@XZ
	DD	060H
	DD	00H
	DD	05H
CONST	ENDS
;	COMDAT xdata
xdata	SEGMENT
$unwind$?_Getpnext@_Iterator_base12@std@@QEAAPEAPEAU12@XZ DD 025031719H
	DD	0d20a230fH
	DD	05006H
	DD	imagerel __CxxFrameHandler3
	DD	imagerel $cppxdata$?_Getpnext@_Iterator_base12@std@@QEAAPEAPEAU12@XZ
xdata	ENDS
;	COMDAT xdata
xdata	SEGMENT
$ip2state$?_Clrcont@_Iterator_base12@std@@QEAAXXZ DD imagerel ?_Clrcont@_Iterator_base12@std@@QEAAXXZ
	DD	0ffffffffH
xdata	ENDS
;	COMDAT CONST
CONST	SEGMENT
$cppxdata$?_Clrcont@_Iterator_base12@std@@QEAAXXZ DD 019930522H
	DD	00H
	DD	00H
	DD	00H
	DD	00H
	DD	01H
	DD	imagerel $ip2state$?_Clrcont@_Iterator_base12@std@@QEAAXXZ
	DD	060H
	DD	00H
	DD	05H
CONST	ENDS
;	COMDAT xdata
xdata	SEGMENT
$unwind$?_Clrcont@_Iterator_base12@std@@QEAAXXZ DD 025031719H
	DD	0d20a230fH
	DD	05006H
	DD	imagerel __CxxFrameHandler3
	DD	imagerel $cppxdata$?_Clrcont@_Iterator_base12@std@@QEAAXXZ
xdata	ENDS
;	COMDAT xdata
xdata	SEGMENT
$ip2state$?_Orphan_all@_Container_base12@std@@QEAAXXZ DD imagerel ?_Orphan_all@_Container_base12@std@@QEAAXXZ
	DD	0ffffffffH
xdata	ENDS
;	COMDAT CONST
CONST	SEGMENT
$cppxdata$?_Orphan_all@_Container_base12@std@@QEAAXXZ DD 019930522H
	DD	00H
	DD	00H
	DD	00H
	DD	00H
	DD	01H
	DD	imagerel $ip2state$?_Orphan_all@_Container_base12@std@@QEAAXXZ
	DD	070H
	DD	00H
	DD	05H
CONST	ENDS
;	COMDAT xdata
xdata	SEGMENT
$unwind$?_Orphan_all@_Container_base12@std@@QEAAXXZ DD 025032819H
	DD	0f20d2312H
	DD	05006H
	DD	imagerel __GSHandlerCheck_EH
	DD	imagerel $cppxdata$?_Orphan_all@_Container_base12@std@@QEAAXXZ
	DD	07bH
xdata	ENDS
;	COMDAT xdata
xdata	SEGMENT
$ip2state$?_Getpfirst@_Container_base12@std@@QEBAPEAPEAU_Iterator_base12@2@XZ DD imagerel ?_Getpfirst@_Container_base12@std@@QEBAPEAPEAU_Iterator_base12@2@XZ
	DD	0ffffffffH
xdata	ENDS
;	COMDAT CONST
CONST	SEGMENT
$cppxdata$?_Getpfirst@_Container_base12@std@@QEBAPEAPEAU_Iterator_base12@2@XZ DD 019930522H
	DD	00H
	DD	00H
	DD	00H
	DD	00H
	DD	01H
	DD	imagerel $ip2state$?_Getpfirst@_Container_base12@std@@QEBAPEAPEAU_Iterator_base12@2@XZ
	DD	060H
	DD	00H
	DD	05H
CONST	ENDS
;	COMDAT xdata
xdata	SEGMENT
$unwind$?_Getpfirst@_Container_base12@std@@QEBAPEAPEAU_Iterator_base12@2@XZ DD 025031719H
	DD	0d20a230fH
	DD	05006H
	DD	imagerel __CxxFrameHandler3
	DD	imagerel $cppxdata$?_Getpfirst@_Container_base12@std@@QEBAPEAPEAU_Iterator_base12@2@XZ
xdata	ENDS
;	COMDAT xdata
xdata	SEGMENT
$unwind$??0_Container_base12@std@@QEAA@XZ DD 025030f01H
	DD	0b20a230fH
	DD	05006H
xdata	ENDS
;	COMDAT xdata
xdata	SEGMENT
$ip2state$??0_Container_proxy@std@@QEAA@XZ DD imagerel ??0_Container_proxy@std@@QEAA@XZ
	DD	0ffffffffH
xdata	ENDS
;	COMDAT CONST
CONST	SEGMENT
$cppxdata$??0_Container_proxy@std@@QEAA@XZ DD 019930522H
	DD	00H
	DD	00H
	DD	00H
	DD	00H
	DD	01H
	DD	imagerel $ip2state$??0_Container_proxy@std@@QEAA@XZ
	DD	060H
	DD	00H
	DD	05H
CONST	ENDS
;	COMDAT xdata
xdata	SEGMENT
$unwind$??0_Container_proxy@std@@QEAA@XZ DD 025031719H
	DD	0d20a230fH
	DD	05006H
	DD	imagerel __CxxFrameHandler3
	DD	imagerel $cppxdata$??0_Container_proxy@std@@QEAA@XZ
xdata	ENDS
;	COMDAT xdata
xdata	SEGMENT
$ip2state$?assign@?$char_traits@D@std@@SAXAEADAEBD@Z DD imagerel ?assign@?$char_traits@D@std@@SAXAEADAEBD@Z
	DD	0ffffffffH
xdata	ENDS
;	COMDAT CONST
CONST	SEGMENT
$cppxdata$?assign@?$char_traits@D@std@@SAXAEADAEBD@Z DD 019930522H
	DD	00H
	DD	00H
	DD	00H
	DD	00H
	DD	01H
	DD	imagerel $ip2state$?assign@?$char_traits@D@std@@SAXAEADAEBD@Z
	DD	060H
	DD	00H
	DD	05H
CONST	ENDS
;	COMDAT xdata
xdata	SEGMENT
$unwind$?assign@?$char_traits@D@std@@SAXAEADAEBD@Z DD 025031c19H
	DD	0d20f2314H
	DD	0500bH
	DD	imagerel __CxxFrameHandler3
	DD	imagerel $cppxdata$?assign@?$char_traits@D@std@@SAXAEADAEBD@Z
xdata	ENDS
;	COMDAT xdata
xdata	SEGMENT
$ip2state$?move@?$char_traits@D@std@@SAPEADQEADQEBD_K@Z DD imagerel ?move@?$char_traits@D@std@@SAPEADQEADQEBD_K@Z
	DD	0ffffffffH
xdata	ENDS
;	COMDAT CONST
CONST	SEGMENT
$cppxdata$?move@?$char_traits@D@std@@SAPEADQEADQEBD_K@Z DD 019930522H
	DD	00H
	DD	00H
	DD	00H
	DD	00H
	DD	01H
	DD	imagerel $ip2state$?move@?$char_traits@D@std@@SAPEADQEADQEBD_K@Z
	DD	060H
	DD	00H
	DD	05H
CONST	ENDS
;	COMDAT xdata
xdata	SEGMENT
$unwind$?move@?$char_traits@D@std@@SAPEADQEADQEBD_K@Z DD 025032119H
	DD	0d2142319H
	DD	05010H
	DD	imagerel __CxxFrameHandler3
	DD	imagerel $cppxdata$?move@?$char_traits@D@std@@SAPEADQEADQEBD_K@Z
xdata	ENDS
;	COMDAT xdata
xdata	SEGMENT
$ip2state$?copy@?$char_traits@D@std@@SAPEADQEADQEBD_K@Z DD imagerel ?copy@?$char_traits@D@std@@SAPEADQEADQEBD_K@Z
	DD	0ffffffffH
xdata	ENDS
;	COMDAT CONST
CONST	SEGMENT
$cppxdata$?copy@?$char_traits@D@std@@SAPEADQEADQEBD_K@Z DD 019930522H
	DD	00H
	DD	00H
	DD	00H
	DD	00H
	DD	01H
	DD	imagerel $ip2state$?copy@?$char_traits@D@std@@SAPEADQEADQEBD_K@Z
	DD	060H
	DD	00H
	DD	05H
CONST	ENDS
;	COMDAT xdata
xdata	SEGMENT
$unwind$?copy@?$char_traits@D@std@@SAPEADQEADQEBD_K@Z DD 025032119H
	DD	0d2142319H
	DD	05010H
	DD	imagerel __CxxFrameHandler3
	DD	imagerel $cppxdata$?copy@?$char_traits@D@std@@SAPEADQEADQEBD_K@Z
xdata	ENDS
;	COMDAT xdata
xdata	SEGMENT
$ip2state$?length@?$char_traits@D@std@@SA_KQEBD@Z DD imagerel ?length@?$char_traits@D@std@@SA_KQEBD@Z
	DD	0ffffffffH
xdata	ENDS
;	COMDAT CONST
CONST	SEGMENT
$cppxdata$?length@?$char_traits@D@std@@SA_KQEBD@Z DD 019930522H
	DD	00H
	DD	00H
	DD	00H
	DD	00H
	DD	01H
	DD	imagerel $ip2state$?length@?$char_traits@D@std@@SA_KQEBD@Z
	DD	060H
	DD	00H
	DD	05H
CONST	ENDS
;	COMDAT xdata
xdata	SEGMENT
$unwind$?length@?$char_traits@D@std@@SA_KQEBD@Z DD 025031719H
	DD	0d20a230fH
	DD	05006H
	DD	imagerel __CxxFrameHandler3
	DD	imagerel $cppxdata$?length@?$char_traits@D@std@@SA_KQEBD@Z
xdata	ENDS
;	COMDAT xdata
xdata	SEGMENT
$ip2state$?max@?$numeric_limits@_J@std@@SA_JXZ DD imagerel ?max@?$numeric_limits@_J@std@@SA_JXZ
	DD	0ffffffffH
xdata	ENDS
;	COMDAT CONST
CONST	SEGMENT
$cppxdata$?max@?$numeric_limits@_J@std@@SA_JXZ DD 019930522H
	DD	00H
	DD	00H
	DD	00H
	DD	00H
	DD	01H
	DD	imagerel $ip2state$?max@?$numeric_limits@_J@std@@SA_JXZ
	DD	060H
	DD	00H
	DD	05H
CONST	ENDS
;	COMDAT xdata
xdata	SEGMENT
$unwind$?max@?$numeric_limits@_J@std@@SA_JXZ DD 025031319H
	DD	0d206230bH
	DD	05002H
	DD	imagerel __CxxFrameHandler3
	DD	imagerel $cppxdata$?max@?$numeric_limits@_J@std@@SA_JXZ
xdata	ENDS
;	COMDAT xdata
xdata	SEGMENT
$ip2state$??2@YAPEAX_KPEAX@Z DD imagerel ??2@YAPEAX_KPEAX@Z
	DD	0ffffffffH
xdata	ENDS
;	COMDAT CONST
CONST	SEGMENT
$cppxdata$??2@YAPEAX_KPEAX@Z DD 019930522H
	DD	00H
	DD	00H
	DD	00H
	DD	00H
	DD	01H
	DD	imagerel $ip2state$??2@YAPEAX_KPEAX@Z
	DD	060H
	DD	00H
	DD	05H
CONST	ENDS
;	COMDAT xdata
xdata	SEGMENT
$unwind$??2@YAPEAX_KPEAX@Z DD 025031c19H
	DD	0d20f2314H
	DD	0500bH
	DD	imagerel __CxxFrameHandler3
	DD	imagerel $cppxdata$??2@YAPEAX_KPEAX@Z
xdata	ENDS
;	COMDAT xdata
xdata	SEGMENT
$unwind$??_GVBO@buffers@core@@QEAAPEAXI@Z DD 025031301H
	DD	0b20e2313H
	DD	0500aH
xdata	ENDS
;	COMDAT xdata
xdata	SEGMENT
$unwind$?__empty_global_delete@@YAXPEAX_K@Z DD 025031401H
	DD	0b20f2314H
	DD	0500bH
xdata	ENDS
;	COMDAT xdata
xdata	SEGMENT
$unwind$?__empty_global_delete@@YAXPEAX@Z DD 025030f01H
	DD	0b20a230fH
	DD	05006H
xdata	ENDS
;	COMDAT xdata
xdata	SEGMENT
$unwind$??_H@YAXPEAX_K1P6APEAX0@Z@Z DD 025031e01H
	DD	0d219231eH
	DD	05015H
xdata	ENDS
; Function compile flags: /Odtp /RTCu /ZI
; File c:\program files (x86)\microsoft visual studio\2017\enterprise\vc\tools\msvc\14.15.26726\include\xutility
;	COMDAT ??$_Copy_memmove@PEAUBufferElement@buffers@core@@PEAU123@@std@@YAPEAUBufferElement@buffers@core@@PEAU123@00@Z
_TEXT	SEGMENT
_First_ch$ = 0
_Last_ch$ = 8
_Dest_ch$ = 16
_Count$ = 24
_First$ = 112
_Last$ = 120
_Dest$ = 128
??$_Copy_memmove@PEAUBufferElement@buffers@core@@PEAU123@@std@@YAPEAUBufferElement@buffers@core@@PEAU123@00@Z PROC ; std::_Copy_memmove<core::buffers::BufferElement *,core::buffers::BufferElement *>, COMDAT

; 2398 : 	{	// implement copy-like function as memmove

$LN3:
	mov	QWORD PTR [rsp+24], r8
	mov	QWORD PTR [rsp+16], rdx
	mov	QWORD PTR [rsp+8], rcx
	push	rbp
	sub	rsp, 128				; 00000080H
	lea	rbp, QWORD PTR [rsp+32]
	lea	rcx, OFFSET FLAT:__E8FD1B86_xutility
	call	__CheckForDebuggerJustMyCode

; 2399 : 	const char * const _First_ch = const_cast<const char *>(reinterpret_cast<const volatile char *>(_First));

	mov	rax, QWORD PTR _First$[rbp]
	mov	QWORD PTR _First_ch$[rbp], rax

; 2400 : 	const char * const _Last_ch = const_cast<const char *>(reinterpret_cast<const volatile char *>(_Last));

	mov	rax, QWORD PTR _Last$[rbp]
	mov	QWORD PTR _Last_ch$[rbp], rax

; 2401 : 	char * const _Dest_ch = const_cast<char *>(reinterpret_cast<volatile char *>(_Dest));

	mov	rax, QWORD PTR _Dest$[rbp]
	mov	QWORD PTR _Dest_ch$[rbp], rax

; 2402 : 	const auto _Count = static_cast<size_t>(_Last_ch - _First_ch);

	mov	rax, QWORD PTR _First_ch$[rbp]
	mov	rcx, QWORD PTR _Last_ch$[rbp]
	sub	rcx, rax
	mov	rax, rcx
	mov	QWORD PTR _Count$[rbp], rax

; 2403 : 	_CSTD memmove(_Dest_ch, _First_ch, _Count);

	mov	r8, QWORD PTR _Count$[rbp]
	mov	rdx, QWORD PTR _First_ch$[rbp]
	mov	rcx, QWORD PTR _Dest_ch$[rbp]
	call	memmove

; 2404 : 	return (reinterpret_cast<_OutIt>(_Dest_ch + _Count));

	mov	rax, QWORD PTR _Count$[rbp]
	mov	rcx, QWORD PTR _Dest_ch$[rbp]
	add	rcx, rax
	mov	rax, rcx

; 2405 : 	}

	lea	rsp, QWORD PTR [rbp+96]
	pop	rbp
	ret	0
??$_Copy_memmove@PEAUBufferElement@buffers@core@@PEAU123@@std@@YAPEAUBufferElement@buffers@core@@PEAU123@00@Z ENDP ; std::_Copy_memmove<core::buffers::BufferElement *,core::buffers::BufferElement *>
_TEXT	ENDS
; Function compile flags: /Odtp /RTCu /ZI
; File c:\program files (x86)\microsoft visual studio\2017\enterprise\vc\tools\msvc\14.15.26726\include\xutility
;	COMDAT ??$_Seek_wrapped@UBufferElement@buffers@core@@@std@@YAXAEAPEAUBufferElement@buffers@core@@QEAU123@@Z
_TEXT	SEGMENT
_It$ = 80
_UIt$ = 88
??$_Seek_wrapped@UBufferElement@buffers@core@@@std@@YAXAEAPEAUBufferElement@buffers@core@@QEAU123@@Z PROC ; std::_Seek_wrapped<core::buffers::BufferElement>, COMDAT

; 871  : 	{

$LN3:
	mov	QWORD PTR [rsp+16], rdx
	mov	QWORD PTR [rsp+8], rcx
	push	rbp
	sub	rsp, 96					; 00000060H
	lea	rbp, QWORD PTR [rsp+32]
	lea	rcx, OFFSET FLAT:__E8FD1B86_xutility
	call	__CheckForDebuggerJustMyCode

; 872  : 	_It = _UIt;

	mov	rax, QWORD PTR _It$[rbp]
	mov	rcx, QWORD PTR _UIt$[rbp]
	mov	QWORD PTR [rax], rcx

; 873  : 	}

	lea	rsp, QWORD PTR [rbp+64]
	pop	rbp
	ret	0
??$_Seek_wrapped@UBufferElement@buffers@core@@@std@@YAXAEAPEAUBufferElement@buffers@core@@QEAU123@@Z ENDP ; std::_Seek_wrapped<core::buffers::BufferElement>
_TEXT	ENDS
; Function compile flags: /Odtp /RTCu /ZI
; File c:\program files (x86)\microsoft visual studio\2017\enterprise\vc\tools\msvc\14.15.26726\include\xmemory
;	COMDAT ??$_Uninitialized_move_al_unchecked@UBufferElement@buffers@core@@U123@V?$allocator@UBufferElement@buffers@core@@@std@@@std@@YAPEAUBufferElement@buffers@core@@QEAU123@00AEAV?$allocator@UBufferElement@buffers@core@@@0@U_Really_trivial_ptr_iterator_tag@0@U?$integral_constant@_N$00@0@@Z
_TEXT	SEGMENT
_First$ = 80
_Last$ = 88
_Dest$ = 96
__formal$ = 104
__formal$ = 112
__formal$ = 120
??$_Uninitialized_move_al_unchecked@UBufferElement@buffers@core@@U123@V?$allocator@UBufferElement@buffers@core@@@std@@@std@@YAPEAUBufferElement@buffers@core@@QEAU123@00AEAV?$allocator@UBufferElement@buffers@core@@@0@U_Really_trivial_ptr_iterator_tag@0@U?$integral_constant@_N$00@0@@Z PROC ; std::_Uninitialized_move_al_unchecked<core::buffers::BufferElement,core::buffers::BufferElement,std::allocator<core::buffers::BufferElement> >, COMDAT

; 243  : 	{	// move [_First, _Last) to raw _Dest, using default _Alloc construct, memmove optimization

$LN3:
	mov	QWORD PTR [rsp+32], r9
	mov	QWORD PTR [rsp+24], r8
	mov	QWORD PTR [rsp+16], rdx
	mov	QWORD PTR [rsp+8], rcx
	push	rbp
	sub	rsp, 96					; 00000060H
	lea	rbp, QWORD PTR [rsp+32]
	lea	rcx, OFFSET FLAT:__AD6915D3_xmemory
	call	__CheckForDebuggerJustMyCode

; 244  : 	return (_Copy_memmove(_First, _Last, _Dest));

	mov	r8, QWORD PTR _Dest$[rbp]
	mov	rdx, QWORD PTR _Last$[rbp]
	mov	rcx, QWORD PTR _First$[rbp]
	call	??$_Copy_memmove@PEAUBufferElement@buffers@core@@PEAU123@@std@@YAPEAUBufferElement@buffers@core@@PEAU123@00@Z ; std::_Copy_memmove<core::buffers::BufferElement *,core::buffers::BufferElement *>

; 245  : 	}

	lea	rsp, QWORD PTR [rbp+64]
	pop	rbp
	ret	0
??$_Uninitialized_move_al_unchecked@UBufferElement@buffers@core@@U123@V?$allocator@UBufferElement@buffers@core@@@std@@@std@@YAPEAUBufferElement@buffers@core@@QEAU123@00AEAV?$allocator@UBufferElement@buffers@core@@@0@U_Really_trivial_ptr_iterator_tag@0@U?$integral_constant@_N$00@0@@Z ENDP ; std::_Uninitialized_move_al_unchecked<core::buffers::BufferElement,core::buffers::BufferElement,std::allocator<core::buffers::BufferElement> >
_TEXT	ENDS
; Function compile flags: /Odtp /RTCu /ZI
; File c:\program files (x86)\microsoft visual studio\2017\enterprise\vc\tools\msvc\14.15.26726\include\xutility
;	COMDAT ??$_Ptr_move_cat@UBufferElement@buffers@core@@U123@@std@@YA?AU_Really_trivial_ptr_iterator_tag@0@AEBQEAUBufferElement@buffers@core@@0@Z
_TEXT	SEGMENT
__$ReturnUdt$ = 80
__formal$ = 88
__formal$ = 96
??$_Ptr_move_cat@UBufferElement@buffers@core@@U123@@std@@YA?AU_Really_trivial_ptr_iterator_tag@0@AEBQEAUBufferElement@buffers@core@@0@Z PROC ; std::_Ptr_move_cat<core::buffers::BufferElement,core::buffers::BufferElement>, COMDAT

; 1086 : 	{	// return pointer move optimization category for pointers

$LN3:
	mov	QWORD PTR [rsp+24], r8
	mov	QWORD PTR [rsp+16], rdx
	mov	QWORD PTR [rsp+8], rcx
	push	rbp
	sub	rsp, 96					; 00000060H
	lea	rbp, QWORD PTR [rsp+32]
	lea	rcx, OFFSET FLAT:__E8FD1B86_xutility
	call	__CheckForDebuggerJustMyCode

; 1087 : 	return {};

	mov	rax, QWORD PTR __$ReturnUdt$[rbp]

; 1088 : 	}

	lea	rsp, QWORD PTR [rbp+64]
	pop	rbp
	ret	0
??$_Ptr_move_cat@UBufferElement@buffers@core@@U123@@std@@YA?AU_Really_trivial_ptr_iterator_tag@0@AEBQEAUBufferElement@buffers@core@@0@Z ENDP ; std::_Ptr_move_cat<core::buffers::BufferElement,core::buffers::BufferElement>
_TEXT	ENDS
; Function compile flags: /Odtp /RTCu /ZI
; File c:\program files (x86)\microsoft visual studio\2017\enterprise\vc\tools\msvc\14.15.26726\include\xutility
;	COMDAT ??$_Get_unwrapped_n@UBufferElement@buffers@core@@_J$0A@@std@@YAPEAUBufferElement@buffers@core@@QEAU123@_J@Z
_TEXT	SEGMENT
_Src$ = 80
__formal$ = 88
??$_Get_unwrapped_n@UBufferElement@buffers@core@@_J$0A@@std@@YAPEAUBufferElement@buffers@core@@QEAU123@_J@Z PROC ; std::_Get_unwrapped_n<core::buffers::BufferElement,__int64,0>, COMDAT

; 808  : 	{

$LN3:
	mov	QWORD PTR [rsp+16], rdx
	mov	QWORD PTR [rsp+8], rcx
	push	rbp
	sub	rsp, 96					; 00000060H
	lea	rbp, QWORD PTR [rsp+32]
	lea	rcx, OFFSET FLAT:__E8FD1B86_xutility
	call	__CheckForDebuggerJustMyCode

; 809  : 	return (_Src);

	mov	rax, QWORD PTR _Src$[rbp]

; 810  : 	}

	lea	rsp, QWORD PTR [rbp+64]
	pop	rbp
	ret	0
??$_Get_unwrapped_n@UBufferElement@buffers@core@@_J$0A@@std@@YAPEAUBufferElement@buffers@core@@QEAU123@_J@Z ENDP ; std::_Get_unwrapped_n<core::buffers::BufferElement,__int64,0>
_TEXT	ENDS
; Function compile flags: /Odtp /RTCu /ZI
; File c:\program files (x86)\microsoft visual studio\2017\enterprise\vc\tools\msvc\14.15.26726\include\xutility
;	COMDAT ??$_Idl_distance1@PEAUBufferElement@buffers@core@@PEAU123@@std@@YA_JAEBQEAUBufferElement@buffers@core@@0Urandom_access_iterator_tag@0@@Z
_TEXT	SEGMENT
_First$ = 80
_Last$ = 88
__formal$ = 96
??$_Idl_distance1@PEAUBufferElement@buffers@core@@PEAU123@@std@@YA_JAEBQEAUBufferElement@buffers@core@@0Urandom_access_iterator_tag@0@@Z PROC ; std::_Idl_distance1<core::buffers::BufferElement *,core::buffers::BufferElement *>, COMDAT

; 967  : 	{	// _Idl_distance for random-access iterators

$LN3:
	mov	BYTE PTR [rsp+24], r8b
	mov	QWORD PTR [rsp+16], rdx
	mov	QWORD PTR [rsp+8], rcx
	push	rbp
	sub	rsp, 96					; 00000060H
	lea	rbp, QWORD PTR [rsp+32]
	lea	rcx, OFFSET FLAT:__E8FD1B86_xutility
	call	__CheckForDebuggerJustMyCode

; 968  : 	return (static_cast<_Iter_diff_t<_Checked>>(_Last - _First));

	mov	rax, QWORD PTR _Last$[rbp]
	mov	rcx, QWORD PTR _First$[rbp]
	mov	rcx, QWORD PTR [rcx]
	mov	rax, QWORD PTR [rax]
	sub	rax, rcx
	cdq
	mov	ecx, 12
	idiv	rcx

; 969  : 	}

	lea	rsp, QWORD PTR [rbp+64]
	pop	rbp
	ret	0
??$_Idl_distance1@PEAUBufferElement@buffers@core@@PEAU123@@std@@YA_JAEBQEAUBufferElement@buffers@core@@0Urandom_access_iterator_tag@0@@Z ENDP ; std::_Idl_distance1<core::buffers::BufferElement *,core::buffers::BufferElement *>
_TEXT	ENDS
; Function compile flags: /Odtp /RTCu /ZI
; File c:\program files (x86)\microsoft visual studio\2017\enterprise\vc\tools\msvc\14.15.26726\include\xutility
;	COMDAT ??$_Idl_distance@PEAUBufferElement@buffers@core@@PEAU123@@std@@YA@AEBQEAUBufferElement@buffers@core@@0@Z
_TEXT	SEGMENT
$T1 = 64
_First$ = 96
_Last$ = 104
??$_Idl_distance@PEAUBufferElement@buffers@core@@PEAU123@@std@@YA@AEBQEAUBufferElement@buffers@core@@0@Z PROC ; std::_Idl_distance<core::buffers::BufferElement *,core::buffers::BufferElement *>, COMDAT

; 974  : 	{	// tries to get the distance between _First and _Last if they are random-access iterators

$LN3:
	mov	QWORD PTR [rsp+16], rdx
	mov	QWORD PTR [rsp+8], rcx
	push	rbp
	sub	rsp, 112				; 00000070H
	lea	rbp, QWORD PTR [rsp+32]
	lea	rcx, OFFSET FLAT:__E8FD1B86_xutility
	call	__CheckForDebuggerJustMyCode

; 975  : 	return (_Idl_distance1<_Checked>(_First, _Last, _Iter_cat_t<_Iter>()));

	movzx	r8d, BYTE PTR $T1[rbp]
	mov	rdx, QWORD PTR _Last$[rbp]
	mov	rcx, QWORD PTR _First$[rbp]
	call	??$_Idl_distance1@PEAUBufferElement@buffers@core@@PEAU123@@std@@YA_JAEBQEAUBufferElement@buffers@core@@0Urandom_access_iterator_tag@0@@Z ; std::_Idl_distance1<core::buffers::BufferElement *,core::buffers::BufferElement *>

; 976  : 	}

	lea	rsp, QWORD PTR [rbp+80]
	pop	rbp
	ret	0
??$_Idl_distance@PEAUBufferElement@buffers@core@@PEAU123@@std@@YA@AEBQEAUBufferElement@buffers@core@@0@Z ENDP ; std::_Idl_distance<core::buffers::BufferElement *,core::buffers::BufferElement *>
_TEXT	ENDS
; Function compile flags: /Odtp /RTCu /ZI
; File c:\program files (x86)\microsoft visual studio\2017\enterprise\vc\tools\msvc\14.15.26726\include\xutility
;	COMDAT ??$_Get_unwrapped@UBufferElement@buffers@core@@@std@@YAPEAUBufferElement@buffers@core@@QEAU123@@Z
_TEXT	SEGMENT
_Ptr$ = 80
??$_Get_unwrapped@UBufferElement@buffers@core@@@std@@YAPEAUBufferElement@buffers@core@@QEAU123@@Z PROC ; std::_Get_unwrapped<core::buffers::BufferElement>, COMDAT

; 662  : 	{	// special case already-unwrapped pointers

$LN3:
	mov	QWORD PTR [rsp+8], rcx
	push	rbp
	sub	rsp, 96					; 00000060H
	lea	rbp, QWORD PTR [rsp+32]
	lea	rcx, OFFSET FLAT:__E8FD1B86_xutility
	call	__CheckForDebuggerJustMyCode

; 663  : 	return (_Ptr);

	mov	rax, QWORD PTR _Ptr$[rbp]

; 664  : 	}

	lea	rsp, QWORD PTR [rbp+64]
	pop	rbp
	ret	0
??$_Get_unwrapped@UBufferElement@buffers@core@@@std@@YAPEAUBufferElement@buffers@core@@QEAU123@@Z ENDP ; std::_Get_unwrapped<core::buffers::BufferElement>
_TEXT	ENDS
; Function compile flags: /Odtp /RTCu /ZI
; File c:\program files (x86)\microsoft visual studio\2017\enterprise\vc\tools\msvc\14.15.26726\include\xmemory0
;	COMDAT ??$_Get_size_of_n@$0M@@std@@YA_K_K@Z
_TEXT	SEGMENT
_Max_possible$ = 0
_Result$ = 8
_Count$ = 96
??$_Get_size_of_n@$0M@@std@@YA_K_K@Z PROC		; std::_Get_size_of_n<12>, COMDAT

; 23   : 	{	// gets the size of _Count copies of a type sized _Ty_size

$LN4:
	mov	QWORD PTR [rsp+8], rcx
	push	rbp
	sub	rsp, 112				; 00000070H
	lea	rbp, QWORD PTR [rsp+32]
	lea	rcx, OFFSET FLAT:__39AEDAD7_xmemory0
	call	__CheckForDebuggerJustMyCode

; 24   : 	constexpr size_t _Max_possible = static_cast<size_t>(-1) / _Ty_size;

	mov	rax, 1537228672809129301		; 1555555555555555H
	mov	QWORD PTR _Max_possible$[rbp], rax

; 25   : 	size_t _Result = _Count * _Ty_size;

	imul	rax, QWORD PTR _Count$[rbp], 12
	mov	QWORD PTR _Result$[rbp], rax

; 26   : 	if (_Max_possible < _Count)

	mov	rax, 1537228672809129301		; 1555555555555555H
	cmp	QWORD PTR _Count$[rbp], rax
	jbe	SHORT $LN2@Get_size_o

; 27   : 		{	// multiply overflow, try allocating all of memory and assume the
; 28   : 			// allocation function will throw bad_alloc
; 29   : 		_Result = static_cast<size_t>(-1);

	mov	QWORD PTR _Result$[rbp], -1
$LN2@Get_size_o:

; 30   : 		}
; 31   : 
; 32   : 	return (_Result);

	mov	rax, QWORD PTR _Result$[rbp]

; 33   : 	}

	lea	rsp, QWORD PTR [rbp+80]
	pop	rbp
	ret	0
??$_Get_size_of_n@$0M@@std@@YA_K_K@Z ENDP		; std::_Get_size_of_n<12>
_TEXT	ENDS
; Function compile flags: /Odtp /RTCu /ZI
; File c:\program files (x86)\microsoft visual studio\2017\enterprise\vc\tools\msvc\14.15.26726\include\xmemory
;	COMDAT ??$_Uninitialized_move@PEAUBufferElement@buffers@core@@PEAU123@V?$allocator@UBufferElement@buffers@core@@@std@@@std@@YAPEAUBufferElement@buffers@core@@QEAU123@0PEAU123@AEAV?$allocator@UBufferElement@buffers@core@@@0@@Z
_TEXT	SEGMENT
_UFirst$ = 0
_ULast$ = 8
_UDest$ = 16
$T1 = 88
$T2 = 89
__$ArrayPad$ = 96
_First$ = 128
_Last$ = 136
_Dest$ = 144
_Al$ = 152
??$_Uninitialized_move@PEAUBufferElement@buffers@core@@PEAU123@V?$allocator@UBufferElement@buffers@core@@@std@@@std@@YAPEAUBufferElement@buffers@core@@QEAU123@0PEAU123@AEAV?$allocator@UBufferElement@buffers@core@@@0@@Z PROC ; std::_Uninitialized_move<core::buffers::BufferElement *,core::buffers::BufferElement *,std::allocator<core::buffers::BufferElement> >, COMDAT

; 251  : 	{	// move [_First, _Last) to raw _Dest, using _Al

$LN3:
	mov	QWORD PTR [rsp+32], r9
	mov	QWORD PTR [rsp+24], r8
	mov	QWORD PTR [rsp+16], rdx
	mov	QWORD PTR [rsp+8], rcx
	push	rbp
	sub	rsp, 160				; 000000a0H
	lea	rbp, QWORD PTR [rsp+48]
	mov	rax, QWORD PTR __security_cookie
	xor	rax, rbp
	mov	QWORD PTR __$ArrayPad$[rbp], rax
	lea	rcx, OFFSET FLAT:__AD6915D3_xmemory
	call	__CheckForDebuggerJustMyCode

; 252  : 		// note: only called internally from elsewhere in the STL
; 253  : 	const auto _UFirst = _Get_unwrapped(_First);

	mov	rcx, QWORD PTR _First$[rbp]
	call	??$_Get_unwrapped@UBufferElement@buffers@core@@@std@@YAPEAUBufferElement@buffers@core@@QEAU123@@Z ; std::_Get_unwrapped<core::buffers::BufferElement>
	mov	QWORD PTR _UFirst$[rbp], rax

; 254  : 	const auto _ULast = _Get_unwrapped(_Last);

	mov	rcx, QWORD PTR _Last$[rbp]
	call	??$_Get_unwrapped@UBufferElement@buffers@core@@@std@@YAPEAUBufferElement@buffers@core@@QEAU123@@Z ; std::_Get_unwrapped<core::buffers::BufferElement>
	mov	QWORD PTR _ULast$[rbp], rax

; 255  : 	const auto _UDest = _Get_unwrapped_n(_Dest, _Idl_distance<_InIt>(_UFirst, _ULast));

	lea	rdx, QWORD PTR _ULast$[rbp]
	lea	rcx, QWORD PTR _UFirst$[rbp]
	call	??$_Idl_distance@PEAUBufferElement@buffers@core@@PEAU123@@std@@YA@AEBQEAUBufferElement@buffers@core@@0@Z ; std::_Idl_distance<core::buffers::BufferElement *,core::buffers::BufferElement *>
	mov	rdx, rax
	mov	rcx, QWORD PTR _Dest$[rbp]
	call	??$_Get_unwrapped_n@UBufferElement@buffers@core@@_J$0A@@std@@YAPEAUBufferElement@buffers@core@@QEAU123@_J@Z ; std::_Get_unwrapped_n<core::buffers::BufferElement,__int64,0>
	mov	QWORD PTR _UDest$[rbp], rax

; 256  : 	_Seek_wrapped(_Dest,

	lea	r8, QWORD PTR _UDest$[rbp]
	lea	rdx, QWORD PTR _UFirst$[rbp]
	lea	rcx, QWORD PTR $T2[rbp]
	call	??$_Ptr_move_cat@UBufferElement@buffers@core@@U123@@std@@YA?AU_Really_trivial_ptr_iterator_tag@0@AEBQEAUBufferElement@buffers@core@@0@Z ; std::_Ptr_move_cat<core::buffers::BufferElement,core::buffers::BufferElement>
	movzx	ecx, BYTE PTR $T1[rbp]
	mov	BYTE PTR [rsp+40], cl
	movzx	eax, BYTE PTR [rax]
	mov	BYTE PTR [rsp+32], al
	mov	r9, QWORD PTR _Al$[rbp]
	mov	r8, QWORD PTR _UDest$[rbp]
	mov	rdx, QWORD PTR _ULast$[rbp]
	mov	rcx, QWORD PTR _UFirst$[rbp]
	call	??$_Uninitialized_move_al_unchecked@UBufferElement@buffers@core@@U123@V?$allocator@UBufferElement@buffers@core@@@std@@@std@@YAPEAUBufferElement@buffers@core@@QEAU123@00AEAV?$allocator@UBufferElement@buffers@core@@@0@U_Really_trivial_ptr_iterator_tag@0@U?$integral_constant@_N$00@0@@Z ; std::_Uninitialized_move_al_unchecked<core::buffers::BufferElement,core::buffers::BufferElement,std::allocator<core::buffers::BufferElement> >
	mov	rdx, rax
	lea	rcx, QWORD PTR _Dest$[rbp]
	call	??$_Seek_wrapped@UBufferElement@buffers@core@@@std@@YAXAEAPEAUBufferElement@buffers@core@@QEAU123@@Z ; std::_Seek_wrapped<core::buffers::BufferElement>

; 257  : 		_Uninitialized_move_al_unchecked(_UFirst, _ULast, _UDest, _Al,
; 258  : 			_Ptr_move_cat(_UFirst, _UDest),
; 259  : 			_Uses_default_construct_t<_Alloc, decltype(_Unfancy(_UDest)), decltype(_STD move(*_UFirst))>()));
; 260  : 	return (_Dest);

	mov	rax, QWORD PTR _Dest$[rbp]

; 261  : 	}

	mov	rcx, QWORD PTR __$ArrayPad$[rbp]
	xor	rcx, rbp
	call	__security_check_cookie
	lea	rsp, QWORD PTR [rbp+112]
	pop	rbp
	ret	0
??$_Uninitialized_move@PEAUBufferElement@buffers@core@@PEAU123@V?$allocator@UBufferElement@buffers@core@@@std@@@std@@YAPEAUBufferElement@buffers@core@@QEAU123@0PEAU123@AEAV?$allocator@UBufferElement@buffers@core@@@0@@Z ENDP ; std::_Uninitialized_move<core::buffers::BufferElement *,core::buffers::BufferElement *,std::allocator<core::buffers::BufferElement> >
_TEXT	ENDS
; Function compile flags: /Odtp /RTCu /ZI
; File c:\program files (x86)\microsoft visual studio\2017\enterprise\vc\tools\msvc\14.15.26726\include\xmemory0
;	COMDAT ??$_Destroy_range1@V?$allocator@UBufferElement@buffers@core@@@std@@@std@@YAXPEAUBufferElement@buffers@core@@0AEAV?$allocator@UBufferElement@buffers@core@@@0@U?$integral_constant@_N$00@0@@Z
_TEXT	SEGMENT
__formal$ = 80
__formal$ = 88
__formal$ = 96
__formal$ = 104
??$_Destroy_range1@V?$allocator@UBufferElement@buffers@core@@@std@@@std@@YAXPEAUBufferElement@buffers@core@@0AEAV?$allocator@UBufferElement@buffers@core@@@0@U?$integral_constant@_N$00@0@@Z PROC ; std::_Destroy_range1<std::allocator<core::buffers::BufferElement> >, COMDAT

; 1145 : 	{	// destroy [_First, _Last), trivially destructible and default destroy

$LN3:
	mov	BYTE PTR [rsp+32], r9b
	mov	QWORD PTR [rsp+24], r8
	mov	QWORD PTR [rsp+16], rdx
	mov	QWORD PTR [rsp+8], rcx
	push	rbp
	sub	rsp, 96					; 00000060H
	lea	rbp, QWORD PTR [rsp+32]
	lea	rcx, OFFSET FLAT:__39AEDAD7_xmemory0
	call	__CheckForDebuggerJustMyCode

; 1146 : 		// nothing to do
; 1147 : 	}

	lea	rsp, QWORD PTR [rbp+64]
	pop	rbp
	ret	0
??$_Destroy_range1@V?$allocator@UBufferElement@buffers@core@@@std@@@std@@YAXPEAUBufferElement@buffers@core@@0AEAV?$allocator@UBufferElement@buffers@core@@@0@U?$integral_constant@_N$00@0@@Z ENDP ; std::_Destroy_range1<std::allocator<core::buffers::BufferElement> >
_TEXT	ENDS
; Function compile flags: /Odtp /RTCu /ZI
; File c:\program files (x86)\microsoft visual studio\2017\enterprise\vc\tools\msvc\14.15.26726\include\type_traits
;	COMDAT ??$forward@U_Container_proxy@std@@@std@@YA$$QEAU_Container_proxy@0@AEAU10@@Z
_TEXT	SEGMENT
$T1 = 64
_Arg$ = 96
??$forward@U_Container_proxy@std@@@std@@YA$$QEAU_Container_proxy@0@AEAU10@@Z PROC ; std::forward<std::_Container_proxy>, COMDAT

; 1573 : 	{	// forward an lvalue as either an lvalue or an rvalue

$LN3:
	mov	QWORD PTR [rsp+8], rcx
	push	rbp
	sub	rsp, 112				; 00000070H
	lea	rbp, QWORD PTR [rsp+32]
	mov	QWORD PTR $T1[rbp], -2
	lea	rcx, OFFSET FLAT:__6C905C6A_type_traits
	call	__CheckForDebuggerJustMyCode
	npad	1

; 1574 : 	return (static_cast<_Ty&&>(_Arg));

	mov	rax, QWORD PTR _Arg$[rbp]

; 1575 : 	}

	lea	rsp, QWORD PTR [rbp+80]
	pop	rbp
	ret	0
??$forward@U_Container_proxy@std@@@std@@YA$$QEAU_Container_proxy@0@AEAU10@@Z ENDP ; std::forward<std::_Container_proxy>
_TEXT	ENDS
; Function compile flags: /Odtp /RTCu /ZI
; File c:\program files (x86)\microsoft visual studio\2017\enterprise\vc\tools\msvc\14.15.26726\include\xmemory0
;	COMDAT ??$_Allocate_manually_vector_aligned@U_Default_allocate_traits@std@@@std@@YAPEAX_K@Z
_TEXT	SEGMENT
_Block_size$ = 0
_Ptr_container$ = 8
_Ptr$ = 16
_Bytes$ = 112
??$_Allocate_manually_vector_aligned@U_Default_allocate_traits@std@@@std@@YAPEAX_K@Z PROC ; std::_Allocate_manually_vector_aligned<std::_Default_allocate_traits>, COMDAT

; 92   : 	{	// allocate _Bytes manually aligned to at least _Big_allocation_alignment

$LN13:
	mov	QWORD PTR [rsp+8], rcx
	push	rbp
	sub	rsp, 144				; 00000090H
	lea	rbp, QWORD PTR [rsp+48]
	lea	rcx, OFFSET FLAT:__39AEDAD7_xmemory0
	call	__CheckForDebuggerJustMyCode

; 93   : 	size_t _Block_size = _Non_user_size + _Bytes;

	mov	rax, QWORD PTR _Bytes$[rbp]
	add	rax, 47					; 0000002fH
	mov	QWORD PTR _Block_size$[rbp], rax

; 94   : 	if (_Block_size <= _Bytes)

	mov	rax, QWORD PTR _Bytes$[rbp]
	cmp	QWORD PTR _Block_size$[rbp], rax
	ja	SHORT $LN8@Allocate_m

; 95   : 		{	// add overflow, try allocating all of memory and assume the
; 96   : 			// allocation function will throw bad_alloc
; 97   : 		_Block_size = static_cast<size_t>(-1);

	mov	QWORD PTR _Block_size$[rbp], -1
$LN8@Allocate_m:

; 98   : 		}
; 99   : 
; 100  : 	const uintptr_t _Ptr_container = reinterpret_cast<uintptr_t>(_Traits::_Allocate(_Block_size));

	mov	rcx, QWORD PTR _Block_size$[rbp]
	call	?_Allocate@_Default_allocate_traits@std@@SAPEAX_K@Z ; std::_Default_allocate_traits::_Allocate
	mov	QWORD PTR _Ptr_container$[rbp], rax
$LN4@Allocate_m:

; 101  : 	_STL_VERIFY(_Ptr_container != 0, "invalid argument");	// validate even in release since we're doing p[-1]

	cmp	QWORD PTR _Ptr_container$[rbp], 0
	je	SHORT $LN9@Allocate_m
	jmp	SHORT $LN10@Allocate_m
$LN9@Allocate_m:
$LN7@Allocate_m:
	lea	rax, OFFSET FLAT:??_C@_0BB@FCMFBGOM@invalid?5argument@
	mov	QWORD PTR [rsp+40], rax
	lea	rax, OFFSET FLAT:??_C@_02DKCKIIND@?$CFs@
	mov	QWORD PTR [rsp+32], rax
	xor	r9d, r9d
	mov	r8d, 101				; 00000065H
	lea	rdx, OFFSET FLAT:??_C@_0GK@FKLKIKPD@c?3?2program?5files?5?$CIx86?$CJ?2microsof@
	mov	ecx, 2
	call	QWORD PTR __imp__CrtDbgReport
	cmp	eax, 1
	jne	SHORT $LN12@Allocate_m
	int	3
	xor	eax, eax
$LN12@Allocate_m:
	mov	QWORD PTR [rsp+32], 0
	mov	r9d, 101				; 00000065H
	lea	r8, OFFSET FLAT:??_C@_1NE@MCNNPIKO@?$AAc?$AA?3?$AA?2?$AAp?$AAr?$AAo?$AAg?$AAr?$AAa?$AAm?$AA?5?$AAf?$AAi?$AAl?$AAe@
	lea	rdx, OFFSET FLAT:??_C@_1EO@GFNCMDLA@?$AAs?$AAt?$AAd?$AA?3?$AA?3?$AA_?$AAA?$AAl?$AAl?$AAo?$AAc?$AAa?$AAt?$AAe?$AA_@
	lea	rcx, OFFSET FLAT:??_C@_1CG@JNLFBNGN@?$AA?$CC?$AAi?$AAn?$AAv?$AAa?$AAl?$AAi?$AAd?$AA?5?$AAa?$AAr?$AAg?$AAu?$AAm?$AAe@
	call	QWORD PTR __imp__invalid_parameter
	xor	eax, eax
	test	eax, eax
	jne	SHORT $LN7@Allocate_m
$LN10@Allocate_m:
	xor	eax, eax
	test	eax, eax
	jne	SHORT $LN4@Allocate_m

; 102  : 	void * const _Ptr = reinterpret_cast<void *>((_Ptr_container + _Non_user_size)
; 103  : 		& ~(_Big_allocation_alignment - 1));

	mov	rax, QWORD PTR _Ptr_container$[rbp]
	add	rax, 47					; 0000002fH
	and	rax, -32				; ffffffffffffffe0H
	mov	QWORD PTR _Ptr$[rbp], rax

; 104  : 	static_cast<uintptr_t *>(_Ptr)[-1] = _Ptr_container;

	mov	eax, 8
	imul	rax, rax, -1
	mov	rcx, QWORD PTR _Ptr$[rbp]
	mov	rdx, QWORD PTR _Ptr_container$[rbp]
	mov	QWORD PTR [rcx+rax], rdx

; 105  : 
; 106  :   #ifdef _DEBUG
; 107  : 	static_cast<uintptr_t *>(_Ptr)[-2] = _Big_allocation_sentinel;

	mov	eax, 8
	imul	rax, rax, -2
	mov	rcx, QWORD PTR _Ptr$[rbp]
	mov	rdx, -361700864190383366		; fafafafafafafafaH
	mov	QWORD PTR [rcx+rax], rdx

; 108  :   #endif /* _DEBUG */
; 109  : 	return (_Ptr);

	mov	rax, QWORD PTR _Ptr$[rbp]

; 110  : 	}

	lea	rsp, QWORD PTR [rbp+96]
	pop	rbp
	ret	0
??$_Allocate_manually_vector_aligned@U_Default_allocate_traits@std@@@std@@YAPEAX_K@Z ENDP ; std::_Allocate_manually_vector_aligned<std::_Default_allocate_traits>
_TEXT	ENDS
; Function compile flags: /Odtp /RTCu /ZI
; File c:\program files (x86)\microsoft visual studio\2017\enterprise\vc\tools\msvc\14.15.26726\include\type_traits
;	COMDAT ??$forward@AEBQEAD@std@@YAAEBQEADAEBQEAD@Z
_TEXT	SEGMENT
$T1 = 64
_Arg$ = 96
??$forward@AEBQEAD@std@@YAAEBQEADAEBQEAD@Z PROC		; std::forward<char * const &>, COMDAT

; 1573 : 	{	// forward an lvalue as either an lvalue or an rvalue

$LN3:
	mov	QWORD PTR [rsp+8], rcx
	push	rbp
	sub	rsp, 112				; 00000070H
	lea	rbp, QWORD PTR [rsp+32]
	mov	QWORD PTR $T1[rbp], -2
	lea	rcx, OFFSET FLAT:__6C905C6A_type_traits
	call	__CheckForDebuggerJustMyCode
	npad	1

; 1574 : 	return (static_cast<_Ty&&>(_Arg));

	mov	rax, QWORD PTR _Arg$[rbp]

; 1575 : 	}

	lea	rsp, QWORD PTR [rbp+80]
	pop	rbp
	ret	0
??$forward@AEBQEAD@std@@YAAEBQEADAEBQEAD@Z ENDP		; std::forward<char * const &>
_TEXT	ENDS
; Function compile flags: /Odtp /RTCu /ZI
; File c:\program files (x86)\microsoft visual studio\2017\enterprise\vc\tools\msvc\14.15.26726\include\xmemory0
;	COMDAT ??$_Get_size_of_n@$0BA@@std@@YA_K_K@Z
_TEXT	SEGMENT
_Max_possible$ = 0
_Result$ = 8
_Count$ = 96
??$_Get_size_of_n@$0BA@@std@@YA_K_K@Z PROC		; std::_Get_size_of_n<16>, COMDAT

; 23   : 	{	// gets the size of _Count copies of a type sized _Ty_size

$LN4:
	mov	QWORD PTR [rsp+8], rcx
	push	rbp
	sub	rsp, 112				; 00000070H
	lea	rbp, QWORD PTR [rsp+32]
	lea	rcx, OFFSET FLAT:__39AEDAD7_xmemory0
	call	__CheckForDebuggerJustMyCode

; 24   : 	constexpr size_t _Max_possible = static_cast<size_t>(-1) / _Ty_size;

	mov	rax, 1152921504606846975		; 0fffffffffffffffH
	mov	QWORD PTR _Max_possible$[rbp], rax

; 25   : 	size_t _Result = _Count * _Ty_size;

	imul	rax, QWORD PTR _Count$[rbp], 16
	mov	QWORD PTR _Result$[rbp], rax

; 26   : 	if (_Max_possible < _Count)

	mov	rax, 1152921504606846975		; 0fffffffffffffffH
	cmp	QWORD PTR _Count$[rbp], rax
	jbe	SHORT $LN2@Get_size_o

; 27   : 		{	// multiply overflow, try allocating all of memory and assume the
; 28   : 			// allocation function will throw bad_alloc
; 29   : 		_Result = static_cast<size_t>(-1);

	mov	QWORD PTR _Result$[rbp], -1
$LN2@Get_size_o:

; 30   : 		}
; 31   : 
; 32   : 	return (_Result);

	mov	rax, QWORD PTR _Result$[rbp]

; 33   : 	}

	lea	rsp, QWORD PTR [rbp+80]
	pop	rbp
	ret	0
??$_Get_size_of_n@$0BA@@std@@YA_K_K@Z ENDP		; std::_Get_size_of_n<16>
_TEXT	ENDS
; Function compile flags: /Odtp /RTCu /ZI
; File c:\program files (x86)\microsoft visual studio\2017\enterprise\vc\tools\msvc\14.15.26726\include\xmemory0
;	COMDAT ??$?0D@?$allocator@U_Container_proxy@std@@@std@@QEAA@AEBV?$allocator@D@1@@Z
_TEXT	SEGMENT
$T1 = 64
this$ = 96
__formal$ = 104
??$?0D@?$allocator@U_Container_proxy@std@@@std@@QEAA@AEBV?$allocator@D@1@@Z PROC ; std::allocator<std::_Container_proxy>::allocator<std::_Container_proxy><char>, COMDAT

; 986  : 		{	// construct from a related allocator (do nothing)

$LN3:
	mov	QWORD PTR [rsp+16], rdx
	mov	QWORD PTR [rsp+8], rcx
	push	rbp
	sub	rsp, 112				; 00000070H
	lea	rbp, QWORD PTR [rsp+32]
	mov	QWORD PTR $T1[rbp], -2
	lea	rcx, OFFSET FLAT:__39AEDAD7_xmemory0
	call	__CheckForDebuggerJustMyCode
	npad	1

; 987  : 		}

	mov	rax, QWORD PTR this$[rbp]
	lea	rsp, QWORD PTR [rbp+80]
	pop	rbp
	ret	0
??$?0D@?$allocator@U_Container_proxy@std@@@std@@QEAA@AEBV?$allocator@D@1@@Z ENDP ; std::allocator<std::_Container_proxy>::allocator<std::_Container_proxy><char>
_TEXT	ENDS
; Function compile flags: /Odtp /RTCu /ZI
; File c:\program files (x86)\microsoft visual studio\2017\enterprise\vc\tools\msvc\14.15.26726\include\xmemory0
;	COMDAT ??$_Destroy_range@V?$allocator@UBufferElement@buffers@core@@@std@@@std@@YAXPEAUBufferElement@buffers@core@@0AEAV?$allocator@UBufferElement@buffers@core@@@0@@Z
_TEXT	SEGMENT
$T1 = 64
_First$ = 112
_Last$ = 120
_Al$ = 128
??$_Destroy_range@V?$allocator@UBufferElement@buffers@core@@@std@@@std@@YAXPEAUBufferElement@buffers@core@@0AEAV?$allocator@UBufferElement@buffers@core@@@0@@Z PROC ; std::_Destroy_range<std::allocator<core::buffers::BufferElement> >, COMDAT

; 1154 : 	{	// destroy [_First, _Last), choose optimization

$LN3:
	mov	QWORD PTR [rsp+24], r8
	mov	QWORD PTR [rsp+16], rdx
	mov	QWORD PTR [rsp+8], rcx
	push	rbp
	push	rdi
	sub	rsp, 120				; 00000078H
	lea	rbp, QWORD PTR [rsp+32]
	lea	rcx, OFFSET FLAT:__39AEDAD7_xmemory0
	call	__CheckForDebuggerJustMyCode

; 1155 : 		// note that this is an optimization for debug mode codegen;
; 1156 : 		// in release mode the BE removes all of this
; 1157 : 	using _Val = typename _Alloc::value_type;
; 1158 : 	_Destroy_range1(_First, _Last, _Al, bool_constant<conjunction_v<

	lea	rax, QWORD PTR $T1[rbp]
	mov	rdi, rax
	xor	eax, eax
	mov	ecx, 1
	rep stosb
	movzx	r9d, BYTE PTR $T1[rbp]
	mov	r8, QWORD PTR _Al$[rbp]
	mov	rdx, QWORD PTR _Last$[rbp]
	mov	rcx, QWORD PTR _First$[rbp]
	call	??$_Destroy_range1@V?$allocator@UBufferElement@buffers@core@@@std@@@std@@YAXPEAUBufferElement@buffers@core@@0AEAV?$allocator@UBufferElement@buffers@core@@@0@U?$integral_constant@_N$00@0@@Z ; std::_Destroy_range1<std::allocator<core::buffers::BufferElement> >

; 1159 : 		is_trivially_destructible<_Val>,
; 1160 : 		_Uses_default_destroy<_Alloc, _Val *>>>{});
; 1161 : 	}

	lea	rsp, QWORD PTR [rbp+88]
	pop	rdi
	pop	rbp
	ret	0
??$_Destroy_range@V?$allocator@UBufferElement@buffers@core@@@std@@@std@@YAXPEAUBufferElement@buffers@core@@0AEAV?$allocator@UBufferElement@buffers@core@@@0@@Z ENDP ; std::_Destroy_range<std::allocator<core::buffers::BufferElement> >
_TEXT	ENDS
; Function compile flags: /Odtp /RTCu /ZI
; File c:\program files (x86)\microsoft visual studio\2017\enterprise\vc\tools\msvc\14.15.26726\include\xstddef
;	COMDAT ??$addressof@V?$_Vector_val@U?$_Simple_types@UBufferElement@buffers@core@@@std@@@std@@@std@@YAPEAV?$_Vector_val@U?$_Simple_types@UBufferElement@buffers@core@@@std@@@0@AEAV10@@Z
_TEXT	SEGMENT
$T1 = 64
_Val$ = 96
??$addressof@V?$_Vector_val@U?$_Simple_types@UBufferElement@buffers@core@@@std@@@std@@@std@@YAPEAV?$_Vector_val@U?$_Simple_types@UBufferElement@buffers@core@@@std@@@0@AEAV10@@Z PROC ; std::addressof<std::_Vector_val<std::_Simple_types<core::buffers::BufferElement> > >, COMDAT

; 329  : 	{	// return address of _Val

$LN3:
	mov	QWORD PTR [rsp+8], rcx
	push	rbp
	sub	rsp, 112				; 00000070H
	lea	rbp, QWORD PTR [rsp+32]
	mov	QWORD PTR $T1[rbp], -2
	lea	rcx, OFFSET FLAT:__30E3E102_xstddef
	call	__CheckForDebuggerJustMyCode
	npad	1

; 330  : 	return (__builtin_addressof(_Val));

	mov	rax, QWORD PTR _Val$[rbp]

; 331  : 	}

	lea	rsp, QWORD PTR [rbp+80]
	pop	rbp
	ret	0
??$addressof@V?$_Vector_val@U?$_Simple_types@UBufferElement@buffers@core@@@std@@@std@@@std@@YAPEAV?$_Vector_val@U?$_Simple_types@UBufferElement@buffers@core@@@std@@@0@AEAV10@@Z ENDP ; std::addressof<std::_Vector_val<std::_Simple_types<core::buffers::BufferElement> > >
_TEXT	ENDS
; Function compile flags: /Odtp /RTCu /ZI
; File c:\program files (x86)\microsoft visual studio\2017\enterprise\vc\tools\msvc\14.15.26726\include\xmemory0
;	COMDAT ??$?0UBufferElement@buffers@core@@@?$allocator@U_Container_proxy@std@@@std@@QEAA@AEBV?$allocator@UBufferElement@buffers@core@@@1@@Z
_TEXT	SEGMENT
$T1 = 64
this$ = 96
__formal$ = 104
??$?0UBufferElement@buffers@core@@@?$allocator@U_Container_proxy@std@@@std@@QEAA@AEBV?$allocator@UBufferElement@buffers@core@@@1@@Z PROC ; std::allocator<std::_Container_proxy>::allocator<std::_Container_proxy><core::buffers::BufferElement>, COMDAT

; 986  : 		{	// construct from a related allocator (do nothing)

$LN3:
	mov	QWORD PTR [rsp+16], rdx
	mov	QWORD PTR [rsp+8], rcx
	push	rbp
	sub	rsp, 112				; 00000070H
	lea	rbp, QWORD PTR [rsp+32]
	mov	QWORD PTR $T1[rbp], -2
	lea	rcx, OFFSET FLAT:__39AEDAD7_xmemory0
	call	__CheckForDebuggerJustMyCode
	npad	1

; 987  : 		}

	mov	rax, QWORD PTR this$[rbp]
	lea	rsp, QWORD PTR [rbp+80]
	pop	rbp
	ret	0
??$?0UBufferElement@buffers@core@@@?$allocator@U_Container_proxy@std@@@std@@QEAA@AEBV?$allocator@UBufferElement@buffers@core@@@1@@Z ENDP ; std::allocator<std::_Container_proxy>::allocator<std::_Container_proxy><core::buffers::BufferElement>
_TEXT	ENDS
; Function compile flags: /Odtp /RTCu /ZI
; File c:\program files (x86)\microsoft visual studio\2017\enterprise\vc\tools\msvc\14.15.26726\include\xmemory0
;	COMDAT ??$construct@U_Container_proxy@std@@U12@@?$_Default_allocator_traits@V?$allocator@U_Container_proxy@std@@@std@@@std@@SAXAEAV?$allocator@U_Container_proxy@std@@@1@QEAU_Container_proxy@1@$$QEAU31@@Z
_TEXT	SEGMENT
$T1 = 64
__formal$ = 112
_Ptr$ = 120
<_Args_0>$ = 128
??$construct@U_Container_proxy@std@@U12@@?$_Default_allocator_traits@V?$allocator@U_Container_proxy@std@@@std@@@std@@SAXAEAV?$allocator@U_Container_proxy@std@@@1@QEAU_Container_proxy@1@$$QEAU31@@Z PROC ; std::_Default_allocator_traits<std::allocator<std::_Container_proxy> >::construct<std::_Container_proxy,std::_Container_proxy>, COMDAT

; 879  : 		{	// construct _Objty(_Types...) at _Ptr

$LN3:
	mov	QWORD PTR [rsp+24], r8
	mov	QWORD PTR [rsp+16], rdx
	mov	QWORD PTR [rsp+8], rcx
	push	rbp
	push	rsi
	push	rdi
	sub	rsp, 112				; 00000070H
	lea	rbp, QWORD PTR [rsp+32]
	lea	rcx, OFFSET FLAT:__39AEDAD7_xmemory0
	call	__CheckForDebuggerJustMyCode
	mov	rdx, QWORD PTR _Ptr$[rbp]
	mov	ecx, 16
	call	??2@YAPEAX_KPEAX@Z			; operator new
	mov	QWORD PTR $T1[rbp], rax
	mov	rcx, QWORD PTR <_Args_0>$[rbp]
	call	??$forward@U_Container_proxy@std@@@std@@YA$$QEAU_Container_proxy@0@AEAU10@@Z ; std::forward<std::_Container_proxy>
	mov	rdi, QWORD PTR $T1[rbp]
	mov	rsi, rax
	mov	ecx, 16
	rep movsb

; 880  : 		::new (const_cast<void *>(static_cast<const volatile void *>(_Ptr)))
; 881  : 			_Objty(_STD forward<_Types>(_Args)...);
; 882  : 		}

	lea	rsp, QWORD PTR [rbp+80]
	pop	rdi
	pop	rsi
	pop	rbp
	ret	0
??$construct@U_Container_proxy@std@@U12@@?$_Default_allocator_traits@V?$allocator@U_Container_proxy@std@@@std@@@std@@SAXAEAV?$allocator@U_Container_proxy@std@@@1@QEAU_Container_proxy@1@$$QEAU31@@Z ENDP ; std::_Default_allocator_traits<std::allocator<std::_Container_proxy> >::construct<std::_Container_proxy,std::_Container_proxy>
_TEXT	ENDS
; Function compile flags: /Odtp /RTCu /ZI
; File c:\program files (x86)\microsoft visual studio\2017\enterprise\vc\tools\msvc\14.15.26726\include\xstddef
;	COMDAT ??$_Unfancy@U_Container_proxy@std@@@std@@YAPEAU_Container_proxy@0@PEAU10@@Z
_TEXT	SEGMENT
_Ptr$ = 80
??$_Unfancy@U_Container_proxy@std@@@std@@YAPEAU_Container_proxy@0@PEAU10@@Z PROC ; std::_Unfancy<std::_Container_proxy>, COMDAT

; 345  : 	{	// do nothing for plain pointers

$LN3:
	mov	QWORD PTR [rsp+8], rcx
	push	rbp
	sub	rsp, 96					; 00000060H
	lea	rbp, QWORD PTR [rsp+32]
	lea	rcx, OFFSET FLAT:__30E3E102_xstddef
	call	__CheckForDebuggerJustMyCode

; 346  : 	return (_Ptr);

	mov	rax, QWORD PTR _Ptr$[rbp]

; 347  : 	}

	lea	rsp, QWORD PTR [rbp+64]
	pop	rbp
	ret	0
??$_Unfancy@U_Container_proxy@std@@@std@@YAPEAU_Container_proxy@0@PEAU10@@Z ENDP ; std::_Unfancy<std::_Container_proxy>
_TEXT	ENDS
; Function compile flags: /Odtp /RTCu /ZI
; File c:\program files (x86)\microsoft visual studio\2017\enterprise\vc\tools\msvc\14.15.26726\include\xmemory0
;	COMDAT ??$_Deallocate_plain@V?$allocator@U_Container_proxy@std@@@std@@$0A@@std@@YAXAEAV?$allocator@U_Container_proxy@std@@@0@QEAU_Container_proxy@0@@Z
_TEXT	SEGMENT
_Al$ = 80
_Ptr$ = 88
??$_Deallocate_plain@V?$allocator@U_Container_proxy@std@@@std@@$0A@@std@@YAXAEAV?$allocator@U_Container_proxy@std@@@0@QEAU_Container_proxy@0@@Z PROC ; std::_Deallocate_plain<std::allocator<std::_Container_proxy>,0>, COMDAT

; 1212 : 	{	// deallocate a plain pointer using an allocator, non-fancy pointers special case

$LN3:
	mov	QWORD PTR [rsp+16], rdx
	mov	QWORD PTR [rsp+8], rcx
	push	rbp
	sub	rsp, 96					; 00000060H
	lea	rbp, QWORD PTR [rsp+32]
	lea	rcx, OFFSET FLAT:__39AEDAD7_xmemory0
	call	__CheckForDebuggerJustMyCode

; 1213 : 	allocator_traits<_Alloc>::deallocate(_Al, _Ptr, 1);

	mov	r8d, 1
	mov	rdx, QWORD PTR _Ptr$[rbp]
	mov	rcx, QWORD PTR _Al$[rbp]
	call	?deallocate@?$_Default_allocator_traits@V?$allocator@U_Container_proxy@std@@@std@@@std@@SAXAEAV?$allocator@U_Container_proxy@std@@@2@QEAU_Container_proxy@2@_K@Z ; std::_Default_allocator_traits<std::allocator<std::_Container_proxy> >::deallocate

; 1214 : 	}

	lea	rsp, QWORD PTR [rbp+64]
	pop	rbp
	ret	0
??$_Deallocate_plain@V?$allocator@U_Container_proxy@std@@@std@@$0A@@std@@YAXAEAV?$allocator@U_Container_proxy@std@@@0@QEAU_Container_proxy@0@@Z ENDP ; std::_Deallocate_plain<std::allocator<std::_Container_proxy>,0>
_TEXT	ENDS
; Function compile flags: /Odtp /RTCu /ZI
; File c:\program files (x86)\microsoft visual studio\2017\enterprise\vc\tools\msvc\14.15.26726\include\xmemory0
;	COMDAT ??$destroy@U_Container_proxy@std@@@?$_Default_allocator_traits@V?$allocator@U_Container_proxy@std@@@std@@@std@@SAXAEAV?$allocator@U_Container_proxy@std@@@1@QEAU_Container_proxy@1@@Z
_TEXT	SEGMENT
__formal$ = 80
_Ptr$ = 88
??$destroy@U_Container_proxy@std@@@?$_Default_allocator_traits@V?$allocator@U_Container_proxy@std@@@std@@@std@@SAXAEAV?$allocator@U_Container_proxy@std@@@1@QEAU_Container_proxy@1@@Z PROC ; std::_Default_allocator_traits<std::allocator<std::_Container_proxy> >::destroy<std::_Container_proxy>, COMDAT

; 886  : 		{	// destroy object at _Ptr

$LN3:
	mov	QWORD PTR [rsp+16], rdx
	mov	QWORD PTR [rsp+8], rcx
	push	rbp
	sub	rsp, 96					; 00000060H
	lea	rbp, QWORD PTR [rsp+32]
	lea	rcx, OFFSET FLAT:__39AEDAD7_xmemory0
	call	__CheckForDebuggerJustMyCode

; 887  : 		_Ptr->~_Uty();
; 888  : 		}

	lea	rsp, QWORD PTR [rbp+64]
	pop	rbp
	ret	0
??$destroy@U_Container_proxy@std@@@?$_Default_allocator_traits@V?$allocator@U_Container_proxy@std@@@std@@@std@@SAXAEAV?$allocator@U_Container_proxy@std@@@1@QEAU_Container_proxy@1@@Z ENDP ; std::_Default_allocator_traits<std::allocator<std::_Container_proxy> >::destroy<std::_Container_proxy>
_TEXT	ENDS
; Function compile flags: /Odtp /RTCu /ZI
; File c:\program files (x86)\microsoft visual studio\2017\enterprise\vc\tools\msvc\14.15.26726\include\xmemory0
;	COMDAT ?deallocate@?$_Default_allocator_traits@V?$allocator@U_Container_proxy@std@@@std@@@std@@SAXAEAV?$allocator@U_Container_proxy@std@@@2@QEAU_Container_proxy@2@_K@Z
_TEXT	SEGMENT
__formal$ = 80
_Ptr$ = 88
_Count$ = 96
?deallocate@?$_Default_allocator_traits@V?$allocator@U_Container_proxy@std@@@std@@@std@@SAXAEAV?$allocator@U_Container_proxy@std@@@2@QEAU_Container_proxy@2@_K@Z PROC ; std::_Default_allocator_traits<std::allocator<std::_Container_proxy> >::deallocate, COMDAT

; 871  : 		{	// deallocate _Count elements at _Ptr

$LN3:
	mov	QWORD PTR [rsp+24], r8
	mov	QWORD PTR [rsp+16], rdx
	mov	QWORD PTR [rsp+8], rcx
	push	rbp
	sub	rsp, 96					; 00000060H
	lea	rbp, QWORD PTR [rsp+32]
	lea	rcx, OFFSET FLAT:__39AEDAD7_xmemory0
	call	__CheckForDebuggerJustMyCode

; 872  : 		// no overflow check on the following multiply; we assume _Allocate did that check
; 873  : 		_Deallocate<_New_alignof<value_type>>(_Ptr, sizeof(value_type) * _Count);

	imul	rax, QWORD PTR _Count$[rbp], 16
	mov	rdx, rax
	mov	rcx, QWORD PTR _Ptr$[rbp]
	call	??$_Deallocate@$0BA@$0A@@std@@YAXPEAX_K@Z ; std::_Deallocate<16,0>

; 874  : 		}

	lea	rsp, QWORD PTR [rbp+64]
	pop	rbp
	ret	0
?deallocate@?$_Default_allocator_traits@V?$allocator@U_Container_proxy@std@@@std@@@std@@SAXAEAV?$allocator@U_Container_proxy@std@@@2@QEAU_Container_proxy@2@_K@Z ENDP ; std::_Default_allocator_traits<std::allocator<std::_Container_proxy> >::deallocate
_TEXT	ENDS
; Function compile flags: /Odtp /RTCu /ZI
; File c:\program files (x86)\microsoft visual studio\2017\enterprise\vc\tools\msvc\14.15.26726\include\xmemory0
;	COMDAT ?allocate@?$allocator@U_Container_proxy@std@@@std@@QEAAPEAU_Container_proxy@2@_K@Z
_TEXT	SEGMENT
this$ = 80
_Count$ = 88
?allocate@?$allocator@U_Container_proxy@std@@@std@@QEAAPEAU_Container_proxy@2@_K@Z PROC ; std::allocator<std::_Container_proxy>::allocate, COMDAT

; 996  : 		{	// allocate array of _Count elements

$LN3:
	mov	QWORD PTR [rsp+16], rdx
	mov	QWORD PTR [rsp+8], rcx
	push	rbp
	sub	rsp, 96					; 00000060H
	lea	rbp, QWORD PTR [rsp+32]
	lea	rcx, OFFSET FLAT:__39AEDAD7_xmemory0
	call	__CheckForDebuggerJustMyCode

; 997  : 		return (static_cast<_Ty *>(_Allocate<_New_alignof<_Ty>>(_Get_size_of_n<sizeof(_Ty)>(_Count))));

	mov	rcx, QWORD PTR _Count$[rbp]
	call	??$_Get_size_of_n@$0BA@@std@@YA_K_K@Z	; std::_Get_size_of_n<16>
	mov	rcx, rax
	call	??$_Allocate@$0BA@U_Default_allocate_traits@std@@$0A@@std@@YAPEAX_K@Z ; std::_Allocate<16,std::_Default_allocate_traits,0>

; 998  : 		}

	lea	rsp, QWORD PTR [rbp+64]
	pop	rbp
	ret	0
?allocate@?$allocator@U_Container_proxy@std@@@std@@QEAAPEAU_Container_proxy@2@_K@Z ENDP ; std::allocator<std::_Container_proxy>::allocate
_TEXT	ENDS
; Function compile flags: /Odtp /RTCu /ZI
; File c:\program files (x86)\microsoft visual studio\2017\enterprise\vc\tools\msvc\14.15.26726\include\xmemory0
;	COMDAT ??$_Deallocate@$0BA@$0A@@std@@YAXPEAX_K@Z
_TEXT	SEGMENT
_Ptr$ = 80
_Bytes$ = 88
??$_Deallocate@$0BA@$0A@@std@@YAXPEAX_K@Z PROC		; std::_Deallocate<16,0>, COMDAT

; 199  : 	{	// deallocate storage allocated by _Allocate when !_HAS_ALIGNED_NEW || _Align <= __STDCPP_DEFAULT_NEW_ALIGNMENT__

$LN4:
	mov	QWORD PTR [rsp+16], rdx
	mov	QWORD PTR [rsp+8], rcx
	push	rbp
	sub	rsp, 96					; 00000060H
	lea	rbp, QWORD PTR [rsp+32]
	lea	rcx, OFFSET FLAT:__39AEDAD7_xmemory0
	call	__CheckForDebuggerJustMyCode

; 200  :  #if defined(_M_IX86) || defined(_M_X64)
; 201  : 	if (_Bytes >= _Big_allocation_threshold)

	cmp	QWORD PTR _Bytes$[rbp], 4096		; 00001000H
	jb	SHORT $LN2@Deallocate

; 202  : 		{	// boost the alignment of big allocations to help autovectorization
; 203  : 		_Adjust_manually_vector_aligned(_Ptr, _Bytes);

	lea	rdx, QWORD PTR _Bytes$[rbp]
	lea	rcx, QWORD PTR _Ptr$[rbp]
	call	?_Adjust_manually_vector_aligned@std@@YAXAEAPEAXAEA_K@Z ; std::_Adjust_manually_vector_aligned
$LN2@Deallocate:

; 204  : 		}
; 205  :  #endif /* defined(_M_IX86) || defined(_M_X64) */
; 206  : 
; 207  : 	::operator delete(_Ptr, _Bytes);

	mov	rdx, QWORD PTR _Bytes$[rbp]
	mov	rcx, QWORD PTR _Ptr$[rbp]
	call	??3@YAXPEAX_K@Z				; operator delete

; 208  : 	}

	lea	rsp, QWORD PTR [rbp+64]
	pop	rbp
	ret	0
??$_Deallocate@$0BA@$0A@@std@@YAXPEAX_K@Z ENDP		; std::_Deallocate<16,0>
_TEXT	ENDS
; Function compile flags: /Odtp /RTCu /ZI
; File c:\program files (x86)\microsoft visual studio\2017\enterprise\vc\tools\msvc\14.15.26726\include\xmemory0
;	COMDAT ??$_Allocate@$0BA@U_Default_allocate_traits@std@@$0A@@std@@YAPEAX_K@Z
_TEXT	SEGMENT
_Bytes$ = 80
??$_Allocate@$0BA@U_Default_allocate_traits@std@@$0A@@std@@YAPEAX_K@Z PROC ; std::_Allocate<16,std::_Default_allocate_traits,0>, COMDAT

; 180  : 	{	// allocate _Bytes when !_HAS_ALIGNED_NEW || _Align <= __STDCPP_DEFAULT_NEW_ALIGNMENT__

$LN5:
	mov	QWORD PTR [rsp+8], rcx
	push	rbp
	sub	rsp, 96					; 00000060H
	lea	rbp, QWORD PTR [rsp+32]
	lea	rcx, OFFSET FLAT:__39AEDAD7_xmemory0
	call	__CheckForDebuggerJustMyCode

; 181  :  #if defined(_M_IX86) || defined(_M_X64)
; 182  : 	if (_Bytes >= _Big_allocation_threshold)

	cmp	QWORD PTR _Bytes$[rbp], 4096		; 00001000H
	jb	SHORT $LN2@Allocate

; 183  : 		{	// boost the alignment of big allocations to help autovectorization
; 184  : 		return (_Allocate_manually_vector_aligned<_Traits>(_Bytes));

	mov	rcx, QWORD PTR _Bytes$[rbp]
	call	??$_Allocate_manually_vector_aligned@U_Default_allocate_traits@std@@@std@@YAPEAX_K@Z ; std::_Allocate_manually_vector_aligned<std::_Default_allocate_traits>
	jmp	SHORT $LN1@Allocate
$LN2@Allocate:

; 185  : 		}
; 186  :  #endif /* defined(_M_IX86) || defined(_M_X64) */
; 187  : 
; 188  : 	if (_Bytes != 0)

	cmp	QWORD PTR _Bytes$[rbp], 0
	je	SHORT $LN3@Allocate

; 189  : 		{
; 190  : 		return (_Traits::_Allocate(_Bytes));

	mov	rcx, QWORD PTR _Bytes$[rbp]
	call	?_Allocate@_Default_allocate_traits@std@@SAPEAX_K@Z ; std::_Default_allocate_traits::_Allocate
	jmp	SHORT $LN1@Allocate
$LN3@Allocate:

; 191  : 		}
; 192  : 
; 193  : 	return (nullptr);

	xor	eax, eax
$LN1@Allocate:

; 194  : 	}

	lea	rsp, QWORD PTR [rbp+64]
	pop	rbp
	ret	0
??$_Allocate@$0BA@U_Default_allocate_traits@std@@$0A@@std@@YAPEAX_K@Z ENDP ; std::_Allocate<16,std::_Default_allocate_traits,0>
_TEXT	ENDS
; Function compile flags: /Odtp /RTCu /ZI
; File c:\program files (x86)\microsoft visual studio\2017\enterprise\vc\tools\msvc\14.15.26726\include\xstddef
;	COMDAT ??$addressof@V?$_String_val@U?$_Simple_types@D@std@@@std@@@std@@YAPEAV?$_String_val@U?$_Simple_types@D@std@@@0@AEAV10@@Z
_TEXT	SEGMENT
$T1 = 64
_Val$ = 96
??$addressof@V?$_String_val@U?$_Simple_types@D@std@@@std@@@std@@YAPEAV?$_String_val@U?$_Simple_types@D@std@@@0@AEAV10@@Z PROC ; std::addressof<std::_String_val<std::_Simple_types<char> > >, COMDAT

; 329  : 	{	// return address of _Val

$LN3:
	mov	QWORD PTR [rsp+8], rcx
	push	rbp
	sub	rsp, 112				; 00000070H
	lea	rbp, QWORD PTR [rsp+32]
	mov	QWORD PTR $T1[rbp], -2
	lea	rcx, OFFSET FLAT:__30E3E102_xstddef
	call	__CheckForDebuggerJustMyCode
	npad	1

; 330  : 	return (__builtin_addressof(_Val));

	mov	rax, QWORD PTR _Val$[rbp]

; 331  : 	}

	lea	rsp, QWORD PTR [rbp+80]
	pop	rbp
	ret	0
??$addressof@V?$_String_val@U?$_Simple_types@D@std@@@std@@@std@@YAPEAV?$_String_val@U?$_Simple_types@D@std@@@0@AEAV10@@Z ENDP ; std::addressof<std::_String_val<std::_Simple_types<char> > >
_TEXT	ENDS
